ARM GAS  C:\Users\Brandon\AppData\Local\Temp\ccAMob4j.s 			page 1


   1              		.cpu cortex-m7
   2              		.eabi_attribute 28, 1
   3              		.eabi_attribute 20, 1
   4              		.eabi_attribute 21, 1
   5              		.eabi_attribute 23, 3
   6              		.eabi_attribute 24, 1
   7              		.eabi_attribute 25, 1
   8              		.eabi_attribute 26, 1
   9              		.eabi_attribute 30, 2
  10              		.eabi_attribute 34, 1
  11              		.eabi_attribute 18, 4
  12              		.file	"core_portme.c"
  13              		.text
  14              		.section	.text.barebones_clock,"ax",%progbits
  15              		.align	1
  16              		.p2align 2,,3
  17              		.global	barebones_clock
  18              		.arch armv7e-m
  19              		.syntax unified
  20              		.thumb
  21              		.thumb_func
  22              		.fpu fpv5-d16
  24              	barebones_clock:
  25              		@ args = 0, pretend = 0, frame = 0
  26              		@ frame_needed = 0, uses_anonymous_args = 0
  27              		@ link register save eliminated.
  28 0000 FFF7FEBF 		b	HAL_GetTick
  30              		.section	.text.start_time,"ax",%progbits
  31              		.align	1
  32              		.p2align 2,,3
  33              		.global	start_time
  34              		.syntax unified
  35              		.thumb
  36              		.thumb_func
  37              		.fpu fpv5-d16
  39              	start_time:
  40              		@ args = 0, pretend = 0, frame = 0
  41              		@ frame_needed = 0, uses_anonymous_args = 0
  42 0000 08B5     		push	{r3, lr}
  43 0002 FFF7FEFF 		bl	HAL_GetTick
  44 0006 014B     		ldr	r3, .L5
  45 0008 1860     		str	r0, [r3]
  46 000a 08BD     		pop	{r3, pc}
  47              	.L6:
  48              		.align	2
  49              	.L5:
  50 000c 00000000 		.word	.LANCHOR0
  52              		.section	.text.stop_time,"ax",%progbits
  53              		.align	1
  54              		.p2align 2,,3
  55              		.global	stop_time
  56              		.syntax unified
  57              		.thumb
  58              		.thumb_func
  59              		.fpu fpv5-d16
  61              	stop_time:
  62              		@ args = 0, pretend = 0, frame = 0
ARM GAS  C:\Users\Brandon\AppData\Local\Temp\ccAMob4j.s 			page 2


  63              		@ frame_needed = 0, uses_anonymous_args = 0
  64 0000 08B5     		push	{r3, lr}
  65 0002 FFF7FEFF 		bl	HAL_GetTick
  66 0006 014B     		ldr	r3, .L9
  67 0008 1860     		str	r0, [r3]
  68 000a 08BD     		pop	{r3, pc}
  69              	.L10:
  70              		.align	2
  71              	.L9:
  72 000c 00000000 		.word	.LANCHOR1
  74              		.section	.text.get_time,"ax",%progbits
  75              		.align	1
  76              		.p2align 2,,3
  77              		.global	get_time
  78              		.syntax unified
  79              		.thumb
  80              		.thumb_func
  81              		.fpu fpv5-d16
  83              	get_time:
  84              		@ args = 0, pretend = 0, frame = 0
  85              		@ frame_needed = 0, uses_anonymous_args = 0
  86              		@ link register save eliminated.
  87 0000 024A     		ldr	r2, .L12
  88 0002 034B     		ldr	r3, .L12+4
  89 0004 1068     		ldr	r0, [r2]
  90 0006 1B68     		ldr	r3, [r3]
  91 0008 C01A     		subs	r0, r0, r3
  92 000a 7047     		bx	lr
  93              	.L13:
  94              		.align	2
  95              	.L12:
  96 000c 00000000 		.word	.LANCHOR1
  97 0010 00000000 		.word	.LANCHOR0
  99              		.section	.text.time_in_secs,"ax",%progbits
 100              		.align	1
 101              		.p2align 2,,3
 102              		.global	time_in_secs
 103              		.syntax unified
 104              		.thumb
 105              		.thumb_func
 106              		.fpu fpv5-d16
 108              	time_in_secs:
 109              		@ args = 0, pretend = 0, frame = 0
 110              		@ frame_needed = 0, uses_anonymous_args = 0
 111              		@ link register save eliminated.
 112 0000 06EE900A 		vmov	s13, r0	@ int
 113 0004 9FED047B 		vldr.64	d7, .L15
 114 0008 B8EE660B 		vcvt.f64.u32	d0, s13
 115 000c 80EE070B 		vdiv.f64	d0, d0, d7
 116 0010 7047     		bx	lr
 117              	.L16:
 118 0012 00BFAFF3 		.align	3
 118      0080
 119              	.L15:
 120 0018 00000000 		.word	0
 121 001c 00408F40 		.word	1083129856
 123              		.section	.text.portable_init,"ax",%progbits
ARM GAS  C:\Users\Brandon\AppData\Local\Temp\ccAMob4j.s 			page 3


 124              		.align	1
 125              		.p2align 2,,3
 126              		.global	portable_init
 127              		.syntax unified
 128              		.thumb
 129              		.thumb_func
 130              		.fpu fpv5-d16
 132              	portable_init:
 133              		@ args = 0, pretend = 0, frame = 0
 134              		@ frame_needed = 0, uses_anonymous_args = 0
 135              		@ link register save eliminated.
 136 0000 0123     		movs	r3, #1
 137 0002 0370     		strb	r3, [r0]
 138 0004 7047     		bx	lr
 140 0006 00BF     		.section	.text.portable_fini,"ax",%progbits
 141              		.align	1
 142              		.p2align 2,,3
 143              		.global	portable_fini
 144              		.syntax unified
 145              		.thumb
 146              		.thumb_func
 147              		.fpu fpv5-d16
 149              	portable_fini:
 150              		@ args = 0, pretend = 0, frame = 0
 151              		@ frame_needed = 0, uses_anonymous_args = 0
 152              		@ link register save eliminated.
 153 0000 0023     		movs	r3, #0
 154 0002 0370     		strb	r3, [r0]
 155 0004 7047     		bx	lr
 157              		.global	default_num_contexts
 158              		.global	seed5_volatile
 159              		.global	seed4_volatile
 160              		.global	seed3_volatile
 161              		.global	seed2_volatile
 162              		.global	seed1_volatile
 163 0006 00BF     		.section	.bss.seed1_volatile,"aw",%nobits
 164              		.align	2
 167              	seed1_volatile:
 168 0000 00000000 		.space	4
 169              		.section	.bss.seed2_volatile,"aw",%nobits
 170              		.align	2
 173              	seed2_volatile:
 174 0000 00000000 		.space	4
 175              		.section	.bss.seed5_volatile,"aw",%nobits
 176              		.align	2
 179              	seed5_volatile:
 180 0000 00000000 		.space	4
 181              		.section	.bss.start_time_val,"aw",%nobits
 182              		.align	2
 183              		.set	.LANCHOR0,. + 0
 186              	start_time_val:
 187 0000 00000000 		.space	4
 188              		.section	.bss.stop_time_val,"aw",%nobits
 189              		.align	2
 190              		.set	.LANCHOR1,. + 0
 193              	stop_time_val:
 194 0000 00000000 		.space	4
ARM GAS  C:\Users\Brandon\AppData\Local\Temp\ccAMob4j.s 			page 4


 195              		.section	.data.default_num_contexts,"aw"
 196              		.align	2
 199              	default_num_contexts:
 200 0000 01000000 		.word	1
 201              		.section	.data.seed3_volatile,"aw"
 202              		.align	2
 205              	seed3_volatile:
 206 0000 66000000 		.word	102
 207              		.section	.data.seed4_volatile,"aw"
 208              		.align	2
 211              	seed4_volatile:
 212 0000 A8610000 		.word	25000
 213              		.ident	"GCC: (GNU Arm Embedded Toolchain 9-2020-q2-update) 9.3.1 20200408 (release)"
ARM GAS  C:\Users\Brandon\AppData\Local\Temp\ccAMob4j.s 			page 5


DEFINED SYMBOLS
                            *ABS*:00000000 core_portme.c
C:\Users\Brandon\AppData\Local\Temp\ccAMob4j.s:15     .text.barebones_clock:00000000 $t
C:\Users\Brandon\AppData\Local\Temp\ccAMob4j.s:24     .text.barebones_clock:00000000 barebones_clock
C:\Users\Brandon\AppData\Local\Temp\ccAMob4j.s:31     .text.start_time:00000000 $t
C:\Users\Brandon\AppData\Local\Temp\ccAMob4j.s:39     .text.start_time:00000000 start_time
C:\Users\Brandon\AppData\Local\Temp\ccAMob4j.s:50     .text.start_time:0000000c $d
C:\Users\Brandon\AppData\Local\Temp\ccAMob4j.s:53     .text.stop_time:00000000 $t
C:\Users\Brandon\AppData\Local\Temp\ccAMob4j.s:61     .text.stop_time:00000000 stop_time
C:\Users\Brandon\AppData\Local\Temp\ccAMob4j.s:72     .text.stop_time:0000000c $d
C:\Users\Brandon\AppData\Local\Temp\ccAMob4j.s:75     .text.get_time:00000000 $t
C:\Users\Brandon\AppData\Local\Temp\ccAMob4j.s:83     .text.get_time:00000000 get_time
C:\Users\Brandon\AppData\Local\Temp\ccAMob4j.s:96     .text.get_time:0000000c $d
C:\Users\Brandon\AppData\Local\Temp\ccAMob4j.s:100    .text.time_in_secs:00000000 $t
C:\Users\Brandon\AppData\Local\Temp\ccAMob4j.s:108    .text.time_in_secs:00000000 time_in_secs
C:\Users\Brandon\AppData\Local\Temp\ccAMob4j.s:120    .text.time_in_secs:00000018 $d
C:\Users\Brandon\AppData\Local\Temp\ccAMob4j.s:124    .text.portable_init:00000000 $t
C:\Users\Brandon\AppData\Local\Temp\ccAMob4j.s:132    .text.portable_init:00000000 portable_init
C:\Users\Brandon\AppData\Local\Temp\ccAMob4j.s:141    .text.portable_fini:00000000 $t
C:\Users\Brandon\AppData\Local\Temp\ccAMob4j.s:149    .text.portable_fini:00000000 portable_fini
C:\Users\Brandon\AppData\Local\Temp\ccAMob4j.s:199    .data.default_num_contexts:00000000 default_num_contexts
C:\Users\Brandon\AppData\Local\Temp\ccAMob4j.s:179    .bss.seed5_volatile:00000000 seed5_volatile
C:\Users\Brandon\AppData\Local\Temp\ccAMob4j.s:211    .data.seed4_volatile:00000000 seed4_volatile
C:\Users\Brandon\AppData\Local\Temp\ccAMob4j.s:205    .data.seed3_volatile:00000000 seed3_volatile
C:\Users\Brandon\AppData\Local\Temp\ccAMob4j.s:173    .bss.seed2_volatile:00000000 seed2_volatile
C:\Users\Brandon\AppData\Local\Temp\ccAMob4j.s:167    .bss.seed1_volatile:00000000 seed1_volatile
C:\Users\Brandon\AppData\Local\Temp\ccAMob4j.s:164    .bss.seed1_volatile:00000000 $d
C:\Users\Brandon\AppData\Local\Temp\ccAMob4j.s:170    .bss.seed2_volatile:00000000 $d
C:\Users\Brandon\AppData\Local\Temp\ccAMob4j.s:176    .bss.seed5_volatile:00000000 $d
C:\Users\Brandon\AppData\Local\Temp\ccAMob4j.s:182    .bss.start_time_val:00000000 $d
C:\Users\Brandon\AppData\Local\Temp\ccAMob4j.s:186    .bss.start_time_val:00000000 start_time_val
C:\Users\Brandon\AppData\Local\Temp\ccAMob4j.s:189    .bss.stop_time_val:00000000 $d
C:\Users\Brandon\AppData\Local\Temp\ccAMob4j.s:193    .bss.stop_time_val:00000000 stop_time_val
C:\Users\Brandon\AppData\Local\Temp\ccAMob4j.s:196    .data.default_num_contexts:00000000 $d
C:\Users\Brandon\AppData\Local\Temp\ccAMob4j.s:202    .data.seed3_volatile:00000000 $d
C:\Users\Brandon\AppData\Local\Temp\ccAMob4j.s:208    .data.seed4_volatile:00000000 $d

UNDEFINED SYMBOLS
HAL_GetTick
