ARM GAS  C:\Users\Brandon\AppData\Local\Temp\cc7nuYRY.s 			page 1


   1              		.cpu cortex-m7
   2              		.eabi_attribute 28, 1
   3              		.eabi_attribute 20, 1
   4              		.eabi_attribute 21, 1
   5              		.eabi_attribute 23, 3
   6              		.eabi_attribute 24, 1
   7              		.eabi_attribute 25, 1
   8              		.eabi_attribute 26, 1
   9              		.eabi_attribute 30, 2
  10              		.eabi_attribute 34, 1
  11              		.eabi_attribute 18, 4
  12              		.file	"core_list_join.c"
  13              		.text
  14              		.section	.text.cmp_idx,"ax",%progbits
  15              		.align	1
  16              		.p2align 2,,3
  17              		.global	cmp_idx
  18              		.arch armv7e-m
  19              		.syntax unified
  20              		.thumb
  21              		.thumb_func
  22              		.fpu fpv5-d16
  24              	cmp_idx:
  25              		@ args = 0, pretend = 0, frame = 0
  26              		@ frame_needed = 0, uses_anonymous_args = 0
  27              		@ link register save eliminated.
  28 0000 2AB1     		cbz	r2, .L4
  29 0002 B0F90200 		ldrsh	r0, [r0, #2]
  30 0006 B1F90230 		ldrsh	r3, [r1, #2]
  31 000a C01A     		subs	r0, r0, r3
  32 000c 7047     		bx	lr
  33              	.L4:
  34 000e B0F90030 		ldrsh	r3, [r0]
  35 0012 23F0FF02 		bic	r2, r3, #255
  36 0016 C3F30723 		ubfx	r3, r3, #8, #8
  37 001a 1343     		orrs	r3, r3, r2
  38 001c 0380     		strh	r3, [r0]	@ movhi
  39 001e B1F90030 		ldrsh	r3, [r1]
  40 0022 B0F90200 		ldrsh	r0, [r0, #2]
  41 0026 23F0FF02 		bic	r2, r3, #255
  42 002a C3F30723 		ubfx	r3, r3, #8, #8
  43 002e 1343     		orrs	r3, r3, r2
  44 0030 0B80     		strh	r3, [r1]	@ movhi
  45 0032 B1F90230 		ldrsh	r3, [r1, #2]
  46 0036 C01A     		subs	r0, r0, r3
  47 0038 7047     		bx	lr
  49 003a 00BF     		.section	.text.calc_func,"ax",%progbits
  50              		.align	1
  51              		.p2align 2,,3
  52              		.global	calc_func
  53              		.syntax unified
  54              		.thumb
  55              		.thumb_func
  56              		.fpu fpv5-d16
  58              	calc_func:
  59              		@ args = 0, pretend = 0, frame = 0
  60              		@ frame_needed = 0, uses_anonymous_args = 0
ARM GAS  C:\Users\Brandon\AppData\Local\Temp\cc7nuYRY.s 			page 2


  61 0000 F0B5     		push	{r4, r5, r6, r7, lr}
  62 0002 B0F90040 		ldrsh	r4, [r0]
  63 0006 83B0     		sub	sp, sp, #12
  64 0008 2306     		lsls	r3, r4, #24
  65 000a 04D5     		bpl	.L6
  66 000c 04F07F07 		and	r7, r4, #127
  67 0010 3846     		mov	r0, r7
  68 0012 03B0     		add	sp, sp, #12
  69              		@ sp needed
  70 0014 F0BD     		pop	{r4, r5, r6, r7, pc}
  71              	.L6:
  72 0016 0D46     		mov	r5, r1
  73 0018 14F00703 		ands	r3, r4, #7
  74 001c C4F3C301 		ubfx	r1, r4, #3, #4
  75 0020 0646     		mov	r6, r0
  76 0022 41EA0111 		orr	r1, r1, r1, lsl #4
  77 0026 1DD0     		beq	.L8
  78 0028 012B     		cmp	r3, #1
  79 002a 10D0     		beq	.L9
  80 002c A0B2     		uxth	r0, r4
  81 002e 2746     		mov	r7, r4
  82              	.L10:
  83 0030 07F07F07 		and	r7, r7, #127
  84 0034 24F0FF04 		bic	r4, r4, #255
  85 0038 298F     		ldrh	r1, [r5, #56]
  86 003a 3C43     		orrs	r4, r4, r7
  87 003c FFF7FEFF 		bl	crcu16
  88 0040 2887     		strh	r0, [r5, #56]	@ movhi
  89 0042 3846     		mov	r0, r7
  90 0044 44F08004 		orr	r4, r4, #128
  91 0048 3480     		strh	r4, [r6]	@ movhi
  92 004a 03B0     		add	sp, sp, #12
  93              		@ sp needed
  94 004c F0BD     		pop	{r4, r5, r6, r7, pc}
  95              	.L9:
  96 004e 2A8F     		ldrh	r2, [r5, #56]
  97 0050 05F12800 		add	r0, r5, #40
  98 0054 FFF7FEFF 		bl	core_bench_matrix
  99 0058 AB8F     		ldrh	r3, [r5, #60]
 100 005a 07B2     		sxth	r7, r0
 101 005c 002B     		cmp	r3, #0
 102 005e E7D1     		bne	.L10
 103 0060 A887     		strh	r0, [r5, #60]	@ movhi
 104 0062 E5E7     		b	.L10
 105              	.L8:
 106 0064 2229     		cmp	r1, #34
 107 0066 2A8F     		ldrh	r2, [r5, #56]
 108 0068 B5F90230 		ldrsh	r3, [r5, #2]
 109 006c B8BF     		it	lt
 110 006e 2221     		movlt	r1, #34
 111 0070 CDE90012 		strd	r1, r2, [sp]
 112 0074 B5F90020 		ldrsh	r2, [r5]
 113 0078 D5E90510 		ldrd	r1, r0, [r5, #20]
 114 007c FFF7FEFF 		bl	core_bench_state
 115 0080 EB8F     		ldrh	r3, [r5, #62]
 116 0082 07B2     		sxth	r7, r0
 117 0084 002B     		cmp	r3, #0
ARM GAS  C:\Users\Brandon\AppData\Local\Temp\cc7nuYRY.s 			page 3


 118 0086 D3D1     		bne	.L10
 119 0088 E887     		strh	r0, [r5, #62]	@ movhi
 120 008a D1E7     		b	.L10
 122              		.section	.text.cmp_complex,"ax",%progbits
 123              		.align	1
 124              		.p2align 2,,3
 125              		.global	cmp_complex
 126              		.syntax unified
 127              		.thumb
 128              		.thumb_func
 129              		.fpu fpv5-d16
 131              	cmp_complex:
 132              		@ args = 0, pretend = 0, frame = 0
 133              		@ frame_needed = 0, uses_anonymous_args = 0
 134 0000 38B5     		push	{r3, r4, r5, lr}
 135 0002 0D46     		mov	r5, r1
 136 0004 1146     		mov	r1, r2
 137 0006 1446     		mov	r4, r2
 138 0008 FFF7FEFF 		bl	calc_func
 139 000c 0346     		mov	r3, r0
 140 000e 2846     		mov	r0, r5
 141 0010 2146     		mov	r1, r4
 142 0012 1C46     		mov	r4, r3
 143 0014 FFF7FEFF 		bl	calc_func
 144 0018 201A     		subs	r0, r4, r0
 145 001a 38BD     		pop	{r3, r4, r5, pc}
 147              		.section	.text.copy_info,"ax",%progbits
 148              		.align	1
 149              		.p2align 2,,3
 150              		.global	copy_info
 151              		.syntax unified
 152              		.thumb
 153              		.thumb_func
 154              		.fpu fpv5-d16
 156              	copy_info:
 157              		@ args = 0, pretend = 0, frame = 0
 158              		@ frame_needed = 0, uses_anonymous_args = 0
 159              		@ link register save eliminated.
 160 0000 B1F90020 		ldrsh	r2, [r1]
 161 0004 B1F90230 		ldrsh	r3, [r1, #2]
 162 0008 0280     		strh	r2, [r0]	@ movhi
 163 000a 4380     		strh	r3, [r0, #2]	@ movhi
 164 000c 7047     		bx	lr
 166 000e 00BF     		.section	.text.core_list_insert_new,"ax",%progbits
 167              		.align	1
 168              		.p2align 2,,3
 169              		.global	core_list_insert_new
 170              		.syntax unified
 171              		.thumb
 172              		.thumb_func
 173              		.fpu fpv5-d16
 175              	core_list_insert_new:
 176              		@ args = 8, pretend = 0, frame = 0
 177              		@ frame_needed = 0, uses_anonymous_args = 0
 178              		@ link register save eliminated.
 179 0000 F0B4     		push	{r4, r5, r6, r7}
 180 0002 0446     		mov	r4, r0
ARM GAS  C:\Users\Brandon\AppData\Local\Temp\cc7nuYRY.s 			page 4


 181 0004 1068     		ldr	r0, [r2]
 182 0006 049D     		ldr	r5, [sp, #16]
 183 0008 00F10806 		add	r6, r0, #8
 184 000c AE42     		cmp	r6, r5
 185 000e 16D2     		bcs	.L18
 186 0010 1D68     		ldr	r5, [r3]
 187 0012 059F     		ldr	r7, [sp, #20]
 188 0014 05F1040C 		add	ip, r5, #4
 189 0018 6745     		cmp	r7, ip
 190 001a 10D9     		bls	.L18
 191 001c 1660     		str	r6, [r2]
 192 001e 2268     		ldr	r2, [r4]
 193 0020 B1F90060 		ldrsh	r6, [r1]
 194 0024 0260     		str	r2, [r0]
 195 0026 2060     		str	r0, [r4]
 196 0028 4560     		str	r5, [r0, #4]
 197 002a 1A68     		ldr	r2, [r3]
 198 002c B1F90210 		ldrsh	r1, [r1, #2]
 199 0030 0432     		adds	r2, r2, #4
 200 0032 1A60     		str	r2, [r3]
 201 0034 4368     		ldr	r3, [r0, #4]
 202 0036 1E80     		strh	r6, [r3]	@ movhi
 203 0038 5980     		strh	r1, [r3, #2]	@ movhi
 204 003a F0BC     		pop	{r4, r5, r6, r7}
 205 003c 7047     		bx	lr
 206              	.L18:
 207 003e 0020     		movs	r0, #0
 208 0040 F0BC     		pop	{r4, r5, r6, r7}
 209 0042 7047     		bx	lr
 211              		.section	.text.core_list_remove,"ax",%progbits
 212              		.align	1
 213              		.p2align 2,,3
 214              		.global	core_list_remove
 215              		.syntax unified
 216              		.thumb
 217              		.thumb_func
 218              		.fpu fpv5-d16
 220              	core_list_remove:
 221              		@ args = 0, pretend = 0, frame = 0
 222              		@ frame_needed = 0, uses_anonymous_args = 0
 223              		@ link register save eliminated.
 224 0000 30B4     		push	{r4, r5}
 225 0002 0346     		mov	r3, r0
 226 0004 0022     		movs	r2, #0
 227 0006 D0E90004 		ldrd	r0, r4, [r0]
 228 000a D0E90015 		ldrd	r1, r5, [r0]
 229 000e 5D60     		str	r5, [r3, #4]
 230 0010 4460     		str	r4, [r0, #4]
 231 0012 1960     		str	r1, [r3]
 232 0014 0260     		str	r2, [r0]
 233 0016 30BC     		pop	{r4, r5}
 234 0018 7047     		bx	lr
 236 001a 00BF     		.section	.text.core_list_undo_remove,"ax",%progbits
 237              		.align	1
 238              		.p2align 2,,3
 239              		.global	core_list_undo_remove
 240              		.syntax unified
ARM GAS  C:\Users\Brandon\AppData\Local\Temp\cc7nuYRY.s 			page 5


 241              		.thumb
 242              		.thumb_func
 243              		.fpu fpv5-d16
 245              	core_list_undo_remove:
 246              		@ args = 0, pretend = 0, frame = 0
 247              		@ frame_needed = 0, uses_anonymous_args = 0
 248              		@ link register save eliminated.
 249 0000 0A68     		ldr	r2, [r1]
 250 0002 30B4     		push	{r4, r5}
 251 0004 4D68     		ldr	r5, [r1, #4]
 252 0006 4468     		ldr	r4, [r0, #4]
 253 0008 4560     		str	r5, [r0, #4]
 254 000a 4C60     		str	r4, [r1, #4]
 255 000c 0260     		str	r2, [r0]
 256 000e 0860     		str	r0, [r1]
 257 0010 30BC     		pop	{r4, r5}
 258 0012 7047     		bx	lr
 260              		.section	.text.core_list_find,"ax",%progbits
 261              		.align	1
 262              		.p2align 2,,3
 263              		.global	core_list_find
 264              		.syntax unified
 265              		.thumb
 266              		.thumb_func
 267              		.fpu fpv5-d16
 269              	core_list_find:
 270              		@ args = 0, pretend = 0, frame = 0
 271              		@ frame_needed = 0, uses_anonymous_args = 0
 272              		@ link register save eliminated.
 273 0000 B1F90220 		ldrsh	r2, [r1, #2]
 274 0004 002A     		cmp	r2, #0
 275 0006 09DB     		blt	.L37
 276 0008 10B9     		cbnz	r0, .L28
 277 000a 14E0     		b	.L38
 278              	.L30:
 279 000c 0068     		ldr	r0, [r0]
 280 000e 20B1     		cbz	r0, .L24
 281              	.L28:
 282 0010 4368     		ldr	r3, [r0, #4]
 283 0012 B3F90230 		ldrsh	r3, [r3, #2]
 284 0016 9342     		cmp	r3, r2
 285 0018 F8D1     		bne	.L30
 286              	.L24:
 287 001a 7047     		bx	lr
 288              	.L37:
 289 001c 0028     		cmp	r0, #0
 290 001e FCD0     		beq	.L24
 291 0020 B1F90020 		ldrsh	r2, [r1]
 292 0024 02E0     		b	.L27
 293              	.L29:
 294 0026 0068     		ldr	r0, [r0]
 295 0028 0028     		cmp	r0, #0
 296 002a F6D0     		beq	.L24
 297              	.L27:
 298 002c 4368     		ldr	r3, [r0, #4]
 299 002e 1B78     		ldrb	r3, [r3]	@ zero_extendqisi2
 300 0030 9342     		cmp	r3, r2
ARM GAS  C:\Users\Brandon\AppData\Local\Temp\cc7nuYRY.s 			page 6


 301 0032 F8D1     		bne	.L29
 302 0034 7047     		bx	lr
 303              	.L38:
 304 0036 7047     		bx	lr
 306              		.section	.text.core_list_reverse,"ax",%progbits
 307              		.align	1
 308              		.p2align 2,,3
 309              		.global	core_list_reverse
 310              		.syntax unified
 311              		.thumb
 312              		.thumb_func
 313              		.fpu fpv5-d16
 315              	core_list_reverse:
 316              		@ args = 0, pretend = 0, frame = 0
 317              		@ frame_needed = 0, uses_anonymous_args = 0
 318              		@ link register save eliminated.
 319 0000 38B1     		cbz	r0, .L40
 320 0002 0022     		movs	r2, #0
 321 0004 00E0     		b	.L41
 322              	.L42:
 323 0006 1846     		mov	r0, r3
 324              	.L41:
 325 0008 0368     		ldr	r3, [r0]
 326 000a 0260     		str	r2, [r0]
 327 000c 0246     		mov	r2, r0
 328 000e 002B     		cmp	r3, #0
 329 0010 F9D1     		bne	.L42
 330              	.L40:
 331 0012 7047     		bx	lr
 333              		.section	.text.core_list_mergesort,"ax",%progbits
 334              		.align	1
 335              		.p2align 2,,3
 336              		.global	core_list_mergesort
 337              		.syntax unified
 338              		.thumb
 339              		.thumb_func
 340              		.fpu fpv5-d16
 342              	core_list_mergesort:
 343              		@ args = 0, pretend = 0, frame = 16
 344              		@ frame_needed = 0, uses_anonymous_args = 0
 345 0000 2DE9F04F 		push	{r4, r5, r6, r7, r8, r9, r10, fp, lr}
 346 0004 4FF00108 		mov	r8, #1
 347 0008 85B0     		sub	sp, sp, #20
 348 000a 0446     		mov	r4, r0
 349 000c 9346     		mov	fp, r2
 350 000e 0391     		str	r1, [sp, #12]
 351              	.L63:
 352 0010 002C     		cmp	r4, #0
 353 0012 4DD0     		beq	.L47
 354 0014 0023     		movs	r3, #0
 355 0016 1E46     		mov	r6, r3
 356 0018 9946     		mov	r9, r3
 357 001a 0193     		str	r3, [sp, #4]
 358              	.L60:
 359 001c 019B     		ldr	r3, [sp, #4]
 360 001e 2146     		mov	r1, r4
 361 0020 0025     		movs	r5, #0
ARM GAS  C:\Users\Brandon\AppData\Local\Temp\cc7nuYRY.s 			page 7


 362 0022 0133     		adds	r3, r3, #1
 363 0024 0193     		str	r3, [sp, #4]
 364              	.L50:
 365 0026 0968     		ldr	r1, [r1]
 366 0028 0135     		adds	r5, r5, #1
 367 002a 09B1     		cbz	r1, .L51
 368 002c A845     		cmp	r8, r5
 369 002e FAD1     		bne	.L50
 370              	.L51:
 371 0030 A246     		mov	r10, r4
 372 0032 4746     		mov	r7, r8
 373 0034 CDF80880 		str	r8, [sp, #8]
 374 0038 0C46     		mov	r4, r1
 375 003a D846     		mov	r8, fp
 376 003c D346     		mov	fp, r10
 377 003e DDF80CA0 		ldr	r10, [sp, #12]
 378 0042 85B1     		cbz	r5, .L76
 379              	.L57:
 380 0044 F7B1     		cbz	r7, .L75
 381 0046 ECB1     		cbz	r4, .L75
 382 0048 4246     		mov	r2, r8
 383 004a 6168     		ldr	r1, [r4, #4]
 384 004c DBF80400 		ldr	r0, [fp, #4]
 385 0050 D047     		blx	r10
 386 0052 0028     		cmp	r0, #0
 387 0054 16DD     		ble	.L75
 388              	.L55:
 389 0056 2346     		mov	r3, r4
 390 0058 013F     		subs	r7, r7, #1
 391 005a 2468     		ldr	r4, [r4]
 392 005c C6B1     		cbz	r6, .L64
 393              	.L77:
 394 005e 3360     		str	r3, [r6]
 395 0060 1E46     		mov	r6, r3
 396              	.L78:
 397 0062 002D     		cmp	r5, #0
 398 0064 EED1     		bne	.L57
 399              	.L76:
 400 0066 002F     		cmp	r7, #0
 401 0068 15DD     		ble	.L66
 402 006a 002C     		cmp	r4, #0
 403 006c F3D1     		bne	.L55
 404 006e 019B     		ldr	r3, [sp, #4]
 405 0070 C346     		mov	fp, r8
 406 0072 3460     		str	r4, [r6]
 407 0074 012B     		cmp	r3, #1
 408 0076 DDF80880 		ldr	r8, [sp, #8]
 409 007a 15D0     		beq	.L73
 410              	.L79:
 411 007c 4FEA4808 		lsl	r8, r8, #1
 412 0080 4C46     		mov	r4, r9
 413 0082 C5E7     		b	.L63
 414              	.L75:
 415 0084 5B46     		mov	r3, fp
 416 0086 013D     		subs	r5, r5, #1
 417 0088 DBF800B0 		ldr	fp, [fp]
 418 008c 002E     		cmp	r6, #0
ARM GAS  C:\Users\Brandon\AppData\Local\Temp\cc7nuYRY.s 			page 8


 419 008e E6D1     		bne	.L77
 420              	.L64:
 421 0090 9946     		mov	r9, r3
 422 0092 1E46     		mov	r6, r3
 423 0094 E5E7     		b	.L78
 424              	.L66:
 425 0096 C346     		mov	fp, r8
 426 0098 DDF80880 		ldr	r8, [sp, #8]
 427 009c 002C     		cmp	r4, #0
 428 009e BDD1     		bne	.L60
 429 00a0 019B     		ldr	r3, [sp, #4]
 430 00a2 3460     		str	r4, [r6]
 431 00a4 012B     		cmp	r3, #1
 432 00a6 E9D1     		bne	.L79
 433              	.L73:
 434 00a8 4846     		mov	r0, r9
 435 00aa 05B0     		add	sp, sp, #20
 436              		@ sp needed
 437 00ac BDE8F08F 		pop	{r4, r5, r6, r7, r8, r9, r10, fp, pc}
 438              	.L47:
 439 00b0 2460     		str	r4, [r4]
 440 00b2 FFDE     		.inst	0xdeff
 442              		.section	.text.core_bench_list,"ax",%progbits
 443              		.align	1
 444              		.p2align 2,,3
 445              		.global	core_bench_list
 446              		.syntax unified
 447              		.thumb
 448              		.thumb_func
 449              		.fpu fpv5-d16
 451              	core_bench_list:
 452              		@ args = 0, pretend = 0, frame = 16
 453              		@ frame_needed = 0, uses_anonymous_args = 0
 454 0000 2DE9F04F 		push	{r4, r5, r6, r7, r8, r9, r10, fp, lr}
 455 0004 B0F90490 		ldrsh	r9, [r0, #4]
 456 0008 85B0     		sub	sp, sp, #20
 457 000a 446A     		ldr	r4, [r0, #36]
 458 000c B9F1000F 		cmp	r9, #0
 459 0010 ADF80E10 		strh	r1, [sp, #14]	@ movhi
 460 0014 CDE90010 		strd	r1, r0, [sp]
 461 0018 40F39580 		ble	.L96
 462 001c 0026     		movs	r6, #0
 463 001e 8A46     		mov	r10, r1
 464 0020 0DF10C0B 		add	fp, sp, #12
 465 0024 B046     		mov	r8, r6
 466 0026 3746     		mov	r7, r6
 467 0028 3546     		mov	r5, r6
 468              	.L89:
 469 002a 5FFA86FC 		uxtb	ip, r6
 470 002e 5946     		mov	r1, fp
 471 0030 2046     		mov	r0, r4
 472 0032 ADF80CC0 		strh	ip, [sp, #12]	@ movhi
 473 0036 FFF7FEFF 		bl	core_list_find
 474 003a 0346     		mov	r3, r0
 475 003c 3CB1     		cbz	r4, .L82
 476 003e 0020     		movs	r0, #0
 477 0040 00E0     		b	.L83
ARM GAS  C:\Users\Brandon\AppData\Local\Temp\cc7nuYRY.s 			page 9


 478              	.L97:
 479 0042 0C46     		mov	r4, r1
 480              	.L83:
 481 0044 2168     		ldr	r1, [r4]
 482 0046 2060     		str	r0, [r4]
 483 0048 2046     		mov	r0, r4
 484 004a 0029     		cmp	r1, #0
 485 004c F9D1     		bne	.L97
 486              	.L82:
 487 004e FBB1     		cbz	r3, .L116
 488 0050 5968     		ldr	r1, [r3, #4]
 489 0052 0137     		adds	r7, r7, #1
 490 0054 B1F90010 		ldrsh	r1, [r1]
 491 0058 BFB2     		uxth	r7, r7
 492 005a CA07     		lsls	r2, r1, #31
 493 005c 03D5     		bpl	.L86
 494 005e C1F34021 		ubfx	r1, r1, #9, #1
 495 0062 0D44     		add	r5, r5, r1
 496 0064 ADB2     		uxth	r5, r5
 497              	.L86:
 498 0066 1868     		ldr	r0, [r3]
 499 0068 20B1     		cbz	r0, .L85
 500 006a 0168     		ldr	r1, [r0]
 501 006c 1960     		str	r1, [r3]
 502 006e 2168     		ldr	r1, [r4]
 503 0070 0160     		str	r1, [r0]
 504 0072 2060     		str	r0, [r4]
 505              	.L85:
 506 0074 BAF1000F 		cmp	r10, #0
 507 0078 03DB     		blt	.L87
 508 007a 0AF10102 		add	r2, r10, #1
 509 007e ADF80E20 		strh	r2, [sp, #14]	@ movhi
 510              	.L87:
 511 0082 0136     		adds	r6, r6, #1
 512 0084 32B2     		sxth	r2, r6
 513 0086 9145     		cmp	r9, r2
 514 0088 0FDD     		ble	.L117
 515 008a BDF90EA0 		ldrsh	r10, [sp, #14]
 516 008e CCE7     		b	.L89
 517              	.L116:
 518 0090 2168     		ldr	r1, [r4]
 519 0092 08F10108 		add	r8, r8, #1
 520 0096 4968     		ldr	r1, [r1, #4]
 521 0098 1FFA88F8 		uxth	r8, r8
 522 009c 91F90110 		ldrsb	r1, [r1, #1]
 523 00a0 01F00101 		and	r1, r1, #1
 524 00a4 0D44     		add	r5, r5, r1
 525 00a6 ADB2     		uxth	r5, r5
 526 00a8 E4E7     		b	.L85
 527              	.L117:
 528 00aa C8EB8707 		rsb	r7, r8, r7, lsl #2
 529 00ae 3D44     		add	r5, r5, r7
 530 00b0 ADB2     		uxth	r5, r5
 531              	.L81:
 532 00b2 009B     		ldr	r3, [sp]
 533 00b4 002B     		cmp	r3, #0
 534 00b6 05DD     		ble	.L90
ARM GAS  C:\Users\Brandon\AppData\Local\Temp\cc7nuYRY.s 			page 10


 535 00b8 2046     		mov	r0, r4
 536 00ba 019A     		ldr	r2, [sp, #4]
 537 00bc 2449     		ldr	r1, .L119
 538 00be FFF7FEFF 		bl	core_list_mergesort
 539 00c2 0446     		mov	r4, r0
 540              	.L90:
 541 00c4 2268     		ldr	r2, [r4]
 542 00c6 4FF0000C 		mov	ip, #0
 543 00ca 5946     		mov	r1, fp
 544 00cc 2046     		mov	r0, r4
 545 00ce D2E90078 		ldrd	r7, r8, [r2]
 546 00d2 D7E90036 		ldrd	r3, r6, [r7]
 547 00d6 5660     		str	r6, [r2, #4]
 548 00d8 C7F80480 		str	r8, [r7, #4]
 549 00dc 1360     		str	r3, [r2]
 550 00de C7F800C0 		str	ip, [r7]
 551 00e2 FFF7FEFF 		bl	core_list_find
 552 00e6 0646     		mov	r6, r0
 553 00e8 48B3     		cbz	r0, .L118
 554              	.L93:
 555 00ea 6368     		ldr	r3, [r4, #4]
 556 00ec 2946     		mov	r1, r5
 557 00ee B3F90000 		ldrsh	r0, [r3]
 558 00f2 FFF7FEFF 		bl	crc16
 559 00f6 3668     		ldr	r6, [r6]
 560 00f8 0546     		mov	r5, r0
 561 00fa 002E     		cmp	r6, #0
 562 00fc F5D1     		bne	.L93
 563 00fe 2668     		ldr	r6, [r4]
 564 0100 D7F80480 		ldr	r8, [r7, #4]
 565              	.L92:
 566 0104 7268     		ldr	r2, [r6, #4]
 567 0106 2046     		mov	r0, r4
 568 0108 3368     		ldr	r3, [r6]
 569 010a 1249     		ldr	r1, .L119+4
 570 010c 7A60     		str	r2, [r7, #4]
 571 010e 0022     		movs	r2, #0
 572 0110 C6F80480 		str	r8, [r6, #4]
 573 0114 3B60     		str	r3, [r7]
 574 0116 3760     		str	r7, [r6]
 575 0118 FFF7FEFF 		bl	core_list_mergesort
 576 011c 0468     		ldr	r4, [r0]
 577 011e 0646     		mov	r6, r0
 578 0120 4CB1     		cbz	r4, .L94
 579              	.L95:
 580 0122 7368     		ldr	r3, [r6, #4]
 581 0124 2946     		mov	r1, r5
 582 0126 B3F90000 		ldrsh	r0, [r3]
 583 012a FFF7FEFF 		bl	crc16
 584 012e 2468     		ldr	r4, [r4]
 585 0130 0546     		mov	r5, r0
 586 0132 002C     		cmp	r4, #0
 587 0134 F5D1     		bne	.L95
 588              	.L94:
 589 0136 2846     		mov	r0, r5
 590 0138 05B0     		add	sp, sp, #20
 591              		@ sp needed
ARM GAS  C:\Users\Brandon\AppData\Local\Temp\cc7nuYRY.s 			page 11


 592 013a BDE8F08F 		pop	{r4, r5, r6, r7, r8, r9, r10, fp, pc}
 593              	.L118:
 594 013e 2668     		ldr	r6, [r4]
 595 0140 002E     		cmp	r6, #0
 596 0142 D2D1     		bne	.L93
 597 0144 DEE7     		b	.L92
 598              	.L96:
 599 0146 0025     		movs	r5, #0
 600 0148 0DF10C0B 		add	fp, sp, #12
 601 014c B1E7     		b	.L81
 602              	.L120:
 603 014e 00BF     		.align	2
 604              	.L119:
 605 0150 00000000 		.word	cmp_complex
 606 0154 00000000 		.word	cmp_idx
 608              		.section	.text.core_list_init,"ax",%progbits
 609              		.align	1
 610              		.p2align 2,,3
 611              		.global	core_list_init
 612              		.syntax unified
 613              		.thumb
 614              		.thumb_func
 615              		.fpu fpv5-d16
 617              	core_list_init:
 618              		@ args = 0, pretend = 0, frame = 0
 619              		@ frame_needed = 0, uses_anonymous_args = 0
 620 0000 2DE9F04F 		push	{r4, r5, r6, r7, r8, r9, r10, fp, lr}
 621 0004 404D     		ldr	r5, .L140
 622 0006 0746     		mov	r7, r0
 623 0008 0846     		mov	r0, r1
 624 000a 0023     		movs	r3, #0
 625 000c A5FB0717 		umull	r1, r7, r5, r7
 626 0010 48F28004 		movw	r4, #32896
 627 0014 00F11005 		add	r5, r0, #16
 628 0018 0360     		str	r3, [r0]
 629 001a 3F09     		lsrs	r7, r7, #4
 630 001c 9146     		mov	r9, r2
 631 001e 00F10801 		add	r1, r0, #8
 632 0022 023F     		subs	r7, r7, #2
 633 0024 00EBC708 		add	r8, r0, r7, lsl #3
 634 0028 A845     		cmp	r8, r5
 635 002a C0F80480 		str	r8, [r0, #4]
 636 002e 08EB870B 		add	fp, r8, r7, lsl #2
 637 0032 A8F80230 		strh	r3, [r8, #2]	@ movhi
 638 0036 08F10406 		add	r6, r8, #4
 639 003a 20F83740 		strh	r4, [r0, r7, lsl #3]	@ movhi
 640 003e 5ED9     		bls	.L132
 641 0040 08F10802 		add	r2, r8, #8
 642 0044 9345     		cmp	fp, r2
 643 0046 5AD9     		bls	.L132
 644 0048 8360     		str	r3, [r0, #8]
 645 004a 4FF6FF74 		movw	r4, #65535
 646 004e 47F6FF73 		movw	r3, #32767
 647 0052 0160     		str	r1, [r0]
 648 0054 C660     		str	r6, [r0, #12]
 649 0056 A8F80440 		strh	r4, [r8, #4]	@ movhi
 650 005a A8F80630 		strh	r3, [r8, #6]	@ movhi
ARM GAS  C:\Users\Brandon\AppData\Local\Temp\cc7nuYRY.s 			page 12


 651              	.L122:
 652 005e 27B3     		cbz	r7, .L123
 653 0060 1FFA89FA 		uxth	r10, r9
 654 0064 0026     		movs	r6, #0
 655              	.L125:
 656 0066 B3B2     		uxth	r3, r6
 657 0068 05F1080C 		add	ip, r5, #8
 658 006c 02F1040E 		add	lr, r2, #4
 659 0070 0136     		adds	r6, r6, #1
 660 0072 8AEA0304 		eor	r4, r10, r3
 661 0076 E045     		cmp	r8, ip
 662 0078 03F00703 		and	r3, r3, #7
 663 007c 4FEAC404 		lsl	r4, r4, #3
 664 0080 11D9     		bls	.L124
 665 0082 04F07804 		and	r4, r4, #120
 666 0086 F345     		cmp	fp, lr
 667 0088 43EA0403 		orr	r3, r3, r4
 668 008c 0BD9     		bls	.L124
 669 008e 43EA0323 		orr	r3, r3, r3, lsl #8
 670 0092 2960     		str	r1, [r5]
 671 0094 0560     		str	r5, [r0]
 672 0096 2946     		mov	r1, r5
 673 0098 6A60     		str	r2, [r5, #4]
 674 009a 6546     		mov	r5, ip
 675 009c 1380     		strh	r3, [r2]	@ movhi
 676 009e 47F6FF73 		movw	r3, 32767	@ movhi
 677 00a2 5380     		strh	r3, [r2, #2]	@ movhi
 678 00a4 7246     		mov	r2, lr
 679              	.L124:
 680 00a6 B742     		cmp	r7, r6
 681 00a8 DDD1     		bne	.L125
 682              	.L123:
 683 00aa 0D68     		ldr	r5, [r1]
 684 00ac 0DB3     		cbz	r5, .L130
 685 00ae 164B     		ldr	r3, .L140
 686 00b0 0124     		movs	r4, #1
 687 00b2 A3FB0737 		umull	r3, r7, r3, r7
 688 00b6 BF08     		lsrs	r7, r7, #2
 689 00b8 06E0     		b	.L129
 690              	.L139:
 691 00ba 4B68     		ldr	r3, [r1, #4]
 692 00bc 2946     		mov	r1, r5
 693 00be 5C80     		strh	r4, [r3, #2]	@ movhi
 694 00c0 0134     		adds	r4, r4, #1
 695 00c2 2B68     		ldr	r3, [r5]
 696 00c4 1D46     		mov	r5, r3
 697 00c6 A3B1     		cbz	r3, .L130
 698              	.L129:
 699 00c8 A3B2     		uxth	r3, r4
 700 00ca A742     		cmp	r7, r4
 701 00cc 03F10102 		add	r2, r3, #1
 702 00d0 83EA0903 		eor	r3, r3, r9
 703 00d4 F1D8     		bhi	.L139
 704 00d6 1202     		lsls	r2, r2, #8
 705 00d8 4968     		ldr	r1, [r1, #4]
 706 00da 0134     		adds	r4, r4, #1
 707 00dc 02F4E062 		and	r2, r2, #1792
ARM GAS  C:\Users\Brandon\AppData\Local\Temp\cc7nuYRY.s 			page 13


 708 00e0 1343     		orrs	r3, r3, r2
 709 00e2 C3F30D03 		ubfx	r3, r3, #0, #14
 710 00e6 4B80     		strh	r3, [r1, #2]	@ movhi
 711 00e8 2946     		mov	r1, r5
 712 00ea 2B68     		ldr	r3, [r5]
 713 00ec 1D46     		mov	r5, r3
 714 00ee 002B     		cmp	r3, #0
 715 00f0 EAD1     		bne	.L129
 716              	.L130:
 717 00f2 0022     		movs	r2, #0
 718 00f4 0549     		ldr	r1, .L140+4
 719 00f6 BDE8F04F 		pop	{r4, r5, r6, r7, r8, r9, r10, fp, lr}
 720 00fa FFF7FEBF 		b	core_list_mergesort
 721              	.L132:
 722 00fe 0D46     		mov	r5, r1
 723 0100 3246     		mov	r2, r6
 724 0102 1946     		mov	r1, r3
 725 0104 ABE7     		b	.L122
 726              	.L141:
 727 0106 00BF     		.align	2
 728              	.L140:
 729 0108 CDCCCCCC 		.word	-858993459
 730 010c 00000000 		.word	cmp_idx
 732              		.ident	"GCC: (GNU Arm Embedded Toolchain 9-2020-q2-update) 9.3.1 20200408 (release)"
ARM GAS  C:\Users\Brandon\AppData\Local\Temp\cc7nuYRY.s 			page 14


DEFINED SYMBOLS
                            *ABS*:00000000 core_list_join.c
C:\Users\Brandon\AppData\Local\Temp\cc7nuYRY.s:15     .text.cmp_idx:00000000 $t
C:\Users\Brandon\AppData\Local\Temp\cc7nuYRY.s:24     .text.cmp_idx:00000000 cmp_idx
C:\Users\Brandon\AppData\Local\Temp\cc7nuYRY.s:50     .text.calc_func:00000000 $t
C:\Users\Brandon\AppData\Local\Temp\cc7nuYRY.s:58     .text.calc_func:00000000 calc_func
C:\Users\Brandon\AppData\Local\Temp\cc7nuYRY.s:123    .text.cmp_complex:00000000 $t
C:\Users\Brandon\AppData\Local\Temp\cc7nuYRY.s:131    .text.cmp_complex:00000000 cmp_complex
C:\Users\Brandon\AppData\Local\Temp\cc7nuYRY.s:148    .text.copy_info:00000000 $t
C:\Users\Brandon\AppData\Local\Temp\cc7nuYRY.s:156    .text.copy_info:00000000 copy_info
C:\Users\Brandon\AppData\Local\Temp\cc7nuYRY.s:167    .text.core_list_insert_new:00000000 $t
C:\Users\Brandon\AppData\Local\Temp\cc7nuYRY.s:175    .text.core_list_insert_new:00000000 core_list_insert_new
C:\Users\Brandon\AppData\Local\Temp\cc7nuYRY.s:212    .text.core_list_remove:00000000 $t
C:\Users\Brandon\AppData\Local\Temp\cc7nuYRY.s:220    .text.core_list_remove:00000000 core_list_remove
C:\Users\Brandon\AppData\Local\Temp\cc7nuYRY.s:237    .text.core_list_undo_remove:00000000 $t
C:\Users\Brandon\AppData\Local\Temp\cc7nuYRY.s:245    .text.core_list_undo_remove:00000000 core_list_undo_remove
C:\Users\Brandon\AppData\Local\Temp\cc7nuYRY.s:261    .text.core_list_find:00000000 $t
C:\Users\Brandon\AppData\Local\Temp\cc7nuYRY.s:269    .text.core_list_find:00000000 core_list_find
C:\Users\Brandon\AppData\Local\Temp\cc7nuYRY.s:307    .text.core_list_reverse:00000000 $t
C:\Users\Brandon\AppData\Local\Temp\cc7nuYRY.s:315    .text.core_list_reverse:00000000 core_list_reverse
C:\Users\Brandon\AppData\Local\Temp\cc7nuYRY.s:334    .text.core_list_mergesort:00000000 $t
C:\Users\Brandon\AppData\Local\Temp\cc7nuYRY.s:342    .text.core_list_mergesort:00000000 core_list_mergesort
C:\Users\Brandon\AppData\Local\Temp\cc7nuYRY.s:443    .text.core_bench_list:00000000 $t
C:\Users\Brandon\AppData\Local\Temp\cc7nuYRY.s:451    .text.core_bench_list:00000000 core_bench_list
C:\Users\Brandon\AppData\Local\Temp\cc7nuYRY.s:605    .text.core_bench_list:00000150 $d
C:\Users\Brandon\AppData\Local\Temp\cc7nuYRY.s:609    .text.core_list_init:00000000 $t
C:\Users\Brandon\AppData\Local\Temp\cc7nuYRY.s:617    .text.core_list_init:00000000 core_list_init
C:\Users\Brandon\AppData\Local\Temp\cc7nuYRY.s:729    .text.core_list_init:00000108 $d

UNDEFINED SYMBOLS
crcu16
core_bench_matrix
core_bench_state
crc16
