ARM GAS  C:\Users\Brandon\AppData\Local\Temp\cc6MGwhZ.s 			page 1


   1              		.cpu cortex-m7
   2              		.eabi_attribute 28, 1
   3              		.eabi_attribute 20, 1
   4              		.eabi_attribute 21, 1
   5              		.eabi_attribute 23, 3
   6              		.eabi_attribute 24, 1
   7              		.eabi_attribute 25, 1
   8              		.eabi_attribute 26, 1
   9              		.eabi_attribute 30, 2
  10              		.eabi_attribute 34, 1
  11              		.eabi_attribute 18, 4
  12              		.file	"core_main.c"
  13              		.text
  14              		.section	.text.iterate,"ax",%progbits
  15              		.align	1
  16              		.p2align 2,,3
  17              		.global	iterate
  18              		.arch armv7e-m
  19              		.syntax unified
  20              		.thumb
  21              		.thumb_func
  22              		.fpu fpv5-d16
  24              	iterate:
  25              		@ args = 0, pretend = 0, frame = 0
  26              		@ frame_needed = 0, uses_anonymous_args = 0
  27 0000 70B5     		push	{r4, r5, r6, lr}
  28 0002 0025     		movs	r5, #0
  29 0004 C669     		ldr	r6, [r0, #28]
  30 0006 C0E90E55 		strd	r5, r5, [r0, #56]
  31 000a BEB1     		cbz	r6, .L2
  32 000c 0446     		mov	r4, r0
  33              	.L4:
  34 000e 0121     		movs	r1, #1
  35 0010 2046     		mov	r0, r4
  36 0012 FFF7FEFF 		bl	core_bench_list
  37 0016 218F     		ldrh	r1, [r4, #56]
  38 0018 FFF7FEFF 		bl	crcu16
  39 001c 0346     		mov	r3, r0
  40 001e 4FF0FF31 		mov	r1, #-1
  41 0022 2046     		mov	r0, r4
  42 0024 2387     		strh	r3, [r4, #56]	@ movhi
  43 0026 FFF7FEFF 		bl	core_bench_list
  44 002a 218F     		ldrh	r1, [r4, #56]
  45 002c FFF7FEFF 		bl	crcu16
  46 0030 2087     		strh	r0, [r4, #56]	@ movhi
  47 0032 05B9     		cbnz	r5, .L3
  48 0034 6087     		strh	r0, [r4, #58]	@ movhi
  49              	.L3:
  50 0036 0135     		adds	r5, r5, #1
  51 0038 AE42     		cmp	r6, r5
  52 003a E8D1     		bne	.L4
  53              	.L2:
  54 003c 0020     		movs	r0, #0
  55 003e 70BD     		pop	{r4, r5, r6, pc}
  57              		.section	.rodata.core_main.str1.4,"aMS",%progbits,1
  58              		.align	2
  59              	.LC0:
ARM GAS  C:\Users\Brandon\AppData\Local\Temp\cc6MGwhZ.s 			page 2


  60 0000 366B2070 		.ascii	"6k performance run parameters for coremark.\015\012"
  60      6572666F 
  60      726D616E 
  60      63652072 
  60      756E2070 
  61 002d 00       		.ascii	"\000"
  62 002e 0000     		.align	2
  63              	.LC1:
  64 0030 366B2076 		.ascii	"6k validation run parameters for coremark.\015\012\000"
  64      616C6964 
  64      6174696F 
  64      6E207275 
  64      6E207061 
  65 005d 000000   		.align	2
  66              	.LC2:
  67 0060 50726F66 		.ascii	"Profile generation run parameters for coremark.\015"
  67      696C6520 
  67      67656E65 
  67      72617469 
  67      6F6E2072 
  68 0090 0A00     		.ascii	"\012\000"
  69 0092 0000     		.align	2
  70              	.LC3:
  71 0094 324B2070 		.ascii	"2K performance run parameters for coremark.\015\012"
  71      6572666F 
  71      726D616E 
  71      63652072 
  71      756E2070 
  72 00c1 00       		.ascii	"\000"
  73 00c2 0000     		.align	2
  74              	.LC4:
  75 00c4 324B2076 		.ascii	"2K validation run parameters for coremark.\015\012\000"
  75      616C6964 
  75      6174696F 
  75      6E207275 
  75      6E207061 
  76 00f1 000000   		.align	2
  77              	.LC5:
  78 00f4 5B25755D 		.ascii	"[%u]ERROR! list crc 0x%04x - should be 0x%04x\015\012"
  78      4552524F 
  78      5221206C 
  78      69737420 
  78      63726320 
  79 0123 00       		.ascii	"\000"
  80              		.align	2
  81              	.LC6:
  82 0124 5B25755D 		.ascii	"[%u]ERROR! matrix crc 0x%04x - should be 0x%04x\015"
  82      4552524F 
  82      5221206D 
  82      61747269 
  82      78206372 
  83 0154 0A00     		.ascii	"\012\000"
  84 0156 0000     		.align	2
  85              	.LC7:
  86 0158 5B25755D 		.ascii	"[%u]ERROR! state crc 0x%04x - should be 0x%04x\015\012"
  86      4552524F 
  86      52212073 
ARM GAS  C:\Users\Brandon\AppData\Local\Temp\cc6MGwhZ.s 			page 3


  86      74617465 
  86      20637263 
  87 0188 00       		.ascii	"\000"
  88 0189 000000   		.align	2
  89              	.LC8:
  90 018c 436F7265 		.ascii	"CoreMark Size    : %lu\015\012\000"
  90      4D61726B 
  90      2053697A 
  90      65202020 
  90      203A2025 
  91 01a5 000000   		.align	2
  92              	.LC9:
  93 01a8 546F7461 		.ascii	"Total ticks      : %lu\015\012\000"
  93      6C207469 
  93      636B7320 
  93      20202020 
  93      203A2025 
  94 01c1 000000   		.align	2
  95              	.LC10:
  96 01c4 546F7461 		.ascii	"Total time (secs): %f\015\012\000"
  96      6C207469 
  96      6D652028 
  96      73656373 
  96      293A2025 
  97              		.align	2
  98              	.LC11:
  99 01dc 49746572 		.ascii	"Iterations/Sec   : %f\015\012\000"
  99      6174696F 
  99      6E732F53 
  99      65632020 
  99      203A2025 
 100              		.align	2
 101              	.LC12:
 102 01f4 4552524F 		.ascii	"ERROR! Must execute for at least 10 secs for a vali"
 102      5221204D 
 102      75737420 
 102      65786563 
 102      75746520 
 103 0227 64207265 		.ascii	"d result!\015\012\000"
 103      73756C74 
 103      210D0A00 
 104 0233 00       		.align	2
 105              	.LC13:
 106 0234 49746572 		.ascii	"Iterations       : %lu\015\012\000"
 106      6174696F 
 106      6E732020 
 106      20202020 
 106      203A2025 
 107 024d 000000   		.align	2
 108              	.LC14:
 109 0250 47434339 		.ascii	"GCC9.3.1 20200408 (release)\000"
 109      2E332E31 
 109      20323032 
 109      30303430 
 109      38202872 
 110              		.align	2
 111              	.LC15:
ARM GAS  C:\Users\Brandon\AppData\Local\Temp\cc6MGwhZ.s 			page 4


 112 026c 436F6D70 		.ascii	"Compiler version : %s\015\012\000"
 112      696C6572 
 112      20766572 
 112      73696F6E 
 112      203A2025 
 113              		.align	2
 114              	.LC16:
 115 0284 2D4F3200 		.ascii	"-O2\000"
 116              		.align	2
 117              	.LC17:
 118 0288 436F6D70 		.ascii	"Compiler flags   : %s\015\012\000"
 118      696C6572 
 118      20666C61 
 118      67732020 
 118      203A2025 
 119              		.align	2
 120              	.LC18:
 121 02a0 53544143 		.ascii	"STACK\000"
 121      4B00
 122 02a6 0000     		.align	2
 123              	.LC19:
 124 02a8 4D656D6F 		.ascii	"Memory location  : %s\015\012\000"
 124      7279206C 
 124      6F636174 
 124      696F6E20 
 124      203A2025 
 125              		.align	2
 126              	.LC20:
 127 02c0 73656564 		.ascii	"seedcrc          : 0x%04x\015\012\000"
 127      63726320 
 127      20202020 
 127      20202020 
 127      203A2030 
 128              		.align	2
 129              	.LC21:
 130 02dc 5B25645D 		.ascii	"[%d]crclist       : 0x%04x\015\012\000"
 130      6372636C 
 130      69737420 
 130      20202020 
 130      20203A20 
 131 02f9 000000   		.align	2
 132              	.LC22:
 133 02fc 5B25645D 		.ascii	"[%d]crcmatrix     : 0x%04x\015\012\000"
 133      6372636D 
 133      61747269 
 133      78202020 
 133      20203A20 
 134 0319 000000   		.align	2
 135              	.LC23:
 136 031c 5B25645D 		.ascii	"[%d]crcstate      : 0x%04x\015\012\000"
 136      63726373 
 136      74617465 
 136      20202020 
 136      20203A20 
 137 0339 000000   		.align	2
 138              	.LC24:
 139 033c 5B25645D 		.ascii	"[%d]crcfinal      : 0x%04x\015\012\000"
ARM GAS  C:\Users\Brandon\AppData\Local\Temp\cc6MGwhZ.s 			page 5


 139      63726366 
 139      696E616C 
 139      20202020 
 139      20203A20 
 140 0359 000000   		.align	2
 141              	.LC25:
 142 035c 436F7272 		.ascii	"Correct operation validated. See readme.txt for run"
 142      65637420 
 142      6F706572 
 142      6174696F 
 142      6E207661 
 143 038f 20616E64 		.ascii	" and reporting rules.\015\012\000"
 143      20726570 
 143      6F727469 
 143      6E672072 
 143      756C6573 
 144 03a7 00       		.align	2
 145              	.LC26:
 146 03a8 436F7265 		.ascii	"CoreMark 1.0 : %f / %s %s\000"
 146      4D61726B 
 146      20312E30 
 146      203A2025 
 146      66202F20 
 147 03c2 0000     		.align	2
 148              	.LC27:
 149 03c4 202F2025 		.ascii	" / %s\000"
 149      7300
 150 03ca 0000     		.align	2
 151              	.LC28:
 152 03cc 0D0A00   		.ascii	"\015\012\000"
 153 03cf 00       		.align	2
 154              	.LC29:
 155 03d0 4572726F 		.ascii	"Errors detected\015\012\000"
 155      72732064 
 155      65746563 
 155      7465640D 
 155      0A00
 156 03e2 0000     		.align	2
 157              	.LC30:
 158 03e4 43616E6E 		.ascii	"Cannot validate operation for these seed values, pl"
 158      6F742076 
 158      616C6964 
 158      61746520 
 158      6F706572 
 159 0417 65617365 		.ascii	"ease compare with results on a known platform.\015\012"
 159      20636F6D 
 159      70617265 
 159      20776974 
 159      68207265 
 160 0447 00       		.ascii	"\000"
 161              		.section	.text.core_main,"ax",%progbits
 162              		.align	1
 163              		.p2align 2,,3
 164              		.global	core_main
 165              		.syntax unified
 166              		.thumb
 167              		.thumb_func
ARM GAS  C:\Users\Brandon\AppData\Local\Temp\cc6MGwhZ.s 			page 6


 168              		.fpu fpv5-d16
 170              	core_main:
 171              		@ args = 0, pretend = 0, frame = 2080
 172              		@ frame_needed = 0, uses_anonymous_args = 0
 173 0000 2DE9F04F 		push	{r4, r5, r6, r7, r8, r9, r10, fp, lr}
 174 0004 2DED028B 		vpush.64	{d8}
 175 0008 ADF62C0D 		subw	sp, sp, #2092
 176 000c 0A46     		mov	r2, r1
 177 000e 0390     		str	r0, [sp, #12]
 178 0010 03A9     		add	r1, sp, #12
 179 0012 0DF15600 		add	r0, sp, #86
 180 0016 FFF7FEFF 		bl	portable_init
 181 001a 0120     		movs	r0, #1
 182 001c FFF7FEFF 		bl	get_seed_32
 183 0020 0346     		mov	r3, r0
 184 0022 0220     		movs	r0, #2
 185 0024 ADF81430 		strh	r3, [sp, #20]	@ movhi
 186 0028 FFF7FEFF 		bl	get_seed_32
 187 002c 0346     		mov	r3, r0
 188 002e 0320     		movs	r0, #3
 189 0030 ADF81630 		strh	r3, [sp, #22]	@ movhi
 190 0034 FFF7FEFF 		bl	get_seed_32
 191 0038 0346     		mov	r3, r0
 192 003a 0420     		movs	r0, #4
 193 003c ADF81830 		strh	r3, [sp, #24]	@ movhi
 194 0040 FFF7FEFF 		bl	get_seed_32
 195 0044 0346     		mov	r3, r0
 196 0046 0520     		movs	r0, #5
 197 0048 0C93     		str	r3, [sp, #48]
 198 004a FFF7FEFF 		bl	get_seed_32
 199 004e 0028     		cmp	r0, #0
 200 0050 00F0EC81 		beq	.L12
 201 0054 0346     		mov	r3, r0
 202 0056 00F00100 		and	r0, r0, #1
 203 005a 8446     		mov	ip, r0
 204 005c 0D93     		str	r3, [sp, #52]
 205              	.L13:
 206 005e 059A     		ldr	r2, [sp, #20]
 207 0060 002A     		cmp	r2, #0
 208 0062 40F0D581 		bne	.L14
 209 0066 BDF91820 		ldrsh	r2, [sp, #24]
 210 006a 002A     		cmp	r2, #0
 211 006c 00F0F981 		beq	.L112
 212              	.L15:
 213 0070 0022     		movs	r2, #0
 214 0072 80B2     		uxth	r0, r0
 215 0074 16AD     		add	r5, sp, #88
 216 0076 ADF85420 		strh	r2, [sp, #84]	@ movhi
 217 007a 13F00202 		ands	r2, r3, #2
 218 007e 0795     		str	r5, [sp, #28]
 219 0080 18BF     		it	ne
 220 0082 0130     		addne	r0, r0, #1
 221 0084 5907     		lsls	r1, r3, #29
 222 0086 01D5     		bpl	.L61
 223 0088 0130     		adds	r0, r0, #1
 224 008a 80B2     		uxth	r0, r0
 225              	.L61:
ARM GAS  C:\Users\Brandon\AppData\Local\Temp\cc6MGwhZ.s 			page 7


 226 008c 4FF4FA64 		mov	r4, #2000
 227 0090 0021     		movs	r1, #0
 228 0092 0126     		movs	r6, #1
 229 0094 0F46     		mov	r7, r1
 230 0096 B4FBF0F0 		udiv	r0, r4, r0
 231 009a 0B90     		str	r0, [sp, #44]
 232              	.L17:
 233 009c 06FA01F4 		lsl	r4, r6, r1
 234 00a0 1C42     		tst	r4, r3
 235 00a2 40F0A981 		bne	.L113
 236              	.L16:
 237 00a6 0131     		adds	r1, r1, #1
 238 00a8 0329     		cmp	r1, #3
 239 00aa F7D1     		bne	.L17
 240 00ac BCF1000F 		cmp	ip, #0
 241 00b0 40F0C480 		bne	.L114
 242 00b4 002A     		cmp	r2, #0
 243 00b6 40F0CD80 		bne	.L115
 244              	.L19:
 245 00ba 5807     		lsls	r0, r3, #29
 246 00bc 05D5     		bpl	.L20
 247 00be 0A9A     		ldr	r2, [sp, #40]
 248 00c0 BDF91410 		ldrsh	r1, [sp, #20]
 249 00c4 0B98     		ldr	r0, [sp, #44]
 250 00c6 FFF7FEFF 		bl	core_init_state
 251              	.L20:
 252 00ca 0C9B     		ldr	r3, [sp, #48]
 253 00cc 33BB     		cbnz	r3, .L21
 254 00ce B7EE008B 		vmov.f64	d8, #1.0e+0
 255 00d2 0123     		movs	r3, #1
 256 00d4 00E0     		b	.L24
 257              	.L116:
 258 00d6 0C9B     		ldr	r3, [sp, #48]
 259              	.L24:
 260 00d8 03EB8303 		add	r3, r3, r3, lsl #2
 261 00dc 5B00     		lsls	r3, r3, #1
 262 00de 0C93     		str	r3, [sp, #48]
 263 00e0 FFF7FEFF 		bl	start_time
 264 00e4 05A8     		add	r0, sp, #20
 265 00e6 FFF7FEFF 		bl	iterate
 266 00ea FFF7FEFF 		bl	stop_time
 267 00ee FFF7FEFF 		bl	get_time
 268 00f2 FFF7FEFF 		bl	time_in_secs
 269 00f6 B4EEC80B 		vcmpe.f64	d0, d8
 270 00fa F1EE10FA 		vmrs	APSR_nzcv, FPSCR
 271 00fe EAD4     		bmi	.L116
 272 0100 FCEEC07B 		vcvt.u32.f64	s15, d0
 273 0104 0A21     		movs	r1, #10
 274 0106 0C9A     		ldr	r2, [sp, #48]
 275 0108 17EE903A 		vmov	r3, s15	@ int
 276 010c 012B     		cmp	r3, #1
 277 010e 38BF     		it	cc
 278 0110 0123     		movcc	r3, #1
 279 0112 B1FBF3F3 		udiv	r3, r1, r3
 280 0116 03FB0222 		mla	r2, r3, r2, r2
 281 011a 0C92     		str	r2, [sp, #48]
 282              	.L21:
ARM GAS  C:\Users\Brandon\AppData\Local\Temp\cc6MGwhZ.s 			page 8


 283 011c FFF7FEFF 		bl	start_time
 284 0120 05A8     		add	r0, sp, #20
 285 0122 FFF7FEFF 		bl	iterate
 286 0126 FFF7FEFF 		bl	stop_time
 287 012a FFF7FEFF 		bl	get_time
 288 012e 0021     		movs	r1, #0
 289 0130 8246     		mov	r10, r0
 290 0132 BDF91400 		ldrsh	r0, [sp, #20]
 291 0136 FFF7FEFF 		bl	crc16
 292 013a 0146     		mov	r1, r0
 293 013c BDF91600 		ldrsh	r0, [sp, #22]
 294 0140 FFF7FEFF 		bl	crc16
 295 0144 0146     		mov	r1, r0
 296 0146 BDF91800 		ldrsh	r0, [sp, #24]
 297 014a FFF7FEFF 		bl	crc16
 298 014e 0146     		mov	r1, r0
 299 0150 BDF92C00 		ldrsh	r0, [sp, #44]
 300 0154 FFF7FEFF 		bl	crc16
 301 0158 47F60533 		movw	r3, #31493
 302 015c 8146     		mov	r9, r0
 303 015e 9842     		cmp	r0, r3
 304 0160 00F0E681 		beq	.L25
 305 0164 00F23881 		bhi	.L26
 306 0168 41F6F203 		movw	r3, #6386
 307 016c 9842     		cmp	r0, r3
 308 016e 00F0E581 		beq	.L27
 309 0172 44F6AF63 		movw	r3, #20143
 310 0176 9842     		cmp	r0, r3
 311 0178 40F08480 		bne	.L110
 312 017c BB48     		ldr	r0, .L120
 313 017e 4FF00208 		mov	r8, #2
 314 0182 FFF7FEFF 		bl	debug_eeprintf
 315              	.L32:
 316 0186 BA4F     		ldr	r7, .L120+4
 317 0188 3D68     		ldr	r5, [r7]
 318 018a 002D     		cmp	r5, #0
 319 018c 7FD0     		beq	.L29
 320 018e 0024     		movs	r4, #0
 321 0190 A346     		mov	fp, r4
 322 0192 0FE0     		b	.L38
 323              	.L117:
 324 0194 05AB     		add	r3, sp, #20
 325 0196 5E44     		add	r6, r6, fp
 326 0198 03EB8606 		add	r6, r3, r6, lsl #2
 327 019c B6F84030 		ldrh	r3, [r6, #64]
 328              	.L36:
 329 01a0 0BF1010B 		add	fp, fp, #1
 330 01a4 1C44     		add	r4, r4, r3
 331 01a6 3B68     		ldr	r3, [r7]
 332 01a8 1FFA8BFB 		uxth	fp, fp
 333 01ac A5B2     		uxth	r5, r4
 334 01ae 9B45     		cmp	fp, r3
 335 01b0 24B2     		sxth	r4, r4
 336 01b2 6CD2     		bcs	.L29
 337              	.L38:
 338 01b4 05AB     		add	r3, sp, #20
 339 01b6 0BEB0B15 		add	r5, fp, fp, lsl #4
ARM GAS  C:\Users\Brandon\AppData\Local\Temp\cc6MGwhZ.s 			page 9


 340 01ba 0022     		movs	r2, #0
 341 01bc 4FEA0B16 		lsl	r6, fp, #4
 342 01c0 03EB8505 		add	r5, r3, r5, lsl #2
 343 01c4 2B6A     		ldr	r3, [r5, #32]
 344 01c6 A5F84020 		strh	r2, [r5, #64]	@ movhi
 345 01ca D907     		lsls	r1, r3, #31
 346 01cc 0ED5     		bpl	.L33
 347 01ce A94B     		ldr	r3, .L120+8
 348 01d0 6A8F     		ldrh	r2, [r5, #58]
 349 01d2 33F81830 		ldrh	r3, [r3, r8, lsl #1]
 350 01d6 9A42     		cmp	r2, r3
 351 01d8 08D0     		beq	.L33
 352 01da 5946     		mov	r1, fp
 353 01dc A648     		ldr	r0, .L120+12
 354 01de FFF7FEFF 		bl	debug_eeprintf
 355 01e2 B5F84030 		ldrh	r3, [r5, #64]
 356 01e6 0133     		adds	r3, r3, #1
 357 01e8 A5F84030 		strh	r3, [r5, #64]	@ movhi
 358              	.L33:
 359 01ec 06EB0B05 		add	r5, r6, fp
 360 01f0 05AB     		add	r3, sp, #20
 361 01f2 03EB8505 		add	r5, r3, r5, lsl #2
 362 01f6 296A     		ldr	r1, [r5, #32]
 363 01f8 8A07     		lsls	r2, r1, #30
 364 01fa 0FD5     		bpl	.L34
 365 01fc 9F4B     		ldr	r3, .L120+16
 366 01fe AA8F     		ldrh	r2, [r5, #60]
 367 0200 33F81830 		ldrh	r3, [r3, r8, lsl #1]
 368 0204 9A42     		cmp	r2, r3
 369 0206 09D0     		beq	.L34
 370 0208 5946     		mov	r1, fp
 371 020a 9D48     		ldr	r0, .L120+20
 372 020c FFF7FEFF 		bl	debug_eeprintf
 373 0210 B5F84030 		ldrh	r3, [r5, #64]
 374 0214 296A     		ldr	r1, [r5, #32]
 375 0216 0133     		adds	r3, r3, #1
 376 0218 A5F84030 		strh	r3, [r5, #64]	@ movhi
 377              	.L34:
 378 021c 4B07     		lsls	r3, r1, #29
 379 021e B9D5     		bpl	.L117
 380 0220 05AA     		add	r2, sp, #20
 381 0222 06EB0B05 		add	r5, r6, fp
 382 0226 974B     		ldr	r3, .L120+24
 383 0228 02EB8505 		add	r5, r2, r5, lsl #2
 384 022c 33F81830 		ldrh	r3, [r3, r8, lsl #1]
 385 0230 EA8F     		ldrh	r2, [r5, #62]
 386 0232 9A42     		cmp	r2, r3
 387 0234 1BD1     		bne	.L37
 388 0236 B5F84030 		ldrh	r3, [r5, #64]
 389 023a B1E7     		b	.L36
 390              	.L114:
 391 023c BDF91420 		ldrsh	r2, [sp, #20]
 392 0240 0899     		ldr	r1, [sp, #32]
 393 0242 FFF7FEFF 		bl	core_list_init
 394 0246 0D9B     		ldr	r3, [sp, #52]
 395 0248 0E90     		str	r0, [sp, #56]
 396 024a 03F00202 		and	r2, r3, #2
ARM GAS  C:\Users\Brandon\AppData\Local\Temp\cc6MGwhZ.s 			page 10


 397 024e 002A     		cmp	r2, #0
 398 0250 3FF433AF 		beq	.L19
 399              	.L115:
 400 0254 BDF91600 		ldrsh	r0, [sp, #22]
 401 0258 0FAB     		add	r3, sp, #60
 402 025a BDF91420 		ldrsh	r2, [sp, #20]
 403 025e 0999     		ldr	r1, [sp, #36]
 404 0260 42EA0042 		orr	r2, r2, r0, lsl #16
 405 0264 0B98     		ldr	r0, [sp, #44]
 406 0266 FFF7FEFF 		bl	core_init_matrix
 407 026a 0D9B     		ldr	r3, [sp, #52]
 408 026c 25E7     		b	.L19
 409              	.L37:
 410 026e 5946     		mov	r1, fp
 411 0270 8548     		ldr	r0, .L120+28
 412 0272 FFF7FEFF 		bl	debug_eeprintf
 413 0276 B5F84030 		ldrh	r3, [r5, #64]
 414 027a 0133     		adds	r3, r3, #1
 415 027c 9BB2     		uxth	r3, r3
 416 027e A5F84030 		strh	r3, [r5, #64]	@ movhi
 417 0282 8DE7     		b	.L36
 418              	.L110:
 419 0284 4FF6FF75 		movw	r5, #65535
 420 0288 4FF0FF38 		mov	r8, #-1
 421 028c 784F     		ldr	r7, .L120+4
 422              	.L29:
 423 028e FFF7FEFF 		bl	check_data_types
 424 0292 0B99     		ldr	r1, [sp, #44]
 425 0294 0544     		add	r5, r5, r0
 426 0296 7D48     		ldr	r0, .L120+32
 427 0298 FFF7FEFF 		bl	debug_eeprintf
 428 029c 5146     		mov	r1, r10
 429 029e 7C48     		ldr	r0, .L120+36
 430 02a0 ADB2     		uxth	r5, r5
 431 02a2 FFF7FEFF 		bl	debug_eeprintf
 432 02a6 5046     		mov	r0, r10
 433 02a8 FFF7FEFF 		bl	time_in_secs
 434 02ac 7948     		ldr	r0, .L120+40
 435 02ae 53EC102B 		vmov	r2, r3, d0
 436 02b2 FFF7FEFF 		bl	debug_eeprintf
 437 02b6 5046     		mov	r0, r10
 438 02b8 FFF7FEFF 		bl	time_in_secs
 439 02bc B5EEC00B 		vcmpe.f64	d0, #0
 440 02c0 F1EE10FA 		vmrs	APSR_nzcv, FPSCR
 441 02c4 11DD     		ble	.L39
 442 02c6 0C9A     		ldr	r2, [sp, #48]
 443 02c8 5046     		mov	r0, r10
 444 02ca 3B68     		ldr	r3, [r7]
 445 02cc 03FB02F3 		mul	r3, r3, r2
 446 02d0 07EE903A 		vmov	s15, r3	@ int
 447 02d4 B8EE678B 		vcvt.f64.u32	d8, s15
 448 02d8 FFF7FEFF 		bl	time_in_secs
 449 02dc 6E48     		ldr	r0, .L120+44
 450 02de 88EE007B 		vdiv.f64	d7, d8, d0
 451 02e2 53EC172B 		vmov	r2, r3, d7
 452 02e6 FFF7FEFF 		bl	debug_eeprintf
 453              	.L39:
ARM GAS  C:\Users\Brandon\AppData\Local\Temp\cc6MGwhZ.s 			page 11


 454 02ea 5046     		mov	r0, r10
 455 02ec FFF7FEFF 		bl	time_in_secs
 456 02f0 B2EE047B 		vmov.f64	d7, #1.0e+1
 457 02f4 B4EEC70B 		vcmpe.f64	d0, d7
 458 02f8 F1EE10FA 		vmrs	APSR_nzcv, FPSCR
 459 02fc 00F1EE80 		bmi	.L41
 460              	.L111:
 461 0300 0C9B     		ldr	r3, [sp, #48]
 462 0302 2DB2     		sxth	r5, r5
 463 0304 3968     		ldr	r1, [r7]
 464 0306 6548     		ldr	r0, .L120+48
 465 0308 01FB03F1 		mul	r1, r1, r3
 466 030c FFF7FEFF 		bl	debug_eeprintf
 467 0310 6349     		ldr	r1, .L120+52
 468 0312 6448     		ldr	r0, .L120+56
 469 0314 FFF7FEFF 		bl	debug_eeprintf
 470 0318 6349     		ldr	r1, .L120+60
 471 031a 6448     		ldr	r0, .L120+64
 472 031c FFF7FEFF 		bl	debug_eeprintf
 473 0320 6349     		ldr	r1, .L120+68
 474 0322 6448     		ldr	r0, .L120+72
 475 0324 FFF7FEFF 		bl	debug_eeprintf
 476 0328 4946     		mov	r1, r9
 477 032a 6348     		ldr	r0, .L120+76
 478 032c FFF7FEFF 		bl	debug_eeprintf
 479 0330 0D9A     		ldr	r2, [sp, #52]
 480 0332 3B68     		ldr	r3, [r7]
 481 0334 D607     		lsls	r6, r2, #31
 482 0336 13D5     		bpl	.L47
 483 0338 002B     		cmp	r3, #0
 484 033a 3AD0     		beq	.L54
 485 033c 0024     		movs	r4, #0
 486 033e 5F4E     		ldr	r6, .L120+80
 487              	.L44:
 488 0340 04EB0413 		add	r3, r4, r4, lsl #4
 489 0344 05AA     		add	r2, sp, #20
 490 0346 2146     		mov	r1, r4
 491 0348 0134     		adds	r4, r4, #1
 492 034a 02EB8303 		add	r3, r2, r3, lsl #2
 493 034e 3046     		mov	r0, r6
 494 0350 A4B2     		uxth	r4, r4
 495 0352 5A8F     		ldrh	r2, [r3, #58]
 496 0354 FFF7FEFF 		bl	debug_eeprintf
 497 0358 3B68     		ldr	r3, [r7]
 498 035a 9C42     		cmp	r4, r3
 499 035c F0D3     		bcc	.L44
 500 035e 0D9A     		ldr	r2, [sp, #52]
 501              	.L47:
 502 0360 9407     		lsls	r4, r2, #30
 503 0362 12D5     		bpl	.L48
 504 0364 2BB3     		cbz	r3, .L54
 505 0366 0024     		movs	r4, #0
 506 0368 554E     		ldr	r6, .L120+84
 507              	.L49:
 508 036a 04EB0413 		add	r3, r4, r4, lsl #4
 509 036e 05AA     		add	r2, sp, #20
 510 0370 2146     		mov	r1, r4
ARM GAS  C:\Users\Brandon\AppData\Local\Temp\cc6MGwhZ.s 			page 12


 511 0372 0134     		adds	r4, r4, #1
 512 0374 02EB8303 		add	r3, r2, r3, lsl #2
 513 0378 3046     		mov	r0, r6
 514 037a A4B2     		uxth	r4, r4
 515 037c 9A8F     		ldrh	r2, [r3, #60]
 516 037e FFF7FEFF 		bl	debug_eeprintf
 517 0382 3B68     		ldr	r3, [r7]
 518 0384 9C42     		cmp	r4, r3
 519 0386 F0D3     		bcc	.L49
 520 0388 0D9A     		ldr	r2, [sp, #52]
 521              	.L48:
 522 038a 5007     		lsls	r0, r2, #29
 523 038c 55D4     		bmi	.L118
 524              	.L50:
 525 038e 83B1     		cbz	r3, .L54
 526 0390 0024     		movs	r4, #0
 527 0392 4C4E     		ldr	r6, .L120+88
 528              	.L55:
 529 0394 04EB0413 		add	r3, r4, r4, lsl #4
 530 0398 05AA     		add	r2, sp, #20
 531 039a 2146     		mov	r1, r4
 532 039c 0134     		adds	r4, r4, #1
 533 039e 02EB8303 		add	r3, r2, r3, lsl #2
 534 03a2 3046     		mov	r0, r6
 535 03a4 A4B2     		uxth	r4, r4
 536 03a6 1A8F     		ldrh	r2, [r3, #56]
 537 03a8 FFF7FEFF 		bl	debug_eeprintf
 538 03ac 3B68     		ldr	r3, [r7]
 539 03ae 9C42     		cmp	r4, r3
 540 03b0 F0D3     		bcc	.L55
 541              	.L54:
 542 03b2 002D     		cmp	r5, #0
 543 03b4 00F09780 		beq	.L119
 544 03b8 CCBF     		ite	gt
 545 03ba 4348     		ldrgt	r0, .L120+92
 546 03bc 4348     		ldrle	r0, .L120+96
 547 03be FFF7FEFF 		bl	debug_eeprintf
 548              	.L58:
 549 03c2 0DF15600 		add	r0, sp, #86
 550 03c6 FFF7FEFF 		bl	portable_fini
 551 03ca 0020     		movs	r0, #0
 552 03cc 0DF62C0D 		addw	sp, sp, #2092
 553              		@ sp needed
 554 03d0 BDEC028B 		vldm	sp!, {d8}
 555 03d4 BDE8F08F 		pop	{r4, r5, r6, r7, r8, r9, r10, fp, pc}
 556              	.L26:
 557 03d8 48F60223 		movw	r3, #35330
 558 03dc 9842     		cmp	r0, r3
 559 03de 00F0B380 		beq	.L30
 560 03e2 4EF6F513 		movw	r3, #59893
 561 03e6 9842     		cmp	r0, r3
 562 03e8 7FF44CAF 		bne	.L110
 563 03ec 3848     		ldr	r0, .L120+100
 564 03ee 4FF00308 		mov	r8, #3
 565 03f2 FFF7FEFF 		bl	debug_eeprintf
 566 03f6 C6E6     		b	.L32
 567              	.L113:
ARM GAS  C:\Users\Brandon\AppData\Local\Temp\cc6MGwhZ.s 			page 13


 568 03f8 05AC     		add	r4, sp, #20
 569 03fa 00FB075E 		mla	lr, r0, r7, r5
 570 03fe 07F10108 		add	r8, r7, #1
 571 0402 04EB8104 		add	r4, r4, r1, lsl #2
 572 0406 1FFA88F7 		uxth	r7, r8
 573 040a C4F80CE0 		str	lr, [r4, #12]
 574 040e 4AE6     		b	.L16
 575              	.L14:
 576 0410 012A     		cmp	r2, #1
 577 0412 7FF42DAE 		bne	.L15
 578 0416 BDF91820 		ldrsh	r2, [sp, #24]
 579 041a 002A     		cmp	r2, #0
 580 041c 7FF428AE 		bne	.L15
 581 0420 2C49     		ldr	r1, .L120+104
 582 0422 6622     		movs	r2, #102
 583 0424 0591     		str	r1, [sp, #20]
 584 0426 ADF81820 		strh	r2, [sp, #24]	@ movhi
 585 042a 21E6     		b	.L15
 586              	.L12:
 587 042c 0722     		movs	r2, #7
 588 042e 4FF0010C 		mov	ip, #1
 589 0432 1346     		mov	r3, r2
 590 0434 6046     		mov	r0, ip
 591 0436 0D92     		str	r2, [sp, #52]
 592 0438 11E6     		b	.L13
 593              	.L118:
 594 043a 002B     		cmp	r3, #0
 595 043c B9D0     		beq	.L54
 596 043e 0024     		movs	r4, #0
 597 0440 254E     		ldr	r6, .L120+108
 598              	.L51:
 599 0442 04EB0413 		add	r3, r4, r4, lsl #4
 600 0446 05AA     		add	r2, sp, #20
 601 0448 2146     		mov	r1, r4
 602 044a 0134     		adds	r4, r4, #1
 603 044c 02EB8303 		add	r3, r2, r3, lsl #2
 604 0450 3046     		mov	r0, r6
 605 0452 A4B2     		uxth	r4, r4
 606 0454 DA8F     		ldrh	r2, [r3, #62]
 607 0456 FFF7FEFF 		bl	debug_eeprintf
 608 045a 3B68     		ldr	r3, [r7]
 609 045c 9C42     		cmp	r4, r3
 610 045e F0D3     		bcc	.L51
 611 0460 95E7     		b	.L50
 612              	.L112:
 613 0462 6622     		movs	r2, #102
 614 0464 ADF81820 		strh	r2, [sp, #24]	@ movhi
 615 0468 02E6     		b	.L15
 616              	.L121:
 617 046a 00BF     		.align	2
 618              	.L120:
 619 046c 60000000 		.word	.LC2
 620 0470 00000000 		.word	default_num_contexts
 621 0474 00000000 		.word	.LANCHOR0
 622 0478 F4000000 		.word	.LC5
 623 047c 00000000 		.word	.LANCHOR1
 624 0480 24010000 		.word	.LC6
ARM GAS  C:\Users\Brandon\AppData\Local\Temp\cc6MGwhZ.s 			page 14


 625 0484 00000000 		.word	.LANCHOR2
 626 0488 58010000 		.word	.LC7
 627 048c 8C010000 		.word	.LC8
 628 0490 A8010000 		.word	.LC9
 629 0494 C4010000 		.word	.LC10
 630 0498 DC010000 		.word	.LC11
 631 049c 34020000 		.word	.LC13
 632 04a0 50020000 		.word	.LC14
 633 04a4 6C020000 		.word	.LC15
 634 04a8 84020000 		.word	.LC16
 635 04ac 88020000 		.word	.LC17
 636 04b0 A0020000 		.word	.LC18
 637 04b4 A8020000 		.word	.LC19
 638 04b8 C0020000 		.word	.LC20
 639 04bc DC020000 		.word	.LC21
 640 04c0 FC020000 		.word	.LC22
 641 04c4 3C030000 		.word	.LC24
 642 04c8 D0030000 		.word	.LC29
 643 04cc E4030000 		.word	.LC30
 644 04d0 94000000 		.word	.LC3
 645 04d4 15341534 		.word	873804821
 646 04d8 1C030000 		.word	.LC23
 647              	.L41:
 648 04dc 1D48     		ldr	r0, .L122
 649 04de 0135     		adds	r5, r5, #1
 650 04e0 FFF7FEFF 		bl	debug_eeprintf
 651 04e4 0CE7     		b	.L111
 652              	.L119:
 653 04e6 1C48     		ldr	r0, .L122+4
 654 04e8 FFF7FEFF 		bl	debug_eeprintf
 655 04ec B8F1030F 		cmp	r8, #3
 656 04f0 7FF467AF 		bne	.L58
 657 04f4 0C9A     		ldr	r2, [sp, #48]
 658 04f6 5046     		mov	r0, r10
 659 04f8 3B68     		ldr	r3, [r7]
 660 04fa 03FB02F3 		mul	r3, r3, r2
 661 04fe 07EE903A 		vmov	s15, r3	@ int
 662 0502 B8EE678B 		vcvt.f64.u32	d8, s15
 663 0506 FFF7FEFF 		bl	time_in_secs
 664 050a 1449     		ldr	r1, .L122+8
 665 050c 1448     		ldr	r0, .L122+12
 666 050e 88EE007B 		vdiv.f64	d7, d8, d0
 667 0512 CDE90010 		strd	r1, r0, [sp]
 668 0516 1348     		ldr	r0, .L122+16
 669 0518 53EC172B 		vmov	r2, r3, d7
 670 051c FFF7FEFF 		bl	debug_eeprintf
 671 0520 1149     		ldr	r1, .L122+20
 672 0522 1248     		ldr	r0, .L122+24
 673 0524 FFF7FEFF 		bl	debug_eeprintf
 674 0528 1148     		ldr	r0, .L122+28
 675 052a FFF7FEFF 		bl	debug_eeprintf
 676 052e 48E7     		b	.L58
 677              	.L25:
 678 0530 1048     		ldr	r0, .L122+32
 679 0532 4FF00108 		mov	r8, #1
 680 0536 FFF7FEFF 		bl	debug_eeprintf
 681 053a 24E6     		b	.L32
ARM GAS  C:\Users\Brandon\AppData\Local\Temp\cc6MGwhZ.s 			page 15


 682              	.L27:
 683 053c 0E48     		ldr	r0, .L122+36
 684 053e 4FF00408 		mov	r8, #4
 685 0542 FFF7FEFF 		bl	debug_eeprintf
 686 0546 1EE6     		b	.L32
 687              	.L30:
 688 0548 0C48     		ldr	r0, .L122+40
 689 054a 4FF00008 		mov	r8, #0
 690 054e FFF7FEFF 		bl	debug_eeprintf
 691 0552 18E6     		b	.L32
 692              	.L123:
 693              		.align	2
 694              	.L122:
 695 0554 F4010000 		.word	.LC12
 696 0558 5C030000 		.word	.LC25
 697 055c 50020000 		.word	.LC14
 698 0560 84020000 		.word	.LC16
 699 0564 A8030000 		.word	.LC26
 700 0568 A0020000 		.word	.LC18
 701 056c C4030000 		.word	.LC27
 702 0570 CC030000 		.word	.LC28
 703 0574 30000000 		.word	.LC1
 704 0578 C4000000 		.word	.LC4
 705 057c 00000000 		.word	.LC0
 707              		.global	mem_name
 708              		.section	.rodata.str1.4,"aMS",%progbits,1
 709              		.align	2
 710              	.LC31:
 711 0000 53746174 		.ascii	"Static\000"
 711      696300
 712 0007 00       		.align	2
 713              	.LC32:
 714 0008 48656170 		.ascii	"Heap\000"
 714      00
 715 000d 000000   		.align	2
 716              	.LC33:
 717 0010 53746163 		.ascii	"Stack\000"
 717      6B00
 718              		.section	.data.mem_name,"aw"
 719              		.align	2
 722              	mem_name:
 723 0000 00000000 		.word	.LC31
 724 0004 08000000 		.word	.LC32
 725 0008 10000000 		.word	.LC33
 726              		.section	.rodata.list_known_crc,"a"
 727              		.align	2
 728              		.set	.LANCHOR0,. + 0
 731              	list_known_crc:
 732 0000 B0D4     		.short	-11088
 733 0002 4033     		.short	13120
 734 0004 796A     		.short	27257
 735 0006 14E7     		.short	-6380
 736 0008 C1E3     		.short	-7231
 737              		.section	.rodata.matrix_known_crc,"a"
 738              		.align	2
 739              		.set	.LANCHOR1,. + 0
 742              	matrix_known_crc:
ARM GAS  C:\Users\Brandon\AppData\Local\Temp\cc6MGwhZ.s 			page 16


 743 0000 52BE     		.short	-16814
 744 0002 9911     		.short	4505
 745 0004 0856     		.short	22024
 746 0006 D71F     		.short	8151
 747 0008 4707     		.short	1863
 748              		.section	.rodata.state_known_crc,"a"
 749              		.align	2
 750              		.set	.LANCHOR2,. + 0
 753              	state_known_crc:
 754 0000 475E     		.short	24135
 755 0002 BF39     		.short	14783
 756 0004 A4E5     		.short	-6748
 757 0006 3A8E     		.short	-29126
 758 0008 848D     		.short	-29308
 759              		.ident	"GCC: (GNU Arm Embedded Toolchain 9-2020-q2-update) 9.3.1 20200408 (release)"
ARM GAS  C:\Users\Brandon\AppData\Local\Temp\cc6MGwhZ.s 			page 17


DEFINED SYMBOLS
                            *ABS*:00000000 core_main.c
C:\Users\Brandon\AppData\Local\Temp\cc6MGwhZ.s:15     .text.iterate:00000000 $t
C:\Users\Brandon\AppData\Local\Temp\cc6MGwhZ.s:24     .text.iterate:00000000 iterate
C:\Users\Brandon\AppData\Local\Temp\cc6MGwhZ.s:58     .rodata.core_main.str1.4:00000000 $d
C:\Users\Brandon\AppData\Local\Temp\cc6MGwhZ.s:162    .text.core_main:00000000 $t
C:\Users\Brandon\AppData\Local\Temp\cc6MGwhZ.s:170    .text.core_main:00000000 core_main
C:\Users\Brandon\AppData\Local\Temp\cc6MGwhZ.s:619    .text.core_main:0000046c $d
C:\Users\Brandon\AppData\Local\Temp\cc6MGwhZ.s:648    .text.core_main:000004dc $t
C:\Users\Brandon\AppData\Local\Temp\cc6MGwhZ.s:695    .text.core_main:00000554 $d
C:\Users\Brandon\AppData\Local\Temp\cc6MGwhZ.s:722    .data.mem_name:00000000 mem_name
C:\Users\Brandon\AppData\Local\Temp\cc6MGwhZ.s:709    .rodata.str1.4:00000000 $d
C:\Users\Brandon\AppData\Local\Temp\cc6MGwhZ.s:719    .data.mem_name:00000000 $d
C:\Users\Brandon\AppData\Local\Temp\cc6MGwhZ.s:727    .rodata.list_known_crc:00000000 $d
C:\Users\Brandon\AppData\Local\Temp\cc6MGwhZ.s:731    .rodata.list_known_crc:00000000 list_known_crc
C:\Users\Brandon\AppData\Local\Temp\cc6MGwhZ.s:738    .rodata.matrix_known_crc:00000000 $d
C:\Users\Brandon\AppData\Local\Temp\cc6MGwhZ.s:742    .rodata.matrix_known_crc:00000000 matrix_known_crc
C:\Users\Brandon\AppData\Local\Temp\cc6MGwhZ.s:749    .rodata.state_known_crc:00000000 $d
C:\Users\Brandon\AppData\Local\Temp\cc6MGwhZ.s:753    .rodata.state_known_crc:00000000 state_known_crc

UNDEFINED SYMBOLS
core_bench_list
crcu16
portable_init
get_seed_32
core_init_state
start_time
stop_time
get_time
time_in_secs
crc16
debug_eeprintf
core_list_init
core_init_matrix
check_data_types
portable_fini
default_num_contexts
