ARM GAS  C:\Users\Brandon\AppData\Local\Temp\ccKH48YT.s 			page 1


   1              		.cpu cortex-m7
   2              		.eabi_attribute 28, 1
   3              		.eabi_attribute 20, 1
   4              		.eabi_attribute 21, 1
   5              		.eabi_attribute 23, 3
   6              		.eabi_attribute 24, 1
   7              		.eabi_attribute 25, 1
   8              		.eabi_attribute 26, 1
   9              		.eabi_attribute 30, 2
  10              		.eabi_attribute 34, 1
  11              		.eabi_attribute 18, 4
  12              		.file	"core_util.c"
  13              		.text
  14              		.section	.text.get_seed_32,"ax",%progbits
  15              		.align	1
  16              		.p2align 2,,3
  17              		.global	get_seed_32
  18              		.arch armv7e-m
  19              		.syntax unified
  20              		.thumb
  21              		.thumb_func
  22              		.fpu fpv5-d16
  24              	get_seed_32:
  25              		@ args = 0, pretend = 0, frame = 0
  26              		@ frame_needed = 0, uses_anonymous_args = 0
  27              		@ link register save eliminated.
  28 0000 0138     		subs	r0, r0, #1
  29 0002 0428     		cmp	r0, #4
  30 0004 13D8     		bhi	.L9
  31 0006 DFE800F0 		tbb	[pc, r0]
  32              	.L4:
  33 000a 06       		.byte	(.L8-.L4)/2
  34 000b 09       		.byte	(.L7-.L4)/2
  35 000c 0C       		.byte	(.L6-.L4)/2
  36 000d 0F       		.byte	(.L5-.L4)/2
  37 000e 03       		.byte	(.L3-.L4)/2
  38 000f 00       		.p2align 1
  39              	.L3:
  40 0010 084B     		ldr	r3, .L11
  41 0012 1868     		ldr	r0, [r3]
  42 0014 7047     		bx	lr
  43              	.L8:
  44 0016 084B     		ldr	r3, .L11+4
  45 0018 1868     		ldr	r0, [r3]
  46 001a 7047     		bx	lr
  47              	.L7:
  48 001c 074B     		ldr	r3, .L11+8
  49 001e 1868     		ldr	r0, [r3]
  50 0020 7047     		bx	lr
  51              	.L6:
  52 0022 074B     		ldr	r3, .L11+12
  53 0024 1868     		ldr	r0, [r3]
  54 0026 7047     		bx	lr
  55              	.L5:
  56 0028 064B     		ldr	r3, .L11+16
  57 002a 1868     		ldr	r0, [r3]
  58 002c 7047     		bx	lr
ARM GAS  C:\Users\Brandon\AppData\Local\Temp\ccKH48YT.s 			page 2


  59              	.L9:
  60 002e 0020     		movs	r0, #0
  61 0030 7047     		bx	lr
  62              	.L12:
  63 0032 00BF     		.align	2
  64              	.L11:
  65 0034 00000000 		.word	seed5_volatile
  66 0038 00000000 		.word	seed1_volatile
  67 003c 00000000 		.word	seed2_volatile
  68 0040 00000000 		.word	seed3_volatile
  69 0044 00000000 		.word	seed4_volatile
  71              		.section	.text.crcu8,"ax",%progbits
  72              		.align	1
  73              		.p2align 2,,3
  74              		.global	crcu8
  75              		.syntax unified
  76              		.thumb
  77              		.thumb_func
  78              		.fpu fpv5-d16
  80              	crcu8:
  81              		@ args = 0, pretend = 0, frame = 0
  82              		@ frame_needed = 0, uses_anonymous_args = 0
  83              		@ link register save eliminated.
  84 0000 10B4     		push	{r4}
  85 0002 0823     		movs	r3, #8
  86 0004 4AF20104 		movw	r4, #40961
  87              	.L16:
  88 0008 81EA0002 		eor	r2, r1, r0
  89 000c 013B     		subs	r3, r3, #1
  90 000e 4008     		lsrs	r0, r0, #1
  91 0010 12F0010F 		tst	r2, #1
  92 0014 14BF     		ite	ne
  93 0016 84EA5101 		eorne	r1, r4, r1, lsr #1
  94 001a 4908     		lsreq	r1, r1, #1
  95 001c 13F0FF03 		ands	r3, r3, #255
  96 0020 F2D1     		bne	.L16
  97 0022 0846     		mov	r0, r1
  98 0024 5DF8044B 		ldr	r4, [sp], #4
  99 0028 7047     		bx	lr
 101 002a 00BF     		.section	.text.crcu16,"ax",%progbits
 102              		.align	1
 103              		.p2align 2,,3
 104              		.global	crcu16
 105              		.syntax unified
 106              		.thumb
 107              		.thumb_func
 108              		.fpu fpv5-d16
 110              	crcu16:
 111              		@ args = 0, pretend = 0, frame = 0
 112              		@ frame_needed = 0, uses_anonymous_args = 0
 113              		@ link register save eliminated.
 114 0000 30B4     		push	{r4, r5}
 115 0002 0823     		movs	r3, #8
 116 0004 4AF20105 		movw	r5, #40961
 117 0008 C4B2     		uxtb	r4, r0
 118              	.L22:
 119 000a 81EA0402 		eor	r2, r1, r4
ARM GAS  C:\Users\Brandon\AppData\Local\Temp\ccKH48YT.s 			page 3


 120 000e 013B     		subs	r3, r3, #1
 121 0010 6408     		lsrs	r4, r4, #1
 122 0012 12F0010F 		tst	r2, #1
 123 0016 0CBF     		ite	eq
 124 0018 4908     		lsreq	r1, r1, #1
 125 001a 85EA5101 		eorne	r1, r5, r1, lsr #1
 126 001e 13F0FF03 		ands	r3, r3, #255
 127 0022 F2D1     		bne	.L22
 128 0024 000A     		lsrs	r0, r0, #8
 129 0026 0823     		movs	r3, #8
 130 0028 4AF20104 		movw	r4, #40961
 131              	.L25:
 132 002c 81EA0002 		eor	r2, r1, r0
 133 0030 013B     		subs	r3, r3, #1
 134 0032 4008     		lsrs	r0, r0, #1
 135 0034 12F0010F 		tst	r2, #1
 136 0038 14BF     		ite	ne
 137 003a 84EA5101 		eorne	r1, r4, r1, lsr #1
 138 003e 4908     		lsreq	r1, r1, #1
 139 0040 13F0FF03 		ands	r3, r3, #255
 140 0044 F2D1     		bne	.L25
 141 0046 0846     		mov	r0, r1
 142 0048 30BC     		pop	{r4, r5}
 143 004a 7047     		bx	lr
 145              		.section	.text.crcu32,"ax",%progbits
 146              		.align	1
 147              		.p2align 2,,3
 148              		.global	crcu32
 149              		.syntax unified
 150              		.thumb
 151              		.thumb_func
 152              		.fpu fpv5-d16
 154              	crcu32:
 155              		@ args = 0, pretend = 0, frame = 0
 156              		@ frame_needed = 0, uses_anonymous_args = 0
 157 0000 10B5     		push	{r4, lr}
 158 0002 0446     		mov	r4, r0
 159 0004 80B2     		uxth	r0, r0
 160 0006 FFF7FEFF 		bl	crcu16
 161 000a 0146     		mov	r1, r0
 162 000c 200C     		lsrs	r0, r4, #16
 163 000e BDE81040 		pop	{r4, lr}
 164 0012 FFF7FEBF 		b	crcu16
 166 0016 00BF     		.section	.text.crc16,"ax",%progbits
 167              		.align	1
 168              		.p2align 2,,3
 169              		.global	crc16
 170              		.syntax unified
 171              		.thumb
 172              		.thumb_func
 173              		.fpu fpv5-d16
 175              	crc16:
 176              		@ args = 0, pretend = 0, frame = 0
 177              		@ frame_needed = 0, uses_anonymous_args = 0
 178              		@ link register save eliminated.
 179 0000 80B2     		uxth	r0, r0
 180 0002 FFF7FEBF 		b	crcu16
ARM GAS  C:\Users\Brandon\AppData\Local\Temp\ccKH48YT.s 			page 4


 182 0006 00BF     		.section	.text.check_data_types,"ax",%progbits
 183              		.align	1
 184              		.p2align 2,,3
 185              		.global	check_data_types
 186              		.syntax unified
 187              		.thumb
 188              		.thumb_func
 189              		.fpu fpv5-d16
 191              	check_data_types:
 192              		@ args = 0, pretend = 0, frame = 0
 193              		@ frame_needed = 0, uses_anonymous_args = 0
 194              		@ link register save eliminated.
 195 0000 0020     		movs	r0, #0
 196 0002 7047     		bx	lr
 198              		.ident	"GCC: (GNU Arm Embedded Toolchain 9-2020-q2-update) 9.3.1 20200408 (release)"
ARM GAS  C:\Users\Brandon\AppData\Local\Temp\ccKH48YT.s 			page 5


DEFINED SYMBOLS
                            *ABS*:00000000 core_util.c
C:\Users\Brandon\AppData\Local\Temp\ccKH48YT.s:15     .text.get_seed_32:00000000 $t
C:\Users\Brandon\AppData\Local\Temp\ccKH48YT.s:24     .text.get_seed_32:00000000 get_seed_32
C:\Users\Brandon\AppData\Local\Temp\ccKH48YT.s:33     .text.get_seed_32:0000000a $d
C:\Users\Brandon\AppData\Local\Temp\ccKH48YT.s:65     .text.get_seed_32:00000034 $d
C:\Users\Brandon\AppData\Local\Temp\ccKH48YT.s:72     .text.crcu8:00000000 $t
C:\Users\Brandon\AppData\Local\Temp\ccKH48YT.s:80     .text.crcu8:00000000 crcu8
C:\Users\Brandon\AppData\Local\Temp\ccKH48YT.s:102    .text.crcu16:00000000 $t
C:\Users\Brandon\AppData\Local\Temp\ccKH48YT.s:110    .text.crcu16:00000000 crcu16
C:\Users\Brandon\AppData\Local\Temp\ccKH48YT.s:146    .text.crcu32:00000000 $t
C:\Users\Brandon\AppData\Local\Temp\ccKH48YT.s:154    .text.crcu32:00000000 crcu32
C:\Users\Brandon\AppData\Local\Temp\ccKH48YT.s:167    .text.crc16:00000000 $t
C:\Users\Brandon\AppData\Local\Temp\ccKH48YT.s:175    .text.crc16:00000000 crc16
C:\Users\Brandon\AppData\Local\Temp\ccKH48YT.s:183    .text.check_data_types:00000000 $t
C:\Users\Brandon\AppData\Local\Temp\ccKH48YT.s:191    .text.check_data_types:00000000 check_data_types
C:\Users\Brandon\AppData\Local\Temp\ccKH48YT.s:38     .text.get_seed_32:0000000f $d
C:\Users\Brandon\AppData\Local\Temp\ccKH48YT.s:38     .text.get_seed_32:00000010 $t

UNDEFINED SYMBOLS
seed5_volatile
seed1_volatile
seed2_volatile
seed3_volatile
seed4_volatile
