ARM GAS  C:\Users\Brandon\AppData\Local\Temp\ccKdDlSB.s 			page 1


   1              		.cpu cortex-m7
   2              		.eabi_attribute 28, 1
   3              		.eabi_attribute 20, 1
   4              		.eabi_attribute 21, 1
   5              		.eabi_attribute 23, 3
   6              		.eabi_attribute 24, 1
   7              		.eabi_attribute 25, 1
   8              		.eabi_attribute 26, 1
   9              		.eabi_attribute 30, 2
  10              		.eabi_attribute 34, 1
  11              		.eabi_attribute 18, 4
  12              		.file	"core_state.c"
  13              		.text
  14              		.section	.text.core_init_state,"ax",%progbits
  15              		.align	1
  16              		.p2align 2,,3
  17              		.global	core_init_state
  18              		.arch armv7e-m
  19              		.syntax unified
  20              		.thumb
  21              		.thumb_func
  22              		.fpu fpv5-d16
  24              	core_init_state:
  25              		@ args = 0, pretend = 0, frame = 0
  26              		@ frame_needed = 0, uses_anonymous_args = 0
  27 0000 2DE9F04F 		push	{r4, r5, r6, r7, r8, r9, r10, fp, lr}
  28 0004 00F1FF38 		add	r8, r0, #-1
  29 0008 B8F1010F 		cmp	r8, #1
  30 000c 54D9     		bls	.L12
  31 000e 0131     		adds	r1, r1, #1
  32 0010 0024     		movs	r4, #0
  33 0012 DFF8B0B0 		ldr	fp, .L20+8
  34 0016 4FF02C09 		mov	r9, #44
  35 001a 89B2     		uxth	r1, r1
  36 001c DFF8A8A0 		ldr	r10, .L20+12
  37 0020 01F00703 		and	r3, r1, #7
  38 0024 0DB2     		sxth	r5, r1
  39 0026 072B     		cmp	r3, #7
  40 0028 23D0     		beq	.L5
  41              	.L19:
  42 002a 042B     		cmp	r3, #4
  43 002c 3DD8     		bhi	.L6
  44 002e 033B     		subs	r3, r3, #3
  45 0030 012B     		cmp	r3, #1
  46 0032 C5F3C103 		ubfx	r3, r5, #3, #2
  47 0036 32D8     		bhi	.L17
  48 0038 204E     		ldr	r6, .L20
  49 003a 0925     		movs	r5, #9
  50 003c 0827     		movs	r7, #8
  51 003e 56F82330 		ldr	r3, [r6, r3, lsl #2]
  52              	.L8:
  53 0042 2544     		add	r5, r5, r4
  54 0044 4545     		cmp	r5, r8
  55 0046 1DD2     		bcs	.L18
  56              	.L9:
  57 0048 02EB040C 		add	ip, r2, r4
  58 004c 03EB070E 		add	lr, r3, r7
ARM GAS  C:\Users\Brandon\AppData\Local\Temp\ccKdDlSB.s 			page 2


  59 0050 6446     		mov	r4, ip
  60              	.L4:
  61 0052 13F8016B 		ldrb	r6, [r3], #1	@ zero_extendqisi2
  62 0056 9E45     		cmp	lr, r3
  63 0058 04F8016B 		strb	r6, [r4], #1
  64 005c F9D1     		bne	.L4
  65 005e 0131     		adds	r1, r1, #1
  66 0060 2C46     		mov	r4, r5
  67 0062 0CF80790 		strb	r9, [ip, r7]
  68 0066 89B2     		uxth	r1, r1
  69 0068 01F00703 		and	r3, r1, #7
  70 006c 0DB2     		sxth	r5, r1
  71 006e 072B     		cmp	r3, #7
  72 0070 DBD1     		bne	.L19
  73              	.L5:
  74 0072 C5F3C103 		ubfx	r3, r5, #3, #2
  75 0076 0925     		movs	r5, #9
  76 0078 0827     		movs	r7, #8
  77 007a 2544     		add	r5, r5, r4
  78 007c 5BF82330 		ldr	r3, [fp, r3, lsl #2]
  79 0080 4545     		cmp	r5, r8
  80 0082 E1D3     		bcc	.L9
  81              	.L18:
  82 0084 8442     		cmp	r4, r0
  83 0086 08D2     		bcs	.L1
  84              	.L2:
  85 0088 531E     		subs	r3, r2, #1
  86 008a 013C     		subs	r4, r4, #1
  87 008c 0021     		movs	r1, #0
  88 008e 2244     		add	r2, r2, r4
  89 0090 1844     		add	r0, r0, r3
  90              	.L10:
  91 0092 02F8011F 		strb	r1, [r2, #1]!
  92 0096 9042     		cmp	r0, r2
  93 0098 FBD1     		bne	.L10
  94              	.L1:
  95 009a BDE8F08F 		pop	{r4, r5, r6, r7, r8, r9, r10, fp, pc}
  96              	.L17:
  97 009e 084E     		ldr	r6, .L20+4
  98 00a0 0525     		movs	r5, #5
  99 00a2 0427     		movs	r7, #4
 100 00a4 56F82330 		ldr	r3, [r6, r3, lsl #2]
 101 00a8 CBE7     		b	.L8
 102              	.L6:
 103 00aa C5F3C103 		ubfx	r3, r5, #3, #2
 104 00ae 0827     		movs	r7, #8
 105 00b0 0925     		movs	r5, #9
 106 00b2 5AF82330 		ldr	r3, [r10, r3, lsl #2]
 107 00b6 C4E7     		b	.L8
 108              	.L12:
 109 00b8 0024     		movs	r4, #0
 110 00ba E5E7     		b	.L2
 111              	.L21:
 112              		.align	2
 113              	.L20:
 114 00bc 00000000 		.word	.LANCHOR1
 115 00c0 00000000 		.word	.LANCHOR0
ARM GAS  C:\Users\Brandon\AppData\Local\Temp\ccKdDlSB.s 			page 3


 116 00c4 00000000 		.word	.LANCHOR3
 117 00c8 00000000 		.word	.LANCHOR2
 119              		.section	.text.core_state_transition,"ax",%progbits
 120              		.align	1
 121              		.p2align 2,,3
 122              		.global	core_state_transition
 123              		.syntax unified
 124              		.thumb
 125              		.thumb_func
 126              		.fpu fpv5-d16
 128              	core_state_transition:
 129              		@ args = 0, pretend = 0, frame = 0
 130              		@ frame_needed = 0, uses_anonymous_args = 0
 131              		@ link register save eliminated.
 132 0000 0368     		ldr	r3, [r0]
 133 0002 30B4     		push	{r4, r5}
 134 0004 0546     		mov	r5, r0
 135 0006 1878     		ldrb	r0, [r3]	@ zero_extendqisi2
 136 0008 0028     		cmp	r0, #0
 137 000a 44D0     		beq	.L24
 138 000c 2C28     		cmp	r0, #44
 139 000e 00F0CE80 		beq	.L84
 140 0012 A0F13002 		sub	r2, r0, #48
 141 0016 092A     		cmp	r2, #9
 142 0018 40D8     		bhi	.L31
 143 001a 0A68     		ldr	r2, [r1]
 144 001c 581C     		adds	r0, r3, #1
 145 001e 0132     		adds	r2, r2, #1
 146 0020 0A60     		str	r2, [r1]
 147 0022 5A78     		ldrb	r2, [r3, #1]	@ zero_extendqisi2
 148 0024 002A     		cmp	r2, #0
 149 0026 6FD0     		beq	.L62
 150              	.L80:
 151 0028 2C2A     		cmp	r2, #44
 152 002a 00F0C580 		beq	.L85
 153              	.L55:
 154 002e 2E2A     		cmp	r2, #46
 155 0030 A2F13003 		sub	r3, r2, #48
 156 0034 0BD0     		beq	.L86
 157 0036 092B     		cmp	r3, #9
 158 0038 00F10103 		add	r3, r0, #1
 159 003c 3FD8     		bhi	.L87
 160 003e 4278     		ldrb	r2, [r0, #1]	@ zero_extendqisi2
 161 0040 1846     		mov	r0, r3
 162 0042 002A     		cmp	r2, #0
 163 0044 61D0     		beq	.L77
 164 0046 2C2A     		cmp	r2, #44
 165 0048 F1D1     		bne	.L55
 166 004a 0420     		movs	r0, #4
 167 004c B0E0     		b	.L25
 168              	.L86:
 169 004e 0B69     		ldr	r3, [r1, #16]
 170 0050 441C     		adds	r4, r0, #1
 171 0052 0133     		adds	r3, r3, #1
 172 0054 0B61     		str	r3, [r1, #16]
 173 0056 4278     		ldrb	r2, [r0, #1]	@ zero_extendqisi2
 174 0058 002A     		cmp	r2, #0
ARM GAS  C:\Users\Brandon\AppData\Local\Temp\ccKdDlSB.s 			page 4


 175 005a 00F09C80 		beq	.L64
 176              	.L82:
 177 005e 2C2A     		cmp	r2, #44
 178 0060 00F0AD80 		beq	.L88
 179              	.L54:
 180 0064 02F0DF03 		and	r3, r2, #223
 181 0068 303A     		subs	r2, r2, #48
 182 006a 452B     		cmp	r3, #69
 183 006c 4FD1     		bne	.L42
 184 006e 4A69     		ldr	r2, [r1, #20]
 185 0070 631C     		adds	r3, r4, #1
 186 0072 0132     		adds	r2, r2, #1
 187 0074 4A61     		str	r2, [r1, #20]
 188 0076 6278     		ldrb	r2, [r4, #1]	@ zero_extendqisi2
 189 0078 002A     		cmp	r2, #0
 190 007a 00F0A580 		beq	.L89
 191 007e 2C2A     		cmp	r2, #44
 192 0080 00F0A480 		beq	.L90
 193 0084 2B2A     		cmp	r2, #43
 194 0086 4DD0     		beq	.L72
 195 0088 2D2A     		cmp	r2, #45
 196 008a 4BD0     		beq	.L72
 197 008c CA68     		ldr	r2, [r1, #12]
 198 008e 0120     		movs	r0, #1
 199 0090 A31C     		adds	r3, r4, #2
 200 0092 0244     		add	r2, r2, r0
 201 0094 CA60     		str	r2, [r1, #12]
 202              	.L24:
 203 0096 2B60     		str	r3, [r5]
 204 0098 30BC     		pop	{r4, r5}
 205 009a 7047     		bx	lr
 206              	.L31:
 207 009c 2B28     		cmp	r0, #43
 208 009e 15D0     		beq	.L32
 209 00a0 2D28     		cmp	r0, #45
 210 00a2 13D0     		beq	.L32
 211 00a4 2E28     		cmp	r0, #46
 212 00a6 6ED0     		beq	.L33
 213 00a8 4C68     		ldr	r4, [r1, #4]
 214 00aa 0120     		movs	r0, #1
 215 00ac 0A68     		ldr	r2, [r1]
 216 00ae 0133     		adds	r3, r3, #1
 217 00b0 0444     		add	r4, r4, r0
 218 00b2 0244     		add	r2, r2, r0
 219 00b4 C1E90024 		strd	r2, r4, [r1]
 220 00b8 2B60     		str	r3, [r5]
 221 00ba 30BC     		pop	{r4, r5}
 222 00bc 7047     		bx	lr
 223              	.L87:
 224 00be 0A69     		ldr	r2, [r1, #16]
 225 00c0 0120     		movs	r0, #1
 226 00c2 0244     		add	r2, r2, r0
 227 00c4 0A61     		str	r2, [r1, #16]
 228 00c6 2B60     		str	r3, [r5]
 229 00c8 30BC     		pop	{r4, r5}
 230 00ca 7047     		bx	lr
 231              	.L32:
ARM GAS  C:\Users\Brandon\AppData\Local\Temp\ccKdDlSB.s 			page 5


 232 00cc 0A68     		ldr	r2, [r1]
 233 00ce 581C     		adds	r0, r3, #1
 234 00d0 0132     		adds	r2, r2, #1
 235 00d2 0A60     		str	r2, [r1]
 236 00d4 5A78     		ldrb	r2, [r3, #1]	@ zero_extendqisi2
 237 00d6 002A     		cmp	r2, #0
 238 00d8 7ED0     		beq	.L66
 239 00da 2C2A     		cmp	r2, #44
 240 00dc 7FD0     		beq	.L67
 241 00de A2F13000 		sub	r0, r2, #48
 242 00e2 0928     		cmp	r0, #9
 243 00e4 09D9     		bls	.L34
 244 00e6 2E2A     		cmp	r2, #46
 245 00e8 58D0     		beq	.L91
 246 00ea 8A68     		ldr	r2, [r1, #8]
 247 00ec 0120     		movs	r0, #1
 248 00ee 0233     		adds	r3, r3, #2
 249 00f0 0244     		add	r2, r2, r0
 250 00f2 8A60     		str	r2, [r1, #8]
 251 00f4 2B60     		str	r3, [r5]
 252 00f6 30BC     		pop	{r4, r5}
 253 00f8 7047     		bx	lr
 254              	.L34:
 255 00fa 8A68     		ldr	r2, [r1, #8]
 256 00fc 981C     		adds	r0, r3, #2
 257 00fe 0132     		adds	r2, r2, #1
 258 0100 8A60     		str	r2, [r1, #8]
 259 0102 9A78     		ldrb	r2, [r3, #2]	@ zero_extendqisi2
 260 0104 002A     		cmp	r2, #0
 261 0106 8FD1     		bne	.L80
 262              	.L62:
 263 0108 0346     		mov	r3, r0
 264              	.L77:
 265 010a 0420     		movs	r0, #4
 266 010c C3E7     		b	.L24
 267              	.L42:
 268 010e 092A     		cmp	r2, #9
 269 0110 04F10103 		add	r3, r4, #1
 270 0114 2FD9     		bls	.L44
 271 0116 4A69     		ldr	r2, [r1, #20]
 272 0118 0120     		movs	r0, #1
 273 011a 0244     		add	r2, r2, r0
 274 011c 4A61     		str	r2, [r1, #20]
 275 011e 2B60     		str	r3, [r5]
 276 0120 30BC     		pop	{r4, r5}
 277 0122 7047     		bx	lr
 278              	.L72:
 279 0124 CA68     		ldr	r2, [r1, #12]
 280 0126 A31C     		adds	r3, r4, #2
 281 0128 0132     		adds	r2, r2, #1
 282 012a CA60     		str	r2, [r1, #12]
 283 012c A278     		ldrb	r2, [r4, #2]	@ zero_extendqisi2
 284 012e 002A     		cmp	r2, #0
 285 0130 4ED0     		beq	.L92
 286 0132 2C2A     		cmp	r2, #44
 287 0134 46D0     		beq	.L93
 288 0136 303A     		subs	r2, r2, #48
ARM GAS  C:\Users\Brandon\AppData\Local\Temp\ccKdDlSB.s 			page 6


 289 0138 E31C     		adds	r3, r4, #3
 290 013a 092A     		cmp	r2, #9
 291 013c 8A69     		ldr	r2, [r1, #24]
 292 013e 03D9     		bls	.L48
 293 0140 0120     		movs	r0, #1
 294 0142 0244     		add	r2, r2, r0
 295 0144 8A61     		str	r2, [r1, #24]
 296 0146 A6E7     		b	.L24
 297              	.L48:
 298 0148 0132     		adds	r2, r2, #1
 299 014a 8A61     		str	r2, [r1, #24]
 300 014c E278     		ldrb	r2, [r4, #3]	@ zero_extendqisi2
 301 014e 8AB3     		cbz	r2, .L78
 302 0150 2C2A     		cmp	r2, #44
 303 0152 0ED0     		beq	.L76
 304              	.L28:
 305 0154 303A     		subs	r2, r2, #48
 306 0156 581C     		adds	r0, r3, #1
 307 0158 092A     		cmp	r2, #9
 308 015a 05D9     		bls	.L50
 309 015c 4A68     		ldr	r2, [r1, #4]
 310 015e 0346     		mov	r3, r0
 311 0160 0120     		movs	r0, #1
 312 0162 0244     		add	r2, r2, r0
 313 0164 4A60     		str	r2, [r1, #4]
 314 0166 96E7     		b	.L24
 315              	.L50:
 316 0168 5A78     		ldrb	r2, [r3, #1]	@ zero_extendqisi2
 317 016a 0346     		mov	r3, r0
 318 016c 12B3     		cbz	r2, .L78
 319 016e 2C2A     		cmp	r2, #44
 320 0170 F0D1     		bne	.L28
 321              	.L76:
 322 0172 0720     		movs	r0, #7
 323 0174 1CE0     		b	.L25
 324              	.L44:
 325 0176 6278     		ldrb	r2, [r4, #1]	@ zero_extendqisi2
 326 0178 1C46     		mov	r4, r3
 327 017a 5AB3     		cbz	r2, .L68
 328 017c 2C2A     		cmp	r2, #44
 329 017e 7FF471AF 		bne	.L54
 330 0182 0520     		movs	r0, #5
 331 0184 14E0     		b	.L25
 332              	.L33:
 333 0186 0A68     		ldr	r2, [r1]
 334 0188 5C1C     		adds	r4, r3, #1
 335 018a 0132     		adds	r2, r2, #1
 336 018c 0A60     		str	r2, [r1]
 337 018e 5A78     		ldrb	r2, [r3, #1]	@ zero_extendqisi2
 338 0190 002A     		cmp	r2, #0
 339 0192 7FF464AF 		bne	.L82
 340              	.L64:
 341 0196 2346     		mov	r3, r4
 342 0198 0520     		movs	r0, #5
 343 019a 7CE7     		b	.L24
 344              	.L91:
 345 019c 8A68     		ldr	r2, [r1, #8]
ARM GAS  C:\Users\Brandon\AppData\Local\Temp\ccKdDlSB.s 			page 7


 346 019e 9C1C     		adds	r4, r3, #2
 347 01a0 0132     		adds	r2, r2, #1
 348 01a2 8A60     		str	r2, [r1, #8]
 349 01a4 9A78     		ldrb	r2, [r3, #2]	@ zero_extendqisi2
 350 01a6 002A     		cmp	r2, #0
 351 01a8 7FF459AF 		bne	.L82
 352 01ac F3E7     		b	.L64
 353              	.L84:
 354 01ae 0020     		movs	r0, #0
 355              	.L25:
 356 01b0 0133     		adds	r3, r3, #1
 357 01b2 70E7     		b	.L24
 358              	.L78:
 359 01b4 0720     		movs	r0, #7
 360 01b6 6EE7     		b	.L24
 361              	.L85:
 362 01b8 0346     		mov	r3, r0
 363 01ba 0420     		movs	r0, #4
 364 01bc F8E7     		b	.L25
 365              	.L88:
 366 01be 2346     		mov	r3, r4
 367 01c0 0520     		movs	r0, #5
 368 01c2 F5E7     		b	.L25
 369              	.L93:
 370 01c4 0620     		movs	r0, #6
 371 01c6 F3E7     		b	.L25
 372              	.L89:
 373 01c8 0320     		movs	r0, #3
 374 01ca 64E7     		b	.L24
 375              	.L90:
 376 01cc 0320     		movs	r0, #3
 377 01ce EFE7     		b	.L25
 378              	.L92:
 379 01d0 0620     		movs	r0, #6
 380 01d2 60E7     		b	.L24
 381              	.L68:
 382 01d4 0520     		movs	r0, #5
 383 01d6 5EE7     		b	.L24
 384              	.L66:
 385 01d8 0346     		mov	r3, r0
 386 01da 0220     		movs	r0, #2
 387 01dc 5BE7     		b	.L24
 388              	.L67:
 389 01de 0346     		mov	r3, r0
 390 01e0 0220     		movs	r0, #2
 391 01e2 E5E7     		b	.L25
 393              		.section	.text.core_bench_state,"ax",%progbits
 394              		.align	1
 395              		.p2align 2,,3
 396              		.global	core_bench_state
 397              		.syntax unified
 398              		.thumb
 399              		.thumb_func
 400              		.fpu fpv5-d16
 402              	core_bench_state:
 403              		@ args = 8, pretend = 0, frame = 80
 404              		@ frame_needed = 0, uses_anonymous_args = 0
ARM GAS  C:\Users\Brandon\AppData\Local\Temp\ccKdDlSB.s 			page 8


 405 0000 2DE9F04F 		push	{r4, r5, r6, r7, r8, r9, r10, fp, lr}
 406 0004 95B0     		sub	sp, sp, #84
 407 0006 8946     		mov	r9, r1
 408 0008 0746     		mov	r7, r0
 409 000a 9A46     		mov	r10, r3
 410 000c 0DF12C0B 		add	fp, sp, #44
 411 0010 03AD     		add	r5, sp, #12
 412 0012 0192     		str	r2, [sp, #4]
 413 0014 0DF14C0C 		add	ip, sp, #76
 414 0018 D846     		mov	r8, fp
 415 001a 5A46     		mov	r2, fp
 416 001c 2846     		mov	r0, r5
 417 001e BDF97860 		ldrsh	r6, [sp, #120]
 418 0022 BDF87C40 		ldrh	r4, [sp, #124]
 419 0026 0021     		movs	r1, #0
 420 0028 CDF80C90 		str	r9, [sp, #12]
 421              	.L95:
 422 002c 42F8041F 		str	r1, [r2, #4]!
 423 0030 6245     		cmp	r2, ip
 424 0032 40F8041F 		str	r1, [r0, #4]!
 425 0036 F9D1     		bne	.L95
 426 0038 99F80020 		ldrb	r2, [r9]	@ zero_extendqisi2
 427 003c 002A     		cmp	r2, #0
 428 003e 5FD0     		beq	.L96
 429 0040 0CA9     		add	r1, sp, #48
 430              	.L97:
 431 0042 03A8     		add	r0, sp, #12
 432 0044 FFF7FEFF 		bl	core_state_transition
 433 0048 14AB     		add	r3, sp, #80
 434 004a 039A     		ldr	r2, [sp, #12]
 435 004c 03EB8000 		add	r0, r3, r0, lsl #2
 436 0050 1378     		ldrb	r3, [r2]	@ zero_extendqisi2
 437 0052 50F8402C 		ldr	r2, [r0, #-64]
 438 0056 0132     		adds	r2, r2, #1
 439 0058 40F8402C 		str	r2, [r0, #-64]
 440 005c 002B     		cmp	r3, #0
 441 005e F0D1     		bne	.L97
 442 0060 4F44     		add	r7, r7, r9
 443 0062 99F80020 		ldrb	r2, [r9]	@ zero_extendqisi2
 444 0066 CDF80C90 		str	r9, [sp, #12]
 445 006a 4F45     		cmp	r7, r9
 446 006c 45D9     		bls	.L98
 447              	.L111:
 448 006e 4946     		mov	r1, r9
 449 0070 00E0     		b	.L101
 450              	.L128:
 451 0072 925D     		ldrb	r2, [r2, r6]	@ zero_extendqisi2
 452              	.L101:
 453 0074 019B     		ldr	r3, [sp, #4]
 454 0076 2C2A     		cmp	r2, #44
 455 0078 82EA0302 		eor	r2, r2, r3
 456 007c 18BF     		it	ne
 457 007e 0A70     		strbne	r2, [r1]
 458 0080 039A     		ldr	r2, [sp, #12]
 459 0082 9119     		adds	r1, r2, r6
 460 0084 B942     		cmp	r1, r7
 461 0086 0391     		str	r1, [sp, #12]
ARM GAS  C:\Users\Brandon\AppData\Local\Temp\ccKdDlSB.s 			page 9


 462 0088 F3D3     		bcc	.L128
 463 008a 99F80020 		ldrb	r2, [r9]	@ zero_extendqisi2
 464 008e CDF80C90 		str	r9, [sp, #12]
 465 0092 9AB1     		cbz	r2, .L110
 466 0094 0CA9     		add	r1, sp, #48
 467              	.L106:
 468 0096 03A8     		add	r0, sp, #12
 469 0098 FFF7FEFF 		bl	core_state_transition
 470 009c 14AB     		add	r3, sp, #80
 471 009e 039A     		ldr	r2, [sp, #12]
 472 00a0 03EB8000 		add	r0, r3, r0, lsl #2
 473 00a4 1378     		ldrb	r3, [r2]	@ zero_extendqisi2
 474 00a6 50F8402C 		ldr	r2, [r0, #-64]
 475 00aa 0132     		adds	r2, r2, #1
 476 00ac 40F8402C 		str	r2, [r0, #-64]
 477 00b0 002B     		cmp	r3, #0
 478 00b2 F0D1     		bne	.L106
 479 00b4 B945     		cmp	r9, r7
 480 00b6 CDF80C90 		str	r9, [sp, #12]
 481 00ba 0ED2     		bcs	.L108
 482              	.L110:
 483 00bc 99F80020 		ldrb	r2, [r9]	@ zero_extendqisi2
 484 00c0 2C2A     		cmp	r2, #44
 485 00c2 82EA0A02 		eor	r2, r2, r10
 486 00c6 18BF     		it	ne
 487 00c8 89F80020 		strbne	r2, [r9]
 488 00cc 039B     		ldr	r3, [sp, #12]
 489 00ce 03EB0609 		add	r9, r3, r6
 490 00d2 B945     		cmp	r9, r7
 491 00d4 CDF80C90 		str	r9, [sp, #12]
 492 00d8 F0D3     		bcc	.L110
 493              	.L108:
 494 00da 2146     		mov	r1, r4
 495 00dc 55F8040F 		ldr	r0, [r5, #4]!
 496 00e0 FFF7FEFF 		bl	crcu32
 497 00e4 0146     		mov	r1, r0
 498 00e6 58F8040F 		ldr	r0, [r8, #4]!
 499 00ea FFF7FEFF 		bl	crcu32
 500 00ee 5D45     		cmp	r5, fp
 501 00f0 0446     		mov	r4, r0
 502 00f2 F2D1     		bne	.L108
 503 00f4 15B0     		add	sp, sp, #84
 504              		@ sp needed
 505 00f6 BDE8F08F 		pop	{r4, r5, r6, r7, r8, r9, r10, fp, pc}
 506              	.L98:
 507 00fa 002A     		cmp	r2, #0
 508 00fc CBD1     		bne	.L106
 509 00fe ECE7     		b	.L108
 510              	.L96:
 511 0100 4F44     		add	r7, r7, r9
 512 0102 CDF80C90 		str	r9, [sp, #12]
 513 0106 B945     		cmp	r9, r7
 514 0108 B1D3     		bcc	.L111
 515 010a E6E7     		b	.L108
 517              		.section	.rodata.str1.4,"aMS",%progbits,1
 518              		.align	2
 519              	.LC0:
ARM GAS  C:\Users\Brandon\AppData\Local\Temp\ccKdDlSB.s 			page 10


 520 0000 54302E33 		.ascii	"T0.3e-1F\000"
 520      652D3146 
 520      00
 521 0009 000000   		.align	2
 522              	.LC1:
 523 000c 2D542E54 		.ascii	"-T.T++Tq\000"
 523      2B2B5471 
 523      00
 524 0015 000000   		.align	2
 525              	.LC2:
 526 0018 3154332E 		.ascii	"1T3.4e4z\000"
 526      3465347A 
 526      00
 527 0021 000000   		.align	2
 528              	.LC3:
 529 0024 33342E30 		.ascii	"34.0e-T^\000"
 529      652D545E 
 529      00
 530 002d 000000   		.align	2
 531              	.LC4:
 532 0030 352E3530 		.ascii	"5.500e+3\000"
 532      30652B33 
 532      00
 533 0039 000000   		.align	2
 534              	.LC5:
 535 003c 2D2E3132 		.ascii	"-.123e-2\000"
 535      33652D32 
 535      00
 536 0045 000000   		.align	2
 537              	.LC6:
 538 0048 2D383765 		.ascii	"-87e+832\000"
 538      2B383332 
 538      00
 539 0051 000000   		.align	2
 540              	.LC7:
 541 0054 2B302E36 		.ascii	"+0.6e-12\000"
 541      652D3132 
 541      00
 542 005d 000000   		.align	2
 543              	.LC8:
 544 0060 33352E35 		.ascii	"35.54400\000"
 544      34343030 
 544      00
 545 0069 000000   		.align	2
 546              	.LC9:
 547 006c 2E313233 		.ascii	".1234500\000"
 547      34353030 
 547      00
 548 0075 000000   		.align	2
 549              	.LC10:
 550 0078 2D313130 		.ascii	"-110.700\000"
 550      2E373030 
 550      00
 551 0081 000000   		.align	2
 552              	.LC11:
 553 0084 2B302E36 		.ascii	"+0.64400\000"
 553      34343030 
ARM GAS  C:\Users\Brandon\AppData\Local\Temp\ccKdDlSB.s 			page 11


 553      00
 554 008d 000000   		.align	2
 555              	.LC12:
 556 0090 35303132 		.ascii	"5012\000"
 556      00
 557 0095 000000   		.align	2
 558              	.LC13:
 559 0098 31323334 		.ascii	"1234\000"
 559      00
 560 009d 000000   		.align	2
 561              	.LC14:
 562 00a0 2D383734 		.ascii	"-874\000"
 562      00
 563 00a5 000000   		.align	2
 564              	.LC15:
 565 00a8 2B313232 		.ascii	"+122\000"
 565      00
 566              		.section	.rodata.errpat,"a"
 567              		.align	2
 568              		.set	.LANCHOR3,. + 0
 571              	errpat:
 572 0000 00000000 		.word	.LC0
 573 0004 0C000000 		.word	.LC1
 574 0008 18000000 		.word	.LC2
 575 000c 24000000 		.word	.LC3
 576              		.section	.rodata.floatpat,"a"
 577              		.align	2
 578              		.set	.LANCHOR1,. + 0
 581              	floatpat:
 582 0000 60000000 		.word	.LC8
 583 0004 6C000000 		.word	.LC9
 584 0008 78000000 		.word	.LC10
 585 000c 84000000 		.word	.LC11
 586              		.section	.rodata.intpat,"a"
 587              		.align	2
 588              		.set	.LANCHOR0,. + 0
 591              	intpat:
 592 0000 90000000 		.word	.LC12
 593 0004 98000000 		.word	.LC13
 594 0008 A0000000 		.word	.LC14
 595 000c A8000000 		.word	.LC15
 596              		.section	.rodata.scipat,"a"
 597              		.align	2
 598              		.set	.LANCHOR2,. + 0
 601              	scipat:
 602 0000 30000000 		.word	.LC4
 603 0004 3C000000 		.word	.LC5
 604 0008 48000000 		.word	.LC6
 605 000c 54000000 		.word	.LC7
 606              		.ident	"GCC: (GNU Arm Embedded Toolchain 9-2020-q2-update) 9.3.1 20200408 (release)"
ARM GAS  C:\Users\Brandon\AppData\Local\Temp\ccKdDlSB.s 			page 12

