ARM GAS  C:\Users\Brandon\AppData\Local\Temp\ccLyEpdi.s 			page 1


   1              		.cpu cortex-m7
   2              		.eabi_attribute 28, 1
   3              		.eabi_attribute 20, 1
   4              		.eabi_attribute 21, 1
   5              		.eabi_attribute 23, 3
   6              		.eabi_attribute 24, 1
   7              		.eabi_attribute 25, 1
   8              		.eabi_attribute 26, 1
   9              		.eabi_attribute 30, 2
  10              		.eabi_attribute 34, 1
  11              		.eabi_attribute 18, 4
  12              		.file	"core_matrix.c"
  13              		.text
  14              		.section	.text.core_init_matrix,"ax",%progbits
  15              		.align	1
  16              		.p2align 2,,3
  17              		.global	core_init_matrix
  18              		.arch armv7e-m
  19              		.syntax unified
  20              		.thumb
  21              		.thumb_func
  22              		.fpu fpv5-d16
  24              	core_init_matrix:
  25              		@ args = 0, pretend = 0, frame = 16
  26              		@ frame_needed = 0, uses_anonymous_args = 0
  27 0000 2DE9F04F 		push	{r4, r5, r6, r7, r8, r9, r10, fp, lr}
  28 0004 002A     		cmp	r2, #0
  29 0006 85B0     		sub	sp, sp, #20
  30 0008 08BF     		it	eq
  31 000a 0122     		moveq	r2, #1
  32 000c 0293     		str	r3, [sp, #8]
  33 000e 0028     		cmp	r0, #0
  34 0010 56D0     		beq	.L15
  35 0012 0546     		mov	r5, r0
  36 0014 0023     		movs	r3, #0
  37              	.L3:
  38 0016 1846     		mov	r0, r3
  39 0018 0133     		adds	r3, r3, #1
  40 001a 03FB03F4 		mul	r4, r3, r3
  41 001e B5EBC40F 		cmp	r5, r4, lsl #3
  42 0022 F8D8     		bhi	.L3
  43 0024 0139     		subs	r1, r1, #1
  44 0026 00FB00F9 		mul	r9, r0, r0
  45 002a 0390     		str	r0, [sp, #12]
  46 002c 21F0030A 		bic	r10, r1, #3
  47 0030 4FEA4903 		lsl	r3, r9, #1
  48 0034 0AF1040A 		add	r10, r10, #4
  49 0038 0193     		str	r3, [sp, #4]
  50 003a 0AEB4909 		add	r9, r10, r9, lsl #1
  51 003e 80B3     		cbz	r0, .L7
  52              	.L10:
  53 0040 431E     		subs	r3, r0, #1
  54 0042 4FEA400B 		lsl	fp, r0, #1
  55 0046 6FF0010E 		mvn	lr, #1
  56 004a 4FF00008 		mov	r8, #0
  57 004e 4FF0010C 		mov	ip, #1
  58 0052 0093     		str	r3, [sp]
ARM GAS  C:\Users\Brandon\AppData\Local\Temp\ccLyEpdi.s 			page 2


  59              	.L9:
  60 0054 09EB0E07 		add	r7, r9, lr
  61 0058 0AEB0E06 		add	r6, r10, lr
  62 005c 6446     		mov	r4, ip
  63 005e 0025     		movs	r5, #0
  64              	.L8:
  65 0060 04FB02F2 		mul	r2, r4, r2
  66 0064 A3B2     		uxth	r3, r4
  67 0066 0135     		adds	r5, r5, #1
  68 0068 0134     		adds	r4, r4, #1
  69 006a 5142     		rsbs	r1, r2, #0
  70 006c 92B2     		uxth	r2, r2
  71 006e 89B2     		uxth	r1, r1
  72 0070 58BF     		it	pl
  73 0072 4A42     		rsbpl	r2, r1, #0
  74 0074 8542     		cmp	r5, r0
  75 0076 03EB0201 		add	r1, r3, r2
  76 007a 89B2     		uxth	r1, r1
  77 007c 0B44     		add	r3, r3, r1
  78 007e 27F8021F 		strh	r1, [r7, #2]!	@ movhi
  79 0082 DBB2     		uxtb	r3, r3
  80 0084 26F8023F 		strh	r3, [r6, #2]!	@ movhi
  81 0088 EAD3     		bcc	.L8
  82 008a 0028     		cmp	r0, #0
  83 008c 08F10108 		add	r8, r8, #1
  84 0090 009B     		ldr	r3, [sp]
  85 0092 0CF1010C 		add	ip, ip, #1
  86 0096 08BF     		it	eq
  87 0098 0023     		moveq	r3, #0
  88 009a 8045     		cmp	r8, r0
  89 009c DE44     		add	lr, lr, fp
  90 009e 9C44     		add	ip, ip, r3
  91 00a0 D8D3     		bcc	.L9
  92              	.L7:
  93 00a2 019B     		ldr	r3, [sp, #4]
  94 00a4 029A     		ldr	r2, [sp, #8]
  95 00a6 4B44     		add	r3, r3, r9
  96 00a8 039C     		ldr	r4, [sp, #12]
  97 00aa 013B     		subs	r3, r3, #1
  98 00ac 1460     		str	r4, [r2]
  99 00ae 23F00303 		bic	r3, r3, #3
 100 00b2 0433     		adds	r3, r3, #4
 101 00b4 C2E901A9 		strd	r10, r9, [r2, #4]
 102 00b8 D360     		str	r3, [r2, #12]
 103 00ba 05B0     		add	sp, sp, #20
 104              		@ sp needed
 105 00bc BDE8F08F 		pop	{r4, r5, r6, r7, r8, r9, r10, fp, pc}
 106              	.L15:
 107 00c0 0139     		subs	r1, r1, #1
 108 00c2 4FF0FF30 		mov	r0, #-1
 109 00c6 0223     		movs	r3, #2
 110 00c8 21F00309 		bic	r9, r1, #3
 111 00cc 0390     		str	r0, [sp, #12]
 112 00ce 0193     		str	r3, [sp, #4]
 113 00d0 09F1040A 		add	r10, r9, #4
 114 00d4 09F10609 		add	r9, r9, #6
 115 00d8 B2E7     		b	.L10
ARM GAS  C:\Users\Brandon\AppData\Local\Temp\ccLyEpdi.s 			page 3


 117 00da 00BF     		.section	.text.matrix_sum,"ax",%progbits
 118              		.align	1
 119              		.p2align 2,,3
 120              		.global	matrix_sum
 121              		.syntax unified
 122              		.thumb
 123              		.thumb_func
 124              		.fpu fpv5-d16
 126              	matrix_sum:
 127              		@ args = 0, pretend = 0, frame = 0
 128              		@ frame_needed = 0, uses_anonymous_args = 0
 129 0000 2DE9F047 		push	{r4, r5, r6, r7, r8, r9, r10, lr}
 130 0004 8146     		mov	r9, r0
 131 0006 28B3     		cbz	r0, .L20
 132 0008 4FF0000E 		mov	lr, #0
 133 000c 4FEA800A 		lsl	r10, r0, #2
 134 0010 01EB800C 		add	ip, r1, r0, lsl #2
 135 0014 F046     		mov	r8, lr
 136 0016 7046     		mov	r0, lr
 137 0018 7446     		mov	r4, lr
 138 001a 7346     		mov	r3, lr
 139              	.L21:
 140 001c 01EB8E05 		add	r5, r1, lr, lsl #2
 141 0020 04E0     		b	.L24
 142              	.L29:
 143 0022 AC45     		cmp	ip, r5
 144 0024 38B2     		sxth	r0, r7
 145 0026 4FF00003 		mov	r3, #0
 146 002a 0DD0     		beq	.L28
 147              	.L24:
 148 002c 2646     		mov	r6, r4
 149 002e 55F8044B 		ldr	r4, [r5], #4
 150 0032 00F10A07 		add	r7, r0, #10
 151 0036 2344     		add	r3, r3, r4
 152 0038 9A42     		cmp	r2, r3
 153 003a F2DB     		blt	.L29
 154 003c B442     		cmp	r4, r6
 155 003e C8BF     		it	gt
 156 0040 0130     		addgt	r0, r0, #1
 157 0042 AC45     		cmp	ip, r5
 158 0044 00B2     		sxth	r0, r0
 159 0046 F1D1     		bne	.L24
 160              	.L28:
 161 0048 08F10108 		add	r8, r8, #1
 162 004c D444     		add	ip, ip, r10
 163 004e CE44     		add	lr, lr, r9
 164 0050 C145     		cmp	r9, r8
 165 0052 E3D1     		bne	.L21
 166              	.L20:
 167 0054 BDE8F087 		pop	{r4, r5, r6, r7, r8, r9, r10, pc}
 169              		.section	.text.matrix_mul_const,"ax",%progbits
 170              		.align	1
 171              		.p2align 2,,3
 172              		.global	matrix_mul_const
 173              		.syntax unified
 174              		.thumb
 175              		.thumb_func
ARM GAS  C:\Users\Brandon\AppData\Local\Temp\ccLyEpdi.s 			page 4


 176              		.fpu fpv5-d16
 178              	matrix_mul_const:
 179              		@ args = 0, pretend = 0, frame = 0
 180              		@ frame_needed = 0, uses_anonymous_args = 0
 181 0000 20B3     		cbz	r0, .L39
 182 0002 2DE9F043 		push	{r4, r5, r6, r7, r8, r9, lr}
 183 0006 C0EBC079 		rsb	r9, r0, r0, lsl #31
 184 000a 0026     		movs	r6, #0
 185 000c C0EB8078 		rsb	r8, r0, r0, lsl #30
 186 0010 A1F1040E 		sub	lr, r1, #4
 187 0014 02EB4005 		add	r5, r2, r0, lsl #1
 188 0018 3746     		mov	r7, r6
 189 001a 4FEA4909 		lsl	r9, r9, #1
 190 001e 4FEA8808 		lsl	r8, r8, #2
 191              	.L32:
 192 0022 05EB090C 		add	ip, r5, r9
 193 0026 0EEB8604 		add	r4, lr, r6, lsl #2
 194 002a 6146     		mov	r1, ip
 195              	.L33:
 196 002c 31F9022B 		ldrsh	r2, [r1], #2
 197 0030 02FB03F2 		mul	r2, r2, r3
 198 0034 8D42     		cmp	r5, r1
 199 0036 44F8042F 		str	r2, [r4, #4]!
 200 003a F7D1     		bne	.L33
 201 003c 0137     		adds	r7, r7, #1
 202 003e 0644     		add	r6, r6, r0
 203 0040 ACEB0805 		sub	r5, ip, r8
 204 0044 B842     		cmp	r0, r7
 205 0046 ECD1     		bne	.L32
 206 0048 BDE8F083 		pop	{r4, r5, r6, r7, r8, r9, pc}
 207              	.L39:
 208 004c 7047     		bx	lr
 210 004e 00BF     		.section	.text.matrix_add_const,"ax",%progbits
 211              		.align	1
 212              		.p2align 2,,3
 213              		.global	matrix_add_const
 214              		.syntax unified
 215              		.thumb
 216              		.thumb_func
 217              		.fpu fpv5-d16
 219              	matrix_add_const:
 220              		@ args = 0, pretend = 0, frame = 0
 221              		@ frame_needed = 0, uses_anonymous_args = 0
 222              		@ link register save eliminated.
 223 0000 D8B1     		cbz	r0, .L51
 224 0002 C0EBC07C 		rsb	ip, r0, r0, lsl #31
 225 0006 01EB4001 		add	r1, r1, r0, lsl #1
 226 000a 4FEA4C0C 		lsl	ip, ip, #1
 227 000e F0B4     		push	{r4, r5, r6, r7}
 228 0010 C0EB8077 		rsb	r7, r0, r0, lsl #30
 229 0014 0025     		movs	r5, #0
 230 0016 94B2     		uxth	r4, r2
 231 0018 BF00     		lsls	r7, r7, #2
 232              	.L44:
 233 001a 0CEB0106 		add	r6, ip, r1
 234 001e 3346     		mov	r3, r6
 235              	.L45:
ARM GAS  C:\Users\Brandon\AppData\Local\Temp\ccLyEpdi.s 			page 5


 236 0020 B3F90020 		ldrsh	r2, [r3]
 237 0024 2244     		add	r2, r2, r4
 238 0026 23F8022B 		strh	r2, [r3], #2	@ movhi
 239 002a 9942     		cmp	r1, r3
 240 002c F8D1     		bne	.L45
 241 002e 0135     		adds	r5, r5, #1
 242 0030 F11B     		subs	r1, r6, r7
 243 0032 A842     		cmp	r0, r5
 244 0034 F1D1     		bne	.L44
 245 0036 F0BC     		pop	{r4, r5, r6, r7}
 246 0038 7047     		bx	lr
 247              	.L51:
 248 003a 7047     		bx	lr
 250              		.section	.text.matrix_mul_vect,"ax",%progbits
 251              		.align	1
 252              		.p2align 2,,3
 253              		.global	matrix_mul_vect
 254              		.syntax unified
 255              		.thumb
 256              		.thumb_func
 257              		.fpu fpv5-d16
 259              	matrix_mul_vect:
 260              		@ args = 0, pretend = 0, frame = 8
 261              		@ frame_needed = 0, uses_anonymous_args = 0
 262 0000 2DE9F041 		push	{r4, r5, r6, r7, r8, lr}
 263 0004 82B0     		sub	sp, sp, #8
 264 0006 0193     		str	r3, [sp, #4]
 265 0008 C8B1     		cbz	r0, .L54
 266 000a 0E1F     		subs	r6, r1, #4
 267 000c A3F1020C 		sub	ip, r3, #2
 268 0010 971E     		subs	r7, r2, #2
 269 0012 4FEA4008 		lsl	r8, r0, #1
 270 0016 06EB800E 		add	lr, r6, r0, lsl #2
 271 001a 0CEB4005 		add	r5, ip, r0, lsl #1
 272              	.L57:
 273 001e 0436     		adds	r6, r6, #4
 274 0020 6346     		mov	r3, ip
 275 0022 3946     		mov	r1, r7
 276 0024 0022     		movs	r2, #0
 277              	.L56:
 278 0026 33F8020F 		ldrh	r0, [r3, #2]!
 279 002a 31F8024F 		ldrh	r4, [r1, #2]!
 280 002e 9D42     		cmp	r5, r3
 281 0030 14FB0022 		smlabb	r2, r4, r0, r2
 282 0034 F7D1     		bne	.L56
 283 0036 7645     		cmp	r6, lr
 284 0038 4744     		add	r7, r7, r8
 285 003a 3260     		str	r2, [r6]
 286 003c EFD1     		bne	.L57
 287              	.L54:
 288 003e 02B0     		add	sp, sp, #8
 289              		@ sp needed
 290 0040 BDE8F081 		pop	{r4, r5, r6, r7, r8, pc}
 292              		.section	.text.matrix_mul_matrix,"ax",%progbits
 293              		.align	1
 294              		.p2align 2,,3
 295              		.global	matrix_mul_matrix
ARM GAS  C:\Users\Brandon\AppData\Local\Temp\ccLyEpdi.s 			page 6


 296              		.syntax unified
 297              		.thumb
 298              		.thumb_func
 299              		.fpu fpv5-d16
 301              	matrix_mul_matrix:
 302              		@ args = 0, pretend = 0, frame = 8
 303              		@ frame_needed = 0, uses_anonymous_args = 0
 304 0000 2DE9F04F 		push	{r4, r5, r6, r7, r8, r9, r10, fp, lr}
 305 0004 83B0     		sub	sp, sp, #12
 306 0006 0093     		str	r3, [sp]
 307 0008 48B3     		cbz	r0, .L62
 308 000a 9046     		mov	r8, r2
 309 000c 4FF0000A 		mov	r10, #0
 310 0010 0A1F     		subs	r2, r1, #4
 311 0012 4700     		lsls	r7, r0, #1
 312 0014 08EB4006 		add	r6, r8, r0, lsl #1
 313 0018 D346     		mov	fp, r10
 314 001a 03EB4009 		add	r9, r3, r0, lsl #1
 315 001e 0192     		str	r2, [sp, #4]
 316              	.L64:
 317 0020 019B     		ldr	r3, [sp, #4]
 318 0022 DDF800C0 		ldr	ip, [sp]
 319 0026 03EB8A0E 		add	lr, r3, r10, lsl #2
 320              	.L66:
 321 002a 0EF1040E 		add	lr, lr, #4
 322 002e 6246     		mov	r2, ip
 323 0030 4346     		mov	r3, r8
 324 0032 0021     		movs	r1, #0
 325              	.L65:
 326 0034 33F9025B 		ldrsh	r5, [r3], #2
 327 0038 1488     		ldrh	r4, [r2]
 328 003a 3A44     		add	r2, r2, r7
 329 003c 9E42     		cmp	r6, r3
 330 003e 15FB0411 		smlabb	r1, r5, r4, r1
 331 0042 F7D1     		bne	.L65
 332 0044 0CF1020C 		add	ip, ip, #2
 333 0048 CEF80010 		str	r1, [lr]
 334 004c E145     		cmp	r9, ip
 335 004e ECD1     		bne	.L66
 336 0050 0BF1010B 		add	fp, fp, #1
 337 0054 B844     		add	r8, r8, r7
 338 0056 8244     		add	r10, r10, r0
 339 0058 3E44     		add	r6, r6, r7
 340 005a 5845     		cmp	r0, fp
 341 005c E0D1     		bne	.L64
 342              	.L62:
 343 005e 03B0     		add	sp, sp, #12
 344              		@ sp needed
 345 0060 BDE8F08F 		pop	{r4, r5, r6, r7, r8, r9, r10, fp, pc}
 347              		.section	.text.matrix_mul_matrix_bitextract,"ax",%progbits
 348              		.align	1
 349              		.p2align 2,,3
 350              		.global	matrix_mul_matrix_bitextract
 351              		.syntax unified
 352              		.thumb
 353              		.thumb_func
 354              		.fpu fpv5-d16
ARM GAS  C:\Users\Brandon\AppData\Local\Temp\ccLyEpdi.s 			page 7


 356              	matrix_mul_matrix_bitextract:
 357              		@ args = 0, pretend = 0, frame = 8
 358              		@ frame_needed = 0, uses_anonymous_args = 0
 359 0000 2DE9F04F 		push	{r4, r5, r6, r7, r8, r9, r10, fp, lr}
 360 0004 83B0     		sub	sp, sp, #12
 361 0006 0093     		str	r3, [sp]
 362 0008 78B3     		cbz	r0, .L73
 363 000a 9046     		mov	r8, r2
 364 000c 4FF0000A 		mov	r10, #0
 365 0010 0A1F     		subs	r2, r1, #4
 366 0012 4700     		lsls	r7, r0, #1
 367 0014 08EB4006 		add	r6, r8, r0, lsl #1
 368 0018 D346     		mov	fp, r10
 369 001a 03EB4009 		add	r9, r3, r0, lsl #1
 370 001e 0192     		str	r2, [sp, #4]
 371              	.L75:
 372 0020 019B     		ldr	r3, [sp, #4]
 373 0022 DDF800C0 		ldr	ip, [sp]
 374 0026 03EB8A0E 		add	lr, r3, r10, lsl #2
 375              	.L77:
 376 002a 0EF1040E 		add	lr, lr, #4
 377 002e 6146     		mov	r1, ip
 378 0030 4246     		mov	r2, r8
 379 0032 0024     		movs	r4, #0
 380              	.L76:
 381 0034 32F9025B 		ldrsh	r5, [r2], #2
 382 0038 0B88     		ldrh	r3, [r1]
 383 003a 3944     		add	r1, r1, r7
 384 003c 9642     		cmp	r6, r2
 385 003e 13FB05F3 		smulbb	r3, r3, r5
 386 0042 C3F38305 		ubfx	r5, r3, #2, #4
 387 0046 C3F34613 		ubfx	r3, r3, #5, #7
 388 004a 03FB0544 		mla	r4, r3, r5, r4
 389 004e F1D1     		bne	.L76
 390 0050 0CF1020C 		add	ip, ip, #2
 391 0054 CEF80040 		str	r4, [lr]
 392 0058 E145     		cmp	r9, ip
 393 005a E6D1     		bne	.L77
 394 005c 0BF1010B 		add	fp, fp, #1
 395 0060 B844     		add	r8, r8, r7
 396 0062 8244     		add	r10, r10, r0
 397 0064 3E44     		add	r6, r6, r7
 398 0066 5845     		cmp	r0, fp
 399 0068 DAD1     		bne	.L75
 400              	.L73:
 401 006a 03B0     		add	sp, sp, #12
 402              		@ sp needed
 403 006c BDE8F08F 		pop	{r4, r5, r6, r7, r8, r9, r10, fp, pc}
 405              		.section	.text.matrix_test,"ax",%progbits
 406              		.align	1
 407              		.p2align 2,,3
 408              		.global	matrix_test
 409              		.syntax unified
 410              		.thumb
 411              		.thumb_func
 412              		.fpu fpv5-d16
 414              	matrix_test:
ARM GAS  C:\Users\Brandon\AppData\Local\Temp\ccLyEpdi.s 			page 8


 415              		@ args = 4, pretend = 0, frame = 24
 416              		@ frame_needed = 0, uses_anonymous_args = 0
 417 0000 2DE9F04F 		push	{r4, r5, r6, r7, r8, r9, r10, fp, lr}
 418 0004 2DED028B 		vpush.64	{d8}
 419 0008 87B0     		sub	sp, sp, #28
 420 000a B94D     		ldr	r5, .L134
 421 000c 08EE102A 		vmov	s16, r2	@ int
 422 0010 08EE903A 		vmov	s17, r3	@ int
 423 0014 BDF948C0 		ldrsh	ip, [sp, #72]
 424 0018 8146     		mov	r9, r0
 425 001a 0091     		str	r1, [sp]
 426 001c 4CEA0505 		orr	r5, ip, r5
 427 0020 0028     		cmp	r0, #0
 428 0022 00F03581 		beq	.L85
 429 0026 02EB4007 		add	r7, r2, r0, lsl #1
 430 002a 4FF00008 		mov	r8, #0
 431 002e C0EBC07A 		rsb	r10, r0, r0, lsl #31
 432 0032 C0EB8070 		rsb	r0, r0, r0, lsl #30
 433 0036 3A46     		mov	r2, r7
 434 0038 4FEA4903 		lsl	r3, r9, #1
 435 003c 4FEA4A0A 		lsl	r10, r10, #1
 436 0040 8000     		lsls	r0, r0, #2
 437 0042 0293     		str	r3, [sp, #8]
 438 0044 1FFA8CF6 		uxth	r6, ip
 439              	.L86:
 440 0048 0AEB020E 		add	lr, r10, r2
 441 004c 7346     		mov	r3, lr
 442              	.L87:
 443 004e B3F90010 		ldrsh	r1, [r3]
 444 0052 3144     		add	r1, r1, r6
 445 0054 23F8021B 		strh	r1, [r3], #2	@ movhi
 446 0058 9A42     		cmp	r2, r3
 447 005a F8D1     		bne	.L87
 448 005c 08F10104 		add	r4, r8, #1
 449 0060 AEEB0002 		sub	r2, lr, r0
 450 0064 A145     		cmp	r9, r4
 451 0066 01D0     		beq	.L113
 452 0068 A046     		mov	r8, r4
 453 006a EDE7     		b	.L86
 454              	.L113:
 455 006c 009B     		ldr	r3, [sp]
 456 006e 0020     		movs	r0, #0
 457 0070 C4EB847B 		rsb	fp, r4, r4, lsl #30
 458 0074 0195     		str	r5, [sp, #4]
 459 0076 043B     		subs	r3, r3, #4
 460 0078 8146     		mov	r9, r0
 461 007a 4FEA8B0B 		lsl	fp, fp, #2
 462 007e 9E46     		mov	lr, r3
 463 0080 0393     		str	r3, [sp, #12]
 464              	.L88:
 465 0082 0AEB0705 		add	r5, r10, r7
 466 0086 0EEB8001 		add	r1, lr, r0, lsl #2
 467 008a 2A46     		mov	r2, r5
 468              	.L89:
 469 008c 32F9023B 		ldrsh	r3, [r2], #2
 470 0090 03FB0CF3 		mul	r3, r3, ip
 471 0094 BA42     		cmp	r2, r7
ARM GAS  C:\Users\Brandon\AppData\Local\Temp\ccLyEpdi.s 			page 9


 472 0096 41F8043F 		str	r3, [r1, #4]!
 473 009a F7D1     		bne	.L89
 474 009c C145     		cmp	r9, r8
 475 009e 2044     		add	r0, r0, r4
 476 00a0 A5EB0B07 		sub	r7, r5, fp
 477 00a4 09F10103 		add	r3, r9, #1
 478 00a8 01D0     		beq	.L125
 479 00aa 9946     		mov	r9, r3
 480 00ac E9E7     		b	.L88
 481              	.L125:
 482 00ae DDE90035 		ldrd	r3, r5, [sp]
 483 00b2 4FF0000A 		mov	r10, #0
 484 00b6 A200     		lsls	r2, r4, #2
 485 00b8 03EB8407 		add	r7, r3, r4, lsl #2
 486 00bc 9E46     		mov	lr, r3
 487 00be 0192     		str	r2, [sp, #4]
 488 00c0 5046     		mov	r0, r10
 489 00c2 B946     		mov	r9, r7
 490 00c4 5146     		mov	r1, r10
 491 00c6 5246     		mov	r2, r10
 492 00c8 D346     		mov	fp, r10
 493 00ca 4FEA840C 		lsl	ip, r4, #2
 494 00ce CDE90476 		strd	r7, r6, [sp, #16]
 495              	.L90:
 496 00d2 0EEB8A06 		add	r6, lr, r10, lsl #2
 497 00d6 04E0     		b	.L93
 498              	.L127:
 499 00d8 B145     		cmp	r9, r6
 500 00da 38B2     		sxth	r0, r7
 501 00dc 4FF00002 		mov	r2, #0
 502 00e0 0DD0     		beq	.L126
 503              	.L93:
 504 00e2 0B46     		mov	r3, r1
 505 00e4 56F8041B 		ldr	r1, [r6], #4
 506 00e8 00F10A07 		add	r7, r0, #10
 507 00ec 0A44     		add	r2, r2, r1
 508 00ee AA42     		cmp	r2, r5
 509 00f0 F2DC     		bgt	.L127
 510 00f2 9942     		cmp	r1, r3
 511 00f4 C8BF     		it	gt
 512 00f6 0130     		addgt	r0, r0, #1
 513 00f8 B145     		cmp	r9, r6
 514 00fa 00B2     		sxth	r0, r0
 515 00fc F1D1     		bne	.L93
 516              	.L126:
 517 00fe C345     		cmp	fp, r8
 518 0100 E144     		add	r9, r9, ip
 519 0102 A244     		add	r10, r10, r4
 520 0104 0BF10103 		add	r3, fp, #1
 521 0108 01D0     		beq	.L94
 522 010a 9B46     		mov	fp, r3
 523 010c E1E7     		b	.L90
 524              	.L94:
 525 010e 0021     		movs	r1, #0
 526 0110 4FF00009 		mov	r9, #0
 527 0114 DDE90476 		ldrd	r7, r6, [sp, #16]
 528 0118 FFF7FEFF 		bl	crc16
ARM GAS  C:\Users\Brandon\AppData\Local\Temp\ccLyEpdi.s 			page 10


 529 011c 8346     		mov	fp, r0
 530 011e 18EE903A 		vmov	r3, s17	@ int
 531 0122 18EE102A 		vmov	r2, s16	@ int
 532 0126 2046     		mov	r0, r4
 533 0128 0099     		ldr	r1, [sp]
 534 012a FFF7FEFF 		bl	matrix_mul_vect
 535 012e CA46     		mov	r10, r9
 536 0130 07EE90BA 		vmov	s15, fp	@ int
 537 0134 4846     		mov	r0, r9
 538 0136 4A46     		mov	r2, r9
 539 0138 4B46     		mov	r3, r9
 540 013a DDF804E0 		ldr	lr, [sp, #4]
 541 013e DDF800B0 		ldr	fp, [sp]
 542 0142 0496     		str	r6, [sp, #16]
 543              	.L112:
 544 0144 0BEB8906 		add	r6, fp, r9, lsl #2
 545 0148 05E0     		b	.L97
 546              	.L129:
 547 014a B742     		cmp	r7, r6
 548 014c 0FFA8CF0 		sxth	r0, ip
 549 0150 4FF00003 		mov	r3, #0
 550 0154 0DD0     		beq	.L128
 551              	.L97:
 552 0156 1146     		mov	r1, r2
 553 0158 56F8042B 		ldr	r2, [r6], #4
 554 015c 00F10A0C 		add	ip, r0, #10
 555 0160 1344     		add	r3, r3, r2
 556 0162 AB42     		cmp	r3, r5
 557 0164 F1DC     		bgt	.L129
 558 0166 8A42     		cmp	r2, r1
 559 0168 C8BF     		it	gt
 560 016a 0130     		addgt	r0, r0, #1
 561 016c B742     		cmp	r7, r6
 562 016e 00B2     		sxth	r0, r0
 563 0170 F1D1     		bne	.L97
 564              	.L128:
 565 0172 C245     		cmp	r10, r8
 566 0174 7744     		add	r7, r7, lr
 567 0176 A144     		add	r9, r9, r4
 568 0178 0AF10101 		add	r1, r10, #1
 569 017c 01D0     		beq	.L98
 570 017e 8A46     		mov	r10, r1
 571 0180 E0E7     		b	.L112
 572              	.L98:
 573 0182 17EE901A 		vmov	r1, s15	@ int
 574 0186 049E     		ldr	r6, [sp, #16]
 575 0188 FFF7FEFF 		bl	crc16
 576 018c 18EE903A 		vmov	r3, s17	@ int
 577 0190 8346     		mov	fp, r0
 578 0192 18EE102A 		vmov	r2, s16	@ int
 579 0196 2046     		mov	r0, r4
 580 0198 0099     		ldr	r1, [sp]
 581 019a 039F     		ldr	r7, [sp, #12]
 582 019c FFF7FEFF 		bl	matrix_mul_matrix
 583 01a0 0020     		movs	r0, #0
 584 01a2 DDF80480 		ldr	r8, [sp, #4]
 585 01a6 BA46     		mov	r10, r7
ARM GAS  C:\Users\Brandon\AppData\Local\Temp\ccLyEpdi.s 			page 11


 586 01a8 07EE90BA 		vmov	s15, fp	@ int
 587 01ac 0246     		mov	r2, r0
 588 01ae 0346     		mov	r3, r0
 589 01b0 8146     		mov	r9, r0
 590              	.L111:
 591 01b2 D646     		mov	lr, r10
 592 01b4 4FF0000C 		mov	ip, #0
 593 01b8 06E0     		b	.L101
 594              	.L131:
 595 01ba 0CF1010C 		add	ip, ip, #1
 596 01be 0FFA8BF0 		sxth	r0, fp
 597 01c2 0023     		movs	r3, #0
 598 01c4 A445     		cmp	ip, r4
 599 01c6 0FD2     		bcs	.L130
 600              	.L101:
 601 01c8 1146     		mov	r1, r2
 602 01ca 5EF8042F 		ldr	r2, [lr, #4]!
 603 01ce 00F10A0B 		add	fp, r0, #10
 604 01d2 1344     		add	r3, r3, r2
 605 01d4 AB42     		cmp	r3, r5
 606 01d6 F0DC     		bgt	.L131
 607 01d8 0CF1010C 		add	ip, ip, #1
 608 01dc 8A42     		cmp	r2, r1
 609 01de C8BF     		it	gt
 610 01e0 0130     		addgt	r0, r0, #1
 611 01e2 A445     		cmp	ip, r4
 612 01e4 00B2     		sxth	r0, r0
 613 01e6 EFD3     		bcc	.L101
 614              	.L130:
 615 01e8 09F10109 		add	r9, r9, #1
 616 01ec C244     		add	r10, r10, r8
 617 01ee A145     		cmp	r9, r4
 618 01f0 DFD3     		bcc	.L111
 619 01f2 17EE901A 		vmov	r1, s15	@ int
 620 01f6 FFF7FEFF 		bl	crc16
 621 01fa 18EE903A 		vmov	r3, s17	@ int
 622 01fe 18EE102A 		vmov	r2, s16	@ int
 623 0202 8046     		mov	r8, r0
 624 0204 0099     		ldr	r1, [sp]
 625 0206 2046     		mov	r0, r4
 626 0208 FFF7FEFF 		bl	matrix_mul_matrix_bitextract
 627 020c 0020     		movs	r0, #0
 628 020e DDF804B0 		ldr	fp, [sp, #4]
 629 0212 0246     		mov	r2, r0
 630 0214 0346     		mov	r3, r0
 631 0216 8246     		mov	r10, r0
 632              	.L110:
 633 0218 BE46     		mov	lr, r7
 634 021a 4FF0000C 		mov	ip, #0
 635 021e 06E0     		b	.L105
 636              	.L133:
 637 0220 0CF1010C 		add	ip, ip, #1
 638 0224 0FFA89F0 		sxth	r0, r9
 639 0228 0023     		movs	r3, #0
 640 022a A445     		cmp	ip, r4
 641 022c 0FD2     		bcs	.L132
 642              	.L105:
ARM GAS  C:\Users\Brandon\AppData\Local\Temp\ccLyEpdi.s 			page 12


 643 022e 1146     		mov	r1, r2
 644 0230 5EF8042F 		ldr	r2, [lr, #4]!
 645 0234 00F10A09 		add	r9, r0, #10
 646 0238 1344     		add	r3, r3, r2
 647 023a AB42     		cmp	r3, r5
 648 023c F0DC     		bgt	.L133
 649 023e 0CF1010C 		add	ip, ip, #1
 650 0242 8A42     		cmp	r2, r1
 651 0244 C8BF     		it	gt
 652 0246 0130     		addgt	r0, r0, #1
 653 0248 A445     		cmp	ip, r4
 654 024a 00B2     		sxth	r0, r0
 655 024c EFD3     		bcc	.L105
 656              	.L132:
 657 024e 0AF1010A 		add	r10, r10, #1
 658 0252 5F44     		add	r7, r7, fp
 659 0254 A245     		cmp	r10, r4
 660 0256 DFD3     		bcc	.L110
 661 0258 4146     		mov	r1, r8
 662 025a 0025     		movs	r5, #0
 663 025c FFF7FEFF 		bl	crc16
 664 0260 18EE103A 		vmov	r3, s16	@ int
 665 0264 DDF808C0 		ldr	ip, [sp, #8]
 666 0268 9F1E     		subs	r7, r3, #2
 667              	.L109:
 668 026a 3946     		mov	r1, r7
 669 026c 0022     		movs	r2, #0
 670              	.L107:
 671 026e 31F8023F 		ldrh	r3, [r1, #2]!
 672 0272 0132     		adds	r2, r2, #1
 673 0274 9B1B     		subs	r3, r3, r6
 674 0276 A242     		cmp	r2, r4
 675 0278 0B80     		strh	r3, [r1]	@ movhi
 676 027a F8D3     		bcc	.L107
 677 027c 0135     		adds	r5, r5, #1
 678 027e 6744     		add	r7, r7, ip
 679 0280 A542     		cmp	r5, r4
 680 0282 F2D3     		bcc	.L109
 681 0284 00B2     		sxth	r0, r0
 682 0286 07B0     		add	sp, sp, #28
 683              		@ sp needed
 684 0288 BDEC028B 		vldm	sp!, {d8}
 685 028c BDE8F08F 		pop	{r4, r5, r6, r7, r8, r9, r10, fp, pc}
 686              	.L85:
 687 0290 0146     		mov	r1, r0
 688 0292 FFF7FEFF 		bl	crc16
 689 0296 009D     		ldr	r5, [sp]
 690 0298 0446     		mov	r4, r0
 691 029a 18EE903A 		vmov	r3, s17	@ int
 692 029e 18EE102A 		vmov	r2, s16	@ int
 693 02a2 2946     		mov	r1, r5
 694 02a4 4846     		mov	r0, r9
 695 02a6 FFF7FEFF 		bl	matrix_mul_vect
 696 02aa 2146     		mov	r1, r4
 697 02ac 4846     		mov	r0, r9
 698 02ae FFF7FEFF 		bl	crc16
 699 02b2 0446     		mov	r4, r0
ARM GAS  C:\Users\Brandon\AppData\Local\Temp\ccLyEpdi.s 			page 13


 700 02b4 18EE903A 		vmov	r3, s17	@ int
 701 02b8 18EE102A 		vmov	r2, s16	@ int
 702 02bc 2946     		mov	r1, r5
 703 02be 4846     		mov	r0, r9
 704 02c0 FFF7FEFF 		bl	matrix_mul_matrix
 705 02c4 2146     		mov	r1, r4
 706 02c6 FFF7FEFF 		bl	crc16
 707 02ca 0446     		mov	r4, r0
 708 02cc 18EE903A 		vmov	r3, s17	@ int
 709 02d0 18EE102A 		vmov	r2, s16	@ int
 710 02d4 2946     		mov	r1, r5
 711 02d6 4846     		mov	r0, r9
 712 02d8 FFF7FEFF 		bl	matrix_mul_matrix_bitextract
 713 02dc 2146     		mov	r1, r4
 714 02de FFF7FEFF 		bl	crc16
 715 02e2 00B2     		sxth	r0, r0
 716 02e4 07B0     		add	sp, sp, #28
 717              		@ sp needed
 718 02e6 BDEC028B 		vldm	sp!, {d8}
 719 02ea BDE8F08F 		pop	{r4, r5, r6, r7, r8, r9, r10, fp, pc}
 720              	.L135:
 721 02ee 00BF     		.align	2
 722              	.L134:
 723 02f0 00F0FFFF 		.word	-4096
 725              		.section	.text.core_bench_matrix,"ax",%progbits
 726              		.align	1
 727              		.p2align 2,,3
 728              		.global	core_bench_matrix
 729              		.syntax unified
 730              		.thumb
 731              		.thumb_func
 732              		.fpu fpv5-d16
 734              	core_bench_matrix:
 735              		@ args = 0, pretend = 0, frame = 0
 736              		@ frame_needed = 0, uses_anonymous_args = 0
 737 0000 10B5     		push	{r4, lr}
 738 0002 82B0     		sub	sp, sp, #8
 739 0004 1446     		mov	r4, r2
 740 0006 0091     		str	r1, [sp]
 741 0008 C168     		ldr	r1, [r0, #12]
 742 000a D0E90123 		ldrd	r2, r3, [r0, #4]
 743 000e 0068     		ldr	r0, [r0]
 744 0010 FFF7FEFF 		bl	matrix_test
 745 0014 2146     		mov	r1, r4
 746 0016 02B0     		add	sp, sp, #8
 747              		@ sp needed
 748 0018 BDE81040 		pop	{r4, lr}
 749 001c FFF7FEBF 		b	crc16
 751              		.ident	"GCC: (GNU Arm Embedded Toolchain 9-2020-q2-update) 9.3.1 20200408 (release)"
ARM GAS  C:\Users\Brandon\AppData\Local\Temp\ccLyEpdi.s 			page 14


DEFINED SYMBOLS
                            *ABS*:00000000 core_matrix.c
C:\Users\Brandon\AppData\Local\Temp\ccLyEpdi.s:15     .text.core_init_matrix:00000000 $t
C:\Users\Brandon\AppData\Local\Temp\ccLyEpdi.s:24     .text.core_init_matrix:00000000 core_init_matrix
C:\Users\Brandon\AppData\Local\Temp\ccLyEpdi.s:118    .text.matrix_sum:00000000 $t
C:\Users\Brandon\AppData\Local\Temp\ccLyEpdi.s:126    .text.matrix_sum:00000000 matrix_sum
C:\Users\Brandon\AppData\Local\Temp\ccLyEpdi.s:170    .text.matrix_mul_const:00000000 $t
C:\Users\Brandon\AppData\Local\Temp\ccLyEpdi.s:178    .text.matrix_mul_const:00000000 matrix_mul_const
C:\Users\Brandon\AppData\Local\Temp\ccLyEpdi.s:211    .text.matrix_add_const:00000000 $t
C:\Users\Brandon\AppData\Local\Temp\ccLyEpdi.s:219    .text.matrix_add_const:00000000 matrix_add_const
C:\Users\Brandon\AppData\Local\Temp\ccLyEpdi.s:251    .text.matrix_mul_vect:00000000 $t
C:\Users\Brandon\AppData\Local\Temp\ccLyEpdi.s:259    .text.matrix_mul_vect:00000000 matrix_mul_vect
C:\Users\Brandon\AppData\Local\Temp\ccLyEpdi.s:293    .text.matrix_mul_matrix:00000000 $t
C:\Users\Brandon\AppData\Local\Temp\ccLyEpdi.s:301    .text.matrix_mul_matrix:00000000 matrix_mul_matrix
C:\Users\Brandon\AppData\Local\Temp\ccLyEpdi.s:348    .text.matrix_mul_matrix_bitextract:00000000 $t
C:\Users\Brandon\AppData\Local\Temp\ccLyEpdi.s:356    .text.matrix_mul_matrix_bitextract:00000000 matrix_mul_matrix_bitextract
C:\Users\Brandon\AppData\Local\Temp\ccLyEpdi.s:406    .text.matrix_test:00000000 $t
C:\Users\Brandon\AppData\Local\Temp\ccLyEpdi.s:414    .text.matrix_test:00000000 matrix_test
C:\Users\Brandon\AppData\Local\Temp\ccLyEpdi.s:723    .text.matrix_test:000002f0 $d
C:\Users\Brandon\AppData\Local\Temp\ccLyEpdi.s:726    .text.core_bench_matrix:00000000 $t
C:\Users\Brandon\AppData\Local\Temp\ccLyEpdi.s:734    .text.core_bench_matrix:00000000 core_bench_matrix

UNDEFINED SYMBOLS
crc16
