ARM GAS  C:\Users\Brandon\AppData\Local\Temp\ccTNPTre.s 			page 1


   1              		.cpu cortex-m7
   2              		.eabi_attribute 28, 1
   3              		.eabi_attribute 20, 1
   4              		.eabi_attribute 21, 1
   5              		.eabi_attribute 23, 3
   6              		.eabi_attribute 24, 1
   7              		.eabi_attribute 25, 1
   8              		.eabi_attribute 26, 1
   9              		.eabi_attribute 30, 2
  10              		.eabi_attribute 34, 1
  11              		.eabi_attribute 18, 4
  12              		.file	"SEGGER_RTT.c"
  13              		.text
  14              		.section	.text._WriteNoCheck,"ax",%progbits
  15              		.align	1
  16              		.p2align 2,,3
  17              		.arch armv7e-m
  18              		.syntax unified
  19              		.thumb
  20              		.thumb_func
  21              		.fpu fpv5-d16
  23              	_WriteNoCheck:
  24              		@ args = 0, pretend = 0, frame = 0
  25              		@ frame_needed = 0, uses_anonymous_args = 0
  26 0000 2DE9F843 		push	{r3, r4, r5, r6, r7, r8, r9, lr}
  27 0004 D0E90295 		ldrd	r9, r5, [r0, #8]
  28 0008 0446     		mov	r4, r0
  29 000a 1646     		mov	r6, r2
  30 000c A9EB0508 		sub	r8, r9, r5
  31 0010 9045     		cmp	r8, r2
  32 0012 07D9     		bls	.L2
  33 0014 4068     		ldr	r0, [r0, #4]
  34 0016 2844     		add	r0, r0, r5
  35 0018 3544     		add	r5, r5, r6
  36 001a FFF7FEFF 		bl	memcpy
  37 001e E560     		str	r5, [r4, #12]
  38 0020 BDE8F883 		pop	{r3, r4, r5, r6, r7, r8, r9, pc}
  39              	.L2:
  40 0024 4068     		ldr	r0, [r0, #4]
  41 0026 0F46     		mov	r7, r1
  42 0028 4246     		mov	r2, r8
  43 002a 2844     		add	r0, r0, r5
  44 002c 3544     		add	r5, r5, r6
  45 002e FFF7FEFF 		bl	memcpy
  46 0032 07EB0801 		add	r1, r7, r8
  47 0036 A5EB0905 		sub	r5, r5, r9
  48 003a 6068     		ldr	r0, [r4, #4]
  49 003c 2A46     		mov	r2, r5
  50 003e FFF7FEFF 		bl	memcpy
  51 0042 E560     		str	r5, [r4, #12]
  52 0044 BDE8F883 		pop	{r3, r4, r5, r6, r7, r8, r9, pc}
  54              		.section	.text._WriteBlocking,"ax",%progbits
  55              		.align	1
  56              		.p2align 2,,3
  57              		.syntax unified
  58              		.thumb
  59              		.thumb_func
ARM GAS  C:\Users\Brandon\AppData\Local\Temp\ccTNPTre.s 			page 2


  60              		.fpu fpv5-d16
  62              	_WriteBlocking:
  63              		@ args = 0, pretend = 0, frame = 0
  64              		@ frame_needed = 0, uses_anonymous_args = 0
  65 0000 2DE9F843 		push	{r3, r4, r5, r6, r7, r8, r9, lr}
  66 0004 8946     		mov	r9, r1
  67 0006 4FF00008 		mov	r8, #0
  68 000a 0646     		mov	r6, r0
  69 000c 1746     		mov	r7, r2
  70 000e D0E90215 		ldrd	r1, r5, [r0, #8]
  71              	.L10:
  72 0012 3269     		ldr	r2, [r6, #16]
  73 0014 4C1B     		subs	r4, r1, r5
  74 0016 7068     		ldr	r0, [r6, #4]
  75 0018 531E     		subs	r3, r2, #1
  76 001a 9542     		cmp	r5, r2
  77 001c 2844     		add	r0, r0, r5
  78 001e 1A46     		mov	r2, r3
  79 0020 0B44     		add	r3, r3, r1
  80 0022 4946     		mov	r1, r9
  81 0024 2CBF     		ite	cs
  82 0026 5A1B     		subcs	r2, r3, r5
  83 0028 521B     		subcc	r2, r2, r5
  84 002a BC42     		cmp	r4, r7
  85 002c 28BF     		it	cs
  86 002e 3C46     		movcs	r4, r7
  87 0030 9442     		cmp	r4, r2
  88 0032 28BF     		it	cs
  89 0034 1446     		movcs	r4, r2
  90 0036 2246     		mov	r2, r4
  91 0038 2544     		add	r5, r5, r4
  92 003a FFF7FEFF 		bl	memcpy
  93 003e B168     		ldr	r1, [r6, #8]
  94 0040 A044     		add	r8, r8, r4
  95 0042 A144     		add	r9, r9, r4
  96 0044 A942     		cmp	r1, r5
  97 0046 08BF     		it	eq
  98 0048 0025     		moveq	r5, #0
  99 004a 3F1B     		subs	r7, r7, r4
 100 004c F560     		str	r5, [r6, #12]
 101 004e E0D1     		bne	.L10
 102 0050 4046     		mov	r0, r8
 103 0052 BDE8F883 		pop	{r3, r4, r5, r6, r7, r8, r9, pc}
 105 0056 00BF     		.section	.rodata._DoInit.str1.4,"aMS",%progbits,1
 106              		.align	2
 107              	.LC0:
 108 0000 5465726D 		.ascii	"Terminal\000"
 108      696E616C 
 108      00
 109 0009 000000   		.align	2
 110              	.LC1:
 111 000c 52545400 		.ascii	"RTT\000"
 112              		.align	2
 113              	.LC2:
 114 0010 53454747 		.ascii	"SEGGER\000"
 114      455200
 115              		.section	.text._DoInit,"ax",%progbits
ARM GAS  C:\Users\Brandon\AppData\Local\Temp\ccTNPTre.s 			page 3


 116              		.align	1
 117              		.p2align 2,,3
 118              		.syntax unified
 119              		.thumb
 120              		.thumb_func
 121              		.fpu fpv5-d16
 123              	_DoInit:
 124              		@ args = 0, pretend = 0, frame = 0
 125              		@ frame_needed = 0, uses_anonymous_args = 0
 126              		@ link register save eliminated.
 127 0000 124A     		ldr	r2, .L15
 128 0002 0021     		movs	r1, #0
 129 0004 124B     		ldr	r3, .L15+4
 130 0006 1068     		ldr	r0, [r2]
 131 0008 0222     		movs	r2, #2
 132 000a F0B4     		push	{r4, r5, r6, r7}
 133 000c 4FF40067 		mov	r7, #2048
 134 0010 C3F80700 		str	r0, [r3, #7]	@ unaligned
 135 0014 0F48     		ldr	r0, .L15+8
 136 0016 1026     		movs	r6, #16
 137 0018 0F4C     		ldr	r4, .L15+12
 138 001a 2025     		movs	r5, #32
 139 001c 9962     		str	r1, [r3, #40]
 140 001e 5962     		str	r1, [r3, #36]
 141 0020 9965     		str	r1, [r3, #88]
 142 0022 5965     		str	r1, [r3, #84]
 143 0024 9D71     		strb	r5, [r3, #6]
 144 0026 DA62     		str	r2, [r3, #44]
 145 0028 DA65     		str	r2, [r3, #92]
 146 002a C3E90707 		strd	r0, r7, [r3, #28]
 147 002e 0B48     		ldr	r0, .L15+16
 148 0030 C3E91306 		strd	r0, r6, [r3, #76]
 149 0034 0A48     		ldr	r0, .L15+20
 150 0036 9861     		str	r0, [r3, #24]
 151 0038 9864     		str	r0, [r3, #72]
 152 003a 94E80300 		ldm	r4, {r0, r1}
 153 003e C3E90422 		strd	r2, r2, [r3, #16]
 154 0042 1860     		str	r0, [r3]
 155 0044 9980     		strh	r1, [r3, #4]	@ movhi
 156 0046 F0BC     		pop	{r4, r5, r6, r7}
 157 0048 7047     		bx	lr
 158              	.L16:
 159 004a 00BF     		.align	2
 160              	.L15:
 161 004c 0C000000 		.word	.LC1
 162 0050 00000000 		.word	_SEGGER_RTT
 163 0054 00000000 		.word	.LANCHOR0
 164 0058 10000000 		.word	.LC2
 165 005c 00000000 		.word	.LANCHOR1
 166 0060 00000000 		.word	.LC0
 168              		.section	.text.SEGGER_RTT_ReadNoLock,"ax",%progbits
 169              		.align	1
 170              		.p2align 2,,3
 171              		.global	SEGGER_RTT_ReadNoLock
 172              		.syntax unified
 173              		.thumb
 174              		.thumb_func
ARM GAS  C:\Users\Brandon\AppData\Local\Temp\ccTNPTre.s 			page 4


 175              		.fpu fpv5-d16
 177              	SEGGER_RTT_ReadNoLock:
 178              		@ args = 0, pretend = 0, frame = 8
 179              		@ frame_needed = 0, uses_anonymous_args = 0
 180 0000 2DE9F04F 		push	{r4, r5, r6, r7, r8, r9, r10, fp, lr}
 181 0004 DFF8B880 		ldr	r8, .L35
 182 0008 83B0     		sub	sp, sp, #12
 183 000a 0546     		mov	r5, r0
 184 000c 0F46     		mov	r7, r1
 185 000e 98F80040 		ldrb	r4, [r8]	@ zero_extendqisi2
 186 0012 1646     		mov	r6, r2
 187 0014 002C     		cmp	r4, #0
 188 0016 50D0     		beq	.L33
 189              	.L18:
 190 0018 05EB4504 		add	r4, r5, r5, lsl #1
 191 001c 4FEA4509 		lsl	r9, r5, #1
 192 0020 08EBC404 		add	r4, r8, r4, lsl #3
 193 0024 D4F858B0 		ldr	fp, [r4, #88]
 194 0028 636D     		ldr	r3, [r4, #84]
 195 002a 9B45     		cmp	fp, r3
 196 002c 23D8     		bhi	.L34
 197 002e A3EB0B03 		sub	r3, r3, fp
 198 0032 9E42     		cmp	r6, r3
 199 0034 28BF     		it	cs
 200 0036 1E46     		movcs	r6, r3
 201 0038 B246     		mov	r10, r6
 202 003a 1EB9     		cbnz	r6, .L25
 203              	.L17:
 204 003c 5046     		mov	r0, r10
 205 003e 03B0     		add	sp, sp, #12
 206              		@ sp needed
 207 0040 BDE8F08F 		pop	{r4, r5, r6, r7, r8, r9, r10, fp, pc}
 208              	.L25:
 209 0044 5446     		mov	r4, r10
 210              	.L23:
 211 0046 09EB0503 		add	r3, r9, r5
 212 004a 5246     		mov	r2, r10
 213 004c 3846     		mov	r0, r7
 214 004e 08EBC303 		add	r3, r8, r3, lsl #3
 215 0052 D96C     		ldr	r1, [r3, #76]
 216 0054 5944     		add	r1, r1, fp
 217 0056 D344     		add	fp, fp, r10
 218 0058 A246     		mov	r10, r4
 219 005a FFF7FEFF 		bl	memcpy
 220              	.L21:
 221 005e BAF1000F 		cmp	r10, #0
 222 0062 EBD0     		beq	.L17
 223 0064 4D44     		add	r5, r5, r9
 224 0066 5046     		mov	r0, r10
 225 0068 08EBC508 		add	r8, r8, r5, lsl #3
 226 006c C8F858B0 		str	fp, [r8, #88]
 227 0070 03B0     		add	sp, sp, #12
 228              		@ sp needed
 229 0072 BDE8F08F 		pop	{r4, r5, r6, r7, r8, r9, r10, fp, pc}
 230              	.L34:
 231 0076 226D     		ldr	r2, [r4, #80]
 232 0078 3846     		mov	r0, r7
ARM GAS  C:\Users\Brandon\AppData\Local\Temp\ccTNPTre.s 			page 5


 233 007a E16C     		ldr	r1, [r4, #76]
 234 007c A2EB0B0A 		sub	r10, r2, fp
 235 0080 0193     		str	r3, [sp, #4]
 236 0082 5944     		add	r1, r1, fp
 237 0084 B245     		cmp	r10, r6
 238 0086 28BF     		it	cs
 239 0088 B246     		movcs	r10, r6
 240 008a 5246     		mov	r2, r10
 241 008c D344     		add	fp, fp, r10
 242 008e FFF7FEFF 		bl	memcpy
 243 0092 226D     		ldr	r2, [r4, #80]
 244 0094 019B     		ldr	r3, [sp, #4]
 245 0096 A6EB0A06 		sub	r6, r6, r10
 246 009a 5A45     		cmp	r2, fp
 247 009c 14BF     		ite	ne
 248 009e A3EB0B03 		subne	r3, r3, fp
 249 00a2 4FF0000B 		moveq	fp, #0
 250 00a6 B342     		cmp	r3, r6
 251 00a8 28BF     		it	cs
 252 00aa 3346     		movcs	r3, r6
 253 00ac 002B     		cmp	r3, #0
 254 00ae D6D0     		beq	.L21
 255 00b0 5744     		add	r7, r7, r10
 256 00b2 0AEB0304 		add	r4, r10, r3
 257 00b6 9A46     		mov	r10, r3
 258 00b8 C5E7     		b	.L23
 259              	.L33:
 260 00ba FFF7FEFF 		bl	_DoInit
 261 00be ABE7     		b	.L18
 262              	.L36:
 263              		.align	2
 264              	.L35:
 265 00c0 00000000 		.word	_SEGGER_RTT
 267              		.section	.text.SEGGER_RTT_Read,"ax",%progbits
 268              		.align	1
 269              		.p2align 2,,3
 270              		.global	SEGGER_RTT_Read
 271              		.syntax unified
 272              		.thumb
 273              		.thumb_func
 274              		.fpu fpv5-d16
 276              	SEGGER_RTT_Read:
 277              		@ args = 0, pretend = 0, frame = 0
 278              		@ frame_needed = 0, uses_anonymous_args = 0
 279 0000 10B5     		push	{r4, lr}
 280 0002 0B46     		mov	r3, r1
 281              		.syntax unified
 282              	@ 619 "Middlewares/Third_Party/SEGGER_RTT/SEGGER_RTT.c" 1
 283 0004 EFF31184 		mrs   r4, basepri  
 284 0008 4FF02001 		mov   r1, #32       
 285 000c 81F31188 		msr   basepri, r1  
 286              		
 287              	@ 0 "" 2
 288              		.thumb
 289              		.syntax unified
 290 0010 1946     		mov	r1, r3
 291 0012 FFF7FEFF 		bl	SEGGER_RTT_ReadNoLock
ARM GAS  C:\Users\Brandon\AppData\Local\Temp\ccTNPTre.s 			page 6


 292              		.syntax unified
 293              	@ 627 "Middlewares/Third_Party/SEGGER_RTT/SEGGER_RTT.c" 1
 294 0016 84F31188 		msr   basepri, r4  
 295              		
 296              	@ 0 "" 2
 297              		.thumb
 298              		.syntax unified
 299 001a 10BD     		pop	{r4, pc}
 301              		.section	.text.SEGGER_RTT_WriteWithOverwriteNoLock,"ax",%progbits
 302              		.align	1
 303              		.p2align 2,,3
 304              		.global	SEGGER_RTT_WriteWithOverwriteNoLock
 305              		.syntax unified
 306              		.thumb
 307              		.thumb_func
 308              		.fpu fpv5-d16
 310              	SEGGER_RTT_WriteWithOverwriteNoLock:
 311              		@ args = 0, pretend = 0, frame = 0
 312              		@ frame_needed = 0, uses_anonymous_args = 0
 313 0000 2DE9F047 		push	{r4, r5, r6, r7, r8, r9, r10, lr}
 314 0004 00EB4003 		add	r3, r0, r0, lsl #1
 315 0008 DFF8C0A0 		ldr	r10, .L53
 316 000c 0646     		mov	r6, r0
 317 000e 1446     		mov	r4, r2
 318 0010 0AEBC303 		add	r3, r10, r3, lsl #3
 319 0014 0D46     		mov	r5, r1
 320 0016 4700     		lsls	r7, r0, #1
 321 0018 9A6A     		ldr	r2, [r3, #40]
 322 001a 586A     		ldr	r0, [r3, #36]
 323 001c 9042     		cmp	r0, r2
 324 001e 52D0     		beq	.L52
 325 0020 9A6A     		ldr	r2, [r3, #40]
 326 0022 9042     		cmp	r0, r2
 327 0024 9A6A     		ldr	r2, [r3, #40]
 328 0026 24BF     		itt	cs
 329 0028 1B6A     		ldrcs	r3, [r3, #32]
 330 002a D218     		addcs	r2, r2, r3
 331 002c 013A     		subs	r2, r2, #1
 332 002e 121A     		subs	r2, r2, r0
 333              	.L41:
 334 0030 A242     		cmp	r2, r4
 335 0032 12D2     		bcs	.L43
 336 0034 BB19     		adds	r3, r7, r6
 337 0036 0AEBC303 		add	r3, r10, r3, lsl #3
 338 003a D3F828C0 		ldr	ip, [r3, #40]
 339 003e 196A     		ldr	r1, [r3, #32]
 340 0040 A444     		add	ip, ip, r4
 341 0042 ACEB0202 		sub	r2, ip, r2
 342 0046 9A62     		str	r2, [r3, #40]
 343 0048 9A6A     		ldr	r2, [r3, #40]
 344 004a 8A42     		cmp	r2, r1
 345 004c 05D3     		bcc	.L43
 346              	.L44:
 347 004e 9A6A     		ldr	r2, [r3, #40]
 348 0050 521A     		subs	r2, r2, r1
 349 0052 9A62     		str	r2, [r3, #40]
 350 0054 9A6A     		ldr	r2, [r3, #40]
ARM GAS  C:\Users\Brandon\AppData\Local\Temp\ccTNPTre.s 			page 7


 351 0056 8A42     		cmp	r2, r1
 352 0058 F9D2     		bcs	.L44
 353              	.L43:
 354 005a BB19     		adds	r3, r7, r6
 355 005c 06F10109 		add	r9, r6, #1
 356 0060 0AEBC303 		add	r3, r10, r3, lsl #3
 357 0064 09EB4908 		add	r8, r9, r9, lsl #1
 358 0068 1B6A     		ldr	r3, [r3, #32]
 359 006a 4FEAC808 		lsl	r8, r8, #3
 360 006e 1B1A     		subs	r3, r3, r0
 361 0070 0FE0     		b	.L47
 362              	.L45:
 363 0072 DCF804C0 		ldr	ip, [ip, #4]
 364 0076 E41A     		subs	r4, r4, r3
 365 0078 1D44     		add	r5, r5, r3
 366 007a 6044     		add	r0, r0, ip
 367 007c FFF7FEFF 		bl	memcpy
 368 0080 BA19     		adds	r2, r7, r6
 369 0082 0021     		movs	r1, #0
 370 0084 0AEBC202 		add	r2, r10, r2, lsl #3
 371 0088 0846     		mov	r0, r1
 372 008a 136A     		ldr	r3, [r2, #32]
 373 008c 5162     		str	r1, [r2, #36]
 374 008e 013B     		subs	r3, r3, #1
 375 0090 BCB1     		cbz	r4, .L39
 376              	.L47:
 377 0092 9C42     		cmp	r4, r3
 378 0094 0AEB080C 		add	ip, r10, r8
 379 0098 1A46     		mov	r2, r3
 380 009a 2946     		mov	r1, r5
 381 009c E9D2     		bcs	.L45
 382 009e 09EB4909 		add	r9, r9, r9, lsl #1
 383 00a2 3E44     		add	r6, r6, r7
 384 00a4 2246     		mov	r2, r4
 385 00a6 0AEBC909 		add	r9, r10, r9, lsl #3
 386 00aa 0AEBC60A 		add	r10, r10, r6, lsl #3
 387 00ae D9F80430 		ldr	r3, [r9, #4]
 388 00b2 1844     		add	r0, r0, r3
 389 00b4 FFF7FEFF 		bl	memcpy
 390 00b8 DAF82430 		ldr	r3, [r10, #36]
 391 00bc 1C44     		add	r4, r4, r3
 392 00be CAF82440 		str	r4, [r10, #36]
 393              	.L39:
 394 00c2 BDE8F087 		pop	{r4, r5, r6, r7, r8, r9, r10, pc}
 395              	.L52:
 396 00c6 1A6A     		ldr	r2, [r3, #32]
 397 00c8 013A     		subs	r2, r2, #1
 398 00ca B1E7     		b	.L41
 399              	.L54:
 400              		.align	2
 401              	.L53:
 402 00cc 00000000 		.word	_SEGGER_RTT
 404              		.section	.text.SEGGER_RTT_WriteSkipNoLock,"ax",%progbits
 405              		.align	1
 406              		.p2align 2,,3
 407              		.global	SEGGER_RTT_WriteSkipNoLock
 408              		.syntax unified
ARM GAS  C:\Users\Brandon\AppData\Local\Temp\ccTNPTre.s 			page 8


 409              		.thumb
 410              		.thumb_func
 411              		.fpu fpv5-d16
 413              	SEGGER_RTT_WriteSkipNoLock:
 414              		@ args = 0, pretend = 0, frame = 0
 415              		@ frame_needed = 0, uses_anonymous_args = 0
 416 0000 2DE9F047 		push	{r4, r5, r6, r7, r8, r9, r10, lr}
 417 0004 DFF898C0 		ldr	ip, .L66
 418 0008 00EB4004 		add	r4, r0, r0, lsl #1
 419 000c 1546     		mov	r5, r2
 420 000e 0CEBC404 		add	r4, ip, r4, lsl #3
 421 0012 A36A     		ldr	r3, [r4, #40]
 422 0014 666A     		ldr	r6, [r4, #36]
 423 0016 B342     		cmp	r3, r6
 424 0018 0DD8     		bhi	.L56
 425 001a D4F82090 		ldr	r9, [r4, #32]
 426 001e A9EB0608 		sub	r8, r9, r6
 427 0022 08F1FF3E 		add	lr, r8, #-1
 428 0026 7245     		cmp	r2, lr
 429 0028 2BD9     		bls	.L64
 430 002a 7344     		add	r3, r3, lr
 431 002c 9A42     		cmp	r2, r3
 432 002e 0DD9     		bls	.L65
 433              	.L61:
 434 0030 0020     		movs	r0, #0
 435              	.L55:
 436 0032 BDE8F087 		pop	{r4, r5, r6, r7, r8, r9, r10, pc}
 437              	.L56:
 438 0036 013B     		subs	r3, r3, #1
 439 0038 9B1B     		subs	r3, r3, r6
 440 003a 9342     		cmp	r3, r2
 441 003c F8D3     		bcc	.L61
 442 003e 0130     		adds	r0, r0, #1
 443 0040 00EB4000 		add	r0, r0, r0, lsl #1
 444 0044 0CEBC000 		add	r0, ip, r0, lsl #3
 445 0048 4068     		ldr	r0, [r0, #4]
 446 004a 21E0     		b	.L63
 447              	.L65:
 448 004c 9045     		cmp	r8, r2
 449 004e 18D8     		bhi	.L64
 450 0050 0130     		adds	r0, r0, #1
 451 0052 3544     		add	r5, r5, r6
 452 0054 0F46     		mov	r7, r1
 453 0056 4246     		mov	r2, r8
 454 0058 00EB4000 		add	r0, r0, r0, lsl #1
 455 005c A5EB0905 		sub	r5, r5, r9
 456 0060 0CEBC00A 		add	r10, ip, r0, lsl #3
 457 0064 DAF80400 		ldr	r0, [r10, #4]
 458 0068 3044     		add	r0, r0, r6
 459 006a FFF7FEFF 		bl	memcpy
 460 006e DAF80400 		ldr	r0, [r10, #4]
 461 0072 07EB0801 		add	r1, r7, r8
 462 0076 2A46     		mov	r2, r5
 463 0078 FFF7FEFF 		bl	memcpy
 464 007c 0120     		movs	r0, #1
 465 007e 6562     		str	r5, [r4, #36]
 466 0080 D7E7     		b	.L55
ARM GAS  C:\Users\Brandon\AppData\Local\Temp\ccTNPTre.s 			page 9


 467              	.L64:
 468 0082 0130     		adds	r0, r0, #1
 469 0084 00EB4000 		add	r0, r0, r0, lsl #1
 470 0088 0CEBC00C 		add	ip, ip, r0, lsl #3
 471 008c DCF80400 		ldr	r0, [ip, #4]
 472              	.L63:
 473 0090 3544     		add	r5, r5, r6
 474 0092 3044     		add	r0, r0, r6
 475 0094 FFF7FEFF 		bl	memcpy
 476 0098 0120     		movs	r0, #1
 477 009a 6562     		str	r5, [r4, #36]
 478 009c BDE8F087 		pop	{r4, r5, r6, r7, r8, r9, r10, pc}
 479              	.L67:
 480              		.align	2
 481              	.L66:
 482 00a0 00000000 		.word	_SEGGER_RTT
 484              		.section	.text.SEGGER_RTT_WriteNoLock,"ax",%progbits
 485              		.align	1
 486              		.p2align 2,,3
 487              		.global	SEGGER_RTT_WriteNoLock
 488              		.syntax unified
 489              		.thumb
 490              		.thumb_func
 491              		.fpu fpv5-d16
 493              	SEGGER_RTT_WriteNoLock:
 494              		@ args = 0, pretend = 0, frame = 0
 495              		@ frame_needed = 0, uses_anonymous_args = 0
 496 0000 F8B5     		push	{r3, r4, r5, r6, r7, lr}
 497 0002 204D     		ldr	r5, .L81
 498 0004 00EB4003 		add	r3, r0, r0, lsl #1
 499 0008 0130     		adds	r0, r0, #1
 500 000a 0F46     		mov	r7, r1
 501 000c 05EBC303 		add	r3, r5, r3, lsl #3
 502 0010 1646     		mov	r6, r2
 503 0012 00EB4000 		add	r0, r0, r0, lsl #1
 504 0016 DC6A     		ldr	r4, [r3, #44]
 505 0018 05EBC000 		add	r0, r5, r0, lsl #3
 506 001c 012C     		cmp	r4, #1
 507 001e 05D0     		beq	.L69
 508 0020 022C     		cmp	r4, #2
 509 0022 20D0     		beq	.L70
 510 0024 8CB1     		cbz	r4, .L78
 511 0026 0024     		movs	r4, #0
 512              	.L68:
 513 0028 2046     		mov	r0, r4
 514 002a F8BD     		pop	{r3, r4, r5, r6, r7, pc}
 515              	.L69:
 516 002c 9A6A     		ldr	r2, [r3, #40]
 517 002e 5C6A     		ldr	r4, [r3, #36]
 518 0030 A242     		cmp	r2, r4
 519 0032 21D9     		bls	.L79
 520 0034 013A     		subs	r2, r2, #1
 521 0036 141B     		subs	r4, r2, r4
 522              	.L75:
 523 0038 B442     		cmp	r4, r6
 524 003a 3946     		mov	r1, r7
 525 003c 28BF     		it	cs
ARM GAS  C:\Users\Brandon\AppData\Local\Temp\ccTNPTre.s 			page 10


 526 003e 3446     		movcs	r4, r6
 527 0040 2246     		mov	r2, r4
 528 0042 FFF7FEFF 		bl	_WriteNoCheck
 529 0046 2046     		mov	r0, r4
 530 0048 F8BD     		pop	{r3, r4, r5, r6, r7, pc}
 531              	.L78:
 532 004a 9A6A     		ldr	r2, [r3, #40]
 533 004c 596A     		ldr	r1, [r3, #36]
 534 004e 8A42     		cmp	r2, r1
 535 0050 0DD9     		bls	.L80
 536 0052 013A     		subs	r2, r2, #1
 537 0054 521A     		subs	r2, r2, r1
 538              	.L73:
 539 0056 9642     		cmp	r6, r2
 540 0058 E6D8     		bhi	.L68
 541 005a 3946     		mov	r1, r7
 542 005c 3246     		mov	r2, r6
 543 005e 3446     		mov	r4, r6
 544 0060 FFF7FEFF 		bl	_WriteNoCheck
 545 0064 E0E7     		b	.L68
 546              	.L70:
 547 0066 BDE8F840 		pop	{r3, r4, r5, r6, r7, lr}
 548 006a FFF7FEBF 		b	_WriteBlocking
 549              	.L80:
 550 006e 1B6A     		ldr	r3, [r3, #32]
 551 0070 1344     		add	r3, r3, r2
 552 0072 013B     		subs	r3, r3, #1
 553 0074 5A1A     		subs	r2, r3, r1
 554 0076 EEE7     		b	.L73
 555              	.L79:
 556 0078 1B6A     		ldr	r3, [r3, #32]
 557 007a 1344     		add	r3, r3, r2
 558 007c 013B     		subs	r3, r3, #1
 559 007e 1C1B     		subs	r4, r3, r4
 560 0080 DAE7     		b	.L75
 561              	.L82:
 562 0082 00BF     		.align	2
 563              	.L81:
 564 0084 00000000 		.word	_SEGGER_RTT
 566              		.section	.text.SEGGER_RTT_Write,"ax",%progbits
 567              		.align	1
 568              		.p2align 2,,3
 569              		.global	SEGGER_RTT_Write
 570              		.syntax unified
 571              		.thumb
 572              		.thumb_func
 573              		.fpu fpv5-d16
 575              	SEGGER_RTT_Write:
 576              		@ args = 0, pretend = 0, frame = 8
 577              		@ frame_needed = 0, uses_anonymous_args = 0
 578 0000 0C4B     		ldr	r3, .L87
 579 0002 30B5     		push	{r4, r5, lr}
 580 0004 1B78     		ldrb	r3, [r3]	@ zero_extendqisi2
 581 0006 83B0     		sub	sp, sp, #12
 582 0008 0C46     		mov	r4, r1
 583 000a 63B1     		cbz	r3, .L86
 584              	.L84:
ARM GAS  C:\Users\Brandon\AppData\Local\Temp\ccTNPTre.s 			page 11


 585              		.syntax unified
 586              	@ 970 "Middlewares/Third_Party/SEGGER_RTT/SEGGER_RTT.c" 1
 587 000c EFF31185 		mrs   r5, basepri  
 588 0010 4FF02001 		mov   r1, #32       
 589 0014 81F31188 		msr   basepri, r1  
 590              		
 591              	@ 0 "" 2
 592              		.thumb
 593              		.syntax unified
 594 0018 2146     		mov	r1, r4
 595 001a FFF7FEFF 		bl	SEGGER_RTT_WriteNoLock
 596              		.syntax unified
 597              	@ 978 "Middlewares/Third_Party/SEGGER_RTT/SEGGER_RTT.c" 1
 598 001e 85F31188 		msr   basepri, r5  
 599              		
 600              	@ 0 "" 2
 601              		.thumb
 602              		.syntax unified
 603 0022 03B0     		add	sp, sp, #12
 604              		@ sp needed
 605 0024 30BD     		pop	{r4, r5, pc}
 606              	.L86:
 607 0026 CDE90002 		strd	r0, r2, [sp]
 608 002a FFF7FEFF 		bl	_DoInit
 609 002e DDE90002 		ldrd	r0, r2, [sp]
 610 0032 EBE7     		b	.L84
 611              	.L88:
 612              		.align	2
 613              	.L87:
 614 0034 00000000 		.word	_SEGGER_RTT
 616              		.section	.text.SEGGER_RTT_WriteString,"ax",%progbits
 617              		.align	1
 618              		.p2align 2,,3
 619              		.global	SEGGER_RTT_WriteString
 620              		.syntax unified
 621              		.thumb
 622              		.thumb_func
 623              		.fpu fpv5-d16
 625              	SEGGER_RTT_WriteString:
 626              		@ args = 0, pretend = 0, frame = 8
 627              		@ frame_needed = 0, uses_anonymous_args = 0
 628 0000 10B5     		push	{r4, lr}
 629 0002 0446     		mov	r4, r0
 630 0004 82B0     		sub	sp, sp, #8
 631 0006 0846     		mov	r0, r1
 632 0008 0191     		str	r1, [sp, #4]
 633 000a FFF7FEFF 		bl	strlen
 634 000e 0199     		ldr	r1, [sp, #4]
 635 0010 0246     		mov	r2, r0
 636 0012 2046     		mov	r0, r4
 637 0014 02B0     		add	sp, sp, #8
 638              		@ sp needed
 639 0016 BDE81040 		pop	{r4, lr}
 640 001a FFF7FEBF 		b	SEGGER_RTT_Write
 642 001e 00BF     		.section	.text.SEGGER_RTT_PutCharSkipNoLock,"ax",%progbits
 643              		.align	1
 644              		.p2align 2,,3
ARM GAS  C:\Users\Brandon\AppData\Local\Temp\ccTNPTre.s 			page 12


 645              		.global	SEGGER_RTT_PutCharSkipNoLock
 646              		.syntax unified
 647              		.thumb
 648              		.thumb_func
 649              		.fpu fpv5-d16
 651              	SEGGER_RTT_PutCharSkipNoLock:
 652              		@ args = 0, pretend = 0, frame = 0
 653              		@ frame_needed = 0, uses_anonymous_args = 0
 654              		@ link register save eliminated.
 655 0000 F0B4     		push	{r4, r5, r6, r7}
 656 0002 00EB4002 		add	r2, r0, r0, lsl #1
 657 0006 0D4D     		ldr	r5, .L96
 658 0008 05EBC202 		add	r2, r5, r2, lsl #3
 659 000c D2E90876 		ldrd	r7, r6, [r2, #32]
 660 0010 936A     		ldr	r3, [r2, #40]
 661 0012 741C     		adds	r4, r6, #1
 662 0014 A742     		cmp	r7, r4
 663 0016 08BF     		it	eq
 664 0018 0024     		moveq	r4, #0
 665 001a A342     		cmp	r3, r4
 666 001c 0AD0     		beq	.L94
 667 001e 431C     		adds	r3, r0, #1
 668 0020 0120     		movs	r0, #1
 669 0022 03EB4303 		add	r3, r3, r3, lsl #1
 670 0026 05EBC303 		add	r3, r5, r3, lsl #3
 671 002a 5B68     		ldr	r3, [r3, #4]
 672 002c 9955     		strb	r1, [r3, r6]
 673 002e 5462     		str	r4, [r2, #36]
 674 0030 F0BC     		pop	{r4, r5, r6, r7}
 675 0032 7047     		bx	lr
 676              	.L94:
 677 0034 0020     		movs	r0, #0
 678 0036 F0BC     		pop	{r4, r5, r6, r7}
 679 0038 7047     		bx	lr
 680              	.L97:
 681 003a 00BF     		.align	2
 682              	.L96:
 683 003c 00000000 		.word	_SEGGER_RTT
 685              		.section	.text.SEGGER_RTT_PutCharSkip,"ax",%progbits
 686              		.align	1
 687              		.p2align 2,,3
 688              		.global	SEGGER_RTT_PutCharSkip
 689              		.syntax unified
 690              		.thumb
 691              		.thumb_func
 692              		.fpu fpv5-d16
 694              	SEGGER_RTT_PutCharSkip:
 695              		@ args = 0, pretend = 0, frame = 0
 696              		@ frame_needed = 0, uses_anonymous_args = 0
 697 0000 2DE9F041 		push	{r4, r5, r6, r7, r8, lr}
 698 0004 164D     		ldr	r5, .L105
 699 0006 0446     		mov	r4, r0
 700 0008 8846     		mov	r8, r1
 701 000a 2B78     		ldrb	r3, [r5]	@ zero_extendqisi2
 702 000c 2BB3     		cbz	r3, .L104
 703              	.L99:
 704              		.syntax unified
ARM GAS  C:\Users\Brandon\AppData\Local\Temp\ccTNPTre.s 			page 13


 705              	@ 1088 "Middlewares/Third_Party/SEGGER_RTT/SEGGER_RTT.c" 1
 706 000e EFF31187 		mrs   r7, basepri  
 707 0012 4FF02001 		mov   r1, #32       
 708 0016 81F31188 		msr   basepri, r1  
 709              		
 710              	@ 0 "" 2
 711              		.thumb
 712              		.syntax unified
 713 001a 04EB4403 		add	r3, r4, r4, lsl #1
 714 001e 05EBC303 		add	r3, r5, r3, lsl #3
 715 0022 596A     		ldr	r1, [r3, #36]
 716 0024 1E6A     		ldr	r6, [r3, #32]
 717 0026 4A1C     		adds	r2, r1, #1
 718 0028 986A     		ldr	r0, [r3, #40]
 719 002a 9642     		cmp	r6, r2
 720 002c 08BF     		it	eq
 721 002e 0022     		moveq	r2, #0
 722 0030 9042     		cmp	r0, r2
 723 0032 0DD0     		beq	.L102
 724 0034 0134     		adds	r4, r4, #1
 725 0036 0120     		movs	r0, #1
 726 0038 04EB4404 		add	r4, r4, r4, lsl #1
 727 003c 05EBC404 		add	r4, r5, r4, lsl #3
 728 0040 6468     		ldr	r4, [r4, #4]
 729 0042 04F80180 		strb	r8, [r4, r1]
 730 0046 5A62     		str	r2, [r3, #36]
 731              		.syntax unified
 732              	@ 1113 "Middlewares/Third_Party/SEGGER_RTT/SEGGER_RTT.c" 1
 733 0048 87F31188 		msr   basepri, r7  
 734              		
 735              	@ 0 "" 2
 736              		.thumb
 737              		.syntax unified
 738 004c BDE8F081 		pop	{r4, r5, r6, r7, r8, pc}
 739              	.L102:
 740 0050 0020     		movs	r0, #0
 741              		.syntax unified
 742              	@ 1113 "Middlewares/Third_Party/SEGGER_RTT/SEGGER_RTT.c" 1
 743 0052 87F31188 		msr   basepri, r7  
 744              		
 745              	@ 0 "" 2
 746              		.thumb
 747              		.syntax unified
 748 0056 BDE8F081 		pop	{r4, r5, r6, r7, r8, pc}
 749              	.L104:
 750 005a FFF7FEFF 		bl	_DoInit
 751 005e D6E7     		b	.L99
 752              	.L106:
 753              		.align	2
 754              	.L105:
 755 0060 00000000 		.word	_SEGGER_RTT
 757              		.section	.text.SEGGER_RTT_PutChar,"ax",%progbits
 758              		.align	1
 759              		.p2align 2,,3
 760              		.global	SEGGER_RTT_PutChar
 761              		.syntax unified
 762              		.thumb
ARM GAS  C:\Users\Brandon\AppData\Local\Temp\ccTNPTre.s 			page 14


 763              		.thumb_func
 764              		.fpu fpv5-d16
 766              	SEGGER_RTT_PutChar:
 767              		@ args = 0, pretend = 0, frame = 0
 768              		@ frame_needed = 0, uses_anonymous_args = 0
 769 0000 F8B5     		push	{r3, r4, r5, r6, r7, lr}
 770 0002 1F4D     		ldr	r5, .L118
 771 0004 0446     		mov	r4, r0
 772 0006 0E46     		mov	r6, r1
 773 0008 2B78     		ldrb	r3, [r5]	@ zero_extendqisi2
 774 000a 002B     		cmp	r3, #0
 775 000c 34D0     		beq	.L117
 776              	.L108:
 777              		.syntax unified
 778              	@ 1144 "Middlewares/Third_Party/SEGGER_RTT/SEGGER_RTT.c" 1
 779 000e EFF31187 		mrs   r7, basepri  
 780 0012 4FF02001 		mov   r1, #32       
 781 0016 81F31188 		msr   basepri, r1  
 782              		
 783              	@ 0 "" 2
 784              		.thumb
 785              		.syntax unified
 786 001a 04EB4403 		add	r3, r4, r4, lsl #1
 787 001e 4FEA440E 		lsl	lr, r4, #1
 788 0022 05EBC303 		add	r3, r5, r3, lsl #3
 789 0026 D3E9080C 		ldrd	r0, ip, [r3, #32]
 790 002a D96A     		ldr	r1, [r3, #44]
 791 002c 0CF10102 		add	r2, ip, #1
 792 0030 9042     		cmp	r0, r2
 793 0032 08BF     		it	eq
 794 0034 0022     		moveq	r2, #0
 795 0036 0229     		cmp	r1, #2
 796 0038 13D0     		beq	.L111
 797              	.L110:
 798 003a 0EEB0403 		add	r3, lr, r4
 799 003e 05EBC303 		add	r3, r5, r3, lsl #3
 800 0042 996A     		ldr	r1, [r3, #40]
 801 0044 9142     		cmp	r1, r2
 802 0046 13D0     		beq	.L113
 803 0048 0134     		adds	r4, r4, #1
 804 004a 0120     		movs	r0, #1
 805 004c 04EB4404 		add	r4, r4, r4, lsl #1
 806 0050 05EBC404 		add	r4, r5, r4, lsl #3
 807 0054 6168     		ldr	r1, [r4, #4]
 808 0056 01F80C60 		strb	r6, [r1, ip]
 809 005a 5A62     		str	r2, [r3, #36]
 810              		.syntax unified
 811              	@ 1177 "Middlewares/Third_Party/SEGGER_RTT/SEGGER_RTT.c" 1
 812 005c 87F31188 		msr   basepri, r7  
 813              		
 814              	@ 0 "" 2
 815              		.thumb
 816              		.syntax unified
 817 0060 F8BD     		pop	{r3, r4, r5, r6, r7, pc}
 818              	.L111:
 819 0062 996A     		ldr	r1, [r3, #40]
 820 0064 9142     		cmp	r1, r2
ARM GAS  C:\Users\Brandon\AppData\Local\Temp\ccTNPTre.s 			page 15


 821 0066 E8D1     		bne	.L110
 822 0068 996A     		ldr	r1, [r3, #40]
 823 006a 9142     		cmp	r1, r2
 824 006c F9D0     		beq	.L111
 825 006e E4E7     		b	.L110
 826              	.L113:
 827 0070 0020     		movs	r0, #0
 828              		.syntax unified
 829              	@ 1177 "Middlewares/Third_Party/SEGGER_RTT/SEGGER_RTT.c" 1
 830 0072 87F31188 		msr   basepri, r7  
 831              		
 832              	@ 0 "" 2
 833              		.thumb
 834              		.syntax unified
 835 0076 F8BD     		pop	{r3, r4, r5, r6, r7, pc}
 836              	.L117:
 837 0078 FFF7FEFF 		bl	_DoInit
 838 007c C7E7     		b	.L108
 839              	.L119:
 840 007e 00BF     		.align	2
 841              	.L118:
 842 0080 00000000 		.word	_SEGGER_RTT
 844              		.section	.text.SEGGER_RTT_GetKey,"ax",%progbits
 845              		.align	1
 846              		.p2align 2,,3
 847              		.global	SEGGER_RTT_GetKey
 848              		.syntax unified
 849              		.thumb
 850              		.thumb_func
 851              		.fpu fpv5-d16
 853              	SEGGER_RTT_GetKey:
 854              		@ args = 0, pretend = 0, frame = 8
 855              		@ frame_needed = 0, uses_anonymous_args = 0
 856 0000 10B5     		push	{r4, lr}
 857 0002 82B0     		sub	sp, sp, #8
 858              		.syntax unified
 859              	@ 619 "Middlewares/Third_Party/SEGGER_RTT/SEGGER_RTT.c" 1
 860 0004 EFF31184 		mrs   r4, basepri  
 861 0008 4FF02001 		mov   r1, #32       
 862 000c 81F31188 		msr   basepri, r1  
 863              		
 864              	@ 0 "" 2
 865              		.thumb
 866              		.syntax unified
 867 0010 0122     		movs	r2, #1
 868 0012 0DF10701 		add	r1, sp, #7
 869 0016 0020     		movs	r0, #0
 870 0018 FFF7FEFF 		bl	SEGGER_RTT_ReadNoLock
 871              		.syntax unified
 872              	@ 627 "Middlewares/Third_Party/SEGGER_RTT/SEGGER_RTT.c" 1
 873 001c 84F31188 		msr   basepri, r4  
 874              		
 875              	@ 0 "" 2
 876              		.thumb
 877              		.syntax unified
 878 0020 0128     		cmp	r0, #1
 879 0022 0CBF     		ite	eq
ARM GAS  C:\Users\Brandon\AppData\Local\Temp\ccTNPTre.s 			page 16


 880 0024 9DF80700 		ldrbeq	r0, [sp, #7]	@ zero_extendqisi2
 881 0028 4FF0FF30 		movne	r0, #-1
 882 002c 02B0     		add	sp, sp, #8
 883              		@ sp needed
 884 002e 10BD     		pop	{r4, pc}
 886              		.section	.text.SEGGER_RTT_WaitKey,"ax",%progbits
 887              		.align	1
 888              		.p2align 2,,3
 889              		.global	SEGGER_RTT_WaitKey
 890              		.syntax unified
 891              		.thumb
 892              		.thumb_func
 893              		.fpu fpv5-d16
 895              	SEGGER_RTT_WaitKey:
 896              		@ args = 0, pretend = 0, frame = 0
 897              		@ frame_needed = 0, uses_anonymous_args = 0
 898 0000 08B5     		push	{r3, lr}
 899              	.L125:
 900 0002 FFF7FEFF 		bl	SEGGER_RTT_GetKey
 901 0006 0028     		cmp	r0, #0
 902 0008 FBDB     		blt	.L125
 903 000a 08BD     		pop	{r3, pc}
 905              		.section	.text.SEGGER_RTT_HasKey,"ax",%progbits
 906              		.align	1
 907              		.p2align 2,,3
 908              		.global	SEGGER_RTT_HasKey
 909              		.syntax unified
 910              		.thumb
 911              		.thumb_func
 912              		.fpu fpv5-d16
 914              	SEGGER_RTT_HasKey:
 915              		@ args = 0, pretend = 0, frame = 0
 916              		@ frame_needed = 0, uses_anonymous_args = 0
 917 0000 10B5     		push	{r4, lr}
 918 0002 064C     		ldr	r4, .L132
 919 0004 2378     		ldrb	r3, [r4]	@ zero_extendqisi2
 920 0006 2BB1     		cbz	r3, .L131
 921              	.L129:
 922 0008 636D     		ldr	r3, [r4, #84]
 923 000a A06D     		ldr	r0, [r4, #88]
 924 000c C01A     		subs	r0, r0, r3
 925 000e 18BF     		it	ne
 926 0010 0120     		movne	r0, #1
 927 0012 10BD     		pop	{r4, pc}
 928              	.L131:
 929 0014 FFF7FEFF 		bl	_DoInit
 930 0018 F6E7     		b	.L129
 931              	.L133:
 932 001a 00BF     		.align	2
 933              	.L132:
 934 001c 00000000 		.word	_SEGGER_RTT
 936              		.section	.text.SEGGER_RTT_HasData,"ax",%progbits
 937              		.align	1
 938              		.p2align 2,,3
 939              		.global	SEGGER_RTT_HasData
 940              		.syntax unified
 941              		.thumb
ARM GAS  C:\Users\Brandon\AppData\Local\Temp\ccTNPTre.s 			page 17


 942              		.thumb_func
 943              		.fpu fpv5-d16
 945              	SEGGER_RTT_HasData:
 946              		@ args = 0, pretend = 0, frame = 0
 947              		@ frame_needed = 0, uses_anonymous_args = 0
 948              		@ link register save eliminated.
 949 0000 00EB4000 		add	r0, r0, r0, lsl #1
 950 0004 034B     		ldr	r3, .L135
 951 0006 03EBC003 		add	r3, r3, r0, lsl #3
 952 000a 586D     		ldr	r0, [r3, #84]
 953 000c 9B6D     		ldr	r3, [r3, #88]
 954 000e C01A     		subs	r0, r0, r3
 955 0010 7047     		bx	lr
 956              	.L136:
 957 0012 00BF     		.align	2
 958              	.L135:
 959 0014 00000000 		.word	_SEGGER_RTT
 961              		.section	.text.SEGGER_RTT_AllocDownBuffer,"ax",%progbits
 962              		.align	1
 963              		.p2align 2,,3
 964              		.global	SEGGER_RTT_AllocDownBuffer
 965              		.syntax unified
 966              		.thumb
 967              		.thumb_func
 968              		.fpu fpv5-d16
 970              	SEGGER_RTT_AllocDownBuffer:
 971              		@ args = 0, pretend = 0, frame = 0
 972              		@ frame_needed = 0, uses_anonymous_args = 0
 973 0000 2DE9F843 		push	{r3, r4, r5, r6, r7, r8, r9, lr}
 974 0004 164D     		ldr	r5, .L148
 975 0006 8146     		mov	r9, r0
 976 0008 8846     		mov	r8, r1
 977 000a 1746     		mov	r7, r2
 978 000c 2C78     		ldrb	r4, [r5]	@ zero_extendqisi2
 979 000e 1E46     		mov	r6, r3
 980 0010 F4B1     		cbz	r4, .L147
 981              	.L138:
 982              		.syntax unified
 983              	@ 1306 "Middlewares/Third_Party/SEGGER_RTT/SEGGER_RTT.c" 1
 984 0012 EFF31182 		mrs   r2, basepri  
 985 0016 4FF02001 		mov   r1, #32       
 986 001a 81F31188 		msr   basepri, r1  
 987              		
 988              	@ 0 "" 2
 989              		.thumb
 990              		.syntax unified
 991 001e E86C     		ldr	r0, [r5, #76]
 992 0020 6B69     		ldr	r3, [r5, #20]
 993 0022 20B1     		cbz	r0, .L140
 994 0024 012B     		cmp	r3, #1
 995 0026 16DD     		ble	.L145
 996 0028 696E     		ldr	r1, [r5, #100]
 997 002a B9B1     		cbz	r1, .L144
 998 002c 0220     		movs	r0, #2
 999              	.L140:
 1000 002e 8342     		cmp	r3, r0
 1001 0030 11DD     		ble	.L145
ARM GAS  C:\Users\Brandon\AppData\Local\Temp\ccTNPTre.s 			page 18


 1002              	.L142:
 1003 0032 00EB4004 		add	r4, r0, r0, lsl #1
 1004 0036 0023     		movs	r3, #0
 1005 0038 05EBC404 		add	r4, r5, r4, lsl #3
 1006 003c C4E91298 		strd	r9, r8, [r4, #72]
 1007 0040 2765     		str	r7, [r4, #80]
 1008 0042 6365     		str	r3, [r4, #84]
 1009 0044 C4E91636 		strd	r3, r6, [r4, #88]
 1010              	.L141:
 1011              		.syntax unified
 1012              	@ 1324 "Middlewares/Third_Party/SEGGER_RTT/SEGGER_RTT.c" 1
 1013 0048 82F31188 		msr   basepri, r2  
 1014              		
 1015              	@ 0 "" 2
 1016              		.thumb
 1017              		.syntax unified
 1018 004c BDE8F883 		pop	{r3, r4, r5, r6, r7, r8, r9, pc}
 1019              	.L147:
 1020 0050 FFF7FEFF 		bl	_DoInit
 1021 0054 DDE7     		b	.L138
 1022              	.L145:
 1023 0056 4FF0FF30 		mov	r0, #-1
 1024 005a F5E7     		b	.L141
 1025              	.L144:
 1026 005c 0120     		movs	r0, #1
 1027 005e E8E7     		b	.L142
 1028              	.L149:
 1029              		.align	2
 1030              	.L148:
 1031 0060 00000000 		.word	_SEGGER_RTT
 1033              		.section	.text.SEGGER_RTT_AllocUpBuffer,"ax",%progbits
 1034              		.align	1
 1035              		.p2align 2,,3
 1036              		.global	SEGGER_RTT_AllocUpBuffer
 1037              		.syntax unified
 1038              		.thumb
 1039              		.thumb_func
 1040              		.fpu fpv5-d16
 1042              	SEGGER_RTT_AllocUpBuffer:
 1043              		@ args = 0, pretend = 0, frame = 8
 1044              		@ frame_needed = 0, uses_anonymous_args = 0
 1045 0000 2DE9F043 		push	{r4, r5, r6, r7, r8, r9, lr}
 1046 0004 1B4C     		ldr	r4, .L161
 1047 0006 83B0     		sub	sp, sp, #12
 1048 0008 8046     		mov	r8, r0
 1049 000a 0E46     		mov	r6, r1
 1050 000c 0193     		str	r3, [sp, #4]
 1051 000e 9146     		mov	r9, r2
 1052 0010 2378     		ldrb	r3, [r4]	@ zero_extendqisi2
 1053 0012 019F     		ldr	r7, [sp, #4]
 1054 0014 33B3     		cbz	r3, .L160
 1055              	.L151:
 1056              		.syntax unified
 1057              	@ 1351 "Middlewares/Third_Party/SEGGER_RTT/SEGGER_RTT.c" 1
 1058 0016 EFF31182 		mrs   r2, basepri  
 1059 001a 4FF02001 		mov   r1, #32       
 1060 001e 81F31188 		msr   basepri, r1  
ARM GAS  C:\Users\Brandon\AppData\Local\Temp\ccTNPTre.s 			page 19


 1061              		
 1062              	@ 0 "" 2
 1063              		.thumb
 1064              		.syntax unified
 1065 0022 E069     		ldr	r0, [r4, #28]
 1066 0024 2369     		ldr	r3, [r4, #16]
 1067 0026 20B1     		cbz	r0, .L153
 1068 0028 012B     		cmp	r3, #1
 1069 002a 1EDD     		ble	.L158
 1070 002c 616B     		ldr	r1, [r4, #52]
 1071 002e F9B1     		cbz	r1, .L157
 1072 0030 0220     		movs	r0, #2
 1073              	.L153:
 1074 0032 8342     		cmp	r3, r0
 1075 0034 19DD     		ble	.L158
 1076              	.L155:
 1077 0036 431C     		adds	r3, r0, #1
 1078 0038 00EB4005 		add	r5, r0, r0, lsl #1
 1079 003c 0021     		movs	r1, #0
 1080 003e 03EB4303 		add	r3, r3, r3, lsl #1
 1081 0042 04EBC505 		add	r5, r4, r5, lsl #3
 1082 0046 DB00     		lsls	r3, r3, #3
 1083 0048 C5F82090 		str	r9, [r5, #32]
 1084 004c 44F80380 		str	r8, [r4, r3]
 1085 0050 1C44     		add	r4, r4, r3
 1086 0052 EF62     		str	r7, [r5, #44]
 1087 0054 6660     		str	r6, [r4, #4]
 1088 0056 A962     		str	r1, [r5, #40]
 1089 0058 6962     		str	r1, [r5, #36]
 1090              	.L154:
 1091              		.syntax unified
 1092              	@ 1369 "Middlewares/Third_Party/SEGGER_RTT/SEGGER_RTT.c" 1
 1093 005a 82F31188 		msr   basepri, r2  
 1094              		
 1095              	@ 0 "" 2
 1096              		.thumb
 1097              		.syntax unified
 1098 005e 03B0     		add	sp, sp, #12
 1099              		@ sp needed
 1100 0060 BDE8F083 		pop	{r4, r5, r6, r7, r8, r9, pc}
 1101              	.L160:
 1102 0064 FFF7FEFF 		bl	_DoInit
 1103 0068 D5E7     		b	.L151
 1104              	.L158:
 1105 006a 4FF0FF30 		mov	r0, #-1
 1106 006e F4E7     		b	.L154
 1107              	.L157:
 1108 0070 0120     		movs	r0, #1
 1109 0072 E0E7     		b	.L155
 1110              	.L162:
 1111              		.align	2
 1112              	.L161:
 1113 0074 00000000 		.word	_SEGGER_RTT
 1115              		.section	.text.SEGGER_RTT_ConfigUpBuffer,"ax",%progbits
 1116              		.align	1
 1117              		.p2align 2,,3
 1118              		.global	SEGGER_RTT_ConfigUpBuffer
ARM GAS  C:\Users\Brandon\AppData\Local\Temp\ccTNPTre.s 			page 20


 1119              		.syntax unified
 1120              		.thumb
 1121              		.thumb_func
 1122              		.fpu fpv5-d16
 1124              	SEGGER_RTT_ConfigUpBuffer:
 1125              		@ args = 4, pretend = 0, frame = 0
 1126              		@ frame_needed = 0, uses_anonymous_args = 0
 1127 0000 2DE9F047 		push	{r4, r5, r6, r7, r8, r9, r10, lr}
 1128 0004 1A4D     		ldr	r5, .L173
 1129 0006 0446     		mov	r4, r0
 1130 0008 8946     		mov	r9, r1
 1131 000a 9046     		mov	r8, r2
 1132 000c 2E78     		ldrb	r6, [r5]	@ zero_extendqisi2
 1133 000e 9A46     		mov	r10, r3
 1134 0010 46B3     		cbz	r6, .L172
 1135              	.L164:
 1136 0012 2B69     		ldr	r3, [r5, #16]
 1137 0014 A342     		cmp	r3, r4
 1138 0016 28D9     		bls	.L167
 1139              		.syntax unified
 1140              	@ 1403 "Middlewares/Third_Party/SEGGER_RTT/SEGGER_RTT.c" 1
 1141 0018 EFF31182 		mrs   r2, basepri  
 1142 001c 4FF02001 		mov   r1, #32       
 1143 0020 81F31188 		msr   basepri, r1  
 1144              		
 1145              	@ 0 "" 2
 1146              		.thumb
 1147              		.syntax unified
 1148 0024 54B9     		cbnz	r4, .L170
 1149 0026 2046     		mov	r0, r4
 1150              	.L166:
 1151 0028 0444     		add	r4, r4, r0
 1152 002a 089B     		ldr	r3, [sp, #32]
 1153 002c 05EBC405 		add	r5, r5, r4, lsl #3
 1154 0030 EB62     		str	r3, [r5, #44]
 1155              		.syntax unified
 1156              	@ 1412 "Middlewares/Third_Party/SEGGER_RTT/SEGGER_RTT.c" 1
 1157 0032 82F31188 		msr   basepri, r2  
 1158              		
 1159              	@ 0 "" 2
 1160              		.thumb
 1161              		.syntax unified
 1162 0036 0020     		movs	r0, #0
 1163              	.L163:
 1164 0038 BDE8F087 		pop	{r4, r5, r6, r7, r8, r9, r10, pc}
 1165              	.L170:
 1166 003c 661C     		adds	r6, r4, #1
 1167 003e 04EB4407 		add	r7, r4, r4, lsl #1
 1168 0042 0023     		movs	r3, #0
 1169 0044 6000     		lsls	r0, r4, #1
 1170 0046 06EB4606 		add	r6, r6, r6, lsl #1
 1171 004a 05EBC707 		add	r7, r5, r7, lsl #3
 1172 004e F600     		lsls	r6, r6, #3
 1173 0050 C7F820A0 		str	r10, [r7, #32]
 1174 0054 45F80690 		str	r9, [r5, r6]
 1175 0058 2E44     		add	r6, r6, r5
 1176 005a BB62     		str	r3, [r7, #40]
ARM GAS  C:\Users\Brandon\AppData\Local\Temp\ccTNPTre.s 			page 21


 1177 005c C6F80480 		str	r8, [r6, #4]
 1178 0060 7B62     		str	r3, [r7, #36]
 1179 0062 E1E7     		b	.L166
 1180              	.L172:
 1181 0064 FFF7FEFF 		bl	_DoInit
 1182 0068 D3E7     		b	.L164
 1183              	.L167:
 1184 006a 4FF0FF30 		mov	r0, #-1
 1185 006e E3E7     		b	.L163
 1186              	.L174:
 1187              		.align	2
 1188              	.L173:
 1189 0070 00000000 		.word	_SEGGER_RTT
 1191              		.section	.text.SEGGER_RTT_ConfigDownBuffer,"ax",%progbits
 1192              		.align	1
 1193              		.p2align 2,,3
 1194              		.global	SEGGER_RTT_ConfigDownBuffer
 1195              		.syntax unified
 1196              		.thumb
 1197              		.thumb_func
 1198              		.fpu fpv5-d16
 1200              	SEGGER_RTT_ConfigDownBuffer:
 1201              		@ args = 4, pretend = 0, frame = 0
 1202              		@ frame_needed = 0, uses_anonymous_args = 0
 1203 0000 2DE9F843 		push	{r3, r4, r5, r6, r7, r8, r9, lr}
 1204 0004 174D     		ldr	r5, .L185
 1205 0006 0446     		mov	r4, r0
 1206 0008 8846     		mov	r8, r1
 1207 000a 1746     		mov	r7, r2
 1208 000c 2E78     		ldrb	r6, [r5]	@ zero_extendqisi2
 1209 000e 9946     		mov	r9, r3
 1210 0010 0EB3     		cbz	r6, .L184
 1211              	.L176:
 1212 0012 6869     		ldr	r0, [r5, #20]
 1213 0014 A042     		cmp	r0, r4
 1214 0016 21D9     		bls	.L179
 1215              		.syntax unified
 1216              	@ 1450 "Middlewares/Third_Party/SEGGER_RTT/SEGGER_RTT.c" 1
 1217 0018 EFF31183 		mrs   r3, basepri  
 1218 001c 4FF02001 		mov   r1, #32       
 1219 0020 81F31188 		msr   basepri, r1  
 1220              		
 1221              	@ 0 "" 2
 1222              		.thumb
 1223              		.syntax unified
 1224 0024 54B9     		cbnz	r4, .L182
 1225 0026 2046     		mov	r0, r4
 1226              	.L178:
 1227 0028 0444     		add	r4, r4, r0
 1228 002a 089A     		ldr	r2, [sp, #32]
 1229 002c 05EBC405 		add	r5, r5, r4, lsl #3
 1230 0030 EA65     		str	r2, [r5, #92]
 1231              		.syntax unified
 1232              	@ 1459 "Middlewares/Third_Party/SEGGER_RTT/SEGGER_RTT.c" 1
 1233 0032 83F31188 		msr   basepri, r3  
 1234              		
 1235              	@ 0 "" 2
ARM GAS  C:\Users\Brandon\AppData\Local\Temp\ccTNPTre.s 			page 22


 1236              		.thumb
 1237              		.syntax unified
 1238 0036 0020     		movs	r0, #0
 1239              	.L175:
 1240 0038 BDE8F883 		pop	{r3, r4, r5, r6, r7, r8, r9, pc}
 1241              	.L182:
 1242 003c 04EB4406 		add	r6, r4, r4, lsl #1
 1243 0040 0022     		movs	r2, #0
 1244 0042 6000     		lsls	r0, r4, #1
 1245 0044 05EBC606 		add	r6, r5, r6, lsl #3
 1246 0048 C6E91287 		strd	r8, r7, [r6, #72]
 1247 004c C6F85090 		str	r9, [r6, #80]
 1248 0050 B265     		str	r2, [r6, #88]
 1249 0052 7265     		str	r2, [r6, #84]
 1250 0054 E8E7     		b	.L178
 1251              	.L184:
 1252 0056 FFF7FEFF 		bl	_DoInit
 1253 005a DAE7     		b	.L176
 1254              	.L179:
 1255 005c 4FF0FF30 		mov	r0, #-1
 1256 0060 EAE7     		b	.L175
 1257              	.L186:
 1258 0062 00BF     		.align	2
 1259              	.L185:
 1260 0064 00000000 		.word	_SEGGER_RTT
 1262              		.section	.text.SEGGER_RTT_SetNameUpBuffer,"ax",%progbits
 1263              		.align	1
 1264              		.p2align 2,,3
 1265              		.global	SEGGER_RTT_SetNameUpBuffer
 1266              		.syntax unified
 1267              		.thumb
 1268              		.thumb_func
 1269              		.fpu fpv5-d16
 1271              	SEGGER_RTT_SetNameUpBuffer:
 1272              		@ args = 0, pretend = 0, frame = 0
 1273              		@ frame_needed = 0, uses_anonymous_args = 0
 1274 0000 70B5     		push	{r4, r5, r6, lr}
 1275 0002 0E4D     		ldr	r5, .L193
 1276 0004 0446     		mov	r4, r0
 1277 0006 0E46     		mov	r6, r1
 1278 0008 2B78     		ldrb	r3, [r5]	@ zero_extendqisi2
 1279 000a 8BB1     		cbz	r3, .L192
 1280              	.L188:
 1281 000c 2B69     		ldr	r3, [r5, #16]
 1282 000e A342     		cmp	r3, r4
 1283 0010 11D9     		bls	.L190
 1284              		.syntax unified
 1285              	@ 1488 "Middlewares/Third_Party/SEGGER_RTT/SEGGER_RTT.c" 1
 1286 0012 EFF31183 		mrs   r3, basepri  
 1287 0016 4FF02001 		mov   r1, #32       
 1288 001a 81F31188 		msr   basepri, r1  
 1289              		
 1290              	@ 0 "" 2
 1291              		.thumb
 1292              		.syntax unified
 1293 001e 0134     		adds	r4, r4, #1
 1294 0020 04EB4404 		add	r4, r4, r4, lsl #1
ARM GAS  C:\Users\Brandon\AppData\Local\Temp\ccTNPTre.s 			page 23


 1295 0024 45F83460 		str	r6, [r5, r4, lsl #3]
 1296              		.syntax unified
 1297              	@ 1490 "Middlewares/Third_Party/SEGGER_RTT/SEGGER_RTT.c" 1
 1298 0028 83F31188 		msr   basepri, r3  
 1299              		
 1300              	@ 0 "" 2
 1301              		.thumb
 1302              		.syntax unified
 1303 002c 0020     		movs	r0, #0
 1304 002e 70BD     		pop	{r4, r5, r6, pc}
 1305              	.L192:
 1306 0030 FFF7FEFF 		bl	_DoInit
 1307 0034 EAE7     		b	.L188
 1308              	.L190:
 1309 0036 4FF0FF30 		mov	r0, #-1
 1310 003a 70BD     		pop	{r4, r5, r6, pc}
 1311              	.L194:
 1312              		.align	2
 1313              	.L193:
 1314 003c 00000000 		.word	_SEGGER_RTT
 1316              		.section	.text.SEGGER_RTT_SetNameDownBuffer,"ax",%progbits
 1317              		.align	1
 1318              		.p2align 2,,3
 1319              		.global	SEGGER_RTT_SetNameDownBuffer
 1320              		.syntax unified
 1321              		.thumb
 1322              		.thumb_func
 1323              		.fpu fpv5-d16
 1325              	SEGGER_RTT_SetNameDownBuffer:
 1326              		@ args = 0, pretend = 0, frame = 0
 1327              		@ frame_needed = 0, uses_anonymous_args = 0
 1328 0000 70B5     		push	{r4, r5, r6, lr}
 1329 0002 0E4D     		ldr	r5, .L201
 1330 0004 0446     		mov	r4, r0
 1331 0006 0E46     		mov	r6, r1
 1332 0008 2B78     		ldrb	r3, [r5]	@ zero_extendqisi2
 1333 000a 8BB1     		cbz	r3, .L200
 1334              	.L196:
 1335 000c 6B69     		ldr	r3, [r5, #20]
 1336 000e A342     		cmp	r3, r4
 1337 0010 11D9     		bls	.L198
 1338              		.syntax unified
 1339              	@ 1519 "Middlewares/Third_Party/SEGGER_RTT/SEGGER_RTT.c" 1
 1340 0012 EFF31183 		mrs   r3, basepri  
 1341 0016 4FF02001 		mov   r1, #32       
 1342 001a 81F31188 		msr   basepri, r1  
 1343              		
 1344              	@ 0 "" 2
 1345              		.thumb
 1346              		.syntax unified
 1347 001e 04EB4404 		add	r4, r4, r4, lsl #1
 1348 0022 05EBC404 		add	r4, r5, r4, lsl #3
 1349 0026 A664     		str	r6, [r4, #72]
 1350              		.syntax unified
 1351              	@ 1521 "Middlewares/Third_Party/SEGGER_RTT/SEGGER_RTT.c" 1
 1352 0028 83F31188 		msr   basepri, r3  
 1353              		
ARM GAS  C:\Users\Brandon\AppData\Local\Temp\ccTNPTre.s 			page 24


 1354              	@ 0 "" 2
 1355              		.thumb
 1356              		.syntax unified
 1357 002c 0020     		movs	r0, #0
 1358 002e 70BD     		pop	{r4, r5, r6, pc}
 1359              	.L200:
 1360 0030 FFF7FEFF 		bl	_DoInit
 1361 0034 EAE7     		b	.L196
 1362              	.L198:
 1363 0036 4FF0FF30 		mov	r0, #-1
 1364 003a 70BD     		pop	{r4, r5, r6, pc}
 1365              	.L202:
 1366              		.align	2
 1367              	.L201:
 1368 003c 00000000 		.word	_SEGGER_RTT
 1370              		.section	.text.SEGGER_RTT_SetFlagsUpBuffer,"ax",%progbits
 1371              		.align	1
 1372              		.p2align 2,,3
 1373              		.global	SEGGER_RTT_SetFlagsUpBuffer
 1374              		.syntax unified
 1375              		.thumb
 1376              		.thumb_func
 1377              		.fpu fpv5-d16
 1379              	SEGGER_RTT_SetFlagsUpBuffer:
 1380              		@ args = 0, pretend = 0, frame = 0
 1381              		@ frame_needed = 0, uses_anonymous_args = 0
 1382 0000 70B5     		push	{r4, r5, r6, lr}
 1383 0002 0E4D     		ldr	r5, .L209
 1384 0004 0446     		mov	r4, r0
 1385 0006 0E46     		mov	r6, r1
 1386 0008 2B78     		ldrb	r3, [r5]	@ zero_extendqisi2
 1387 000a 8BB1     		cbz	r3, .L208
 1388              	.L204:
 1389 000c 2B69     		ldr	r3, [r5, #16]
 1390 000e A342     		cmp	r3, r4
 1391 0010 11D9     		bls	.L206
 1392              		.syntax unified
 1393              	@ 1550 "Middlewares/Third_Party/SEGGER_RTT/SEGGER_RTT.c" 1
 1394 0012 EFF31183 		mrs   r3, basepri  
 1395 0016 4FF02001 		mov   r1, #32       
 1396 001a 81F31188 		msr   basepri, r1  
 1397              		
 1398              	@ 0 "" 2
 1399              		.thumb
 1400              		.syntax unified
 1401 001e 04EB4404 		add	r4, r4, r4, lsl #1
 1402 0022 05EBC404 		add	r4, r5, r4, lsl #3
 1403 0026 E662     		str	r6, [r4, #44]
 1404              		.syntax unified
 1405              	@ 1552 "Middlewares/Third_Party/SEGGER_RTT/SEGGER_RTT.c" 1
 1406 0028 83F31188 		msr   basepri, r3  
 1407              		
 1408              	@ 0 "" 2
 1409              		.thumb
 1410              		.syntax unified
 1411 002c 0020     		movs	r0, #0
 1412 002e 70BD     		pop	{r4, r5, r6, pc}
ARM GAS  C:\Users\Brandon\AppData\Local\Temp\ccTNPTre.s 			page 25


 1413              	.L208:
 1414 0030 FFF7FEFF 		bl	_DoInit
 1415 0034 EAE7     		b	.L204
 1416              	.L206:
 1417 0036 4FF0FF30 		mov	r0, #-1
 1418 003a 70BD     		pop	{r4, r5, r6, pc}
 1419              	.L210:
 1420              		.align	2
 1421              	.L209:
 1422 003c 00000000 		.word	_SEGGER_RTT
 1424              		.section	.text.SEGGER_RTT_SetFlagsDownBuffer,"ax",%progbits
 1425              		.align	1
 1426              		.p2align 2,,3
 1427              		.global	SEGGER_RTT_SetFlagsDownBuffer
 1428              		.syntax unified
 1429              		.thumb
 1430              		.thumb_func
 1431              		.fpu fpv5-d16
 1433              	SEGGER_RTT_SetFlagsDownBuffer:
 1434              		@ args = 0, pretend = 0, frame = 0
 1435              		@ frame_needed = 0, uses_anonymous_args = 0
 1436 0000 70B5     		push	{r4, r5, r6, lr}
 1437 0002 0E4D     		ldr	r5, .L217
 1438 0004 0446     		mov	r4, r0
 1439 0006 0E46     		mov	r6, r1
 1440 0008 2B78     		ldrb	r3, [r5]	@ zero_extendqisi2
 1441 000a 8BB1     		cbz	r3, .L216
 1442              	.L212:
 1443 000c 6B69     		ldr	r3, [r5, #20]
 1444 000e A342     		cmp	r3, r4
 1445 0010 11D9     		bls	.L214
 1446              		.syntax unified
 1447              	@ 1581 "Middlewares/Third_Party/SEGGER_RTT/SEGGER_RTT.c" 1
 1448 0012 EFF31183 		mrs   r3, basepri  
 1449 0016 4FF02001 		mov   r1, #32       
 1450 001a 81F31188 		msr   basepri, r1  
 1451              		
 1452              	@ 0 "" 2
 1453              		.thumb
 1454              		.syntax unified
 1455 001e 04EB4404 		add	r4, r4, r4, lsl #1
 1456 0022 05EBC404 		add	r4, r5, r4, lsl #3
 1457 0026 E665     		str	r6, [r4, #92]
 1458              		.syntax unified
 1459              	@ 1583 "Middlewares/Third_Party/SEGGER_RTT/SEGGER_RTT.c" 1
 1460 0028 83F31188 		msr   basepri, r3  
 1461              		
 1462              	@ 0 "" 2
 1463              		.thumb
 1464              		.syntax unified
 1465 002c 0020     		movs	r0, #0
 1466 002e 70BD     		pop	{r4, r5, r6, pc}
 1467              	.L216:
 1468 0030 FFF7FEFF 		bl	_DoInit
 1469 0034 EAE7     		b	.L212
 1470              	.L214:
 1471 0036 4FF0FF30 		mov	r0, #-1
ARM GAS  C:\Users\Brandon\AppData\Local\Temp\ccTNPTre.s 			page 26


 1472 003a 70BD     		pop	{r4, r5, r6, pc}
 1473              	.L218:
 1474              		.align	2
 1475              	.L217:
 1476 003c 00000000 		.word	_SEGGER_RTT
 1478              		.section	.text.SEGGER_RTT_Init,"ax",%progbits
 1479              		.align	1
 1480              		.p2align 2,,3
 1481              		.global	SEGGER_RTT_Init
 1482              		.syntax unified
 1483              		.thumb
 1484              		.thumb_func
 1485              		.fpu fpv5-d16
 1487              	SEGGER_RTT_Init:
 1488              		@ args = 0, pretend = 0, frame = 0
 1489              		@ frame_needed = 0, uses_anonymous_args = 0
 1490              		@ link register save eliminated.
 1491 0000 FFF7FEBF 		b	_DoInit
 1493              		.section	.text.SEGGER_RTT_SetTerminal,"ax",%progbits
 1494              		.align	1
 1495              		.p2align 2,,3
 1496              		.global	SEGGER_RTT_SetTerminal
 1497              		.syntax unified
 1498              		.thumb
 1499              		.thumb_func
 1500              		.fpu fpv5-d16
 1502              	SEGGER_RTT_SetTerminal:
 1503              		@ args = 0, pretend = 0, frame = 8
 1504              		@ frame_needed = 0, uses_anonymous_args = 0
 1505 0000 70B5     		push	{r4, r5, r6, lr}
 1506 0002 224D     		ldr	r5, .L234
 1507 0004 82B0     		sub	sp, sp, #8
 1508 0006 0446     		mov	r4, r0
 1509 0008 2B78     		ldrb	r3, [r5]	@ zero_extendqisi2
 1510 000a 83B3     		cbz	r3, .L230
 1511              	.L221:
 1512 000c FF23     		movs	r3, #255
 1513 000e 0F2C     		cmp	r4, #15
 1514 0010 8DF80430 		strb	r3, [sp, #4]
 1515 0014 36D8     		bhi	.L227
 1516 0016 1E4B     		ldr	r3, .L234+4
 1517 0018 1B5D     		ldrb	r3, [r3, r4]	@ zero_extendqisi2
 1518 001a 8DF80530 		strb	r3, [sp, #5]
 1519              		.syntax unified
 1520              	@ 1631 "Middlewares/Third_Party/SEGGER_RTT/SEGGER_RTT.c" 1
 1521 001e EFF31186 		mrs   r6, basepri  
 1522 0022 4FF02001 		mov   r1, #32       
 1523 0026 81F31188 		msr   basepri, r1  
 1524              		
 1525              	@ 0 "" 2
 1526              		.thumb
 1527              		.syntax unified
 1528 002a EA6A     		ldr	r2, [r5, #44]
 1529 002c 02F00302 		and	r2, r2, #3
 1530 0030 022A     		cmp	r2, #2
 1531 0032 1FD0     		beq	.L231
 1532 0034 AB6A     		ldr	r3, [r5, #40]
ARM GAS  C:\Users\Brandon\AppData\Local\Temp\ccTNPTre.s 			page 27


 1533 0036 696A     		ldr	r1, [r5, #36]
 1534 0038 8B42     		cmp	r3, r1
 1535 003a 09D9     		bls	.L232
 1536 003c 013B     		subs	r3, r3, #1
 1537 003e 5B1A     		subs	r3, r3, r1
 1538 0040 012B     		cmp	r3, #1
 1539 0042 0BD8     		bhi	.L233
 1540              	.L228:
 1541 0044 4FF0FF30 		mov	r0, #-1
 1542              	.L224:
 1543              		.syntax unified
 1544              	@ 1644 "Middlewares/Third_Party/SEGGER_RTT/SEGGER_RTT.c" 1
 1545 0048 86F31188 		msr   basepri, r6  
 1546              		
 1547              	@ 0 "" 2
 1548              		.thumb
 1549              		.syntax unified
 1550              	.L220:
 1551 004c 02B0     		add	sp, sp, #8
 1552              		@ sp needed
 1553 004e 70BD     		pop	{r4, r5, r6, pc}
 1554              	.L232:
 1555 0050 2A6A     		ldr	r2, [r5, #32]
 1556 0052 1A44     		add	r2, r2, r3
 1557 0054 013A     		subs	r2, r2, #1
 1558 0056 531A     		subs	r3, r2, r1
 1559 0058 012B     		cmp	r3, #1
 1560 005a F3D9     		bls	.L228
 1561              	.L233:
 1562 005c 0D4B     		ldr	r3, .L234+8
 1563 005e 0222     		movs	r2, #2
 1564 0060 0D48     		ldr	r0, .L234+12
 1565 0062 01A9     		add	r1, sp, #4
 1566 0064 1C70     		strb	r4, [r3]
 1567 0066 FFF7FEFF 		bl	_WriteNoCheck
 1568 006a 0020     		movs	r0, #0
 1569 006c ECE7     		b	.L224
 1570              	.L230:
 1571 006e FFF7FEFF 		bl	_DoInit
 1572 0072 CBE7     		b	.L221
 1573              	.L231:
 1574 0074 074B     		ldr	r3, .L234+8
 1575 0076 01A9     		add	r1, sp, #4
 1576 0078 0748     		ldr	r0, .L234+12
 1577 007a 1C70     		strb	r4, [r3]
 1578 007c FFF7FEFF 		bl	_WriteBlocking
 1579 0080 0020     		movs	r0, #0
 1580 0082 E1E7     		b	.L224
 1581              	.L227:
 1582 0084 4FF0FF30 		mov	r0, #-1
 1583 0088 E0E7     		b	.L220
 1584              	.L235:
 1585 008a 00BF     		.align	2
 1586              	.L234:
 1587 008c 00000000 		.word	_SEGGER_RTT
 1588 0090 00000000 		.word	.LANCHOR2
 1589 0094 00000000 		.word	.LANCHOR3
ARM GAS  C:\Users\Brandon\AppData\Local\Temp\ccTNPTre.s 			page 28


 1590 0098 18000000 		.word	_SEGGER_RTT+24
 1592              		.section	.text.SEGGER_RTT_TerminalOut,"ax",%progbits
 1593              		.align	1
 1594              		.p2align 2,,3
 1595              		.global	SEGGER_RTT_TerminalOut
 1596              		.syntax unified
 1597              		.thumb
 1598              		.thumb_func
 1599              		.fpu fpv5-d16
 1601              	SEGGER_RTT_TerminalOut:
 1602              		@ args = 0, pretend = 0, frame = 8
 1603              		@ frame_needed = 0, uses_anonymous_args = 0
 1604 0000 2DE9F04F 		push	{r4, r5, r6, r7, r8, r9, r10, fp, lr}
 1605 0004 574C     		ldr	r4, .L253
 1606 0006 83B0     		sub	sp, sp, #12
 1607 0008 0546     		mov	r5, r0
 1608 000a 0E46     		mov	r6, r1
 1609 000c 2378     		ldrb	r3, [r4]	@ zero_extendqisi2
 1610 000e 002B     		cmp	r3, #0
 1611 0010 58D0     		beq	.L249
 1612              	.L237:
 1613 0012 0F2D     		cmp	r5, #15
 1614 0014 00F2A380 		bhi	.L244
 1615 0018 3046     		mov	r0, r6
 1616 001a FFF7FEFF 		bl	strlen
 1617 001e 0746     		mov	r7, r0
 1618              		.syntax unified
 1619              	@ 1691 "Middlewares/Third_Party/SEGGER_RTT/SEGGER_RTT.c" 1
 1620 0020 EFF31188 		mrs   r8, basepri  
 1621 0024 4FF02001 		mov   r1, #32       
 1622 0028 81F31188 		msr   basepri, r1  
 1623              		
 1624              	@ 0 "" 2
 1625              		.thumb
 1626              		.syntax unified
 1627 002c A36A     		ldr	r3, [r4, #40]
 1628 002e 616A     		ldr	r1, [r4, #36]
 1629 0030 8B42     		cmp	r3, r1
 1630 0032 13D9     		bls	.L250
 1631 0034 E46A     		ldr	r4, [r4, #44]
 1632 0036 013B     		subs	r3, r3, #1
 1633 0038 04F00304 		and	r4, r4, #3
 1634 003c A3EB0109 		sub	r9, r3, r1
 1635 0040 012C     		cmp	r4, #1
 1636 0042 15D0     		beq	.L241
 1637              	.L252:
 1638 0044 022C     		cmp	r4, #2
 1639 0046 66D0     		beq	.L242
 1640 0048 002C     		cmp	r4, #0
 1641 004a 3ED0     		beq	.L251
 1642              	.L247:
 1643 004c 4FF0FF34 		mov	r4, #-1
 1644              	.L243:
 1645              		.syntax unified
 1646              	@ 1736 "Middlewares/Third_Party/SEGGER_RTT/SEGGER_RTT.c" 1
 1647 0050 88F31188 		msr   basepri, r8  
 1648              		
ARM GAS  C:\Users\Brandon\AppData\Local\Temp\ccTNPTre.s 			page 29


 1649              	@ 0 "" 2
 1650              		.thumb
 1651              		.syntax unified
 1652              	.L236:
 1653 0054 2046     		mov	r0, r4
 1654 0056 03B0     		add	sp, sp, #12
 1655              		@ sp needed
 1656 0058 BDE8F08F 		pop	{r4, r5, r6, r7, r8, r9, r10, fp, pc}
 1657              	.L250:
 1658 005c 226A     		ldr	r2, [r4, #32]
 1659 005e E46A     		ldr	r4, [r4, #44]
 1660 0060 1A44     		add	r2, r2, r3
 1661 0062 04F00304 		and	r4, r4, #3
 1662 0066 013A     		subs	r2, r2, #1
 1663 0068 012C     		cmp	r4, #1
 1664 006a A2EB0109 		sub	r9, r2, r1
 1665 006e E9D1     		bne	.L252
 1666              	.L241:
 1667 0070 B9F1030F 		cmp	r9, #3
 1668 0074 EAD9     		bls	.L247
 1669 0076 DFF8F8A0 		ldr	r10, .L253+12
 1670 007a 4FF0FF0B 		mov	fp, #255
 1671 007e 01A9     		add	r1, sp, #4
 1672 0080 0222     		movs	r2, #2
 1673 0082 1AF80530 		ldrb	r3, [r10, r5]	@ zero_extendqisi2
 1674 0086 3848     		ldr	r0, .L253+4
 1675 0088 8DF80530 		strb	r3, [sp, #5]
 1676 008c 8DF804B0 		strb	fp, [sp, #4]
 1677 0090 FFF7FEFF 		bl	_WriteBlocking
 1678 0094 A9F10402 		sub	r2, r9, #4
 1679 0098 3146     		mov	r1, r6
 1680 009a 3348     		ldr	r0, .L253+4
 1681 009c BA42     		cmp	r2, r7
 1682 009e 28BF     		it	cs
 1683 00a0 3A46     		movcs	r2, r7
 1684 00a2 FFF7FEFF 		bl	_WriteBlocking
 1685 00a6 314B     		ldr	r3, .L253+8
 1686 00a8 0446     		mov	r4, r0
 1687 00aa 01A9     		add	r1, sp, #4
 1688 00ac 1B78     		ldrb	r3, [r3]	@ zero_extendqisi2
 1689 00ae 0222     		movs	r2, #2
 1690 00b0 2D48     		ldr	r0, .L253+4
 1691 00b2 1AF80330 		ldrb	r3, [r10, r3]	@ zero_extendqisi2
 1692 00b6 8DF804B0 		strb	fp, [sp, #4]
 1693 00ba 8DF80530 		strb	r3, [sp, #5]
 1694 00be FFF7FEFF 		bl	_WriteBlocking
 1695 00c2 C5E7     		b	.L243
 1696              	.L249:
 1697 00c4 FFF7FEFF 		bl	_DoInit
 1698 00c8 A3E7     		b	.L237
 1699              	.L251:
 1700 00ca 3B1D     		adds	r3, r7, #4
 1701 00cc 4B45     		cmp	r3, r9
 1702 00ce BFD8     		bhi	.L243
 1703 00d0 DFF89C90 		ldr	r9, .L253+12
 1704 00d4 4FF0FF0A 		mov	r10, #255
 1705 00d8 01A9     		add	r1, sp, #4
ARM GAS  C:\Users\Brandon\AppData\Local\Temp\ccTNPTre.s 			page 30


 1706 00da 0222     		movs	r2, #2
 1707 00dc 19F80530 		ldrb	r3, [r9, r5]	@ zero_extendqisi2
 1708 00e0 2148     		ldr	r0, .L253+4
 1709 00e2 8DF80530 		strb	r3, [sp, #5]
 1710 00e6 8DF804A0 		strb	r10, [sp, #4]
 1711 00ea FFF7FEFF 		bl	_WriteBlocking
 1712 00ee 3A46     		mov	r2, r7
 1713 00f0 3146     		mov	r1, r6
 1714 00f2 1D48     		ldr	r0, .L253+4
 1715 00f4 FFF7FEFF 		bl	_WriteBlocking
 1716 00f8 1C4B     		ldr	r3, .L253+8
 1717 00fa 0446     		mov	r4, r0
 1718 00fc 01A9     		add	r1, sp, #4
 1719 00fe 1B78     		ldrb	r3, [r3]	@ zero_extendqisi2
 1720 0100 0222     		movs	r2, #2
 1721 0102 1948     		ldr	r0, .L253+4
 1722 0104 19F80330 		ldrb	r3, [r9, r3]	@ zero_extendqisi2
 1723 0108 8DF804A0 		strb	r10, [sp, #4]
 1724 010c 8DF80530 		strb	r3, [sp, #5]
 1725 0110 FFF7FEFF 		bl	_WriteBlocking
 1726 0114 9CE7     		b	.L243
 1727              	.L242:
 1728 0116 DFF85890 		ldr	r9, .L253+12
 1729 011a 4FF0FF0A 		mov	r10, #255
 1730 011e 2246     		mov	r2, r4
 1731 0120 01A9     		add	r1, sp, #4
 1732 0122 19F80530 		ldrb	r3, [r9, r5]	@ zero_extendqisi2
 1733 0126 1048     		ldr	r0, .L253+4
 1734 0128 8DF80530 		strb	r3, [sp, #5]
 1735 012c 8DF804A0 		strb	r10, [sp, #4]
 1736 0130 FFF7FEFF 		bl	_WriteBlocking
 1737 0134 3A46     		mov	r2, r7
 1738 0136 3146     		mov	r1, r6
 1739 0138 0B48     		ldr	r0, .L253+4
 1740 013a FFF7FEFF 		bl	_WriteBlocking
 1741 013e 0B4B     		ldr	r3, .L253+8
 1742 0140 0546     		mov	r5, r0
 1743 0142 2246     		mov	r2, r4
 1744 0144 1B78     		ldrb	r3, [r3]	@ zero_extendqisi2
 1745 0146 01A9     		add	r1, sp, #4
 1746 0148 0748     		ldr	r0, .L253+4
 1747 014a 2C46     		mov	r4, r5
 1748 014c 19F80330 		ldrb	r3, [r9, r3]	@ zero_extendqisi2
 1749 0150 8DF804A0 		strb	r10, [sp, #4]
 1750 0154 8DF80530 		strb	r3, [sp, #5]
 1751 0158 FFF7FEFF 		bl	_WriteBlocking
 1752 015c 78E7     		b	.L243
 1753              	.L244:
 1754 015e 4FF0FF34 		mov	r4, #-1
 1755 0162 77E7     		b	.L236
 1756              	.L254:
 1757              		.align	2
 1758              	.L253:
 1759 0164 00000000 		.word	_SEGGER_RTT
 1760 0168 18000000 		.word	_SEGGER_RTT+24
 1761 016c 00000000 		.word	.LANCHOR3
 1762 0170 00000000 		.word	.LANCHOR2
ARM GAS  C:\Users\Brandon\AppData\Local\Temp\ccTNPTre.s 			page 31


 1764              		.comm	_SEGGER_RTT,120,4
 1765              		.section	.bss._ActiveTerminal,"aw",%nobits
 1766              		.set	.LANCHOR3,. + 0
 1769              	_ActiveTerminal:
 1770 0000 00       		.space	1
 1771              		.section	.bss._acDownBuffer,"aw",%nobits
 1772              		.align	2
 1773              		.set	.LANCHOR1,. + 0
 1776              	_acDownBuffer:
 1777 0000 00000000 		.space	16
 1777      00000000 
 1777      00000000 
 1777      00000000 
 1778              		.section	.bss._acUpBuffer,"aw",%nobits
 1779              		.align	2
 1780              		.set	.LANCHOR0,. + 0
 1783              	_acUpBuffer:
 1784 0000 00000000 		.space	2048
 1784      00000000 
 1784      00000000 
 1784      00000000 
 1784      00000000 
 1785              		.section	.rodata._aTerminalId,"a"
 1786              		.align	2
 1787              		.set	.LANCHOR2,. + 0
 1790              	_aTerminalId:
 1791 0000 30313233 		.ascii	"0123456789ABCDEF"
 1791      34353637 
 1791      38394142 
 1791      43444546 
 1792              		.ident	"GCC: (GNU Arm Embedded Toolchain 9-2020-q2-update) 9.3.1 20200408 (release)"
ARM GAS  C:\Users\Brandon\AppData\Local\Temp\ccTNPTre.s 			page 32


DEFINED SYMBOLS
                            *ABS*:00000000 SEGGER_RTT.c
C:\Users\Brandon\AppData\Local\Temp\ccTNPTre.s:15     .text._WriteNoCheck:00000000 $t
C:\Users\Brandon\AppData\Local\Temp\ccTNPTre.s:23     .text._WriteNoCheck:00000000 _WriteNoCheck
C:\Users\Brandon\AppData\Local\Temp\ccTNPTre.s:55     .text._WriteBlocking:00000000 $t
C:\Users\Brandon\AppData\Local\Temp\ccTNPTre.s:62     .text._WriteBlocking:00000000 _WriteBlocking
C:\Users\Brandon\AppData\Local\Temp\ccTNPTre.s:106    .rodata._DoInit.str1.4:00000000 $d
C:\Users\Brandon\AppData\Local\Temp\ccTNPTre.s:116    .text._DoInit:00000000 $t
C:\Users\Brandon\AppData\Local\Temp\ccTNPTre.s:123    .text._DoInit:00000000 _DoInit
C:\Users\Brandon\AppData\Local\Temp\ccTNPTre.s:161    .text._DoInit:0000004c $d
                            *COM*:00000078 _SEGGER_RTT
C:\Users\Brandon\AppData\Local\Temp\ccTNPTre.s:169    .text.SEGGER_RTT_ReadNoLock:00000000 $t
C:\Users\Brandon\AppData\Local\Temp\ccTNPTre.s:177    .text.SEGGER_RTT_ReadNoLock:00000000 SEGGER_RTT_ReadNoLock
C:\Users\Brandon\AppData\Local\Temp\ccTNPTre.s:265    .text.SEGGER_RTT_ReadNoLock:000000c0 $d
C:\Users\Brandon\AppData\Local\Temp\ccTNPTre.s:268    .text.SEGGER_RTT_Read:00000000 $t
C:\Users\Brandon\AppData\Local\Temp\ccTNPTre.s:276    .text.SEGGER_RTT_Read:00000000 SEGGER_RTT_Read
C:\Users\Brandon\AppData\Local\Temp\ccTNPTre.s:302    .text.SEGGER_RTT_WriteWithOverwriteNoLock:00000000 $t
C:\Users\Brandon\AppData\Local\Temp\ccTNPTre.s:310    .text.SEGGER_RTT_WriteWithOverwriteNoLock:00000000 SEGGER_RTT_WriteWithOverwriteNoLock
C:\Users\Brandon\AppData\Local\Temp\ccTNPTre.s:402    .text.SEGGER_RTT_WriteWithOverwriteNoLock:000000cc $d
C:\Users\Brandon\AppData\Local\Temp\ccTNPTre.s:405    .text.SEGGER_RTT_WriteSkipNoLock:00000000 $t
C:\Users\Brandon\AppData\Local\Temp\ccTNPTre.s:413    .text.SEGGER_RTT_WriteSkipNoLock:00000000 SEGGER_RTT_WriteSkipNoLock
C:\Users\Brandon\AppData\Local\Temp\ccTNPTre.s:482    .text.SEGGER_RTT_WriteSkipNoLock:000000a0 $d
C:\Users\Brandon\AppData\Local\Temp\ccTNPTre.s:485    .text.SEGGER_RTT_WriteNoLock:00000000 $t
C:\Users\Brandon\AppData\Local\Temp\ccTNPTre.s:493    .text.SEGGER_RTT_WriteNoLock:00000000 SEGGER_RTT_WriteNoLock
C:\Users\Brandon\AppData\Local\Temp\ccTNPTre.s:564    .text.SEGGER_RTT_WriteNoLock:00000084 $d
C:\Users\Brandon\AppData\Local\Temp\ccTNPTre.s:567    .text.SEGGER_RTT_Write:00000000 $t
C:\Users\Brandon\AppData\Local\Temp\ccTNPTre.s:575    .text.SEGGER_RTT_Write:00000000 SEGGER_RTT_Write
C:\Users\Brandon\AppData\Local\Temp\ccTNPTre.s:614    .text.SEGGER_RTT_Write:00000034 $d
C:\Users\Brandon\AppData\Local\Temp\ccTNPTre.s:617    .text.SEGGER_RTT_WriteString:00000000 $t
C:\Users\Brandon\AppData\Local\Temp\ccTNPTre.s:625    .text.SEGGER_RTT_WriteString:00000000 SEGGER_RTT_WriteString
C:\Users\Brandon\AppData\Local\Temp\ccTNPTre.s:643    .text.SEGGER_RTT_PutCharSkipNoLock:00000000 $t
C:\Users\Brandon\AppData\Local\Temp\ccTNPTre.s:651    .text.SEGGER_RTT_PutCharSkipNoLock:00000000 SEGGER_RTT_PutCharSkipNoLock
C:\Users\Brandon\AppData\Local\Temp\ccTNPTre.s:683    .text.SEGGER_RTT_PutCharSkipNoLock:0000003c $d
C:\Users\Brandon\AppData\Local\Temp\ccTNPTre.s:686    .text.SEGGER_RTT_PutCharSkip:00000000 $t
C:\Users\Brandon\AppData\Local\Temp\ccTNPTre.s:694    .text.SEGGER_RTT_PutCharSkip:00000000 SEGGER_RTT_PutCharSkip
C:\Users\Brandon\AppData\Local\Temp\ccTNPTre.s:755    .text.SEGGER_RTT_PutCharSkip:00000060 $d
C:\Users\Brandon\AppData\Local\Temp\ccTNPTre.s:758    .text.SEGGER_RTT_PutChar:00000000 $t
C:\Users\Brandon\AppData\Local\Temp\ccTNPTre.s:766    .text.SEGGER_RTT_PutChar:00000000 SEGGER_RTT_PutChar
C:\Users\Brandon\AppData\Local\Temp\ccTNPTre.s:842    .text.SEGGER_RTT_PutChar:00000080 $d
C:\Users\Brandon\AppData\Local\Temp\ccTNPTre.s:845    .text.SEGGER_RTT_GetKey:00000000 $t
C:\Users\Brandon\AppData\Local\Temp\ccTNPTre.s:853    .text.SEGGER_RTT_GetKey:00000000 SEGGER_RTT_GetKey
C:\Users\Brandon\AppData\Local\Temp\ccTNPTre.s:887    .text.SEGGER_RTT_WaitKey:00000000 $t
C:\Users\Brandon\AppData\Local\Temp\ccTNPTre.s:895    .text.SEGGER_RTT_WaitKey:00000000 SEGGER_RTT_WaitKey
C:\Users\Brandon\AppData\Local\Temp\ccTNPTre.s:906    .text.SEGGER_RTT_HasKey:00000000 $t
C:\Users\Brandon\AppData\Local\Temp\ccTNPTre.s:914    .text.SEGGER_RTT_HasKey:00000000 SEGGER_RTT_HasKey
C:\Users\Brandon\AppData\Local\Temp\ccTNPTre.s:934    .text.SEGGER_RTT_HasKey:0000001c $d
C:\Users\Brandon\AppData\Local\Temp\ccTNPTre.s:937    .text.SEGGER_RTT_HasData:00000000 $t
C:\Users\Brandon\AppData\Local\Temp\ccTNPTre.s:945    .text.SEGGER_RTT_HasData:00000000 SEGGER_RTT_HasData
C:\Users\Brandon\AppData\Local\Temp\ccTNPTre.s:959    .text.SEGGER_RTT_HasData:00000014 $d
C:\Users\Brandon\AppData\Local\Temp\ccTNPTre.s:962    .text.SEGGER_RTT_AllocDownBuffer:00000000 $t
C:\Users\Brandon\AppData\Local\Temp\ccTNPTre.s:970    .text.SEGGER_RTT_AllocDownBuffer:00000000 SEGGER_RTT_AllocDownBuffer
C:\Users\Brandon\AppData\Local\Temp\ccTNPTre.s:1031   .text.SEGGER_RTT_AllocDownBuffer:00000060 $d
C:\Users\Brandon\AppData\Local\Temp\ccTNPTre.s:1034   .text.SEGGER_RTT_AllocUpBuffer:00000000 $t
C:\Users\Brandon\AppData\Local\Temp\ccTNPTre.s:1042   .text.SEGGER_RTT_AllocUpBuffer:00000000 SEGGER_RTT_AllocUpBuffer
C:\Users\Brandon\AppData\Local\Temp\ccTNPTre.s:1113   .text.SEGGER_RTT_AllocUpBuffer:00000074 $d
C:\Users\Brandon\AppData\Local\Temp\ccTNPTre.s:1116   .text.SEGGER_RTT_ConfigUpBuffer:00000000 $t
C:\Users\Brandon\AppData\Local\Temp\ccTNPTre.s:1124   .text.SEGGER_RTT_ConfigUpBuffer:00000000 SEGGER_RTT_ConfigUpBuffer
ARM GAS  C:\Users\Brandon\AppData\Local\Temp\ccTNPTre.s 			page 33


C:\Users\Brandon\AppData\Local\Temp\ccTNPTre.s:1189   .text.SEGGER_RTT_ConfigUpBuffer:00000070 $d
C:\Users\Brandon\AppData\Local\Temp\ccTNPTre.s:1192   .text.SEGGER_RTT_ConfigDownBuffer:00000000 $t
C:\Users\Brandon\AppData\Local\Temp\ccTNPTre.s:1200   .text.SEGGER_RTT_ConfigDownBuffer:00000000 SEGGER_RTT_ConfigDownBuffer
C:\Users\Brandon\AppData\Local\Temp\ccTNPTre.s:1260   .text.SEGGER_RTT_ConfigDownBuffer:00000064 $d
C:\Users\Brandon\AppData\Local\Temp\ccTNPTre.s:1263   .text.SEGGER_RTT_SetNameUpBuffer:00000000 $t
C:\Users\Brandon\AppData\Local\Temp\ccTNPTre.s:1271   .text.SEGGER_RTT_SetNameUpBuffer:00000000 SEGGER_RTT_SetNameUpBuffer
C:\Users\Brandon\AppData\Local\Temp\ccTNPTre.s:1314   .text.SEGGER_RTT_SetNameUpBuffer:0000003c $d
C:\Users\Brandon\AppData\Local\Temp\ccTNPTre.s:1317   .text.SEGGER_RTT_SetNameDownBuffer:00000000 $t
C:\Users\Brandon\AppData\Local\Temp\ccTNPTre.s:1325   .text.SEGGER_RTT_SetNameDownBuffer:00000000 SEGGER_RTT_SetNameDownBuffer
C:\Users\Brandon\AppData\Local\Temp\ccTNPTre.s:1368   .text.SEGGER_RTT_SetNameDownBuffer:0000003c $d
C:\Users\Brandon\AppData\Local\Temp\ccTNPTre.s:1371   .text.SEGGER_RTT_SetFlagsUpBuffer:00000000 $t
C:\Users\Brandon\AppData\Local\Temp\ccTNPTre.s:1379   .text.SEGGER_RTT_SetFlagsUpBuffer:00000000 SEGGER_RTT_SetFlagsUpBuffer
C:\Users\Brandon\AppData\Local\Temp\ccTNPTre.s:1422   .text.SEGGER_RTT_SetFlagsUpBuffer:0000003c $d
C:\Users\Brandon\AppData\Local\Temp\ccTNPTre.s:1425   .text.SEGGER_RTT_SetFlagsDownBuffer:00000000 $t
C:\Users\Brandon\AppData\Local\Temp\ccTNPTre.s:1433   .text.SEGGER_RTT_SetFlagsDownBuffer:00000000 SEGGER_RTT_SetFlagsDownBuffer
C:\Users\Brandon\AppData\Local\Temp\ccTNPTre.s:1476   .text.SEGGER_RTT_SetFlagsDownBuffer:0000003c $d
C:\Users\Brandon\AppData\Local\Temp\ccTNPTre.s:1479   .text.SEGGER_RTT_Init:00000000 $t
C:\Users\Brandon\AppData\Local\Temp\ccTNPTre.s:1487   .text.SEGGER_RTT_Init:00000000 SEGGER_RTT_Init
C:\Users\Brandon\AppData\Local\Temp\ccTNPTre.s:1494   .text.SEGGER_RTT_SetTerminal:00000000 $t
C:\Users\Brandon\AppData\Local\Temp\ccTNPTre.s:1502   .text.SEGGER_RTT_SetTerminal:00000000 SEGGER_RTT_SetTerminal
C:\Users\Brandon\AppData\Local\Temp\ccTNPTre.s:1587   .text.SEGGER_RTT_SetTerminal:0000008c $d
C:\Users\Brandon\AppData\Local\Temp\ccTNPTre.s:1593   .text.SEGGER_RTT_TerminalOut:00000000 $t
C:\Users\Brandon\AppData\Local\Temp\ccTNPTre.s:1601   .text.SEGGER_RTT_TerminalOut:00000000 SEGGER_RTT_TerminalOut
C:\Users\Brandon\AppData\Local\Temp\ccTNPTre.s:1759   .text.SEGGER_RTT_TerminalOut:00000164 $d
C:\Users\Brandon\AppData\Local\Temp\ccTNPTre.s:1769   .bss._ActiveTerminal:00000000 _ActiveTerminal
C:\Users\Brandon\AppData\Local\Temp\ccTNPTre.s:1770   .bss._ActiveTerminal:00000000 $d
C:\Users\Brandon\AppData\Local\Temp\ccTNPTre.s:1772   .bss._acDownBuffer:00000000 $d
C:\Users\Brandon\AppData\Local\Temp\ccTNPTre.s:1776   .bss._acDownBuffer:00000000 _acDownBuffer
C:\Users\Brandon\AppData\Local\Temp\ccTNPTre.s:1779   .bss._acUpBuffer:00000000 $d
C:\Users\Brandon\AppData\Local\Temp\ccTNPTre.s:1783   .bss._acUpBuffer:00000000 _acUpBuffer
C:\Users\Brandon\AppData\Local\Temp\ccTNPTre.s:1786   .rodata._aTerminalId:00000000 $d
C:\Users\Brandon\AppData\Local\Temp\ccTNPTre.s:1790   .rodata._aTerminalId:00000000 _aTerminalId

UNDEFINED SYMBOLS
memcpy
strlen
