ARM GAS  C:\Users\Brandon\AppData\Local\Temp\ccpMPTNw.s 			page 1


   1              		.cpu cortex-m7
   2              		.eabi_attribute 28, 1
   3              		.eabi_attribute 20, 1
   4              		.eabi_attribute 21, 1
   5              		.eabi_attribute 23, 3
   6              		.eabi_attribute 24, 1
   7              		.eabi_attribute 25, 1
   8              		.eabi_attribute 26, 1
   9              		.eabi_attribute 30, 2
  10              		.eabi_attribute 34, 1
  11              		.eabi_attribute 18, 4
  12              		.file	"SEGGER_RTT_printf.c"
  13              		.text
  14              		.section	.text._StoreChar,"ax",%progbits
  15              		.align	1
  16              		.p2align 2,,3
  17              		.arch armv7e-m
  18              		.syntax unified
  19              		.thumb
  20              		.thumb_func
  21              		.fpu fpv5-d16
  23              	_StoreChar:
  24              		@ args = 0, pretend = 0, frame = 0
  25              		@ frame_needed = 0, uses_anonymous_args = 0
  26 0000 D0E90123 		ldrd	r2, r3, [r0, #4]
  27 0004 10B5     		push	{r4, lr}
  28 0006 0446     		mov	r4, r0
  29 0008 581C     		adds	r0, r3, #1
  30 000a 9042     		cmp	r0, r2
  31 000c 07D8     		bhi	.L2
  32 000e 2268     		ldr	r2, [r4]
  33 0010 D154     		strb	r1, [r2, r3]
  34 0012 0346     		mov	r3, r0
  35 0014 E168     		ldr	r1, [r4, #12]
  36 0016 6268     		ldr	r2, [r4, #4]
  37 0018 0131     		adds	r1, r1, #1
  38 001a C4E90201 		strd	r0, r1, [r4, #8]
  39              	.L2:
  40 001e 9A42     		cmp	r2, r3
  41 0020 00D0     		beq	.L7
  42 0022 10BD     		pop	{r4, pc}
  43              	.L7:
  44 0024 2168     		ldr	r1, [r4]
  45 0026 2069     		ldr	r0, [r4, #16]
  46 0028 FFF7FEFF 		bl	SEGGER_RTT_Write
  47 002c A368     		ldr	r3, [r4, #8]
  48 002e 9842     		cmp	r0, r3
  49 0030 03D0     		beq	.L4
  50 0032 4FF0FF33 		mov	r3, #-1
  51 0036 E360     		str	r3, [r4, #12]
  52 0038 10BD     		pop	{r4, pc}
  53              	.L4:
  54 003a 0023     		movs	r3, #0
  55 003c A360     		str	r3, [r4, #8]
  56 003e 10BD     		pop	{r4, pc}
  58              		.section	.text._PrintUnsigned,"ax",%progbits
  59              		.align	1
ARM GAS  C:\Users\Brandon\AppData\Local\Temp\ccpMPTNw.s 			page 2


  60              		.p2align 2,,3
  61              		.syntax unified
  62              		.thumb
  63              		.thumb_func
  64              		.fpu fpv5-d16
  66              	_PrintUnsigned:
  67              		@ args = 8, pretend = 0, frame = 0
  68              		@ frame_needed = 0, uses_anonymous_args = 0
  69 0000 2DE9F84F 		push	{r3, r4, r5, r6, r7, r8, r9, r10, fp, lr}
  70 0004 1546     		mov	r5, r2
  71 0006 0F46     		mov	r7, r1
  72 0008 8346     		mov	fp, r0
  73 000a 1E46     		mov	r6, r3
  74 000c A942     		cmp	r1, r5
  75 000e DDE90A92 		ldrd	r9, r2, [sp, #40]
  76 0012 62D3     		bcc	.L27
  77 0014 0B46     		mov	r3, r1
  78 0016 4FF00108 		mov	r8, #1
  79              	.L10:
  80 001a 08F10108 		add	r8, r8, #1
  81 001e B3FBF5F3 		udiv	r3, r3, r5
  82 0022 9D42     		cmp	r5, r3
  83 0024 F9D9     		bls	.L10
  84              	.L9:
  85 0026 B045     		cmp	r8, r6
  86 0028 38BF     		it	cc
  87 002a B046     		movcc	r8, r6
  88 002c 12F0010A 		ands	r10, r2, #1
  89 0030 02D1     		bne	.L11
  90 0032 B9F1000F 		cmp	r9, #0
  91 0036 39D1     		bne	.L51
  92              	.L11:
  93 0038 DBF80C30 		ldr	r3, [fp, #12]
  94 003c 002B     		cmp	r3, #0
  95 003e 23DB     		blt	.L8
  96 0040 0124     		movs	r4, #1
  97 0042 02E0     		b	.L21
  98              	.L52:
  99 0044 013E     		subs	r6, r6, #1
 100              	.L19:
 101 0046 05FB04F4 		mul	r4, r5, r4
 102              	.L21:
 103 004a 012E     		cmp	r6, #1
 104 004c FAD8     		bhi	.L52
 105 004e B7FBF4F3 		udiv	r3, r7, r4
 106 0052 9D42     		cmp	r5, r3
 107 0054 F7D9     		bls	.L19
 108 0056 224E     		ldr	r6, .L54
 109 0058 06E0     		b	.L20
 110              	.L53:
 111 005a B4FBF5F3 		udiv	r3, r4, r5
 112 005e AC42     		cmp	r4, r5
 113 0060 1C46     		mov	r4, r3
 114 0062 0BD3     		bcc	.L22
 115 0064 B7FBF4F3 		udiv	r3, r7, r4
 116              	.L20:
 117 0068 F15C     		ldrb	r1, [r6, r3]	@ zero_extendqisi2
ARM GAS  C:\Users\Brandon\AppData\Local\Temp\ccpMPTNw.s 			page 3


 118 006a 5846     		mov	r0, fp
 119 006c 04FB1377 		mls	r7, r4, r3, r7
 120 0070 FFF7FEFF 		bl	_StoreChar
 121 0074 DBF80C30 		ldr	r3, [fp, #12]
 122 0078 002B     		cmp	r3, #0
 123 007a EEDA     		bge	.L53
 124              	.L22:
 125 007c B9F1000F 		cmp	r9, #0
 126 0080 02D0     		beq	.L8
 127 0082 BAF1000F 		cmp	r10, #0
 128 0086 01D1     		bne	.L23
 129              	.L8:
 130 0088 BDE8F88F 		pop	{r3, r4, r5, r6, r7, r8, r9, r10, fp, pc}
 131              	.L23:
 132 008c 2021     		movs	r1, #32
 133 008e 5846     		mov	r0, fp
 134 0090 B9F1000F 		cmp	r9, #0
 135 0094 F8D0     		beq	.L8
 136 0096 C145     		cmp	r9, r8
 137 0098 09F1FF39 		add	r9, r9, #-1
 138 009c F4D9     		bls	.L8
 139 009e FFF7FEFF 		bl	_StoreChar
 140 00a2 DBF80C30 		ldr	r3, [fp, #12]
 141 00a6 002B     		cmp	r3, #0
 142 00a8 F0DA     		bge	.L23
 143 00aa EDE7     		b	.L8
 144              	.L51:
 145 00ac 9307     		lsls	r3, r2, #30
 146 00ae 12D5     		bpl	.L30
 147 00b0 8EB9     		cbnz	r6, .L30
 148 00b2 3024     		movs	r4, #48
 149              	.L14:
 150 00b4 2146     		mov	r1, r4
 151 00b6 5846     		mov	r0, fp
 152 00b8 B9F1000F 		cmp	r9, #0
 153 00bc BCD0     		beq	.L11
 154 00be C145     		cmp	r9, r8
 155 00c0 BAD9     		bls	.L11
 156 00c2 FFF7FEFF 		bl	_StoreChar
 157 00c6 DBF80C30 		ldr	r3, [fp, #12]
 158 00ca 09F1FF39 		add	r9, r9, #-1
 159 00ce 002B     		cmp	r3, #0
 160 00d0 F0DA     		bge	.L14
 161 00d2 BDE8F88F 		pop	{r3, r4, r5, r6, r7, r8, r9, r10, fp, pc}
 162              	.L30:
 163 00d6 2024     		movs	r4, #32
 164 00d8 ECE7     		b	.L14
 165              	.L27:
 166 00da 4FF00108 		mov	r8, #1
 167 00de A2E7     		b	.L9
 168              	.L55:
 169              		.align	2
 170              	.L54:
 171 00e0 00000000 		.word	.LANCHOR0
 173              		.section	.text.SEGGER_RTT_vprintf,"ax",%progbits
 174              		.align	1
 175              		.p2align 2,,3
ARM GAS  C:\Users\Brandon\AppData\Local\Temp\ccpMPTNw.s 			page 4


 176              		.global	SEGGER_RTT_vprintf
 177              		.syntax unified
 178              		.thumb
 179              		.thumb_func
 180              		.fpu fpv5-d16
 182              	SEGGER_RTT_vprintf:
 183              		@ args = 0, pretend = 0, frame = 96
 184              		@ frame_needed = 0, uses_anonymous_args = 0
 185 0000 2DE9F04F 		push	{r4, r5, r6, r7, r8, r9, r10, fp, lr}
 186 0004 9BB0     		sub	sp, sp, #108
 187 0006 1746     		mov	r7, r2
 188 0008 0023     		movs	r3, #0
 189 000a 4022     		movs	r2, #64
 190 000c 0DF1280A 		add	r10, sp, #40
 191 0010 8046     		mov	r8, r0
 192 0012 0D46     		mov	r5, r1
 193 0014 DFF8A492 		ldr	r9, .L162
 194 0018 0990     		str	r0, [sp, #36]
 195 001a CDE905A2 		strd	r10, r2, [sp, #20]
 196 001e CDE90733 		strd	r3, r3, [sp, #28]
 197 0022 05E0     		b	.L103
 198              	.L58:
 199 0024 05A8     		add	r0, sp, #20
 200 0026 FFF7FEFF 		bl	_StoreChar
 201 002a 0898     		ldr	r0, [sp, #32]
 202 002c 0028     		cmp	r0, #0
 203 002e 62DB     		blt	.L56
 204              	.L103:
 205 0030 15F8011B 		ldrb	r1, [r5], #1	@ zero_extendqisi2
 206 0034 0029     		cmp	r1, #0
 207 0036 61D0     		beq	.L57
 208 0038 2529     		cmp	r1, #37
 209 003a F3D1     		bne	.L58
 210 003c 2946     		mov	r1, r5
 211 003e 0026     		movs	r6, #0
 212              	.L59:
 213 0040 0D46     		mov	r5, r1
 214 0042 11F8013B 		ldrb	r3, [r1], #1	@ zero_extendqisi2
 215 0046 A3F12302 		sub	r2, r3, #35
 216 004a 0D2A     		cmp	r2, #13
 217 004c 08D8     		bhi	.L60
 218 004e DFE802F0 		tbb	[pc, r2]
 219              	.L62:
 220 0052 44       		.byte	(.L65-.L62)/2
 221 0053 07       		.byte	(.L60-.L62)/2
 222 0054 07       		.byte	(.L60-.L62)/2
 223 0055 07       		.byte	(.L60-.L62)/2
 224 0056 07       		.byte	(.L60-.L62)/2
 225 0057 07       		.byte	(.L60-.L62)/2
 226 0058 07       		.byte	(.L60-.L62)/2
 227 0059 07       		.byte	(.L60-.L62)/2
 228 005a 41       		.byte	(.L64-.L62)/2
 229 005b 07       		.byte	(.L60-.L62)/2
 230 005c 47       		.byte	(.L63-.L62)/2
 231 005d 07       		.byte	(.L60-.L62)/2
 232 005e 07       		.byte	(.L60-.L62)/2
 233 005f 3E       		.byte	(.L61-.L62)/2
ARM GAS  C:\Users\Brandon\AppData\Local\Temp\ccpMPTNw.s 			page 5


 234              		.p2align 1
 235              	.L60:
 236 0060 A3F13002 		sub	r2, r3, #48
 237 0064 0024     		movs	r4, #0
 238 0066 092A     		cmp	r2, #9
 239 0068 0AD8     		bhi	.L67
 240              	.L68:
 241 006a 04EB8404 		add	r4, r4, r4, lsl #2
 242 006e 03EB4404 		add	r4, r3, r4, lsl #1
 243 0072 15F8013F 		ldrb	r3, [r5, #1]!	@ zero_extendqisi2
 244 0076 A3F13002 		sub	r2, r3, #48
 245 007a 303C     		subs	r4, r4, #48
 246 007c 092A     		cmp	r2, #9
 247 007e F4D9     		bls	.L68
 248              	.L67:
 249 0080 2E2B     		cmp	r3, #46
 250 0082 00F0CC80 		beq	.L156
 251 0086 2978     		ldrb	r1, [r5]	@ zero_extendqisi2
 252 0088 0023     		movs	r3, #0
 253 008a 01E0     		b	.L152
 254              	.L73:
 255 008c 15F8011F 		ldrb	r1, [r5, #1]!	@ zero_extendqisi2
 256              	.L152:
 257 0090 01F0FB02 		and	r2, r1, #251
 258 0094 682A     		cmp	r2, #104
 259 0096 F9D0     		beq	.L73
 260 0098 2529     		cmp	r1, #37
 261 009a 24D0     		beq	.L74
 262 009c 5839     		subs	r1, r1, #88
 263 009e CAB2     		uxtb	r2, r1
 264 00a0 202A     		cmp	r2, #32
 265 00a2 23D8     		bhi	.L154
 266 00a4 2029     		cmp	r1, #32
 267 00a6 21D8     		bhi	.L154
 268 00a8 DFE801F0 		tbb	[pc, r1]
 269              	.L77:
 270 00ac 9C       		.byte	(.L76-.L77)/2
 271 00ad 20       		.byte	(.L154-.L77)/2
 272 00ae 20       		.byte	(.L154-.L77)/2
 273 00af 20       		.byte	(.L154-.L77)/2
 274 00b0 20       		.byte	(.L154-.L77)/2
 275 00b1 20       		.byte	(.L154-.L77)/2
 276 00b2 20       		.byte	(.L154-.L77)/2
 277 00b3 20       		.byte	(.L154-.L77)/2
 278 00b4 20       		.byte	(.L154-.L77)/2
 279 00b5 20       		.byte	(.L154-.L77)/2
 280 00b6 20       		.byte	(.L154-.L77)/2
 281 00b7 93       		.byte	(.L82-.L77)/2
 282 00b8 5F       		.byte	(.L81-.L77)/2
 283 00b9 20       		.byte	(.L154-.L77)/2
 284 00ba 20       		.byte	(.L154-.L77)/2
 285 00bb 20       		.byte	(.L154-.L77)/2
 286 00bc 20       		.byte	(.L154-.L77)/2
 287 00bd 20       		.byte	(.L154-.L77)/2
 288 00be 20       		.byte	(.L154-.L77)/2
 289 00bf 20       		.byte	(.L154-.L77)/2
 290 00c0 20       		.byte	(.L154-.L77)/2
ARM GAS  C:\Users\Brandon\AppData\Local\Temp\ccpMPTNw.s 			page 6


 291 00c1 20       		.byte	(.L154-.L77)/2
 292 00c2 20       		.byte	(.L154-.L77)/2
 293 00c3 20       		.byte	(.L154-.L77)/2
 294 00c4 51       		.byte	(.L80-.L77)/2
 295 00c5 20       		.byte	(.L154-.L77)/2
 296 00c6 20       		.byte	(.L154-.L77)/2
 297 00c7 41       		.byte	(.L79-.L77)/2
 298 00c8 20       		.byte	(.L154-.L77)/2
 299 00c9 33       		.byte	(.L78-.L77)/2
 300 00ca 20       		.byte	(.L154-.L77)/2
 301 00cb 20       		.byte	(.L154-.L77)/2
 302 00cc 9C       		.byte	(.L76-.L77)/2
 303 00cd 00       		.p2align 1
 304              	.L61:
 305 00ce 46F00206 		orr	r6, r6, #2
 306 00d2 B5E7     		b	.L59
 307              	.L64:
 308 00d4 46F00406 		orr	r6, r6, #4
 309 00d8 B2E7     		b	.L59
 310              	.L65:
 311 00da 46F00806 		orr	r6, r6, #8
 312 00de AFE7     		b	.L59
 313              	.L63:
 314 00e0 46F00106 		orr	r6, r6, #1
 315 00e4 ACE7     		b	.L59
 316              	.L74:
 317 00e6 05A8     		add	r0, sp, #20
 318 00e8 FFF7FEFF 		bl	_StoreChar
 319              	.L154:
 320 00ec 0898     		ldr	r0, [sp, #32]
 321              	.L83:
 322 00ee 0028     		cmp	r0, #0
 323 00f0 05F10105 		add	r5, r5, #1
 324 00f4 9CDA     		bge	.L103
 325              	.L56:
 326 00f6 1BB0     		add	sp, sp, #108
 327              		@ sp needed
 328 00f8 BDE8F08F 		pop	{r4, r5, r6, r7, r8, r9, r10, fp, pc}
 329              	.L57:
 330 00fc 0898     		ldr	r0, [sp, #32]
 331 00fe 0028     		cmp	r0, #0
 332 0100 F9DD     		ble	.L56
 333 0102 079A     		ldr	r2, [sp, #28]
 334 0104 002A     		cmp	r2, #0
 335 0106 40F09F80 		bne	.L157
 336 010a 1044     		add	r0, r0, r2
 337              	.L161:
 338 010c 1BB0     		add	sp, sp, #108
 339              		@ sp needed
 340 010e BDE8F08F 		pop	{r4, r5, r6, r7, r8, r9, r10, fp, pc}
 341              	.L78:
 342 0112 3968     		ldr	r1, [r7]
 343 0114 0A22     		movs	r2, #10
 344              	.L155:
 345 0116 01F1040C 		add	ip, r1, #4
 346 011a 05A8     		add	r0, sp, #20
 347 011c 0968     		ldr	r1, [r1]
ARM GAS  C:\Users\Brandon\AppData\Local\Temp\ccpMPTNw.s 			page 7


 348 011e 0196     		str	r6, [sp, #4]
 349 0120 C7F800C0 		str	ip, [r7]
 350 0124 0094     		str	r4, [sp]
 351 0126 FFF7FEFF 		bl	_PrintUnsigned
 352 012a 0898     		ldr	r0, [sp, #32]
 353 012c DFE7     		b	.L83
 354              	.L79:
 355 012e 3B68     		ldr	r3, [r7]
 356 0130 1A1D     		adds	r2, r3, #4
 357 0132 3A60     		str	r2, [r7]
 358 0134 1C68     		ldr	r4, [r3]
 359 0136 04E0     		b	.L101
 360              	.L100:
 361 0138 FFF7FEFF 		bl	_StoreChar
 362 013c 0898     		ldr	r0, [sp, #32]
 363 013e 0028     		cmp	r0, #0
 364 0140 D5DB     		blt	.L83
 365              	.L101:
 366 0142 14F8011B 		ldrb	r1, [r4], #1	@ zero_extendqisi2
 367 0146 05A8     		add	r0, sp, #20
 368 0148 0029     		cmp	r1, #0
 369 014a F5D1     		bne	.L100
 370 014c CEE7     		b	.L154
 371              	.L80:
 372 014e 3968     		ldr	r1, [r7]
 373 0150 0823     		movs	r3, #8
 374 0152 0024     		movs	r4, #0
 375 0154 1022     		movs	r2, #16
 376 0156 081D     		adds	r0, r1, #4
 377 0158 0968     		ldr	r1, [r1]
 378 015a 0194     		str	r4, [sp, #4]
 379 015c 3860     		str	r0, [r7]
 380 015e 05A8     		add	r0, sp, #20
 381 0160 0093     		str	r3, [sp]
 382 0162 FFF7FEFF 		bl	_PrintUnsigned
 383 0166 0898     		ldr	r0, [sp, #32]
 384 0168 C1E7     		b	.L83
 385              	.L81:
 386 016a 3968     		ldr	r1, [r7]
 387 016c 0120     		movs	r0, #1
 388 016e D1F800B0 		ldr	fp, [r1]
 389 0172 0431     		adds	r1, r1, #4
 390 0174 8BEAEB72 		eor	r2, fp, fp, asr #31
 391 0178 3960     		str	r1, [r7]
 392 017a A2EBEB72 		sub	r2, r2, fp, asr #31
 393 017e 092A     		cmp	r2, #9
 394 0180 07DD     		ble	.L84
 395              	.L85:
 396 0182 1146     		mov	r1, r2
 397 0184 A9FB02C2 		umull	ip, r2, r9, r2
 398 0188 0130     		adds	r0, r0, #1
 399 018a 6329     		cmp	r1, #99
 400 018c 4FEAD202 		lsr	r2, r2, #3
 401 0190 F7DC     		bgt	.L85
 402              	.L84:
 403 0192 9842     		cmp	r0, r3
 404 0194 0246     		mov	r2, r0
ARM GAS  C:\Users\Brandon\AppData\Local\Temp\ccpMPTNw.s 			page 8


 405 0196 38BF     		it	cc
 406 0198 1A46     		movcc	r2, r3
 407 019a 0392     		str	r2, [sp, #12]
 408 019c 2CB1     		cbz	r4, .L86
 409 019e BBF1000F 		cmp	fp, #0
 410 01a2 01DB     		blt	.L87
 411 01a4 7207     		lsls	r2, r6, #29
 412 01a6 00D5     		bpl	.L86
 413              	.L87:
 414 01a8 013C     		subs	r4, r4, #1
 415              	.L86:
 416 01aa B007     		lsls	r0, r6, #30
 417 01ac 00D5     		bpl	.L112
 418 01ae E3B1     		cbz	r3, .L88
 419              	.L112:
 420 01b0 F107     		lsls	r1, r6, #31
 421 01b2 1AD4     		bmi	.L88
 422              	.L153:
 423 01b4 CCB1     		cbz	r4, .L88
 424 01b6 039A     		ldr	r2, [sp, #12]
 425 01b8 2021     		movs	r1, #32
 426 01ba 05A8     		add	r0, sp, #20
 427 01bc A242     		cmp	r2, r4
 428 01be 14D2     		bcs	.L88
 429 01c0 0293     		str	r3, [sp, #8]
 430 01c2 FFF7FEFF 		bl	_StoreChar
 431 01c6 0898     		ldr	r0, [sp, #32]
 432 01c8 013C     		subs	r4, r4, #1
 433 01ca 0028     		cmp	r0, #0
 434 01cc 8FDB     		blt	.L83
 435 01ce 029B     		ldr	r3, [sp, #8]
 436 01d0 F0E7     		b	.L153
 437              	.L82:
 438 01d2 3B68     		ldr	r3, [r7]
 439 01d4 05A8     		add	r0, sp, #20
 440 01d6 1A1D     		adds	r2, r3, #4
 441 01d8 1978     		ldrb	r1, [r3]	@ zero_extendqisi2
 442 01da 3A60     		str	r2, [r7]
 443 01dc FFF7FEFF 		bl	_StoreChar
 444 01e0 0898     		ldr	r0, [sp, #32]
 445 01e2 84E7     		b	.L83
 446              	.L76:
 447 01e4 3968     		ldr	r1, [r7]
 448 01e6 1022     		movs	r2, #16
 449 01e8 95E7     		b	.L155
 450              	.L88:
 451 01ea DDF820C0 		ldr	ip, [sp, #32]
 452 01ee BCF1000F 		cmp	ip, #0
 453 01f2 6046     		mov	r0, ip
 454 01f4 FFF67BAF 		blt	.L83
 455 01f8 BBF1000F 		cmp	fp, #0
 456 01fc 46DB     		blt	.L158
 457 01fe 7207     		lsls	r2, r6, #29
 458 0200 54D4     		bmi	.L159
 459              	.L95:
 460 0202 06F00301 		and	r1, r6, #3
 461 0206 0229     		cmp	r1, #2
ARM GAS  C:\Users\Brandon\AppData\Local\Temp\ccpMPTNw.s 			page 9


 462 0208 00D1     		bne	.L108
 463 020a 2BB3     		cbz	r3, .L160
 464              	.L108:
 465 020c 05A8     		add	r0, sp, #20
 466 020e 5946     		mov	r1, fp
 467 0210 0A22     		movs	r2, #10
 468 0212 CDE90046 		strd	r4, r6, [sp]
 469 0216 FFF7FEFF 		bl	_PrintUnsigned
 470 021a 0898     		ldr	r0, [sp, #32]
 471 021c 67E7     		b	.L83
 472              	.L156:
 473 021e 6978     		ldrb	r1, [r5, #1]	@ zero_extendqisi2
 474 0220 0135     		adds	r5, r5, #1
 475 0222 A1F13003 		sub	r3, r1, #48
 476 0226 092B     		cmp	r3, #9
 477 0228 4FF00003 		mov	r3, #0
 478 022c 3FF630AF 		bhi	.L152
 479              	.L71:
 480 0230 03EB8303 		add	r3, r3, r3, lsl #2
 481 0234 01EB4303 		add	r3, r1, r3, lsl #1
 482 0238 15F8011F 		ldrb	r1, [r5, #1]!	@ zero_extendqisi2
 483 023c A1F13002 		sub	r2, r1, #48
 484 0240 303B     		subs	r3, r3, #48
 485 0242 092A     		cmp	r2, #9
 486 0244 F4D9     		bls	.L71
 487 0246 23E7     		b	.L152
 488              	.L157:
 489 0248 5146     		mov	r1, r10
 490 024a 4046     		mov	r0, r8
 491 024c FFF7FEFF 		bl	SEGGER_RTT_Write
 492 0250 DDE90720 		ldrd	r2, r0, [sp, #28]
 493 0254 1044     		add	r0, r0, r2
 494 0256 59E7     		b	.L161
 495              	.L160:
 496 0258 002C     		cmp	r4, #0
 497 025a D7D0     		beq	.L108
 498              	.L150:
 499 025c 039A     		ldr	r2, [sp, #12]
 500 025e 3021     		movs	r1, #48
 501 0260 05A8     		add	r0, sp, #20
 502 0262 A242     		cmp	r2, r4
 503 0264 0DD2     		bcs	.L113
 504 0266 0293     		str	r3, [sp, #8]
 505 0268 FFF7FEFF 		bl	_StoreChar
 506 026c DDF820C0 		ldr	ip, [sp, #32]
 507 0270 013C     		subs	r4, r4, #1
 508 0272 BCF1000F 		cmp	ip, #0
 509 0276 6046     		mov	r0, ip
 510 0278 FFF639AF 		blt	.L83
 511 027c 029B     		ldr	r3, [sp, #8]
 512 027e 002C     		cmp	r4, #0
 513 0280 ECD1     		bne	.L150
 514              	.L113:
 515 0282 BCF10000 		subs	r0, ip, #0
 516 0286 FFF632AF 		blt	.L83
 517 028a BFE7     		b	.L108
 518              	.L158:
ARM GAS  C:\Users\Brandon\AppData\Local\Temp\ccpMPTNw.s 			page 10


 519 028c 2D21     		movs	r1, #45
 520 028e 05A8     		add	r0, sp, #20
 521 0290 0293     		str	r3, [sp, #8]
 522 0292 CBF1000B 		rsb	fp, fp, #0
 523 0296 FFF7FEFF 		bl	_StoreChar
 524 029a 029B     		ldr	r3, [sp, #8]
 525              	.L94:
 526 029c DDF820C0 		ldr	ip, [sp, #32]
 527 02a0 BCF1000F 		cmp	ip, #0
 528 02a4 6046     		mov	r0, ip
 529 02a6 FFF622AF 		blt	.L83
 530 02aa AAE7     		b	.L95
 531              	.L159:
 532 02ac 2B21     		movs	r1, #43
 533 02ae 05A8     		add	r0, sp, #20
 534 02b0 0293     		str	r3, [sp, #8]
 535 02b2 FFF7FEFF 		bl	_StoreChar
 536 02b6 029B     		ldr	r3, [sp, #8]
 537 02b8 F0E7     		b	.L94
 538              	.L163:
 539 02ba 00BF     		.align	2
 540              	.L162:
 541 02bc CDCCCCCC 		.word	-858993459
 543              		.section	.text.SEGGER_RTT_printf,"ax",%progbits
 544              		.align	1
 545              		.p2align 2,,3
 546              		.global	SEGGER_RTT_printf
 547              		.syntax unified
 548              		.thumb
 549              		.thumb_func
 550              		.fpu fpv5-d16
 552              	SEGGER_RTT_printf:
 553              		@ args = 4, pretend = 12, frame = 8
 554              		@ frame_needed = 0, uses_anonymous_args = 1
 555 0000 0EB4     		push	{r1, r2, r3}
 556 0002 00B5     		push	{lr}
 557 0004 82B0     		sub	sp, sp, #8
 558 0006 03AB     		add	r3, sp, #12
 559 0008 01AA     		add	r2, sp, #4
 560 000a 53F8041B 		ldr	r1, [r3], #4
 561 000e 0193     		str	r3, [sp, #4]
 562 0010 FFF7FEFF 		bl	SEGGER_RTT_vprintf
 563 0014 02B0     		add	sp, sp, #8
 564              		@ sp needed
 565 0016 5DF804EB 		ldr	lr, [sp], #4
 566 001a 03B0     		add	sp, sp, #12
 567 001c 7047     		bx	lr
 569 001e 00BF     		.section	.rodata._aV2C.6281,"a"
 570              		.align	2
 571              		.set	.LANCHOR0,. + 0
 574              	_aV2C.6281:
 575 0000 30313233 		.ascii	"0123456789ABCDEF"
 575      34353637 
 575      38394142 
 575      43444546 
 576              		.ident	"GCC: (GNU Arm Embedded Toolchain 9-2020-q2-update) 9.3.1 20200408 (release)"
ARM GAS  C:\Users\Brandon\AppData\Local\Temp\ccpMPTNw.s 			page 11


DEFINED SYMBOLS
                            *ABS*:00000000 SEGGER_RTT_printf.c
C:\Users\Brandon\AppData\Local\Temp\ccpMPTNw.s:15     .text._StoreChar:00000000 $t
C:\Users\Brandon\AppData\Local\Temp\ccpMPTNw.s:23     .text._StoreChar:00000000 _StoreChar
C:\Users\Brandon\AppData\Local\Temp\ccpMPTNw.s:59     .text._PrintUnsigned:00000000 $t
C:\Users\Brandon\AppData\Local\Temp\ccpMPTNw.s:66     .text._PrintUnsigned:00000000 _PrintUnsigned
C:\Users\Brandon\AppData\Local\Temp\ccpMPTNw.s:171    .text._PrintUnsigned:000000e0 $d
C:\Users\Brandon\AppData\Local\Temp\ccpMPTNw.s:174    .text.SEGGER_RTT_vprintf:00000000 $t
C:\Users\Brandon\AppData\Local\Temp\ccpMPTNw.s:182    .text.SEGGER_RTT_vprintf:00000000 SEGGER_RTT_vprintf
C:\Users\Brandon\AppData\Local\Temp\ccpMPTNw.s:220    .text.SEGGER_RTT_vprintf:00000052 $d
C:\Users\Brandon\AppData\Local\Temp\ccpMPTNw.s:234    .text.SEGGER_RTT_vprintf:00000060 $t
C:\Users\Brandon\AppData\Local\Temp\ccpMPTNw.s:270    .text.SEGGER_RTT_vprintf:000000ac $d
C:\Users\Brandon\AppData\Local\Temp\ccpMPTNw.s:541    .text.SEGGER_RTT_vprintf:000002bc $d
C:\Users\Brandon\AppData\Local\Temp\ccpMPTNw.s:544    .text.SEGGER_RTT_printf:00000000 $t
C:\Users\Brandon\AppData\Local\Temp\ccpMPTNw.s:552    .text.SEGGER_RTT_printf:00000000 SEGGER_RTT_printf
C:\Users\Brandon\AppData\Local\Temp\ccpMPTNw.s:570    .rodata._aV2C.6281:00000000 $d
C:\Users\Brandon\AppData\Local\Temp\ccpMPTNw.s:574    .rodata._aV2C.6281:00000000 _aV2C.6281
C:\Users\Brandon\AppData\Local\Temp\ccpMPTNw.s:303    .text.SEGGER_RTT_vprintf:000000cd $d
C:\Users\Brandon\AppData\Local\Temp\ccpMPTNw.s:303    .text.SEGGER_RTT_vprintf:000000ce $t

UNDEFINED SYMBOLS
SEGGER_RTT_Write
