ARM GAS  C:\Users\Brandon\AppData\Local\Temp\ccaGXwj6.s 			page 1


   1              		.cpu cortex-m7
   2              		.eabi_attribute 28, 1
   3              		.eabi_attribute 20, 1
   4              		.eabi_attribute 21, 1
   5              		.eabi_attribute 23, 3
   6              		.eabi_attribute 24, 1
   7              		.eabi_attribute 25, 1
   8              		.eabi_attribute 26, 1
   9              		.eabi_attribute 30, 1
  10              		.eabi_attribute 34, 1
  11              		.eabi_attribute 18, 4
  12              		.file	"SEGGER_RTT.c"
  13              		.text
  14              	.Ltext0:
  15              		.cfi_sections	.debug_frame
  16              		.section	.text._GetAvailWriteSpace,"ax",%progbits
  17              		.align	1
  18              		.arch armv7e-m
  19              		.syntax unified
  20              		.thumb
  21              		.thumb_func
  22              		.fpu fpv5-d16
  24              	_GetAvailWriteSpace:
  25              	.LVL0:
  26              	.LFB4:
  27              		.file 1 "Middlewares/Third_Party/SEGGER_RTT/SEGGER_RTT.c"
   1:Middlewares/Third_Party/SEGGER_RTT/SEGGER_RTT.c **** /*********************************************************************
   2:Middlewares/Third_Party/SEGGER_RTT/SEGGER_RTT.c **** *                SEGGER Microcontroller GmbH & Co. KG                *
   3:Middlewares/Third_Party/SEGGER_RTT/SEGGER_RTT.c **** *                        The Embedded Experts                        *
   4:Middlewares/Third_Party/SEGGER_RTT/SEGGER_RTT.c **** **********************************************************************
   5:Middlewares/Third_Party/SEGGER_RTT/SEGGER_RTT.c **** *                                                                    *
   6:Middlewares/Third_Party/SEGGER_RTT/SEGGER_RTT.c **** *       (c) 2014 - 2017  SEGGER Microcontroller GmbH & Co. KG        *
   7:Middlewares/Third_Party/SEGGER_RTT/SEGGER_RTT.c **** *                                                                    *
   8:Middlewares/Third_Party/SEGGER_RTT/SEGGER_RTT.c **** *       www.segger.com     Support: support@segger.com               *
   9:Middlewares/Third_Party/SEGGER_RTT/SEGGER_RTT.c **** *                                                                    *
  10:Middlewares/Third_Party/SEGGER_RTT/SEGGER_RTT.c **** **********************************************************************
  11:Middlewares/Third_Party/SEGGER_RTT/SEGGER_RTT.c **** *                                                                    *
  12:Middlewares/Third_Party/SEGGER_RTT/SEGGER_RTT.c **** *       SEGGER RTT * Real Time Transfer for embedded targets         *
  13:Middlewares/Third_Party/SEGGER_RTT/SEGGER_RTT.c **** *                                                                    *
  14:Middlewares/Third_Party/SEGGER_RTT/SEGGER_RTT.c **** **********************************************************************
  15:Middlewares/Third_Party/SEGGER_RTT/SEGGER_RTT.c **** *                                                                    *
  16:Middlewares/Third_Party/SEGGER_RTT/SEGGER_RTT.c **** * All rights reserved.                                               *
  17:Middlewares/Third_Party/SEGGER_RTT/SEGGER_RTT.c **** *                                                                    *
  18:Middlewares/Third_Party/SEGGER_RTT/SEGGER_RTT.c **** * SEGGER strongly recommends to not make any changes                 *
  19:Middlewares/Third_Party/SEGGER_RTT/SEGGER_RTT.c **** * to or modify the source code of this software in order to stay     *
  20:Middlewares/Third_Party/SEGGER_RTT/SEGGER_RTT.c **** * compatible with the RTT protocol and J-Link.                       *
  21:Middlewares/Third_Party/SEGGER_RTT/SEGGER_RTT.c **** *                                                                    *
  22:Middlewares/Third_Party/SEGGER_RTT/SEGGER_RTT.c **** * Redistribution and use in source and binary forms, with or         *
  23:Middlewares/Third_Party/SEGGER_RTT/SEGGER_RTT.c **** * without modification, are permitted provided that the following    *
  24:Middlewares/Third_Party/SEGGER_RTT/SEGGER_RTT.c **** * conditions are met:                                                *
  25:Middlewares/Third_Party/SEGGER_RTT/SEGGER_RTT.c **** *                                                                    *
  26:Middlewares/Third_Party/SEGGER_RTT/SEGGER_RTT.c **** * o Redistributions of source code must retain the above copyright   *
  27:Middlewares/Third_Party/SEGGER_RTT/SEGGER_RTT.c **** *   notice, this list of conditions and the following disclaimer.    *
  28:Middlewares/Third_Party/SEGGER_RTT/SEGGER_RTT.c **** *                                                                    *
  29:Middlewares/Third_Party/SEGGER_RTT/SEGGER_RTT.c **** * o Redistributions in binary form must reproduce the above          *
  30:Middlewares/Third_Party/SEGGER_RTT/SEGGER_RTT.c **** *   copyright notice, this list of conditions and the following      *
  31:Middlewares/Third_Party/SEGGER_RTT/SEGGER_RTT.c **** *   disclaimer in the documentation and/or other materials provided  *
ARM GAS  C:\Users\Brandon\AppData\Local\Temp\ccaGXwj6.s 			page 2


  32:Middlewares/Third_Party/SEGGER_RTT/SEGGER_RTT.c **** *   with the distribution.                                           *
  33:Middlewares/Third_Party/SEGGER_RTT/SEGGER_RTT.c **** *                                                                    *
  34:Middlewares/Third_Party/SEGGER_RTT/SEGGER_RTT.c **** * o Neither the name of SEGGER Microcontroller GmbH & Co. KG         *
  35:Middlewares/Third_Party/SEGGER_RTT/SEGGER_RTT.c **** *   nor the names of its contributors may be used to endorse or      *
  36:Middlewares/Third_Party/SEGGER_RTT/SEGGER_RTT.c **** *   promote products derived from this software without specific     *
  37:Middlewares/Third_Party/SEGGER_RTT/SEGGER_RTT.c **** *   prior written permission.                                        *
  38:Middlewares/Third_Party/SEGGER_RTT/SEGGER_RTT.c **** *                                                                    *
  39:Middlewares/Third_Party/SEGGER_RTT/SEGGER_RTT.c **** * THIS SOFTWARE IS PROVIDED BY THE COPYRIGHT HOLDERS AND             *
  40:Middlewares/Third_Party/SEGGER_RTT/SEGGER_RTT.c **** * CONTRIBUTORS "AS IS" AND ANY EXPRESS OR IMPLIED WARRANTIES,        *
  41:Middlewares/Third_Party/SEGGER_RTT/SEGGER_RTT.c **** * INCLUDING, BUT NOT LIMITED TO, THE IMPLIED WARRANTIES OF           *
  42:Middlewares/Third_Party/SEGGER_RTT/SEGGER_RTT.c **** * MERCHANTABILITY AND FITNESS FOR A PARTICULAR PURPOSE ARE           *
  43:Middlewares/Third_Party/SEGGER_RTT/SEGGER_RTT.c **** * DISCLAIMED. IN NO EVENT SHALL SEGGER Microcontroller BE LIABLE FOR *
  44:Middlewares/Third_Party/SEGGER_RTT/SEGGER_RTT.c **** * ANY DIRECT, INDIRECT, INCIDENTAL, SPECIAL, EXEMPLARY, OR           *
  45:Middlewares/Third_Party/SEGGER_RTT/SEGGER_RTT.c **** * CONSEQUENTIAL DAMAGES (INCLUDING, BUT NOT LIMITED TO, PROCUREMENT  *
  46:Middlewares/Third_Party/SEGGER_RTT/SEGGER_RTT.c **** * OF SUBSTITUTE GOODS OR SERVICES; LOSS OF USE, DATA, OR PROFITS;    *
  47:Middlewares/Third_Party/SEGGER_RTT/SEGGER_RTT.c **** * OR BUSINESS INTERRUPTION) HOWEVER CAUSED AND ON ANY THEORY OF      *
  48:Middlewares/Third_Party/SEGGER_RTT/SEGGER_RTT.c **** * LIABILITY, WHETHER IN CONTRACT, STRICT LIABILITY, OR TORT          *
  49:Middlewares/Third_Party/SEGGER_RTT/SEGGER_RTT.c **** * (INCLUDING NEGLIGENCE OR OTHERWISE) ARISING IN ANY WAY OUT OF THE  *
  50:Middlewares/Third_Party/SEGGER_RTT/SEGGER_RTT.c **** * USE OF THIS SOFTWARE, EVEN IF ADVISED OF THE POSSIBILITY OF SUCH   *
  51:Middlewares/Third_Party/SEGGER_RTT/SEGGER_RTT.c **** * DAMAGE.                                                            *
  52:Middlewares/Third_Party/SEGGER_RTT/SEGGER_RTT.c **** *                                                                    *
  53:Middlewares/Third_Party/SEGGER_RTT/SEGGER_RTT.c **** **********************************************************************
  54:Middlewares/Third_Party/SEGGER_RTT/SEGGER_RTT.c **** *                                                                    *
  55:Middlewares/Third_Party/SEGGER_RTT/SEGGER_RTT.c **** *       RTT version: 6.18a                                           *
  56:Middlewares/Third_Party/SEGGER_RTT/SEGGER_RTT.c **** *                                                                    *
  57:Middlewares/Third_Party/SEGGER_RTT/SEGGER_RTT.c **** **********************************************************************
  58:Middlewares/Third_Party/SEGGER_RTT/SEGGER_RTT.c **** ---------------------------END-OF-HEADER------------------------------
  59:Middlewares/Third_Party/SEGGER_RTT/SEGGER_RTT.c **** File    : SEGGER_RTT.c
  60:Middlewares/Third_Party/SEGGER_RTT/SEGGER_RTT.c **** Purpose : Implementation of SEGGER real-time transfer (RTT) which
  61:Middlewares/Third_Party/SEGGER_RTT/SEGGER_RTT.c ****           allows real-time communication on targets which support
  62:Middlewares/Third_Party/SEGGER_RTT/SEGGER_RTT.c ****           debugger memory accesses while the CPU is running.
  63:Middlewares/Third_Party/SEGGER_RTT/SEGGER_RTT.c **** Revision: $Rev: 6852 $
  64:Middlewares/Third_Party/SEGGER_RTT/SEGGER_RTT.c **** 
  65:Middlewares/Third_Party/SEGGER_RTT/SEGGER_RTT.c **** Additional information:
  66:Middlewares/Third_Party/SEGGER_RTT/SEGGER_RTT.c ****           Type "int" is assumed to be 32-bits in size
  67:Middlewares/Third_Party/SEGGER_RTT/SEGGER_RTT.c ****           H->T    Host to target communication
  68:Middlewares/Third_Party/SEGGER_RTT/SEGGER_RTT.c ****           T->H    Target to host communication
  69:Middlewares/Third_Party/SEGGER_RTT/SEGGER_RTT.c **** 
  70:Middlewares/Third_Party/SEGGER_RTT/SEGGER_RTT.c ****           RTT channel 0 is always present and reserved for Terminal usage.
  71:Middlewares/Third_Party/SEGGER_RTT/SEGGER_RTT.c ****           Name is fixed to "Terminal"
  72:Middlewares/Third_Party/SEGGER_RTT/SEGGER_RTT.c **** 
  73:Middlewares/Third_Party/SEGGER_RTT/SEGGER_RTT.c ****           Effective buffer size: SizeOfBuffer - 1
  74:Middlewares/Third_Party/SEGGER_RTT/SEGGER_RTT.c **** 
  75:Middlewares/Third_Party/SEGGER_RTT/SEGGER_RTT.c ****           WrOff == RdOff:       Buffer is empty
  76:Middlewares/Third_Party/SEGGER_RTT/SEGGER_RTT.c ****           WrOff == (RdOff - 1): Buffer is full
  77:Middlewares/Third_Party/SEGGER_RTT/SEGGER_RTT.c ****           WrOff >  RdOff:       Free space includes wrap-around
  78:Middlewares/Third_Party/SEGGER_RTT/SEGGER_RTT.c ****           WrOff <  RdOff:       Used space includes wrap-around
  79:Middlewares/Third_Party/SEGGER_RTT/SEGGER_RTT.c ****           (WrOff == (SizeOfBuffer - 1)) && (RdOff == 0):  
  80:Middlewares/Third_Party/SEGGER_RTT/SEGGER_RTT.c ****                                 Buffer full and wrap-around after next byte
  81:Middlewares/Third_Party/SEGGER_RTT/SEGGER_RTT.c **** 
  82:Middlewares/Third_Party/SEGGER_RTT/SEGGER_RTT.c **** 
  83:Middlewares/Third_Party/SEGGER_RTT/SEGGER_RTT.c **** ----------------------------------------------------------------------
  84:Middlewares/Third_Party/SEGGER_RTT/SEGGER_RTT.c **** */
  85:Middlewares/Third_Party/SEGGER_RTT/SEGGER_RTT.c **** 
  86:Middlewares/Third_Party/SEGGER_RTT/SEGGER_RTT.c **** #include "SEGGER_RTT.h"
  87:Middlewares/Third_Party/SEGGER_RTT/SEGGER_RTT.c **** 
  88:Middlewares/Third_Party/SEGGER_RTT/SEGGER_RTT.c **** #include <string.h>                 // for memcpy
ARM GAS  C:\Users\Brandon\AppData\Local\Temp\ccaGXwj6.s 			page 3


  89:Middlewares/Third_Party/SEGGER_RTT/SEGGER_RTT.c **** 
  90:Middlewares/Third_Party/SEGGER_RTT/SEGGER_RTT.c **** /*********************************************************************
  91:Middlewares/Third_Party/SEGGER_RTT/SEGGER_RTT.c **** *
  92:Middlewares/Third_Party/SEGGER_RTT/SEGGER_RTT.c **** *       Configuration, default values
  93:Middlewares/Third_Party/SEGGER_RTT/SEGGER_RTT.c **** *
  94:Middlewares/Third_Party/SEGGER_RTT/SEGGER_RTT.c **** **********************************************************************
  95:Middlewares/Third_Party/SEGGER_RTT/SEGGER_RTT.c **** */
  96:Middlewares/Third_Party/SEGGER_RTT/SEGGER_RTT.c **** 
  97:Middlewares/Third_Party/SEGGER_RTT/SEGGER_RTT.c **** #ifndef   BUFFER_SIZE_UP
  98:Middlewares/Third_Party/SEGGER_RTT/SEGGER_RTT.c ****   #define BUFFER_SIZE_UP                                  1024  // Size of the buffer for terminal 
  99:Middlewares/Third_Party/SEGGER_RTT/SEGGER_RTT.c **** #endif
 100:Middlewares/Third_Party/SEGGER_RTT/SEGGER_RTT.c **** 
 101:Middlewares/Third_Party/SEGGER_RTT/SEGGER_RTT.c **** #ifndef   BUFFER_SIZE_DOWN
 102:Middlewares/Third_Party/SEGGER_RTT/SEGGER_RTT.c ****   #define BUFFER_SIZE_DOWN                                16    // Size of the buffer for terminal 
 103:Middlewares/Third_Party/SEGGER_RTT/SEGGER_RTT.c **** #endif
 104:Middlewares/Third_Party/SEGGER_RTT/SEGGER_RTT.c **** 
 105:Middlewares/Third_Party/SEGGER_RTT/SEGGER_RTT.c **** #ifndef   SEGGER_RTT_MAX_NUM_UP_BUFFERS
 106:Middlewares/Third_Party/SEGGER_RTT/SEGGER_RTT.c ****   #define SEGGER_RTT_MAX_NUM_UP_BUFFERS                    2    // Number of up-buffers (T->H) avai
 107:Middlewares/Third_Party/SEGGER_RTT/SEGGER_RTT.c **** #endif
 108:Middlewares/Third_Party/SEGGER_RTT/SEGGER_RTT.c **** 
 109:Middlewares/Third_Party/SEGGER_RTT/SEGGER_RTT.c **** #ifndef   SEGGER_RTT_MAX_NUM_DOWN_BUFFERS
 110:Middlewares/Third_Party/SEGGER_RTT/SEGGER_RTT.c ****   #define SEGGER_RTT_MAX_NUM_DOWN_BUFFERS                  2    // Number of down-buffers (H->T) av
 111:Middlewares/Third_Party/SEGGER_RTT/SEGGER_RTT.c **** #endif
 112:Middlewares/Third_Party/SEGGER_RTT/SEGGER_RTT.c **** 
 113:Middlewares/Third_Party/SEGGER_RTT/SEGGER_RTT.c **** #ifndef SEGGER_RTT_BUFFER_SECTION
 114:Middlewares/Third_Party/SEGGER_RTT/SEGGER_RTT.c ****   #if defined(SEGGER_RTT_SECTION)
 115:Middlewares/Third_Party/SEGGER_RTT/SEGGER_RTT.c ****     #define SEGGER_RTT_BUFFER_SECTION SEGGER_RTT_SECTION
 116:Middlewares/Third_Party/SEGGER_RTT/SEGGER_RTT.c ****   #endif
 117:Middlewares/Third_Party/SEGGER_RTT/SEGGER_RTT.c **** #endif
 118:Middlewares/Third_Party/SEGGER_RTT/SEGGER_RTT.c **** 
 119:Middlewares/Third_Party/SEGGER_RTT/SEGGER_RTT.c **** #ifndef   SEGGER_RTT_ALIGNMENT
 120:Middlewares/Third_Party/SEGGER_RTT/SEGGER_RTT.c ****   #define SEGGER_RTT_ALIGNMENT                            0
 121:Middlewares/Third_Party/SEGGER_RTT/SEGGER_RTT.c **** #endif
 122:Middlewares/Third_Party/SEGGER_RTT/SEGGER_RTT.c **** 
 123:Middlewares/Third_Party/SEGGER_RTT/SEGGER_RTT.c **** #ifndef   SEGGER_RTT_BUFFER_ALIGNMENT
 124:Middlewares/Third_Party/SEGGER_RTT/SEGGER_RTT.c ****   #define SEGGER_RTT_BUFFER_ALIGNMENT                     0
 125:Middlewares/Third_Party/SEGGER_RTT/SEGGER_RTT.c **** #endif
 126:Middlewares/Third_Party/SEGGER_RTT/SEGGER_RTT.c **** 
 127:Middlewares/Third_Party/SEGGER_RTT/SEGGER_RTT.c **** #ifndef   SEGGER_RTT_MODE_DEFAULT
 128:Middlewares/Third_Party/SEGGER_RTT/SEGGER_RTT.c ****   #define SEGGER_RTT_MODE_DEFAULT                         SEGGER_RTT_MODE_NO_BLOCK_SKIP
 129:Middlewares/Third_Party/SEGGER_RTT/SEGGER_RTT.c **** #endif
 130:Middlewares/Third_Party/SEGGER_RTT/SEGGER_RTT.c **** 
 131:Middlewares/Third_Party/SEGGER_RTT/SEGGER_RTT.c **** #ifndef   SEGGER_RTT_LOCK
 132:Middlewares/Third_Party/SEGGER_RTT/SEGGER_RTT.c ****   #define SEGGER_RTT_LOCK()
 133:Middlewares/Third_Party/SEGGER_RTT/SEGGER_RTT.c **** #endif
 134:Middlewares/Third_Party/SEGGER_RTT/SEGGER_RTT.c **** 
 135:Middlewares/Third_Party/SEGGER_RTT/SEGGER_RTT.c **** #ifndef   SEGGER_RTT_UNLOCK
 136:Middlewares/Third_Party/SEGGER_RTT/SEGGER_RTT.c ****   #define SEGGER_RTT_UNLOCK()
 137:Middlewares/Third_Party/SEGGER_RTT/SEGGER_RTT.c **** #endif
 138:Middlewares/Third_Party/SEGGER_RTT/SEGGER_RTT.c **** 
 139:Middlewares/Third_Party/SEGGER_RTT/SEGGER_RTT.c **** #ifndef   STRLEN
 140:Middlewares/Third_Party/SEGGER_RTT/SEGGER_RTT.c ****   #define STRLEN(a)                                       strlen((a))
 141:Middlewares/Third_Party/SEGGER_RTT/SEGGER_RTT.c **** #endif
 142:Middlewares/Third_Party/SEGGER_RTT/SEGGER_RTT.c **** 
 143:Middlewares/Third_Party/SEGGER_RTT/SEGGER_RTT.c **** #ifndef   SEGGER_RTT_MEMCPY_USE_BYTELOOP
 144:Middlewares/Third_Party/SEGGER_RTT/SEGGER_RTT.c ****   #define SEGGER_RTT_MEMCPY_USE_BYTELOOP                  0
 145:Middlewares/Third_Party/SEGGER_RTT/SEGGER_RTT.c **** #endif
ARM GAS  C:\Users\Brandon\AppData\Local\Temp\ccaGXwj6.s 			page 4


 146:Middlewares/Third_Party/SEGGER_RTT/SEGGER_RTT.c **** 
 147:Middlewares/Third_Party/SEGGER_RTT/SEGGER_RTT.c **** #ifndef   SEGGER_RTT_MEMCPY
 148:Middlewares/Third_Party/SEGGER_RTT/SEGGER_RTT.c ****   #ifdef  MEMCPY
 149:Middlewares/Third_Party/SEGGER_RTT/SEGGER_RTT.c ****     #define SEGGER_RTT_MEMCPY(pDest, pSrc, NumBytes)      MEMCPY((pDest), (pSrc), (NumBytes))
 150:Middlewares/Third_Party/SEGGER_RTT/SEGGER_RTT.c ****   #else
 151:Middlewares/Third_Party/SEGGER_RTT/SEGGER_RTT.c ****     #define SEGGER_RTT_MEMCPY(pDest, pSrc, NumBytes)      memcpy((pDest), (pSrc), (NumBytes))
 152:Middlewares/Third_Party/SEGGER_RTT/SEGGER_RTT.c ****   #endif
 153:Middlewares/Third_Party/SEGGER_RTT/SEGGER_RTT.c **** #endif
 154:Middlewares/Third_Party/SEGGER_RTT/SEGGER_RTT.c **** 
 155:Middlewares/Third_Party/SEGGER_RTT/SEGGER_RTT.c **** #ifndef   MIN
 156:Middlewares/Third_Party/SEGGER_RTT/SEGGER_RTT.c ****   #define MIN(a, b)         (((a) < (b)) ? (a) : (b))
 157:Middlewares/Third_Party/SEGGER_RTT/SEGGER_RTT.c **** #endif
 158:Middlewares/Third_Party/SEGGER_RTT/SEGGER_RTT.c **** 
 159:Middlewares/Third_Party/SEGGER_RTT/SEGGER_RTT.c **** #ifndef   MAX
 160:Middlewares/Third_Party/SEGGER_RTT/SEGGER_RTT.c ****   #define MAX(a, b)         (((a) > (b)) ? (a) : (b))
 161:Middlewares/Third_Party/SEGGER_RTT/SEGGER_RTT.c **** #endif
 162:Middlewares/Third_Party/SEGGER_RTT/SEGGER_RTT.c **** //
 163:Middlewares/Third_Party/SEGGER_RTT/SEGGER_RTT.c **** // For some environments, NULL may not be defined until certain headers are included
 164:Middlewares/Third_Party/SEGGER_RTT/SEGGER_RTT.c **** //
 165:Middlewares/Third_Party/SEGGER_RTT/SEGGER_RTT.c **** #ifndef NULL
 166:Middlewares/Third_Party/SEGGER_RTT/SEGGER_RTT.c ****   #define NULL 0
 167:Middlewares/Third_Party/SEGGER_RTT/SEGGER_RTT.c **** #endif
 168:Middlewares/Third_Party/SEGGER_RTT/SEGGER_RTT.c **** 
 169:Middlewares/Third_Party/SEGGER_RTT/SEGGER_RTT.c **** /*********************************************************************
 170:Middlewares/Third_Party/SEGGER_RTT/SEGGER_RTT.c **** *
 171:Middlewares/Third_Party/SEGGER_RTT/SEGGER_RTT.c **** *       Defines, fixed
 172:Middlewares/Third_Party/SEGGER_RTT/SEGGER_RTT.c **** *
 173:Middlewares/Third_Party/SEGGER_RTT/SEGGER_RTT.c **** **********************************************************************
 174:Middlewares/Third_Party/SEGGER_RTT/SEGGER_RTT.c **** */
 175:Middlewares/Third_Party/SEGGER_RTT/SEGGER_RTT.c **** #if (defined __ICCARM__) || (defined __ICCRX__)
 176:Middlewares/Third_Party/SEGGER_RTT/SEGGER_RTT.c ****   #define RTT_PRAGMA(P) _Pragma(#P)
 177:Middlewares/Third_Party/SEGGER_RTT/SEGGER_RTT.c **** #endif
 178:Middlewares/Third_Party/SEGGER_RTT/SEGGER_RTT.c **** 
 179:Middlewares/Third_Party/SEGGER_RTT/SEGGER_RTT.c **** #if SEGGER_RTT_ALIGNMENT || SEGGER_RTT_BUFFER_ALIGNMENT
 180:Middlewares/Third_Party/SEGGER_RTT/SEGGER_RTT.c ****   #if (defined __GNUC__)
 181:Middlewares/Third_Party/SEGGER_RTT/SEGGER_RTT.c ****     #define SEGGER_RTT_ALIGN(Var, Alignment) Var __attribute__ ((aligned (Alignment)))
 182:Middlewares/Third_Party/SEGGER_RTT/SEGGER_RTT.c ****   #elif (defined __ICCARM__) || (defined __ICCRX__)
 183:Middlewares/Third_Party/SEGGER_RTT/SEGGER_RTT.c ****     #define PRAGMA(A) _Pragma(#A)
 184:Middlewares/Third_Party/SEGGER_RTT/SEGGER_RTT.c **** #define SEGGER_RTT_ALIGN(Var, Alignment) RTT_PRAGMA(data_alignment=Alignment) \
 185:Middlewares/Third_Party/SEGGER_RTT/SEGGER_RTT.c ****                                   Var
 186:Middlewares/Third_Party/SEGGER_RTT/SEGGER_RTT.c ****   #elif (defined __CC_ARM)
 187:Middlewares/Third_Party/SEGGER_RTT/SEGGER_RTT.c ****     #define SEGGER_RTT_ALIGN(Var, Alignment) Var __attribute__ ((aligned (Alignment)))
 188:Middlewares/Third_Party/SEGGER_RTT/SEGGER_RTT.c ****   #else
 189:Middlewares/Third_Party/SEGGER_RTT/SEGGER_RTT.c ****     #error "Alignment not supported for this compiler."
 190:Middlewares/Third_Party/SEGGER_RTT/SEGGER_RTT.c ****   #endif
 191:Middlewares/Third_Party/SEGGER_RTT/SEGGER_RTT.c **** #else
 192:Middlewares/Third_Party/SEGGER_RTT/SEGGER_RTT.c ****   #define SEGGER_RTT_ALIGN(Var, Alignment) Var
 193:Middlewares/Third_Party/SEGGER_RTT/SEGGER_RTT.c **** #endif
 194:Middlewares/Third_Party/SEGGER_RTT/SEGGER_RTT.c **** 
 195:Middlewares/Third_Party/SEGGER_RTT/SEGGER_RTT.c **** #if defined(SEGGER_RTT_SECTION) || defined (SEGGER_RTT_BUFFER_SECTION)
 196:Middlewares/Third_Party/SEGGER_RTT/SEGGER_RTT.c ****   #if (defined __GNUC__)
 197:Middlewares/Third_Party/SEGGER_RTT/SEGGER_RTT.c ****     #define SEGGER_RTT_PUT_SECTION(Var, Section) __attribute__ ((section (Section))) Var
 198:Middlewares/Third_Party/SEGGER_RTT/SEGGER_RTT.c ****   #elif (defined __ICCARM__) || (defined __ICCRX__)
 199:Middlewares/Third_Party/SEGGER_RTT/SEGGER_RTT.c **** #define SEGGER_RTT_PUT_SECTION(Var, Section) RTT_PRAGMA(location=Section) \
 200:Middlewares/Third_Party/SEGGER_RTT/SEGGER_RTT.c ****                                         Var
 201:Middlewares/Third_Party/SEGGER_RTT/SEGGER_RTT.c ****   #elif (defined __CC_ARM)
 202:Middlewares/Third_Party/SEGGER_RTT/SEGGER_RTT.c ****     #define SEGGER_RTT_PUT_SECTION(Var, Section) __attribute__ ((section (Section), zero_init))  Va
ARM GAS  C:\Users\Brandon\AppData\Local\Temp\ccaGXwj6.s 			page 5


 203:Middlewares/Third_Party/SEGGER_RTT/SEGGER_RTT.c ****   #else
 204:Middlewares/Third_Party/SEGGER_RTT/SEGGER_RTT.c ****     #error "Section placement not supported for this compiler."
 205:Middlewares/Third_Party/SEGGER_RTT/SEGGER_RTT.c ****   #endif
 206:Middlewares/Third_Party/SEGGER_RTT/SEGGER_RTT.c **** #else
 207:Middlewares/Third_Party/SEGGER_RTT/SEGGER_RTT.c ****   #define SEGGER_RTT_PUT_SECTION(Var, Section) Var
 208:Middlewares/Third_Party/SEGGER_RTT/SEGGER_RTT.c **** #endif
 209:Middlewares/Third_Party/SEGGER_RTT/SEGGER_RTT.c **** 
 210:Middlewares/Third_Party/SEGGER_RTT/SEGGER_RTT.c **** 
 211:Middlewares/Third_Party/SEGGER_RTT/SEGGER_RTT.c **** #if SEGGER_RTT_ALIGNMENT
 212:Middlewares/Third_Party/SEGGER_RTT/SEGGER_RTT.c ****   #define SEGGER_RTT_CB_ALIGN(Var)  SEGGER_RTT_ALIGN(Var, SEGGER_RTT_ALIGNMENT)
 213:Middlewares/Third_Party/SEGGER_RTT/SEGGER_RTT.c **** #else
 214:Middlewares/Third_Party/SEGGER_RTT/SEGGER_RTT.c ****   #define SEGGER_RTT_CB_ALIGN(Var)  Var
 215:Middlewares/Third_Party/SEGGER_RTT/SEGGER_RTT.c **** #endif
 216:Middlewares/Third_Party/SEGGER_RTT/SEGGER_RTT.c **** 
 217:Middlewares/Third_Party/SEGGER_RTT/SEGGER_RTT.c **** #if SEGGER_RTT_BUFFER_ALIGNMENT
 218:Middlewares/Third_Party/SEGGER_RTT/SEGGER_RTT.c ****   #define SEGGER_RTT_BUFFER_ALIGN(Var)  SEGGER_RTT_ALIGN(Var, SEGGER_RTT_BUFFER_ALIGNMENT)
 219:Middlewares/Third_Party/SEGGER_RTT/SEGGER_RTT.c **** #else
 220:Middlewares/Third_Party/SEGGER_RTT/SEGGER_RTT.c ****   #define SEGGER_RTT_BUFFER_ALIGN(Var)  Var
 221:Middlewares/Third_Party/SEGGER_RTT/SEGGER_RTT.c **** #endif
 222:Middlewares/Third_Party/SEGGER_RTT/SEGGER_RTT.c **** 
 223:Middlewares/Third_Party/SEGGER_RTT/SEGGER_RTT.c **** 
 224:Middlewares/Third_Party/SEGGER_RTT/SEGGER_RTT.c **** #if defined(SEGGER_RTT_SECTION)
 225:Middlewares/Third_Party/SEGGER_RTT/SEGGER_RTT.c ****   #define SEGGER_RTT_PUT_CB_SECTION(Var) SEGGER_RTT_PUT_SECTION(Var, SEGGER_RTT_SECTION)
 226:Middlewares/Third_Party/SEGGER_RTT/SEGGER_RTT.c **** #else
 227:Middlewares/Third_Party/SEGGER_RTT/SEGGER_RTT.c ****   #define SEGGER_RTT_PUT_CB_SECTION(Var) Var
 228:Middlewares/Third_Party/SEGGER_RTT/SEGGER_RTT.c **** #endif
 229:Middlewares/Third_Party/SEGGER_RTT/SEGGER_RTT.c **** 
 230:Middlewares/Third_Party/SEGGER_RTT/SEGGER_RTT.c **** #if defined(SEGGER_RTT_BUFFER_SECTION)
 231:Middlewares/Third_Party/SEGGER_RTT/SEGGER_RTT.c ****   #define SEGGER_RTT_PUT_BUFFER_SECTION(Var) SEGGER_RTT_PUT_SECTION(Var, SEGGER_RTT_BUFFER_SECTION)
 232:Middlewares/Third_Party/SEGGER_RTT/SEGGER_RTT.c **** #else
 233:Middlewares/Third_Party/SEGGER_RTT/SEGGER_RTT.c ****   #define SEGGER_RTT_PUT_BUFFER_SECTION(Var) Var
 234:Middlewares/Third_Party/SEGGER_RTT/SEGGER_RTT.c **** #endif
 235:Middlewares/Third_Party/SEGGER_RTT/SEGGER_RTT.c **** 
 236:Middlewares/Third_Party/SEGGER_RTT/SEGGER_RTT.c **** /*********************************************************************
 237:Middlewares/Third_Party/SEGGER_RTT/SEGGER_RTT.c **** *
 238:Middlewares/Third_Party/SEGGER_RTT/SEGGER_RTT.c **** *       Static const data
 239:Middlewares/Third_Party/SEGGER_RTT/SEGGER_RTT.c **** *
 240:Middlewares/Third_Party/SEGGER_RTT/SEGGER_RTT.c **** **********************************************************************
 241:Middlewares/Third_Party/SEGGER_RTT/SEGGER_RTT.c **** */
 242:Middlewares/Third_Party/SEGGER_RTT/SEGGER_RTT.c **** 
 243:Middlewares/Third_Party/SEGGER_RTT/SEGGER_RTT.c **** static unsigned char _aTerminalId[16] = { '0', '1', '2', '3', '4', '5', '6', '7', '8', '9', 'A', 'B
 244:Middlewares/Third_Party/SEGGER_RTT/SEGGER_RTT.c **** 
 245:Middlewares/Third_Party/SEGGER_RTT/SEGGER_RTT.c **** /*********************************************************************
 246:Middlewares/Third_Party/SEGGER_RTT/SEGGER_RTT.c **** *
 247:Middlewares/Third_Party/SEGGER_RTT/SEGGER_RTT.c **** *       Static data
 248:Middlewares/Third_Party/SEGGER_RTT/SEGGER_RTT.c **** *
 249:Middlewares/Third_Party/SEGGER_RTT/SEGGER_RTT.c **** **********************************************************************
 250:Middlewares/Third_Party/SEGGER_RTT/SEGGER_RTT.c **** */
 251:Middlewares/Third_Party/SEGGER_RTT/SEGGER_RTT.c **** //
 252:Middlewares/Third_Party/SEGGER_RTT/SEGGER_RTT.c **** // RTT Control Block and allocate buffers for channel 0
 253:Middlewares/Third_Party/SEGGER_RTT/SEGGER_RTT.c **** //
 254:Middlewares/Third_Party/SEGGER_RTT/SEGGER_RTT.c **** SEGGER_RTT_PUT_CB_SECTION(SEGGER_RTT_CB_ALIGN(SEGGER_RTT_CB _SEGGER_RTT));
 255:Middlewares/Third_Party/SEGGER_RTT/SEGGER_RTT.c **** 
 256:Middlewares/Third_Party/SEGGER_RTT/SEGGER_RTT.c **** SEGGER_RTT_PUT_BUFFER_SECTION(SEGGER_RTT_BUFFER_ALIGN(static char _acUpBuffer  [BUFFER_SIZE_UP]));
 257:Middlewares/Third_Party/SEGGER_RTT/SEGGER_RTT.c **** SEGGER_RTT_PUT_BUFFER_SECTION(SEGGER_RTT_BUFFER_ALIGN(static char _acDownBuffer[BUFFER_SIZE_DOWN]))
 258:Middlewares/Third_Party/SEGGER_RTT/SEGGER_RTT.c **** 
 259:Middlewares/Third_Party/SEGGER_RTT/SEGGER_RTT.c **** static char _ActiveTerminal;
ARM GAS  C:\Users\Brandon\AppData\Local\Temp\ccaGXwj6.s 			page 6


 260:Middlewares/Third_Party/SEGGER_RTT/SEGGER_RTT.c **** 
 261:Middlewares/Third_Party/SEGGER_RTT/SEGGER_RTT.c **** /*********************************************************************
 262:Middlewares/Third_Party/SEGGER_RTT/SEGGER_RTT.c **** *
 263:Middlewares/Third_Party/SEGGER_RTT/SEGGER_RTT.c **** *       Static functions
 264:Middlewares/Third_Party/SEGGER_RTT/SEGGER_RTT.c **** *
 265:Middlewares/Third_Party/SEGGER_RTT/SEGGER_RTT.c **** **********************************************************************
 266:Middlewares/Third_Party/SEGGER_RTT/SEGGER_RTT.c **** */
 267:Middlewares/Third_Party/SEGGER_RTT/SEGGER_RTT.c **** 
 268:Middlewares/Third_Party/SEGGER_RTT/SEGGER_RTT.c **** /*********************************************************************
 269:Middlewares/Third_Party/SEGGER_RTT/SEGGER_RTT.c **** *
 270:Middlewares/Third_Party/SEGGER_RTT/SEGGER_RTT.c **** *       _DoInit()
 271:Middlewares/Third_Party/SEGGER_RTT/SEGGER_RTT.c **** *
 272:Middlewares/Third_Party/SEGGER_RTT/SEGGER_RTT.c **** *  Function description
 273:Middlewares/Third_Party/SEGGER_RTT/SEGGER_RTT.c **** *    Initializes the control block an buffers.
 274:Middlewares/Third_Party/SEGGER_RTT/SEGGER_RTT.c **** *    May only be called via INIT() to avoid overriding settings.
 275:Middlewares/Third_Party/SEGGER_RTT/SEGGER_RTT.c **** *
 276:Middlewares/Third_Party/SEGGER_RTT/SEGGER_RTT.c **** */
 277:Middlewares/Third_Party/SEGGER_RTT/SEGGER_RTT.c **** #define INIT()  do {                                            \
 278:Middlewares/Third_Party/SEGGER_RTT/SEGGER_RTT.c ****                   if (_SEGGER_RTT.acID[0] == '\0') { _DoInit(); }  \
 279:Middlewares/Third_Party/SEGGER_RTT/SEGGER_RTT.c ****                 } while (0)
 280:Middlewares/Third_Party/SEGGER_RTT/SEGGER_RTT.c **** static void _DoInit(void) {
 281:Middlewares/Third_Party/SEGGER_RTT/SEGGER_RTT.c ****   SEGGER_RTT_CB* p;
 282:Middlewares/Third_Party/SEGGER_RTT/SEGGER_RTT.c ****   //
 283:Middlewares/Third_Party/SEGGER_RTT/SEGGER_RTT.c ****   // Initialize control block
 284:Middlewares/Third_Party/SEGGER_RTT/SEGGER_RTT.c ****   //
 285:Middlewares/Third_Party/SEGGER_RTT/SEGGER_RTT.c ****   p = &_SEGGER_RTT;
 286:Middlewares/Third_Party/SEGGER_RTT/SEGGER_RTT.c ****   p->MaxNumUpBuffers    = SEGGER_RTT_MAX_NUM_UP_BUFFERS;
 287:Middlewares/Third_Party/SEGGER_RTT/SEGGER_RTT.c ****   p->MaxNumDownBuffers  = SEGGER_RTT_MAX_NUM_DOWN_BUFFERS;
 288:Middlewares/Third_Party/SEGGER_RTT/SEGGER_RTT.c ****   //
 289:Middlewares/Third_Party/SEGGER_RTT/SEGGER_RTT.c ****   // Initialize up buffer 0
 290:Middlewares/Third_Party/SEGGER_RTT/SEGGER_RTT.c ****   //
 291:Middlewares/Third_Party/SEGGER_RTT/SEGGER_RTT.c ****   p->aUp[0].sName         = "Terminal";
 292:Middlewares/Third_Party/SEGGER_RTT/SEGGER_RTT.c ****   p->aUp[0].pBuffer       = _acUpBuffer;
 293:Middlewares/Third_Party/SEGGER_RTT/SEGGER_RTT.c ****   p->aUp[0].SizeOfBuffer  = sizeof(_acUpBuffer);
 294:Middlewares/Third_Party/SEGGER_RTT/SEGGER_RTT.c ****   p->aUp[0].RdOff         = 0u;
 295:Middlewares/Third_Party/SEGGER_RTT/SEGGER_RTT.c ****   p->aUp[0].WrOff         = 0u;
 296:Middlewares/Third_Party/SEGGER_RTT/SEGGER_RTT.c ****   p->aUp[0].Flags         = SEGGER_RTT_MODE_DEFAULT;
 297:Middlewares/Third_Party/SEGGER_RTT/SEGGER_RTT.c ****   //
 298:Middlewares/Third_Party/SEGGER_RTT/SEGGER_RTT.c ****   // Initialize down buffer 0
 299:Middlewares/Third_Party/SEGGER_RTT/SEGGER_RTT.c ****   //
 300:Middlewares/Third_Party/SEGGER_RTT/SEGGER_RTT.c ****   p->aDown[0].sName         = "Terminal";
 301:Middlewares/Third_Party/SEGGER_RTT/SEGGER_RTT.c ****   p->aDown[0].pBuffer       = _acDownBuffer;
 302:Middlewares/Third_Party/SEGGER_RTT/SEGGER_RTT.c ****   p->aDown[0].SizeOfBuffer  = sizeof(_acDownBuffer);
 303:Middlewares/Third_Party/SEGGER_RTT/SEGGER_RTT.c ****   p->aDown[0].RdOff         = 0u;
 304:Middlewares/Third_Party/SEGGER_RTT/SEGGER_RTT.c ****   p->aDown[0].WrOff         = 0u;
 305:Middlewares/Third_Party/SEGGER_RTT/SEGGER_RTT.c ****   p->aDown[0].Flags         = SEGGER_RTT_MODE_DEFAULT;
 306:Middlewares/Third_Party/SEGGER_RTT/SEGGER_RTT.c ****   //
 307:Middlewares/Third_Party/SEGGER_RTT/SEGGER_RTT.c ****   // Finish initialization of the control block.
 308:Middlewares/Third_Party/SEGGER_RTT/SEGGER_RTT.c ****   // Copy Id string in three steps to make sure "SEGGER RTT" is not found
 309:Middlewares/Third_Party/SEGGER_RTT/SEGGER_RTT.c ****   // in initializer memory (usually flash) by J-Link
 310:Middlewares/Third_Party/SEGGER_RTT/SEGGER_RTT.c ****   //
 311:Middlewares/Third_Party/SEGGER_RTT/SEGGER_RTT.c ****   strcpy(&p->acID[7], "RTT");
 312:Middlewares/Third_Party/SEGGER_RTT/SEGGER_RTT.c ****   strcpy(&p->acID[0], "SEGGER");
 313:Middlewares/Third_Party/SEGGER_RTT/SEGGER_RTT.c ****   p->acID[6] = ' ';
 314:Middlewares/Third_Party/SEGGER_RTT/SEGGER_RTT.c **** }
 315:Middlewares/Third_Party/SEGGER_RTT/SEGGER_RTT.c **** 
 316:Middlewares/Third_Party/SEGGER_RTT/SEGGER_RTT.c **** /*********************************************************************
ARM GAS  C:\Users\Brandon\AppData\Local\Temp\ccaGXwj6.s 			page 7


 317:Middlewares/Third_Party/SEGGER_RTT/SEGGER_RTT.c **** *
 318:Middlewares/Third_Party/SEGGER_RTT/SEGGER_RTT.c **** *       _WriteBlocking()
 319:Middlewares/Third_Party/SEGGER_RTT/SEGGER_RTT.c **** *
 320:Middlewares/Third_Party/SEGGER_RTT/SEGGER_RTT.c **** *  Function description
 321:Middlewares/Third_Party/SEGGER_RTT/SEGGER_RTT.c **** *    Stores a specified number of characters in SEGGER RTT ring buffer
 322:Middlewares/Third_Party/SEGGER_RTT/SEGGER_RTT.c **** *    and updates the associated write pointer which is periodically
 323:Middlewares/Third_Party/SEGGER_RTT/SEGGER_RTT.c **** *    read by the host.
 324:Middlewares/Third_Party/SEGGER_RTT/SEGGER_RTT.c **** *    The caller is responsible for managing the write chunk sizes as
 325:Middlewares/Third_Party/SEGGER_RTT/SEGGER_RTT.c **** *    _WriteBlocking() will block until all data has been posted successfully.
 326:Middlewares/Third_Party/SEGGER_RTT/SEGGER_RTT.c **** *
 327:Middlewares/Third_Party/SEGGER_RTT/SEGGER_RTT.c **** *  Parameters
 328:Middlewares/Third_Party/SEGGER_RTT/SEGGER_RTT.c **** *    pRing        Ring buffer to post to.
 329:Middlewares/Third_Party/SEGGER_RTT/SEGGER_RTT.c **** *    pBuffer      Pointer to character array. Does not need to point to a \0 terminated string.
 330:Middlewares/Third_Party/SEGGER_RTT/SEGGER_RTT.c **** *    NumBytes     Number of bytes to be stored in the SEGGER RTT control block.
 331:Middlewares/Third_Party/SEGGER_RTT/SEGGER_RTT.c **** *
 332:Middlewares/Third_Party/SEGGER_RTT/SEGGER_RTT.c **** *  Return value
 333:Middlewares/Third_Party/SEGGER_RTT/SEGGER_RTT.c **** *    >= 0 - Number of bytes written into buffer.
 334:Middlewares/Third_Party/SEGGER_RTT/SEGGER_RTT.c **** */
 335:Middlewares/Third_Party/SEGGER_RTT/SEGGER_RTT.c **** static unsigned _WriteBlocking(SEGGER_RTT_BUFFER_UP* pRing, const char* pBuffer, unsigned NumBytes)
 336:Middlewares/Third_Party/SEGGER_RTT/SEGGER_RTT.c ****   unsigned NumBytesToWrite;
 337:Middlewares/Third_Party/SEGGER_RTT/SEGGER_RTT.c ****   unsigned NumBytesWritten;
 338:Middlewares/Third_Party/SEGGER_RTT/SEGGER_RTT.c ****   unsigned RdOff;
 339:Middlewares/Third_Party/SEGGER_RTT/SEGGER_RTT.c ****   unsigned WrOff;
 340:Middlewares/Third_Party/SEGGER_RTT/SEGGER_RTT.c **** #if SEGGER_RTT_MEMCPY_USE_BYTELOOP
 341:Middlewares/Third_Party/SEGGER_RTT/SEGGER_RTT.c ****   char*    pDst;
 342:Middlewares/Third_Party/SEGGER_RTT/SEGGER_RTT.c **** #endif
 343:Middlewares/Third_Party/SEGGER_RTT/SEGGER_RTT.c ****   //
 344:Middlewares/Third_Party/SEGGER_RTT/SEGGER_RTT.c ****   // Write data to buffer and handle wrap-around if necessary
 345:Middlewares/Third_Party/SEGGER_RTT/SEGGER_RTT.c ****   //
 346:Middlewares/Third_Party/SEGGER_RTT/SEGGER_RTT.c ****   NumBytesWritten = 0u;
 347:Middlewares/Third_Party/SEGGER_RTT/SEGGER_RTT.c ****   WrOff = pRing->WrOff;
 348:Middlewares/Third_Party/SEGGER_RTT/SEGGER_RTT.c ****   do {
 349:Middlewares/Third_Party/SEGGER_RTT/SEGGER_RTT.c ****     RdOff = pRing->RdOff;                         // May be changed by host (debug probe) in the me
 350:Middlewares/Third_Party/SEGGER_RTT/SEGGER_RTT.c ****     if (RdOff > WrOff) {
 351:Middlewares/Third_Party/SEGGER_RTT/SEGGER_RTT.c ****       NumBytesToWrite = RdOff - WrOff - 1u;
 352:Middlewares/Third_Party/SEGGER_RTT/SEGGER_RTT.c ****     } else {
 353:Middlewares/Third_Party/SEGGER_RTT/SEGGER_RTT.c ****       NumBytesToWrite = pRing->SizeOfBuffer - (WrOff - RdOff + 1u);
 354:Middlewares/Third_Party/SEGGER_RTT/SEGGER_RTT.c ****     }
 355:Middlewares/Third_Party/SEGGER_RTT/SEGGER_RTT.c ****     NumBytesToWrite = MIN(NumBytesToWrite, (pRing->SizeOfBuffer - WrOff));      // Number of bytes 
 356:Middlewares/Third_Party/SEGGER_RTT/SEGGER_RTT.c ****     NumBytesToWrite = MIN(NumBytesToWrite, NumBytes);
 357:Middlewares/Third_Party/SEGGER_RTT/SEGGER_RTT.c **** #if SEGGER_RTT_MEMCPY_USE_BYTELOOP
 358:Middlewares/Third_Party/SEGGER_RTT/SEGGER_RTT.c ****     pDst = pRing->pBuffer + WrOff;
 359:Middlewares/Third_Party/SEGGER_RTT/SEGGER_RTT.c ****     NumBytesWritten += NumBytesToWrite;
 360:Middlewares/Third_Party/SEGGER_RTT/SEGGER_RTT.c ****     NumBytes        -= NumBytesToWrite;
 361:Middlewares/Third_Party/SEGGER_RTT/SEGGER_RTT.c ****     WrOff           += NumBytesToWrite;
 362:Middlewares/Third_Party/SEGGER_RTT/SEGGER_RTT.c ****     while (NumBytesToWrite--) {
 363:Middlewares/Third_Party/SEGGER_RTT/SEGGER_RTT.c ****       *pDst++ = *pBuffer++;
 364:Middlewares/Third_Party/SEGGER_RTT/SEGGER_RTT.c ****     };
 365:Middlewares/Third_Party/SEGGER_RTT/SEGGER_RTT.c **** #else
 366:Middlewares/Third_Party/SEGGER_RTT/SEGGER_RTT.c ****     SEGGER_RTT_MEMCPY(pRing->pBuffer + WrOff, pBuffer, NumBytesToWrite);
 367:Middlewares/Third_Party/SEGGER_RTT/SEGGER_RTT.c ****     NumBytesWritten += NumBytesToWrite;
 368:Middlewares/Third_Party/SEGGER_RTT/SEGGER_RTT.c ****     pBuffer         += NumBytesToWrite;
 369:Middlewares/Third_Party/SEGGER_RTT/SEGGER_RTT.c ****     NumBytes        -= NumBytesToWrite;
 370:Middlewares/Third_Party/SEGGER_RTT/SEGGER_RTT.c ****     WrOff           += NumBytesToWrite;
 371:Middlewares/Third_Party/SEGGER_RTT/SEGGER_RTT.c **** #endif
 372:Middlewares/Third_Party/SEGGER_RTT/SEGGER_RTT.c ****     if (WrOff == pRing->SizeOfBuffer) {
 373:Middlewares/Third_Party/SEGGER_RTT/SEGGER_RTT.c ****       WrOff = 0u;
ARM GAS  C:\Users\Brandon\AppData\Local\Temp\ccaGXwj6.s 			page 8


 374:Middlewares/Third_Party/SEGGER_RTT/SEGGER_RTT.c ****     }
 375:Middlewares/Third_Party/SEGGER_RTT/SEGGER_RTT.c ****     pRing->WrOff = WrOff;
 376:Middlewares/Third_Party/SEGGER_RTT/SEGGER_RTT.c ****   } while (NumBytes);
 377:Middlewares/Third_Party/SEGGER_RTT/SEGGER_RTT.c ****   //
 378:Middlewares/Third_Party/SEGGER_RTT/SEGGER_RTT.c ****   return NumBytesWritten;
 379:Middlewares/Third_Party/SEGGER_RTT/SEGGER_RTT.c **** }
 380:Middlewares/Third_Party/SEGGER_RTT/SEGGER_RTT.c **** 
 381:Middlewares/Third_Party/SEGGER_RTT/SEGGER_RTT.c **** /*********************************************************************
 382:Middlewares/Third_Party/SEGGER_RTT/SEGGER_RTT.c **** *
 383:Middlewares/Third_Party/SEGGER_RTT/SEGGER_RTT.c **** *       _WriteNoCheck()
 384:Middlewares/Third_Party/SEGGER_RTT/SEGGER_RTT.c **** *
 385:Middlewares/Third_Party/SEGGER_RTT/SEGGER_RTT.c **** *  Function description
 386:Middlewares/Third_Party/SEGGER_RTT/SEGGER_RTT.c **** *    Stores a specified number of characters in SEGGER RTT ring buffer
 387:Middlewares/Third_Party/SEGGER_RTT/SEGGER_RTT.c **** *    and updates the associated write pointer which is periodically
 388:Middlewares/Third_Party/SEGGER_RTT/SEGGER_RTT.c **** *    read by the host.
 389:Middlewares/Third_Party/SEGGER_RTT/SEGGER_RTT.c **** *    It is callers responsibility to make sure data actually fits in buffer.
 390:Middlewares/Third_Party/SEGGER_RTT/SEGGER_RTT.c **** *
 391:Middlewares/Third_Party/SEGGER_RTT/SEGGER_RTT.c **** *  Parameters
 392:Middlewares/Third_Party/SEGGER_RTT/SEGGER_RTT.c **** *    pRing        Ring buffer to post to.
 393:Middlewares/Third_Party/SEGGER_RTT/SEGGER_RTT.c **** *    pBuffer      Pointer to character array. Does not need to point to a \0 terminated string.
 394:Middlewares/Third_Party/SEGGER_RTT/SEGGER_RTT.c **** *    NumBytes     Number of bytes to be stored in the SEGGER RTT control block.
 395:Middlewares/Third_Party/SEGGER_RTT/SEGGER_RTT.c **** *
 396:Middlewares/Third_Party/SEGGER_RTT/SEGGER_RTT.c **** *  Notes
 397:Middlewares/Third_Party/SEGGER_RTT/SEGGER_RTT.c **** *    (1) If there might not be enough space in the "Up"-buffer, call _WriteBlocking
 398:Middlewares/Third_Party/SEGGER_RTT/SEGGER_RTT.c **** */
 399:Middlewares/Third_Party/SEGGER_RTT/SEGGER_RTT.c **** static void _WriteNoCheck(SEGGER_RTT_BUFFER_UP* pRing, const char* pData, unsigned NumBytes) {
 400:Middlewares/Third_Party/SEGGER_RTT/SEGGER_RTT.c ****   unsigned NumBytesAtOnce;
 401:Middlewares/Third_Party/SEGGER_RTT/SEGGER_RTT.c ****   unsigned WrOff;
 402:Middlewares/Third_Party/SEGGER_RTT/SEGGER_RTT.c ****   unsigned Rem;
 403:Middlewares/Third_Party/SEGGER_RTT/SEGGER_RTT.c **** #if SEGGER_RTT_MEMCPY_USE_BYTELOOP
 404:Middlewares/Third_Party/SEGGER_RTT/SEGGER_RTT.c ****   char*    pDst;
 405:Middlewares/Third_Party/SEGGER_RTT/SEGGER_RTT.c **** #endif
 406:Middlewares/Third_Party/SEGGER_RTT/SEGGER_RTT.c **** 
 407:Middlewares/Third_Party/SEGGER_RTT/SEGGER_RTT.c ****   WrOff = pRing->WrOff;
 408:Middlewares/Third_Party/SEGGER_RTT/SEGGER_RTT.c ****   Rem = pRing->SizeOfBuffer - WrOff;
 409:Middlewares/Third_Party/SEGGER_RTT/SEGGER_RTT.c ****   if (Rem > NumBytes) {
 410:Middlewares/Third_Party/SEGGER_RTT/SEGGER_RTT.c ****     //
 411:Middlewares/Third_Party/SEGGER_RTT/SEGGER_RTT.c ****     // All data fits before wrap around
 412:Middlewares/Third_Party/SEGGER_RTT/SEGGER_RTT.c ****     //
 413:Middlewares/Third_Party/SEGGER_RTT/SEGGER_RTT.c **** #if SEGGER_RTT_MEMCPY_USE_BYTELOOP
 414:Middlewares/Third_Party/SEGGER_RTT/SEGGER_RTT.c ****     pDst = pRing->pBuffer + WrOff;
 415:Middlewares/Third_Party/SEGGER_RTT/SEGGER_RTT.c ****     WrOff += NumBytes;
 416:Middlewares/Third_Party/SEGGER_RTT/SEGGER_RTT.c ****     while (NumBytes--) {
 417:Middlewares/Third_Party/SEGGER_RTT/SEGGER_RTT.c ****       *pDst++ = *pData++;
 418:Middlewares/Third_Party/SEGGER_RTT/SEGGER_RTT.c ****     };
 419:Middlewares/Third_Party/SEGGER_RTT/SEGGER_RTT.c ****     pRing->WrOff = WrOff;
 420:Middlewares/Third_Party/SEGGER_RTT/SEGGER_RTT.c **** #else
 421:Middlewares/Third_Party/SEGGER_RTT/SEGGER_RTT.c ****     SEGGER_RTT_MEMCPY(pRing->pBuffer + WrOff, pData, NumBytes);
 422:Middlewares/Third_Party/SEGGER_RTT/SEGGER_RTT.c ****     pRing->WrOff = WrOff + NumBytes;
 423:Middlewares/Third_Party/SEGGER_RTT/SEGGER_RTT.c **** #endif
 424:Middlewares/Third_Party/SEGGER_RTT/SEGGER_RTT.c ****   } else {
 425:Middlewares/Third_Party/SEGGER_RTT/SEGGER_RTT.c ****     //
 426:Middlewares/Third_Party/SEGGER_RTT/SEGGER_RTT.c ****     // We reach the end of the buffer, so need to wrap around
 427:Middlewares/Third_Party/SEGGER_RTT/SEGGER_RTT.c ****     //
 428:Middlewares/Third_Party/SEGGER_RTT/SEGGER_RTT.c **** #if SEGGER_RTT_MEMCPY_USE_BYTELOOP
 429:Middlewares/Third_Party/SEGGER_RTT/SEGGER_RTT.c ****     pDst = pRing->pBuffer + WrOff;
 430:Middlewares/Third_Party/SEGGER_RTT/SEGGER_RTT.c ****     NumBytesAtOnce = Rem;
ARM GAS  C:\Users\Brandon\AppData\Local\Temp\ccaGXwj6.s 			page 9


 431:Middlewares/Third_Party/SEGGER_RTT/SEGGER_RTT.c ****     while (NumBytesAtOnce--) {
 432:Middlewares/Third_Party/SEGGER_RTT/SEGGER_RTT.c ****       *pDst++ = *pData++;
 433:Middlewares/Third_Party/SEGGER_RTT/SEGGER_RTT.c ****     };
 434:Middlewares/Third_Party/SEGGER_RTT/SEGGER_RTT.c ****     pDst = pRing->pBuffer;
 435:Middlewares/Third_Party/SEGGER_RTT/SEGGER_RTT.c ****     NumBytesAtOnce = NumBytes - Rem;
 436:Middlewares/Third_Party/SEGGER_RTT/SEGGER_RTT.c ****     while (NumBytesAtOnce--) {
 437:Middlewares/Third_Party/SEGGER_RTT/SEGGER_RTT.c ****       *pDst++ = *pData++;
 438:Middlewares/Third_Party/SEGGER_RTT/SEGGER_RTT.c ****     };
 439:Middlewares/Third_Party/SEGGER_RTT/SEGGER_RTT.c ****     pRing->WrOff = NumBytes - Rem;
 440:Middlewares/Third_Party/SEGGER_RTT/SEGGER_RTT.c **** #else
 441:Middlewares/Third_Party/SEGGER_RTT/SEGGER_RTT.c ****     NumBytesAtOnce = Rem;
 442:Middlewares/Third_Party/SEGGER_RTT/SEGGER_RTT.c ****     SEGGER_RTT_MEMCPY(pRing->pBuffer + WrOff, pData, NumBytesAtOnce);
 443:Middlewares/Third_Party/SEGGER_RTT/SEGGER_RTT.c ****     NumBytesAtOnce = NumBytes - Rem;
 444:Middlewares/Third_Party/SEGGER_RTT/SEGGER_RTT.c ****     SEGGER_RTT_MEMCPY(pRing->pBuffer, pData + Rem, NumBytesAtOnce);
 445:Middlewares/Third_Party/SEGGER_RTT/SEGGER_RTT.c ****     pRing->WrOff = NumBytesAtOnce;
 446:Middlewares/Third_Party/SEGGER_RTT/SEGGER_RTT.c **** #endif
 447:Middlewares/Third_Party/SEGGER_RTT/SEGGER_RTT.c ****   }
 448:Middlewares/Third_Party/SEGGER_RTT/SEGGER_RTT.c **** }
 449:Middlewares/Third_Party/SEGGER_RTT/SEGGER_RTT.c **** 
 450:Middlewares/Third_Party/SEGGER_RTT/SEGGER_RTT.c **** /*********************************************************************
 451:Middlewares/Third_Party/SEGGER_RTT/SEGGER_RTT.c **** *
 452:Middlewares/Third_Party/SEGGER_RTT/SEGGER_RTT.c **** *       _PostTerminalSwitch()
 453:Middlewares/Third_Party/SEGGER_RTT/SEGGER_RTT.c **** *
 454:Middlewares/Third_Party/SEGGER_RTT/SEGGER_RTT.c **** *  Function description
 455:Middlewares/Third_Party/SEGGER_RTT/SEGGER_RTT.c **** *    Switch terminal to the given terminal ID.  It is the caller's
 456:Middlewares/Third_Party/SEGGER_RTT/SEGGER_RTT.c **** *    responsibility to ensure the terminal ID is correct and there is
 457:Middlewares/Third_Party/SEGGER_RTT/SEGGER_RTT.c **** *    enough space in the buffer for this to complete successfully.
 458:Middlewares/Third_Party/SEGGER_RTT/SEGGER_RTT.c **** *
 459:Middlewares/Third_Party/SEGGER_RTT/SEGGER_RTT.c **** *  Parameters
 460:Middlewares/Third_Party/SEGGER_RTT/SEGGER_RTT.c **** *    pRing        Ring buffer to post to.
 461:Middlewares/Third_Party/SEGGER_RTT/SEGGER_RTT.c **** *    TerminalId   Terminal ID to switch to.
 462:Middlewares/Third_Party/SEGGER_RTT/SEGGER_RTT.c **** */
 463:Middlewares/Third_Party/SEGGER_RTT/SEGGER_RTT.c **** static void _PostTerminalSwitch(SEGGER_RTT_BUFFER_UP* pRing, unsigned char TerminalId) {
 464:Middlewares/Third_Party/SEGGER_RTT/SEGGER_RTT.c ****   char ac[2];
 465:Middlewares/Third_Party/SEGGER_RTT/SEGGER_RTT.c **** 
 466:Middlewares/Third_Party/SEGGER_RTT/SEGGER_RTT.c ****   ac[0] = 0xFFu;
 467:Middlewares/Third_Party/SEGGER_RTT/SEGGER_RTT.c ****   ac[1] = _aTerminalId[TerminalId];  // Caller made already sure that TerminalId does not exceed ou
 468:Middlewares/Third_Party/SEGGER_RTT/SEGGER_RTT.c ****   _WriteBlocking(pRing, ac, 2u);
 469:Middlewares/Third_Party/SEGGER_RTT/SEGGER_RTT.c **** }
 470:Middlewares/Third_Party/SEGGER_RTT/SEGGER_RTT.c **** 
 471:Middlewares/Third_Party/SEGGER_RTT/SEGGER_RTT.c **** /*********************************************************************
 472:Middlewares/Third_Party/SEGGER_RTT/SEGGER_RTT.c **** *
 473:Middlewares/Third_Party/SEGGER_RTT/SEGGER_RTT.c **** *       _GetAvailWriteSpace()
 474:Middlewares/Third_Party/SEGGER_RTT/SEGGER_RTT.c **** *
 475:Middlewares/Third_Party/SEGGER_RTT/SEGGER_RTT.c **** *  Function description
 476:Middlewares/Third_Party/SEGGER_RTT/SEGGER_RTT.c **** *    Returns the number of bytes that can be written to the ring
 477:Middlewares/Third_Party/SEGGER_RTT/SEGGER_RTT.c **** *    buffer without blocking.
 478:Middlewares/Third_Party/SEGGER_RTT/SEGGER_RTT.c **** *
 479:Middlewares/Third_Party/SEGGER_RTT/SEGGER_RTT.c **** *  Parameters
 480:Middlewares/Third_Party/SEGGER_RTT/SEGGER_RTT.c **** *    pRing        Ring buffer to check.
 481:Middlewares/Third_Party/SEGGER_RTT/SEGGER_RTT.c **** *
 482:Middlewares/Third_Party/SEGGER_RTT/SEGGER_RTT.c **** *  Return value
 483:Middlewares/Third_Party/SEGGER_RTT/SEGGER_RTT.c **** *    Number of bytes that are free in the buffer.
 484:Middlewares/Third_Party/SEGGER_RTT/SEGGER_RTT.c **** */
 485:Middlewares/Third_Party/SEGGER_RTT/SEGGER_RTT.c **** static unsigned _GetAvailWriteSpace(SEGGER_RTT_BUFFER_UP* pRing) {
  28              		.loc 1 485 66 view -0
  29              		.cfi_startproc
ARM GAS  C:\Users\Brandon\AppData\Local\Temp\ccaGXwj6.s 			page 10


  30              		@ args = 0, pretend = 0, frame = 0
  31              		@ frame_needed = 0, uses_anonymous_args = 0
  32              		@ link register save eliminated.
 486:Middlewares/Third_Party/SEGGER_RTT/SEGGER_RTT.c ****   unsigned RdOff;
  33              		.loc 1 486 3 view .LVU1
 487:Middlewares/Third_Party/SEGGER_RTT/SEGGER_RTT.c ****   unsigned WrOff;
  34              		.loc 1 487 3 view .LVU2
 488:Middlewares/Third_Party/SEGGER_RTT/SEGGER_RTT.c ****   unsigned r;
  35              		.loc 1 488 3 view .LVU3
 489:Middlewares/Third_Party/SEGGER_RTT/SEGGER_RTT.c ****   //
 490:Middlewares/Third_Party/SEGGER_RTT/SEGGER_RTT.c ****   // Avoid warnings regarding volatile access order.  It's not a problem
 491:Middlewares/Third_Party/SEGGER_RTT/SEGGER_RTT.c ****   // in this case, but dampen compiler enthusiasm.
 492:Middlewares/Third_Party/SEGGER_RTT/SEGGER_RTT.c ****   //
 493:Middlewares/Third_Party/SEGGER_RTT/SEGGER_RTT.c ****   RdOff = pRing->RdOff;
  36              		.loc 1 493 3 view .LVU4
  37              		.loc 1 493 9 is_stmt 0 view .LVU5
  38 0000 0369     		ldr	r3, [r0, #16]
  39              	.LVL1:
 494:Middlewares/Third_Party/SEGGER_RTT/SEGGER_RTT.c ****   WrOff = pRing->WrOff;
  40              		.loc 1 494 3 is_stmt 1 view .LVU6
  41              		.loc 1 494 9 is_stmt 0 view .LVU7
  42 0002 C268     		ldr	r2, [r0, #12]
  43              	.LVL2:
 495:Middlewares/Third_Party/SEGGER_RTT/SEGGER_RTT.c ****   if (RdOff <= WrOff) {
  44              		.loc 1 495 3 is_stmt 1 view .LVU8
  45              		.loc 1 495 6 is_stmt 0 view .LVU9
  46 0004 9342     		cmp	r3, r2
  47 0006 04D8     		bhi	.L2
 496:Middlewares/Third_Party/SEGGER_RTT/SEGGER_RTT.c ****     r = pRing->SizeOfBuffer - 1u - WrOff + RdOff;
  48              		.loc 1 496 5 is_stmt 1 view .LVU10
  49              		.loc 1 496 14 is_stmt 0 view .LVU11
  50 0008 8068     		ldr	r0, [r0, #8]
  51              	.LVL3:
  52              		.loc 1 496 34 view .LVU12
  53 000a 801A     		subs	r0, r0, r2
  54              		.loc 1 496 42 view .LVU13
  55 000c 0344     		add	r3, r3, r0
  56              	.LVL4:
  57              		.loc 1 496 7 view .LVU14
  58 000e 581E     		subs	r0, r3, #1
  59              	.LVL5:
  60              		.loc 1 496 7 view .LVU15
  61 0010 7047     		bx	lr
  62              	.LVL6:
  63              	.L2:
 497:Middlewares/Third_Party/SEGGER_RTT/SEGGER_RTT.c ****   } else {
 498:Middlewares/Third_Party/SEGGER_RTT/SEGGER_RTT.c ****     r = RdOff - WrOff - 1u;
  64              		.loc 1 498 5 is_stmt 1 view .LVU16
  65              		.loc 1 498 15 is_stmt 0 view .LVU17
  66 0012 9B1A     		subs	r3, r3, r2
  67              	.LVL7:
  68              		.loc 1 498 7 view .LVU18
  69 0014 581E     		subs	r0, r3, #1
  70              	.LVL8:
 499:Middlewares/Third_Party/SEGGER_RTT/SEGGER_RTT.c ****   }
 500:Middlewares/Third_Party/SEGGER_RTT/SEGGER_RTT.c ****   return r;
  71              		.loc 1 500 3 is_stmt 1 view .LVU19
ARM GAS  C:\Users\Brandon\AppData\Local\Temp\ccaGXwj6.s 			page 11


 501:Middlewares/Third_Party/SEGGER_RTT/SEGGER_RTT.c **** }
  72              		.loc 1 501 1 is_stmt 0 view .LVU20
  73 0016 7047     		bx	lr
  74              		.cfi_endproc
  75              	.LFE4:
  77              		.section	.text._WriteNoCheck,"ax",%progbits
  78              		.align	1
  79              		.syntax unified
  80              		.thumb
  81              		.thumb_func
  82              		.fpu fpv5-d16
  84              	_WriteNoCheck:
  85              	.LVL9:
  86              	.LFB2:
 399:Middlewares/Third_Party/SEGGER_RTT/SEGGER_RTT.c ****   unsigned NumBytesAtOnce;
  87              		.loc 1 399 94 is_stmt 1 view -0
  88              		.cfi_startproc
  89              		@ args = 0, pretend = 0, frame = 0
  90              		@ frame_needed = 0, uses_anonymous_args = 0
 399:Middlewares/Third_Party/SEGGER_RTT/SEGGER_RTT.c ****   unsigned NumBytesAtOnce;
  91              		.loc 1 399 94 is_stmt 0 view .LVU22
  92 0000 2DE9F843 		push	{r3, r4, r5, r6, r7, r8, r9, lr}
  93              	.LCFI0:
  94              		.cfi_def_cfa_offset 32
  95              		.cfi_offset 3, -32
  96              		.cfi_offset 4, -28
  97              		.cfi_offset 5, -24
  98              		.cfi_offset 6, -20
  99              		.cfi_offset 7, -16
 100              		.cfi_offset 8, -12
 101              		.cfi_offset 9, -8
 102              		.cfi_offset 14, -4
 103 0004 0446     		mov	r4, r0
 104 0006 8846     		mov	r8, r1
 105 0008 1646     		mov	r6, r2
 400:Middlewares/Third_Party/SEGGER_RTT/SEGGER_RTT.c ****   unsigned WrOff;
 106              		.loc 1 400 3 is_stmt 1 view .LVU23
 401:Middlewares/Third_Party/SEGGER_RTT/SEGGER_RTT.c ****   unsigned Rem;
 107              		.loc 1 401 3 view .LVU24
 402:Middlewares/Third_Party/SEGGER_RTT/SEGGER_RTT.c **** #if SEGGER_RTT_MEMCPY_USE_BYTELOOP
 108              		.loc 1 402 3 view .LVU25
 407:Middlewares/Third_Party/SEGGER_RTT/SEGGER_RTT.c ****   Rem = pRing->SizeOfBuffer - WrOff;
 109              		.loc 1 407 3 view .LVU26
 407:Middlewares/Third_Party/SEGGER_RTT/SEGGER_RTT.c ****   Rem = pRing->SizeOfBuffer - WrOff;
 110              		.loc 1 407 9 is_stmt 0 view .LVU27
 111 000a C568     		ldr	r5, [r0, #12]
 112              	.LVL10:
 408:Middlewares/Third_Party/SEGGER_RTT/SEGGER_RTT.c ****   if (Rem > NumBytes) {
 113              		.loc 1 408 3 is_stmt 1 view .LVU28
 408:Middlewares/Third_Party/SEGGER_RTT/SEGGER_RTT.c ****   if (Rem > NumBytes) {
 114              		.loc 1 408 14 is_stmt 0 view .LVU29
 115 000c 8768     		ldr	r7, [r0, #8]
 408:Middlewares/Third_Party/SEGGER_RTT/SEGGER_RTT.c ****   if (Rem > NumBytes) {
 116              		.loc 1 408 7 view .LVU30
 117 000e A7EB0509 		sub	r9, r7, r5
 118              	.LVL11:
 409:Middlewares/Third_Party/SEGGER_RTT/SEGGER_RTT.c ****     //
ARM GAS  C:\Users\Brandon\AppData\Local\Temp\ccaGXwj6.s 			page 12


 119              		.loc 1 409 3 is_stmt 1 view .LVU31
 409:Middlewares/Third_Party/SEGGER_RTT/SEGGER_RTT.c ****     //
 120              		.loc 1 409 6 is_stmt 0 view .LVU32
 121 0012 9145     		cmp	r9, r2
 122 0014 07D9     		bls	.L5
 421:Middlewares/Third_Party/SEGGER_RTT/SEGGER_RTT.c ****     pRing->WrOff = WrOff + NumBytes;
 123              		.loc 1 421 5 is_stmt 1 view .LVU33
 124 0016 4068     		ldr	r0, [r0, #4]
 125              	.LVL12:
 421:Middlewares/Third_Party/SEGGER_RTT/SEGGER_RTT.c ****     pRing->WrOff = WrOff + NumBytes;
 126              		.loc 1 421 5 is_stmt 0 view .LVU34
 127 0018 2844     		add	r0, r0, r5
 128 001a FFF7FEFF 		bl	memcpy
 129              	.LVL13:
 422:Middlewares/Third_Party/SEGGER_RTT/SEGGER_RTT.c **** #endif
 130              		.loc 1 422 5 is_stmt 1 view .LVU35
 422:Middlewares/Third_Party/SEGGER_RTT/SEGGER_RTT.c **** #endif
 131              		.loc 1 422 26 is_stmt 0 view .LVU36
 132 001e 3544     		add	r5, r5, r6
 133              	.LVL14:
 422:Middlewares/Third_Party/SEGGER_RTT/SEGGER_RTT.c **** #endif
 134              		.loc 1 422 18 view .LVU37
 135 0020 E560     		str	r5, [r4, #12]
 136              	.L4:
 448:Middlewares/Third_Party/SEGGER_RTT/SEGGER_RTT.c **** 
 137              		.loc 1 448 1 view .LVU38
 138 0022 BDE8F883 		pop	{r3, r4, r5, r6, r7, r8, r9, pc}
 139              	.LVL15:
 140              	.L5:
 441:Middlewares/Third_Party/SEGGER_RTT/SEGGER_RTT.c ****     SEGGER_RTT_MEMCPY(pRing->pBuffer + WrOff, pData, NumBytesAtOnce);
 141              		.loc 1 441 5 is_stmt 1 view .LVU39
 442:Middlewares/Third_Party/SEGGER_RTT/SEGGER_RTT.c ****     NumBytesAtOnce = NumBytes - Rem;
 142              		.loc 1 442 5 view .LVU40
 143 0026 4068     		ldr	r0, [r0, #4]
 144              	.LVL16:
 442:Middlewares/Third_Party/SEGGER_RTT/SEGGER_RTT.c ****     NumBytesAtOnce = NumBytes - Rem;
 145              		.loc 1 442 5 is_stmt 0 view .LVU41
 146 0028 4A46     		mov	r2, r9
 147              	.LVL17:
 442:Middlewares/Third_Party/SEGGER_RTT/SEGGER_RTT.c ****     NumBytesAtOnce = NumBytes - Rem;
 148              		.loc 1 442 5 view .LVU42
 149 002a 2844     		add	r0, r0, r5
 150 002c FFF7FEFF 		bl	memcpy
 151              	.LVL18:
 443:Middlewares/Third_Party/SEGGER_RTT/SEGGER_RTT.c ****     SEGGER_RTT_MEMCPY(pRing->pBuffer, pData + Rem, NumBytesAtOnce);
 152              		.loc 1 443 5 is_stmt 1 view .LVU43
 443:Middlewares/Third_Party/SEGGER_RTT/SEGGER_RTT.c ****     SEGGER_RTT_MEMCPY(pRing->pBuffer, pData + Rem, NumBytesAtOnce);
 153              		.loc 1 443 20 is_stmt 0 view .LVU44
 154 0030 ED1B     		subs	r5, r5, r7
 155              	.LVL19:
 443:Middlewares/Third_Party/SEGGER_RTT/SEGGER_RTT.c ****     SEGGER_RTT_MEMCPY(pRing->pBuffer, pData + Rem, NumBytesAtOnce);
 156              		.loc 1 443 20 view .LVU45
 157 0032 3544     		add	r5, r5, r6
 158              	.LVL20:
 444:Middlewares/Third_Party/SEGGER_RTT/SEGGER_RTT.c ****     pRing->WrOff = NumBytesAtOnce;
 159              		.loc 1 444 5 is_stmt 1 view .LVU46
 160 0034 2A46     		mov	r2, r5
ARM GAS  C:\Users\Brandon\AppData\Local\Temp\ccaGXwj6.s 			page 13


 161 0036 08EB0901 		add	r1, r8, r9
 162 003a 6068     		ldr	r0, [r4, #4]
 163 003c FFF7FEFF 		bl	memcpy
 164              	.LVL21:
 445:Middlewares/Third_Party/SEGGER_RTT/SEGGER_RTT.c **** #endif
 165              		.loc 1 445 5 view .LVU47
 445:Middlewares/Third_Party/SEGGER_RTT/SEGGER_RTT.c **** #endif
 166              		.loc 1 445 18 is_stmt 0 view .LVU48
 167 0040 E560     		str	r5, [r4, #12]
 448:Middlewares/Third_Party/SEGGER_RTT/SEGGER_RTT.c **** 
 168              		.loc 1 448 1 view .LVU49
 169 0042 EEE7     		b	.L4
 170              		.cfi_endproc
 171              	.LFE2:
 173              		.section	.text._WriteBlocking,"ax",%progbits
 174              		.align	1
 175              		.syntax unified
 176              		.thumb
 177              		.thumb_func
 178              		.fpu fpv5-d16
 180              	_WriteBlocking:
 181              	.LVL22:
 182              	.LFB1:
 335:Middlewares/Third_Party/SEGGER_RTT/SEGGER_RTT.c ****   unsigned NumBytesToWrite;
 183              		.loc 1 335 101 is_stmt 1 view -0
 184              		.cfi_startproc
 185              		@ args = 0, pretend = 0, frame = 0
 186              		@ frame_needed = 0, uses_anonymous_args = 0
 335:Middlewares/Third_Party/SEGGER_RTT/SEGGER_RTT.c ****   unsigned NumBytesToWrite;
 187              		.loc 1 335 101 is_stmt 0 view .LVU51
 188 0000 2DE9F843 		push	{r3, r4, r5, r6, r7, r8, r9, lr}
 189              	.LCFI1:
 190              		.cfi_def_cfa_offset 32
 191              		.cfi_offset 3, -32
 192              		.cfi_offset 4, -28
 193              		.cfi_offset 5, -24
 194              		.cfi_offset 6, -20
 195              		.cfi_offset 7, -16
 196              		.cfi_offset 8, -12
 197              		.cfi_offset 9, -8
 198              		.cfi_offset 14, -4
 199 0004 0646     		mov	r6, r0
 200 0006 8846     		mov	r8, r1
 201 0008 1746     		mov	r7, r2
 336:Middlewares/Third_Party/SEGGER_RTT/SEGGER_RTT.c ****   unsigned NumBytesWritten;
 202              		.loc 1 336 3 is_stmt 1 view .LVU52
 337:Middlewares/Third_Party/SEGGER_RTT/SEGGER_RTT.c ****   unsigned RdOff;
 203              		.loc 1 337 3 view .LVU53
 338:Middlewares/Third_Party/SEGGER_RTT/SEGGER_RTT.c ****   unsigned WrOff;
 204              		.loc 1 338 3 view .LVU54
 339:Middlewares/Third_Party/SEGGER_RTT/SEGGER_RTT.c **** #if SEGGER_RTT_MEMCPY_USE_BYTELOOP
 205              		.loc 1 339 3 view .LVU55
 346:Middlewares/Third_Party/SEGGER_RTT/SEGGER_RTT.c ****   WrOff = pRing->WrOff;
 206              		.loc 1 346 3 view .LVU56
 207              	.LVL23:
 347:Middlewares/Third_Party/SEGGER_RTT/SEGGER_RTT.c ****   do {
 208              		.loc 1 347 3 view .LVU57
ARM GAS  C:\Users\Brandon\AppData\Local\Temp\ccaGXwj6.s 			page 14


 347:Middlewares/Third_Party/SEGGER_RTT/SEGGER_RTT.c ****   do {
 209              		.loc 1 347 9 is_stmt 0 view .LVU58
 210 000a C568     		ldr	r5, [r0, #12]
 211              	.LVL24:
 346:Middlewares/Third_Party/SEGGER_RTT/SEGGER_RTT.c ****   WrOff = pRing->WrOff;
 212              		.loc 1 346 19 view .LVU59
 213 000c 4FF00009 		mov	r9, #0
 214 0010 18E0     		b	.L12
 215              	.LVL25:
 216              	.L17:
 351:Middlewares/Third_Party/SEGGER_RTT/SEGGER_RTT.c ****     } else {
 217              		.loc 1 351 7 is_stmt 1 view .LVU60
 351:Middlewares/Third_Party/SEGGER_RTT/SEGGER_RTT.c ****     } else {
 218              		.loc 1 351 31 is_stmt 0 view .LVU61
 219 0012 641B     		subs	r4, r4, r5
 220              	.LVL26:
 351:Middlewares/Third_Party/SEGGER_RTT/SEGGER_RTT.c ****     } else {
 221              		.loc 1 351 23 view .LVU62
 222 0014 621E     		subs	r2, r4, #1
 223              	.LVL27:
 224              	.L10:
 355:Middlewares/Third_Party/SEGGER_RTT/SEGGER_RTT.c ****     NumBytesToWrite = MIN(NumBytesToWrite, NumBytes);
 225              		.loc 1 355 5 is_stmt 1 view .LVU63
 355:Middlewares/Third_Party/SEGGER_RTT/SEGGER_RTT.c ****     NumBytesToWrite = MIN(NumBytesToWrite, NumBytes);
 226              		.loc 1 355 23 is_stmt 0 view .LVU64
 227 0016 B368     		ldr	r3, [r6, #8]
 228 0018 5C1B     		subs	r4, r3, r5
 355:Middlewares/Third_Party/SEGGER_RTT/SEGGER_RTT.c ****     NumBytesToWrite = MIN(NumBytesToWrite, NumBytes);
 229              		.loc 1 355 21 view .LVU65
 230 001a 9442     		cmp	r4, r2
 231 001c 28BF     		it	cs
 232 001e 1446     		movcs	r4, r2
 233              	.LVL28:
 356:Middlewares/Third_Party/SEGGER_RTT/SEGGER_RTT.c **** #if SEGGER_RTT_MEMCPY_USE_BYTELOOP
 234              		.loc 1 356 5 is_stmt 1 view .LVU66
 356:Middlewares/Third_Party/SEGGER_RTT/SEGGER_RTT.c **** #if SEGGER_RTT_MEMCPY_USE_BYTELOOP
 235              		.loc 1 356 21 is_stmt 0 view .LVU67
 236 0020 BC42     		cmp	r4, r7
 237 0022 28BF     		it	cs
 238 0024 3C46     		movcs	r4, r7
 239              	.LVL29:
 366:Middlewares/Third_Party/SEGGER_RTT/SEGGER_RTT.c ****     NumBytesWritten += NumBytesToWrite;
 240              		.loc 1 366 5 is_stmt 1 view .LVU68
 241 0026 7068     		ldr	r0, [r6, #4]
 242 0028 2246     		mov	r2, r4
 243 002a 4146     		mov	r1, r8
 244 002c 2844     		add	r0, r0, r5
 245 002e FFF7FEFF 		bl	memcpy
 246              	.LVL30:
 367:Middlewares/Third_Party/SEGGER_RTT/SEGGER_RTT.c ****     pBuffer         += NumBytesToWrite;
 247              		.loc 1 367 5 view .LVU69
 367:Middlewares/Third_Party/SEGGER_RTT/SEGGER_RTT.c ****     pBuffer         += NumBytesToWrite;
 248              		.loc 1 367 21 is_stmt 0 view .LVU70
 249 0032 A144     		add	r9, r9, r4
 250              	.LVL31:
 368:Middlewares/Third_Party/SEGGER_RTT/SEGGER_RTT.c ****     NumBytes        -= NumBytesToWrite;
 251              		.loc 1 368 5 is_stmt 1 view .LVU71
ARM GAS  C:\Users\Brandon\AppData\Local\Temp\ccaGXwj6.s 			page 15


 368:Middlewares/Third_Party/SEGGER_RTT/SEGGER_RTT.c ****     NumBytes        -= NumBytesToWrite;
 252              		.loc 1 368 21 is_stmt 0 view .LVU72
 253 0034 A044     		add	r8, r8, r4
 254              	.LVL32:
 369:Middlewares/Third_Party/SEGGER_RTT/SEGGER_RTT.c ****     WrOff           += NumBytesToWrite;
 255              		.loc 1 369 5 is_stmt 1 view .LVU73
 369:Middlewares/Third_Party/SEGGER_RTT/SEGGER_RTT.c ****     WrOff           += NumBytesToWrite;
 256              		.loc 1 369 21 is_stmt 0 view .LVU74
 257 0036 3F1B     		subs	r7, r7, r4
 258              	.LVL33:
 370:Middlewares/Third_Party/SEGGER_RTT/SEGGER_RTT.c **** #endif
 259              		.loc 1 370 5 is_stmt 1 view .LVU75
 370:Middlewares/Third_Party/SEGGER_RTT/SEGGER_RTT.c **** #endif
 260              		.loc 1 370 21 is_stmt 0 view .LVU76
 261 0038 2544     		add	r5, r5, r4
 262              	.LVL34:
 372:Middlewares/Third_Party/SEGGER_RTT/SEGGER_RTT.c ****       WrOff = 0u;
 263              		.loc 1 372 5 is_stmt 1 view .LVU77
 372:Middlewares/Third_Party/SEGGER_RTT/SEGGER_RTT.c ****       WrOff = 0u;
 264              		.loc 1 372 23 is_stmt 0 view .LVU78
 265 003a B368     		ldr	r3, [r6, #8]
 372:Middlewares/Third_Party/SEGGER_RTT/SEGGER_RTT.c ****       WrOff = 0u;
 266              		.loc 1 372 8 view .LVU79
 267 003c AB42     		cmp	r3, r5
 268 003e 09D0     		beq	.L15
 269              	.LVL35:
 270              	.L11:
 375:Middlewares/Third_Party/SEGGER_RTT/SEGGER_RTT.c ****   } while (NumBytes);
 271              		.loc 1 375 5 is_stmt 1 view .LVU80
 375:Middlewares/Third_Party/SEGGER_RTT/SEGGER_RTT.c ****   } while (NumBytes);
 272              		.loc 1 375 18 is_stmt 0 view .LVU81
 273 0040 F560     		str	r5, [r6, #12]
 376:Middlewares/Third_Party/SEGGER_RTT/SEGGER_RTT.c ****   //
 274              		.loc 1 376 11 is_stmt 1 view .LVU82
 376:Middlewares/Third_Party/SEGGER_RTT/SEGGER_RTT.c ****   //
 275              		.loc 1 376 3 is_stmt 0 view .LVU83
 276 0042 4FB1     		cbz	r7, .L16
 277              	.LVL36:
 278              	.L12:
 348:Middlewares/Third_Party/SEGGER_RTT/SEGGER_RTT.c ****     RdOff = pRing->RdOff;                         // May be changed by host (debug probe) in the me
 279              		.loc 1 348 3 is_stmt 1 view .LVU84
 349:Middlewares/Third_Party/SEGGER_RTT/SEGGER_RTT.c ****     if (RdOff > WrOff) {
 280              		.loc 1 349 5 view .LVU85
 349:Middlewares/Third_Party/SEGGER_RTT/SEGGER_RTT.c ****     if (RdOff > WrOff) {
 281              		.loc 1 349 11 is_stmt 0 view .LVU86
 282 0044 3469     		ldr	r4, [r6, #16]
 283              	.LVL37:
 350:Middlewares/Third_Party/SEGGER_RTT/SEGGER_RTT.c ****       NumBytesToWrite = RdOff - WrOff - 1u;
 284              		.loc 1 350 5 is_stmt 1 view .LVU87
 350:Middlewares/Third_Party/SEGGER_RTT/SEGGER_RTT.c ****       NumBytesToWrite = RdOff - WrOff - 1u;
 285              		.loc 1 350 8 is_stmt 0 view .LVU88
 286 0046 A542     		cmp	r5, r4
 287 0048 E3D3     		bcc	.L17
 353:Middlewares/Third_Party/SEGGER_RTT/SEGGER_RTT.c ****     }
 288              		.loc 1 353 7 is_stmt 1 view .LVU89
 353:Middlewares/Third_Party/SEGGER_RTT/SEGGER_RTT.c ****     }
 289              		.loc 1 353 30 is_stmt 0 view .LVU90
ARM GAS  C:\Users\Brandon\AppData\Local\Temp\ccaGXwj6.s 			page 16


 290 004a B268     		ldr	r2, [r6, #8]
 353:Middlewares/Third_Party/SEGGER_RTT/SEGGER_RTT.c ****     }
 291              		.loc 1 353 62 view .LVU91
 292 004c 641B     		subs	r4, r4, r5
 293              	.LVL38:
 353:Middlewares/Third_Party/SEGGER_RTT/SEGGER_RTT.c ****     }
 294              		.loc 1 353 45 view .LVU92
 295 004e 1444     		add	r4, r4, r2
 353:Middlewares/Third_Party/SEGGER_RTT/SEGGER_RTT.c ****     }
 296              		.loc 1 353 23 view .LVU93
 297 0050 621E     		subs	r2, r4, #1
 298              	.LVL39:
 353:Middlewares/Third_Party/SEGGER_RTT/SEGGER_RTT.c ****     }
 299              		.loc 1 353 23 view .LVU94
 300 0052 E0E7     		b	.L10
 301              	.LVL40:
 302              	.L15:
 373:Middlewares/Third_Party/SEGGER_RTT/SEGGER_RTT.c ****     }
 303              		.loc 1 373 13 view .LVU95
 304 0054 0025     		movs	r5, #0
 305              	.LVL41:
 373:Middlewares/Third_Party/SEGGER_RTT/SEGGER_RTT.c ****     }
 306              		.loc 1 373 13 view .LVU96
 307 0056 F3E7     		b	.L11
 308              	.LVL42:
 309              	.L16:
 378:Middlewares/Third_Party/SEGGER_RTT/SEGGER_RTT.c **** }
 310              		.loc 1 378 3 is_stmt 1 view .LVU97
 379:Middlewares/Third_Party/SEGGER_RTT/SEGGER_RTT.c **** 
 311              		.loc 1 379 1 is_stmt 0 view .LVU98
 312 0058 4846     		mov	r0, r9
 313 005a BDE8F883 		pop	{r3, r4, r5, r6, r7, r8, r9, pc}
 379:Middlewares/Third_Party/SEGGER_RTT/SEGGER_RTT.c **** 
 314              		.loc 1 379 1 view .LVU99
 315              		.cfi_endproc
 316              	.LFE1:
 318              		.section	.text._PostTerminalSwitch,"ax",%progbits
 319              		.align	1
 320              		.syntax unified
 321              		.thumb
 322              		.thumb_func
 323              		.fpu fpv5-d16
 325              	_PostTerminalSwitch:
 326              	.LVL43:
 327              	.LFB3:
 463:Middlewares/Third_Party/SEGGER_RTT/SEGGER_RTT.c ****   char ac[2];
 328              		.loc 1 463 88 is_stmt 1 view -0
 329              		.cfi_startproc
 330              		@ args = 0, pretend = 0, frame = 8
 331              		@ frame_needed = 0, uses_anonymous_args = 0
 463:Middlewares/Third_Party/SEGGER_RTT/SEGGER_RTT.c ****   char ac[2];
 332              		.loc 1 463 88 is_stmt 0 view .LVU101
 333 0000 00B5     		push	{lr}
 334              	.LCFI2:
 335              		.cfi_def_cfa_offset 4
 336              		.cfi_offset 14, -4
 337 0002 83B0     		sub	sp, sp, #12
ARM GAS  C:\Users\Brandon\AppData\Local\Temp\ccaGXwj6.s 			page 17


 338              	.LCFI3:
 339              		.cfi_def_cfa_offset 16
 464:Middlewares/Third_Party/SEGGER_RTT/SEGGER_RTT.c **** 
 340              		.loc 1 464 3 is_stmt 1 view .LVU102
 466:Middlewares/Third_Party/SEGGER_RTT/SEGGER_RTT.c ****   ac[1] = _aTerminalId[TerminalId];  // Caller made already sure that TerminalId does not exceed ou
 341              		.loc 1 466 3 view .LVU103
 466:Middlewares/Third_Party/SEGGER_RTT/SEGGER_RTT.c ****   ac[1] = _aTerminalId[TerminalId];  // Caller made already sure that TerminalId does not exceed ou
 342              		.loc 1 466 9 is_stmt 0 view .LVU104
 343 0004 FF23     		movs	r3, #255
 344 0006 8DF80430 		strb	r3, [sp, #4]
 467:Middlewares/Third_Party/SEGGER_RTT/SEGGER_RTT.c ****   _WriteBlocking(pRing, ac, 2u);
 345              		.loc 1 467 3 is_stmt 1 view .LVU105
 467:Middlewares/Third_Party/SEGGER_RTT/SEGGER_RTT.c ****   _WriteBlocking(pRing, ac, 2u);
 346              		.loc 1 467 23 is_stmt 0 view .LVU106
 347 000a 054B     		ldr	r3, .L20
 348 000c 5B5C     		ldrb	r3, [r3, r1]	@ zero_extendqisi2
 467:Middlewares/Third_Party/SEGGER_RTT/SEGGER_RTT.c ****   _WriteBlocking(pRing, ac, 2u);
 349              		.loc 1 467 9 view .LVU107
 350 000e 8DF80530 		strb	r3, [sp, #5]
 468:Middlewares/Third_Party/SEGGER_RTT/SEGGER_RTT.c **** }
 351              		.loc 1 468 3 is_stmt 1 view .LVU108
 352 0012 0222     		movs	r2, #2
 353 0014 01A9     		add	r1, sp, #4
 354              	.LVL44:
 468:Middlewares/Third_Party/SEGGER_RTT/SEGGER_RTT.c **** }
 355              		.loc 1 468 3 is_stmt 0 view .LVU109
 356 0016 FFF7FEFF 		bl	_WriteBlocking
 357              	.LVL45:
 469:Middlewares/Third_Party/SEGGER_RTT/SEGGER_RTT.c **** 
 358              		.loc 1 469 1 view .LVU110
 359 001a 03B0     		add	sp, sp, #12
 360              	.LCFI4:
 361              		.cfi_def_cfa_offset 4
 362              		@ sp needed
 363 001c 5DF804FB 		ldr	pc, [sp], #4
 364              	.L21:
 365              		.align	2
 366              	.L20:
 367 0020 00000000 		.word	.LANCHOR0
 368              		.cfi_endproc
 369              	.LFE3:
 371              		.section	.rodata._DoInit.str1.4,"aMS",%progbits,1
 372              		.align	2
 373              	.LC0:
 374 0000 5465726D 		.ascii	"Terminal\000"
 374      696E616C 
 374      00
 375 0009 000000   		.align	2
 376              	.LC1:
 377 000c 52545400 		.ascii	"RTT\000"
 378              		.align	2
 379              	.LC2:
 380 0010 53454747 		.ascii	"SEGGER\000"
 380      455200
 381              		.section	.text._DoInit,"ax",%progbits
 382              		.align	1
 383              		.syntax unified
ARM GAS  C:\Users\Brandon\AppData\Local\Temp\ccaGXwj6.s 			page 18


 384              		.thumb
 385              		.thumb_func
 386              		.fpu fpv5-d16
 388              	_DoInit:
 389              	.LFB0:
 280:Middlewares/Third_Party/SEGGER_RTT/SEGGER_RTT.c ****   SEGGER_RTT_CB* p;
 390              		.loc 1 280 27 is_stmt 1 view -0
 391              		.cfi_startproc
 392              		@ args = 0, pretend = 0, frame = 0
 393              		@ frame_needed = 0, uses_anonymous_args = 0
 394              		@ link register save eliminated.
 281:Middlewares/Third_Party/SEGGER_RTT/SEGGER_RTT.c ****   //
 395              		.loc 1 281 3 view .LVU112
 285:Middlewares/Third_Party/SEGGER_RTT/SEGGER_RTT.c ****   p->MaxNumUpBuffers    = SEGGER_RTT_MAX_NUM_UP_BUFFERS;
 396              		.loc 1 285 3 view .LVU113
 397              	.LVL46:
 286:Middlewares/Third_Party/SEGGER_RTT/SEGGER_RTT.c ****   p->MaxNumDownBuffers  = SEGGER_RTT_MAX_NUM_DOWN_BUFFERS;
 398              		.loc 1 286 3 view .LVU114
 286:Middlewares/Third_Party/SEGGER_RTT/SEGGER_RTT.c ****   p->MaxNumDownBuffers  = SEGGER_RTT_MAX_NUM_DOWN_BUFFERS;
 399              		.loc 1 286 25 is_stmt 0 view .LVU115
 400 0000 114B     		ldr	r3, .L23
 401 0002 0222     		movs	r2, #2
 402 0004 1A61     		str	r2, [r3, #16]
 287:Middlewares/Third_Party/SEGGER_RTT/SEGGER_RTT.c ****   //
 403              		.loc 1 287 3 is_stmt 1 view .LVU116
 287:Middlewares/Third_Party/SEGGER_RTT/SEGGER_RTT.c ****   //
 404              		.loc 1 287 25 is_stmt 0 view .LVU117
 405 0006 5A61     		str	r2, [r3, #20]
 291:Middlewares/Third_Party/SEGGER_RTT/SEGGER_RTT.c ****   p->aUp[0].pBuffer       = _acUpBuffer;
 406              		.loc 1 291 3 is_stmt 1 view .LVU118
 291:Middlewares/Third_Party/SEGGER_RTT/SEGGER_RTT.c ****   p->aUp[0].pBuffer       = _acUpBuffer;
 407              		.loc 1 291 27 is_stmt 0 view .LVU119
 408 0008 1048     		ldr	r0, .L23+4
 409 000a 9861     		str	r0, [r3, #24]
 292:Middlewares/Third_Party/SEGGER_RTT/SEGGER_RTT.c ****   p->aUp[0].SizeOfBuffer  = sizeof(_acUpBuffer);
 410              		.loc 1 292 3 is_stmt 1 view .LVU120
 292:Middlewares/Third_Party/SEGGER_RTT/SEGGER_RTT.c ****   p->aUp[0].SizeOfBuffer  = sizeof(_acUpBuffer);
 411              		.loc 1 292 27 is_stmt 0 view .LVU121
 412 000c 1049     		ldr	r1, .L23+8
 413 000e D961     		str	r1, [r3, #28]
 293:Middlewares/Third_Party/SEGGER_RTT/SEGGER_RTT.c ****   p->aUp[0].RdOff         = 0u;
 414              		.loc 1 293 3 is_stmt 1 view .LVU122
 293:Middlewares/Third_Party/SEGGER_RTT/SEGGER_RTT.c ****   p->aUp[0].RdOff         = 0u;
 415              		.loc 1 293 27 is_stmt 0 view .LVU123
 416 0010 4FF40061 		mov	r1, #2048
 417 0014 1962     		str	r1, [r3, #32]
 294:Middlewares/Third_Party/SEGGER_RTT/SEGGER_RTT.c ****   p->aUp[0].WrOff         = 0u;
 418              		.loc 1 294 3 is_stmt 1 view .LVU124
 294:Middlewares/Third_Party/SEGGER_RTT/SEGGER_RTT.c ****   p->aUp[0].WrOff         = 0u;
 419              		.loc 1 294 27 is_stmt 0 view .LVU125
 420 0016 0021     		movs	r1, #0
 421 0018 9962     		str	r1, [r3, #40]
 295:Middlewares/Third_Party/SEGGER_RTT/SEGGER_RTT.c ****   p->aUp[0].Flags         = SEGGER_RTT_MODE_DEFAULT;
 422              		.loc 1 295 3 is_stmt 1 view .LVU126
 295:Middlewares/Third_Party/SEGGER_RTT/SEGGER_RTT.c ****   p->aUp[0].Flags         = SEGGER_RTT_MODE_DEFAULT;
 423              		.loc 1 295 27 is_stmt 0 view .LVU127
 424 001a 5962     		str	r1, [r3, #36]
ARM GAS  C:\Users\Brandon\AppData\Local\Temp\ccaGXwj6.s 			page 19


 296:Middlewares/Third_Party/SEGGER_RTT/SEGGER_RTT.c ****   //
 425              		.loc 1 296 3 is_stmt 1 view .LVU128
 296:Middlewares/Third_Party/SEGGER_RTT/SEGGER_RTT.c ****   //
 426              		.loc 1 296 27 is_stmt 0 view .LVU129
 427 001c DA62     		str	r2, [r3, #44]
 300:Middlewares/Third_Party/SEGGER_RTT/SEGGER_RTT.c ****   p->aDown[0].pBuffer       = _acDownBuffer;
 428              		.loc 1 300 3 is_stmt 1 view .LVU130
 300:Middlewares/Third_Party/SEGGER_RTT/SEGGER_RTT.c ****   p->aDown[0].pBuffer       = _acDownBuffer;
 429              		.loc 1 300 29 is_stmt 0 view .LVU131
 430 001e 9864     		str	r0, [r3, #72]
 301:Middlewares/Third_Party/SEGGER_RTT/SEGGER_RTT.c ****   p->aDown[0].SizeOfBuffer  = sizeof(_acDownBuffer);
 431              		.loc 1 301 3 is_stmt 1 view .LVU132
 301:Middlewares/Third_Party/SEGGER_RTT/SEGGER_RTT.c ****   p->aDown[0].SizeOfBuffer  = sizeof(_acDownBuffer);
 432              		.loc 1 301 29 is_stmt 0 view .LVU133
 433 0020 0C48     		ldr	r0, .L23+12
 434 0022 D864     		str	r0, [r3, #76]
 302:Middlewares/Third_Party/SEGGER_RTT/SEGGER_RTT.c ****   p->aDown[0].RdOff         = 0u;
 435              		.loc 1 302 3 is_stmt 1 view .LVU134
 302:Middlewares/Third_Party/SEGGER_RTT/SEGGER_RTT.c ****   p->aDown[0].RdOff         = 0u;
 436              		.loc 1 302 29 is_stmt 0 view .LVU135
 437 0024 1020     		movs	r0, #16
 438 0026 1865     		str	r0, [r3, #80]
 303:Middlewares/Third_Party/SEGGER_RTT/SEGGER_RTT.c ****   p->aDown[0].WrOff         = 0u;
 439              		.loc 1 303 3 is_stmt 1 view .LVU136
 303:Middlewares/Third_Party/SEGGER_RTT/SEGGER_RTT.c ****   p->aDown[0].WrOff         = 0u;
 440              		.loc 1 303 29 is_stmt 0 view .LVU137
 441 0028 9965     		str	r1, [r3, #88]
 304:Middlewares/Third_Party/SEGGER_RTT/SEGGER_RTT.c ****   p->aDown[0].Flags         = SEGGER_RTT_MODE_DEFAULT;
 442              		.loc 1 304 3 is_stmt 1 view .LVU138
 304:Middlewares/Third_Party/SEGGER_RTT/SEGGER_RTT.c ****   p->aDown[0].Flags         = SEGGER_RTT_MODE_DEFAULT;
 443              		.loc 1 304 29 is_stmt 0 view .LVU139
 444 002a 5965     		str	r1, [r3, #84]
 305:Middlewares/Third_Party/SEGGER_RTT/SEGGER_RTT.c ****   //
 445              		.loc 1 305 3 is_stmt 1 view .LVU140
 305:Middlewares/Third_Party/SEGGER_RTT/SEGGER_RTT.c ****   //
 446              		.loc 1 305 29 is_stmt 0 view .LVU141
 447 002c DA65     		str	r2, [r3, #92]
 311:Middlewares/Third_Party/SEGGER_RTT/SEGGER_RTT.c ****   strcpy(&p->acID[0], "SEGGER");
 448              		.loc 1 311 3 is_stmt 1 view .LVU142
 449 002e 0A4A     		ldr	r2, .L23+16
 450 0030 1068     		ldr	r0, [r2]
 451 0032 C3F80700 		str	r0, [r3, #7]	@ unaligned
 312:Middlewares/Third_Party/SEGGER_RTT/SEGGER_RTT.c ****   p->acID[6] = ' ';
 452              		.loc 1 312 3 view .LVU143
 453 0036 094A     		ldr	r2, .L23+20
 454 0038 92E80300 		ldm	r2, {r0, r1}
 455 003c 1860     		str	r0, [r3]
 456 003e 9980     		strh	r1, [r3, #4]	@ movhi
 313:Middlewares/Third_Party/SEGGER_RTT/SEGGER_RTT.c **** }
 457              		.loc 1 313 3 view .LVU144
 313:Middlewares/Third_Party/SEGGER_RTT/SEGGER_RTT.c **** }
 458              		.loc 1 313 14 is_stmt 0 view .LVU145
 459 0040 2022     		movs	r2, #32
 460 0042 9A71     		strb	r2, [r3, #6]
 314:Middlewares/Third_Party/SEGGER_RTT/SEGGER_RTT.c **** 
 461              		.loc 1 314 1 view .LVU146
 462 0044 7047     		bx	lr
ARM GAS  C:\Users\Brandon\AppData\Local\Temp\ccaGXwj6.s 			page 20


 463              	.L24:
 464 0046 00BF     		.align	2
 465              	.L23:
 466 0048 00000000 		.word	_SEGGER_RTT
 467 004c 00000000 		.word	.LC0
 468 0050 00000000 		.word	.LANCHOR1
 469 0054 00000000 		.word	.LANCHOR2
 470 0058 0C000000 		.word	.LC1
 471 005c 10000000 		.word	.LC2
 472              		.cfi_endproc
 473              	.LFE0:
 475              		.section	.text.SEGGER_RTT_ReadNoLock,"ax",%progbits
 476              		.align	1
 477              		.global	SEGGER_RTT_ReadNoLock
 478              		.syntax unified
 479              		.thumb
 480              		.thumb_func
 481              		.fpu fpv5-d16
 483              	SEGGER_RTT_ReadNoLock:
 484              	.LVL47:
 485              	.LFB5:
 502:Middlewares/Third_Party/SEGGER_RTT/SEGGER_RTT.c **** 
 503:Middlewares/Third_Party/SEGGER_RTT/SEGGER_RTT.c **** /*********************************************************************
 504:Middlewares/Third_Party/SEGGER_RTT/SEGGER_RTT.c **** *
 505:Middlewares/Third_Party/SEGGER_RTT/SEGGER_RTT.c **** *       Public code
 506:Middlewares/Third_Party/SEGGER_RTT/SEGGER_RTT.c **** *
 507:Middlewares/Third_Party/SEGGER_RTT/SEGGER_RTT.c **** **********************************************************************
 508:Middlewares/Third_Party/SEGGER_RTT/SEGGER_RTT.c **** */
 509:Middlewares/Third_Party/SEGGER_RTT/SEGGER_RTT.c **** /*********************************************************************
 510:Middlewares/Third_Party/SEGGER_RTT/SEGGER_RTT.c **** *
 511:Middlewares/Third_Party/SEGGER_RTT/SEGGER_RTT.c **** *       SEGGER_RTT_ReadNoLock()
 512:Middlewares/Third_Party/SEGGER_RTT/SEGGER_RTT.c **** *
 513:Middlewares/Third_Party/SEGGER_RTT/SEGGER_RTT.c **** *  Function description
 514:Middlewares/Third_Party/SEGGER_RTT/SEGGER_RTT.c **** *    Reads characters from SEGGER real-time-terminal control block
 515:Middlewares/Third_Party/SEGGER_RTT/SEGGER_RTT.c **** *    which have been previously stored by the host.
 516:Middlewares/Third_Party/SEGGER_RTT/SEGGER_RTT.c **** *    Do not lock against interrupts and multiple access.
 517:Middlewares/Third_Party/SEGGER_RTT/SEGGER_RTT.c **** *
 518:Middlewares/Third_Party/SEGGER_RTT/SEGGER_RTT.c **** *  Parameters
 519:Middlewares/Third_Party/SEGGER_RTT/SEGGER_RTT.c **** *    BufferIndex  Index of Down-buffer to be used (e.g. 0 for "Terminal").
 520:Middlewares/Third_Party/SEGGER_RTT/SEGGER_RTT.c **** *    pBuffer      Pointer to buffer provided by target application, to copy characters from RTT-dow
 521:Middlewares/Third_Party/SEGGER_RTT/SEGGER_RTT.c **** *    BufferSize   Size of the target application buffer.
 522:Middlewares/Third_Party/SEGGER_RTT/SEGGER_RTT.c **** *
 523:Middlewares/Third_Party/SEGGER_RTT/SEGGER_RTT.c **** *  Return value
 524:Middlewares/Third_Party/SEGGER_RTT/SEGGER_RTT.c **** *    Number of bytes that have been read.
 525:Middlewares/Third_Party/SEGGER_RTT/SEGGER_RTT.c **** */
 526:Middlewares/Third_Party/SEGGER_RTT/SEGGER_RTT.c **** unsigned SEGGER_RTT_ReadNoLock(unsigned BufferIndex, void* pData, unsigned BufferSize) {
 486              		.loc 1 526 88 is_stmt 1 view -0
 487              		.cfi_startproc
 488              		@ args = 0, pretend = 0, frame = 0
 489              		@ frame_needed = 0, uses_anonymous_args = 0
 490              		.loc 1 526 88 is_stmt 0 view .LVU148
 491 0000 2DE9F047 		push	{r4, r5, r6, r7, r8, r9, r10, lr}
 492              	.LCFI5:
 493              		.cfi_def_cfa_offset 32
 494              		.cfi_offset 4, -32
 495              		.cfi_offset 5, -28
 496              		.cfi_offset 6, -24
ARM GAS  C:\Users\Brandon\AppData\Local\Temp\ccaGXwj6.s 			page 21


 497              		.cfi_offset 7, -20
 498              		.cfi_offset 8, -16
 499              		.cfi_offset 9, -12
 500              		.cfi_offset 10, -8
 501              		.cfi_offset 14, -4
 502 0004 0446     		mov	r4, r0
 503 0006 8846     		mov	r8, r1
 504 0008 9146     		mov	r9, r2
 527:Middlewares/Third_Party/SEGGER_RTT/SEGGER_RTT.c ****   unsigned                NumBytesRem;
 505              		.loc 1 527 3 is_stmt 1 view .LVU149
 528:Middlewares/Third_Party/SEGGER_RTT/SEGGER_RTT.c ****   unsigned                NumBytesRead;
 506              		.loc 1 528 3 view .LVU150
 529:Middlewares/Third_Party/SEGGER_RTT/SEGGER_RTT.c ****   unsigned                RdOff;
 507              		.loc 1 529 3 view .LVU151
 530:Middlewares/Third_Party/SEGGER_RTT/SEGGER_RTT.c ****   unsigned                WrOff;
 508              		.loc 1 530 3 view .LVU152
 531:Middlewares/Third_Party/SEGGER_RTT/SEGGER_RTT.c ****   unsigned char*          pBuffer;
 509              		.loc 1 531 3 view .LVU153
 532:Middlewares/Third_Party/SEGGER_RTT/SEGGER_RTT.c ****   SEGGER_RTT_BUFFER_DOWN* pRing;
 510              		.loc 1 532 3 view .LVU154
 533:Middlewares/Third_Party/SEGGER_RTT/SEGGER_RTT.c **** #if SEGGER_RTT_MEMCPY_USE_BYTELOOP
 534:Middlewares/Third_Party/SEGGER_RTT/SEGGER_RTT.c ****   const char*             pSrc;
 535:Middlewares/Third_Party/SEGGER_RTT/SEGGER_RTT.c **** #endif
 536:Middlewares/Third_Party/SEGGER_RTT/SEGGER_RTT.c ****   //
 537:Middlewares/Third_Party/SEGGER_RTT/SEGGER_RTT.c ****   INIT();
 511              		.loc 1 537 3 view .LVU155
 512              		.loc 1 537 3 view .LVU156
 513 000a 244B     		ldr	r3, .L36
 514 000c 1B78     		ldrb	r3, [r3]	@ zero_extendqisi2
 515 000e C3B1     		cbz	r3, .L33
 516              	.LVL48:
 517              	.L26:
 518              		.loc 1 537 3 discriminator 3 view .LVU157
 538:Middlewares/Third_Party/SEGGER_RTT/SEGGER_RTT.c ****   pRing = &_SEGGER_RTT.aDown[BufferIndex];
 519              		.loc 1 538 3 discriminator 3 view .LVU158
 539:Middlewares/Third_Party/SEGGER_RTT/SEGGER_RTT.c ****   pBuffer = (unsigned char*)pData;
 520              		.loc 1 539 3 discriminator 3 view .LVU159
 540:Middlewares/Third_Party/SEGGER_RTT/SEGGER_RTT.c ****   RdOff = pRing->RdOff;
 521              		.loc 1 540 3 discriminator 3 view .LVU160
 522              		.loc 1 540 9 is_stmt 0 discriminator 3 view .LVU161
 523 0010 04EB4403 		add	r3, r4, r4, lsl #1
 524 0014 214A     		ldr	r2, .L36
 525 0016 02EBC303 		add	r3, r2, r3, lsl #3
 526 001a 9F6D     		ldr	r7, [r3, #88]
 527              	.LVL49:
 541:Middlewares/Third_Party/SEGGER_RTT/SEGGER_RTT.c ****   WrOff = pRing->WrOff;
 528              		.loc 1 541 3 is_stmt 1 discriminator 3 view .LVU162
 529              		.loc 1 541 9 is_stmt 0 discriminator 3 view .LVU163
 530 001c 5D6D     		ldr	r5, [r3, #84]
 531              	.LVL50:
 542:Middlewares/Third_Party/SEGGER_RTT/SEGGER_RTT.c ****   NumBytesRead = 0u;
 532              		.loc 1 542 3 is_stmt 1 discriminator 3 view .LVU164
 543:Middlewares/Third_Party/SEGGER_RTT/SEGGER_RTT.c ****   //
 544:Middlewares/Third_Party/SEGGER_RTT/SEGGER_RTT.c ****   // Read from current read position to wrap-around of buffer, first
 545:Middlewares/Third_Party/SEGGER_RTT/SEGGER_RTT.c ****   //
 546:Middlewares/Third_Party/SEGGER_RTT/SEGGER_RTT.c ****   if (RdOff > WrOff) {
 533              		.loc 1 546 3 discriminator 3 view .LVU165
ARM GAS  C:\Users\Brandon\AppData\Local\Temp\ccaGXwj6.s 			page 22


 534              		.loc 1 546 6 is_stmt 0 discriminator 3 view .LVU166
 535 001e AF42     		cmp	r7, r5
 536 0020 12D8     		bhi	.L34
 542:Middlewares/Third_Party/SEGGER_RTT/SEGGER_RTT.c ****   NumBytesRead = 0u;
 537              		.loc 1 542 16 view .LVU167
 538 0022 0026     		movs	r6, #0
 539              	.LVL51:
 540              	.L27:
 547:Middlewares/Third_Party/SEGGER_RTT/SEGGER_RTT.c ****     NumBytesRem = pRing->SizeOfBuffer - RdOff;
 548:Middlewares/Third_Party/SEGGER_RTT/SEGGER_RTT.c ****     NumBytesRem = MIN(NumBytesRem, BufferSize);
 549:Middlewares/Third_Party/SEGGER_RTT/SEGGER_RTT.c **** #if SEGGER_RTT_MEMCPY_USE_BYTELOOP
 550:Middlewares/Third_Party/SEGGER_RTT/SEGGER_RTT.c ****     pSrc = pRing->pBuffer + RdOff;
 551:Middlewares/Third_Party/SEGGER_RTT/SEGGER_RTT.c ****     NumBytesRead += NumBytesRem;
 552:Middlewares/Third_Party/SEGGER_RTT/SEGGER_RTT.c ****     BufferSize   -= NumBytesRem;
 553:Middlewares/Third_Party/SEGGER_RTT/SEGGER_RTT.c ****     RdOff        += NumBytesRem;
 554:Middlewares/Third_Party/SEGGER_RTT/SEGGER_RTT.c ****     while (NumBytesRem--) {
 555:Middlewares/Third_Party/SEGGER_RTT/SEGGER_RTT.c ****       *pBuffer++ = *pSrc++;
 556:Middlewares/Third_Party/SEGGER_RTT/SEGGER_RTT.c ****     };
 557:Middlewares/Third_Party/SEGGER_RTT/SEGGER_RTT.c **** #else
 558:Middlewares/Third_Party/SEGGER_RTT/SEGGER_RTT.c ****     SEGGER_RTT_MEMCPY(pBuffer, pRing->pBuffer + RdOff, NumBytesRem);
 559:Middlewares/Third_Party/SEGGER_RTT/SEGGER_RTT.c ****     NumBytesRead += NumBytesRem;
 560:Middlewares/Third_Party/SEGGER_RTT/SEGGER_RTT.c ****     pBuffer      += NumBytesRem;
 561:Middlewares/Third_Party/SEGGER_RTT/SEGGER_RTT.c ****     BufferSize   -= NumBytesRem;
 562:Middlewares/Third_Party/SEGGER_RTT/SEGGER_RTT.c ****     RdOff        += NumBytesRem;
 563:Middlewares/Third_Party/SEGGER_RTT/SEGGER_RTT.c **** #endif
 564:Middlewares/Third_Party/SEGGER_RTT/SEGGER_RTT.c ****     //
 565:Middlewares/Third_Party/SEGGER_RTT/SEGGER_RTT.c ****     // Handle wrap-around of buffer
 566:Middlewares/Third_Party/SEGGER_RTT/SEGGER_RTT.c ****     //
 567:Middlewares/Third_Party/SEGGER_RTT/SEGGER_RTT.c ****     if (RdOff == pRing->SizeOfBuffer) {
 568:Middlewares/Third_Party/SEGGER_RTT/SEGGER_RTT.c ****       RdOff = 0u;
 569:Middlewares/Third_Party/SEGGER_RTT/SEGGER_RTT.c ****     }
 570:Middlewares/Third_Party/SEGGER_RTT/SEGGER_RTT.c ****   }
 571:Middlewares/Third_Party/SEGGER_RTT/SEGGER_RTT.c ****   //
 572:Middlewares/Third_Party/SEGGER_RTT/SEGGER_RTT.c ****   // Read remaining items of buffer
 573:Middlewares/Third_Party/SEGGER_RTT/SEGGER_RTT.c ****   //
 574:Middlewares/Third_Party/SEGGER_RTT/SEGGER_RTT.c ****   NumBytesRem = WrOff - RdOff;
 541              		.loc 1 574 3 is_stmt 1 view .LVU168
 542              		.loc 1 574 15 is_stmt 0 view .LVU169
 543 0024 ED1B     		subs	r5, r5, r7
 544              	.LVL52:
 575:Middlewares/Third_Party/SEGGER_RTT/SEGGER_RTT.c ****   NumBytesRem = MIN(NumBytesRem, BufferSize);
 545              		.loc 1 575 3 is_stmt 1 view .LVU170
 546              		.loc 1 575 15 is_stmt 0 view .LVU171
 547 0026 4D45     		cmp	r5, r9
 548 0028 28BF     		it	cs
 549 002a 4D46     		movcs	r5, r9
 550              	.LVL53:
 576:Middlewares/Third_Party/SEGGER_RTT/SEGGER_RTT.c ****   if (NumBytesRem > 0u) {
 551              		.loc 1 576 3 is_stmt 1 view .LVU172
 552              		.loc 1 576 6 is_stmt 0 view .LVU173
 553 002c 3DBB     		cbnz	r5, .L35
 554              	.LVL54:
 555              	.L28:
 577:Middlewares/Third_Party/SEGGER_RTT/SEGGER_RTT.c **** #if SEGGER_RTT_MEMCPY_USE_BYTELOOP
 578:Middlewares/Third_Party/SEGGER_RTT/SEGGER_RTT.c ****     pSrc = pRing->pBuffer + RdOff;
 579:Middlewares/Third_Party/SEGGER_RTT/SEGGER_RTT.c ****     NumBytesRead += NumBytesRem;
 580:Middlewares/Third_Party/SEGGER_RTT/SEGGER_RTT.c ****     BufferSize   -= NumBytesRem;
ARM GAS  C:\Users\Brandon\AppData\Local\Temp\ccaGXwj6.s 			page 23


 581:Middlewares/Third_Party/SEGGER_RTT/SEGGER_RTT.c ****     RdOff        += NumBytesRem;
 582:Middlewares/Third_Party/SEGGER_RTT/SEGGER_RTT.c ****     while (NumBytesRem--) {
 583:Middlewares/Third_Party/SEGGER_RTT/SEGGER_RTT.c ****       *pBuffer++ = *pSrc++;
 584:Middlewares/Third_Party/SEGGER_RTT/SEGGER_RTT.c ****     };
 585:Middlewares/Third_Party/SEGGER_RTT/SEGGER_RTT.c **** #else
 586:Middlewares/Third_Party/SEGGER_RTT/SEGGER_RTT.c ****     SEGGER_RTT_MEMCPY(pBuffer, pRing->pBuffer + RdOff, NumBytesRem);
 587:Middlewares/Third_Party/SEGGER_RTT/SEGGER_RTT.c ****     NumBytesRead += NumBytesRem;
 588:Middlewares/Third_Party/SEGGER_RTT/SEGGER_RTT.c ****     pBuffer      += NumBytesRem;
 589:Middlewares/Third_Party/SEGGER_RTT/SEGGER_RTT.c ****     BufferSize   -= NumBytesRem;
 590:Middlewares/Third_Party/SEGGER_RTT/SEGGER_RTT.c ****     RdOff        += NumBytesRem;
 591:Middlewares/Third_Party/SEGGER_RTT/SEGGER_RTT.c **** #endif
 592:Middlewares/Third_Party/SEGGER_RTT/SEGGER_RTT.c ****   }
 593:Middlewares/Third_Party/SEGGER_RTT/SEGGER_RTT.c ****   if (NumBytesRead) {
 556              		.loc 1 593 3 is_stmt 1 view .LVU174
 557              		.loc 1 593 6 is_stmt 0 view .LVU175
 558 002e 2EB1     		cbz	r6, .L25
 594:Middlewares/Third_Party/SEGGER_RTT/SEGGER_RTT.c ****     pRing->RdOff = RdOff;
 559              		.loc 1 594 5 is_stmt 1 view .LVU176
 560              		.loc 1 594 18 is_stmt 0 view .LVU177
 561 0030 04EB4404 		add	r4, r4, r4, lsl #1
 562              	.LVL55:
 563              		.loc 1 594 18 view .LVU178
 564 0034 1948     		ldr	r0, .L36
 565 0036 00EBC404 		add	r4, r0, r4, lsl #3
 566 003a A765     		str	r7, [r4, #88]
 595:Middlewares/Third_Party/SEGGER_RTT/SEGGER_RTT.c ****   }
 596:Middlewares/Third_Party/SEGGER_RTT/SEGGER_RTT.c ****   //
 597:Middlewares/Third_Party/SEGGER_RTT/SEGGER_RTT.c ****   return NumBytesRead;
 567              		.loc 1 597 3 is_stmt 1 view .LVU179
 568              	.L25:
 598:Middlewares/Third_Party/SEGGER_RTT/SEGGER_RTT.c **** }
 569              		.loc 1 598 1 is_stmt 0 view .LVU180
 570 003c 3046     		mov	r0, r6
 571 003e BDE8F087 		pop	{r4, r5, r6, r7, r8, r9, r10, pc}
 572              	.LVL56:
 573              	.L33:
 537:Middlewares/Third_Party/SEGGER_RTT/SEGGER_RTT.c ****   pRing = &_SEGGER_RTT.aDown[BufferIndex];
 574              		.loc 1 537 3 is_stmt 1 discriminator 1 view .LVU181
 575 0042 FFF7FEFF 		bl	_DoInit
 576              	.LVL57:
 537:Middlewares/Third_Party/SEGGER_RTT/SEGGER_RTT.c ****   pRing = &_SEGGER_RTT.aDown[BufferIndex];
 577              		.loc 1 537 3 is_stmt 0 discriminator 1 view .LVU182
 578 0046 E3E7     		b	.L26
 579              	.LVL58:
 580              	.L34:
 547:Middlewares/Third_Party/SEGGER_RTT/SEGGER_RTT.c ****     NumBytesRem = MIN(NumBytesRem, BufferSize);
 581              		.loc 1 547 5 is_stmt 1 view .LVU183
 547:Middlewares/Third_Party/SEGGER_RTT/SEGGER_RTT.c ****     NumBytesRem = MIN(NumBytesRem, BufferSize);
 582              		.loc 1 547 24 is_stmt 0 view .LVU184
 583 0048 04EB440A 		add	r10, r4, r4, lsl #1
 584 004c 02EBCA0A 		add	r10, r2, r10, lsl #3
 585 0050 DAF85060 		ldr	r6, [r10, #80]
 547:Middlewares/Third_Party/SEGGER_RTT/SEGGER_RTT.c ****     NumBytesRem = MIN(NumBytesRem, BufferSize);
 586              		.loc 1 547 17 view .LVU185
 587 0054 F61B     		subs	r6, r6, r7
 588              	.LVL59:
 548:Middlewares/Third_Party/SEGGER_RTT/SEGGER_RTT.c **** #if SEGGER_RTT_MEMCPY_USE_BYTELOOP
ARM GAS  C:\Users\Brandon\AppData\Local\Temp\ccaGXwj6.s 			page 24


 589              		.loc 1 548 5 is_stmt 1 view .LVU186
 548:Middlewares/Third_Party/SEGGER_RTT/SEGGER_RTT.c **** #if SEGGER_RTT_MEMCPY_USE_BYTELOOP
 590              		.loc 1 548 17 is_stmt 0 view .LVU187
 591 0056 4E45     		cmp	r6, r9
 592 0058 28BF     		it	cs
 593 005a 4E46     		movcs	r6, r9
 594              	.LVL60:
 558:Middlewares/Third_Party/SEGGER_RTT/SEGGER_RTT.c ****     NumBytesRead += NumBytesRem;
 595              		.loc 1 558 5 is_stmt 1 view .LVU188
 596 005c DAF84C10 		ldr	r1, [r10, #76]
 597 0060 3246     		mov	r2, r6
 598 0062 3944     		add	r1, r1, r7
 599 0064 4046     		mov	r0, r8
 600 0066 FFF7FEFF 		bl	memcpy
 601              	.LVL61:
 559:Middlewares/Third_Party/SEGGER_RTT/SEGGER_RTT.c ****     pBuffer      += NumBytesRem;
 602              		.loc 1 559 5 view .LVU189
 560:Middlewares/Third_Party/SEGGER_RTT/SEGGER_RTT.c ****     BufferSize   -= NumBytesRem;
 603              		.loc 1 560 5 view .LVU190
 560:Middlewares/Third_Party/SEGGER_RTT/SEGGER_RTT.c ****     BufferSize   -= NumBytesRem;
 604              		.loc 1 560 18 is_stmt 0 view .LVU191
 605 006a B044     		add	r8, r8, r6
 606              	.LVL62:
 561:Middlewares/Third_Party/SEGGER_RTT/SEGGER_RTT.c ****     RdOff        += NumBytesRem;
 607              		.loc 1 561 5 is_stmt 1 view .LVU192
 561:Middlewares/Third_Party/SEGGER_RTT/SEGGER_RTT.c ****     RdOff        += NumBytesRem;
 608              		.loc 1 561 18 is_stmt 0 view .LVU193
 609 006c A9EB0609 		sub	r9, r9, r6
 610              	.LVL63:
 562:Middlewares/Third_Party/SEGGER_RTT/SEGGER_RTT.c **** #endif
 611              		.loc 1 562 5 is_stmt 1 view .LVU194
 562:Middlewares/Third_Party/SEGGER_RTT/SEGGER_RTT.c **** #endif
 612              		.loc 1 562 18 is_stmt 0 view .LVU195
 613 0070 3744     		add	r7, r7, r6
 614              	.LVL64:
 567:Middlewares/Third_Party/SEGGER_RTT/SEGGER_RTT.c ****       RdOff = 0u;
 615              		.loc 1 567 5 is_stmt 1 view .LVU196
 567:Middlewares/Third_Party/SEGGER_RTT/SEGGER_RTT.c ****       RdOff = 0u;
 616              		.loc 1 567 23 is_stmt 0 view .LVU197
 617 0072 DAF85030 		ldr	r3, [r10, #80]
 567:Middlewares/Third_Party/SEGGER_RTT/SEGGER_RTT.c ****       RdOff = 0u;
 618              		.loc 1 567 8 view .LVU198
 619 0076 BB42     		cmp	r3, r7
 620 0078 D4D1     		bne	.L27
 568:Middlewares/Third_Party/SEGGER_RTT/SEGGER_RTT.c ****     }
 621              		.loc 1 568 13 view .LVU199
 622 007a 0027     		movs	r7, #0
 623              	.LVL65:
 568:Middlewares/Third_Party/SEGGER_RTT/SEGGER_RTT.c ****     }
 624              		.loc 1 568 13 view .LVU200
 625 007c D2E7     		b	.L27
 626              	.LVL66:
 627              	.L35:
 586:Middlewares/Third_Party/SEGGER_RTT/SEGGER_RTT.c ****     NumBytesRead += NumBytesRem;
 628              		.loc 1 586 5 is_stmt 1 view .LVU201
 629 007e 04EB4403 		add	r3, r4, r4, lsl #1
 630 0082 064A     		ldr	r2, .L36
ARM GAS  C:\Users\Brandon\AppData\Local\Temp\ccaGXwj6.s 			page 25


 631 0084 02EBC303 		add	r3, r2, r3, lsl #3
 632 0088 D96C     		ldr	r1, [r3, #76]
 633 008a 2A46     		mov	r2, r5
 634 008c 3944     		add	r1, r1, r7
 635 008e 4046     		mov	r0, r8
 636 0090 FFF7FEFF 		bl	memcpy
 637              	.LVL67:
 587:Middlewares/Third_Party/SEGGER_RTT/SEGGER_RTT.c ****     pBuffer      += NumBytesRem;
 638              		.loc 1 587 5 view .LVU202
 587:Middlewares/Third_Party/SEGGER_RTT/SEGGER_RTT.c ****     pBuffer      += NumBytesRem;
 639              		.loc 1 587 18 is_stmt 0 view .LVU203
 640 0094 2E44     		add	r6, r6, r5
 641              	.LVL68:
 588:Middlewares/Third_Party/SEGGER_RTT/SEGGER_RTT.c ****     BufferSize   -= NumBytesRem;
 642              		.loc 1 588 5 is_stmt 1 view .LVU204
 589:Middlewares/Third_Party/SEGGER_RTT/SEGGER_RTT.c ****     RdOff        += NumBytesRem;
 643              		.loc 1 589 5 view .LVU205
 590:Middlewares/Third_Party/SEGGER_RTT/SEGGER_RTT.c **** #endif
 644              		.loc 1 590 5 view .LVU206
 590:Middlewares/Third_Party/SEGGER_RTT/SEGGER_RTT.c **** #endif
 645              		.loc 1 590 18 is_stmt 0 view .LVU207
 646 0096 2F44     		add	r7, r7, r5
 647              	.LVL69:
 590:Middlewares/Third_Party/SEGGER_RTT/SEGGER_RTT.c **** #endif
 648              		.loc 1 590 18 view .LVU208
 649 0098 C9E7     		b	.L28
 650              	.L37:
 651 009a 00BF     		.align	2
 652              	.L36:
 653 009c 00000000 		.word	_SEGGER_RTT
 654              		.cfi_endproc
 655              	.LFE5:
 657              		.section	.text.SEGGER_RTT_Read,"ax",%progbits
 658              		.align	1
 659              		.global	SEGGER_RTT_Read
 660              		.syntax unified
 661              		.thumb
 662              		.thumb_func
 663              		.fpu fpv5-d16
 665              	SEGGER_RTT_Read:
 666              	.LVL70:
 667              	.LFB6:
 599:Middlewares/Third_Party/SEGGER_RTT/SEGGER_RTT.c **** 
 600:Middlewares/Third_Party/SEGGER_RTT/SEGGER_RTT.c **** /*********************************************************************
 601:Middlewares/Third_Party/SEGGER_RTT/SEGGER_RTT.c **** *
 602:Middlewares/Third_Party/SEGGER_RTT/SEGGER_RTT.c **** *       SEGGER_RTT_Read
 603:Middlewares/Third_Party/SEGGER_RTT/SEGGER_RTT.c **** *
 604:Middlewares/Third_Party/SEGGER_RTT/SEGGER_RTT.c **** *  Function description
 605:Middlewares/Third_Party/SEGGER_RTT/SEGGER_RTT.c **** *    Reads characters from SEGGER real-time-terminal control block
 606:Middlewares/Third_Party/SEGGER_RTT/SEGGER_RTT.c **** *    which have been previously stored by the host.
 607:Middlewares/Third_Party/SEGGER_RTT/SEGGER_RTT.c **** *
 608:Middlewares/Third_Party/SEGGER_RTT/SEGGER_RTT.c **** *  Parameters
 609:Middlewares/Third_Party/SEGGER_RTT/SEGGER_RTT.c **** *    BufferIndex  Index of Down-buffer to be used (e.g. 0 for "Terminal").
 610:Middlewares/Third_Party/SEGGER_RTT/SEGGER_RTT.c **** *    pBuffer      Pointer to buffer provided by target application, to copy characters from RTT-dow
 611:Middlewares/Third_Party/SEGGER_RTT/SEGGER_RTT.c **** *    BufferSize   Size of the target application buffer.
 612:Middlewares/Third_Party/SEGGER_RTT/SEGGER_RTT.c **** *
 613:Middlewares/Third_Party/SEGGER_RTT/SEGGER_RTT.c **** *  Return value
ARM GAS  C:\Users\Brandon\AppData\Local\Temp\ccaGXwj6.s 			page 26


 614:Middlewares/Third_Party/SEGGER_RTT/SEGGER_RTT.c **** *    Number of bytes that have been read.
 615:Middlewares/Third_Party/SEGGER_RTT/SEGGER_RTT.c **** */
 616:Middlewares/Third_Party/SEGGER_RTT/SEGGER_RTT.c **** unsigned SEGGER_RTT_Read(unsigned BufferIndex, void* pBuffer, unsigned BufferSize) {
 668              		.loc 1 616 84 is_stmt 1 view -0
 669              		.cfi_startproc
 670              		@ args = 0, pretend = 0, frame = 0
 671              		@ frame_needed = 0, uses_anonymous_args = 0
 672              		.loc 1 616 84 is_stmt 0 view .LVU210
 673 0000 10B5     		push	{r4, lr}
 674              	.LCFI6:
 675              		.cfi_def_cfa_offset 8
 676              		.cfi_offset 4, -8
 677              		.cfi_offset 14, -4
 678 0002 0B46     		mov	r3, r1
 617:Middlewares/Third_Party/SEGGER_RTT/SEGGER_RTT.c ****   unsigned NumBytesRead;
 679              		.loc 1 617 3 is_stmt 1 view .LVU211
 680              	.LBB2:
 618:Middlewares/Third_Party/SEGGER_RTT/SEGGER_RTT.c ****   //
 619:Middlewares/Third_Party/SEGGER_RTT/SEGGER_RTT.c ****   SEGGER_RTT_LOCK();
 681              		.loc 1 619 3 view .LVU212
 682              		.loc 1 619 3 view .LVU213
 683              		.syntax unified
 684              	@ 619 "Middlewares/Third_Party/SEGGER_RTT/SEGGER_RTT.c" 1
 685 0004 EFF31184 		mrs   r4, basepri  
 686 0008 4FF02001 		mov   r1, #32       
 687 000c 81F31188 		msr   basepri, r1  
 688              		
 689              	@ 0 "" 2
 690              	.LVL71:
 691              		.loc 1 619 20 view .LVU214
 620:Middlewares/Third_Party/SEGGER_RTT/SEGGER_RTT.c ****   //
 621:Middlewares/Third_Party/SEGGER_RTT/SEGGER_RTT.c ****   // Call the non-locking read function
 622:Middlewares/Third_Party/SEGGER_RTT/SEGGER_RTT.c ****   //
 623:Middlewares/Third_Party/SEGGER_RTT/SEGGER_RTT.c ****   NumBytesRead = SEGGER_RTT_ReadNoLock(BufferIndex, pBuffer, BufferSize);
 692              		.loc 1 623 3 view .LVU215
 693              		.loc 1 623 18 is_stmt 0 view .LVU216
 694              		.thumb
 695              		.syntax unified
 696 0010 1946     		mov	r1, r3
 697 0012 FFF7FEFF 		bl	SEGGER_RTT_ReadNoLock
 698              	.LVL72:
 624:Middlewares/Third_Party/SEGGER_RTT/SEGGER_RTT.c ****   //
 625:Middlewares/Third_Party/SEGGER_RTT/SEGGER_RTT.c ****   // Finish up.
 626:Middlewares/Third_Party/SEGGER_RTT/SEGGER_RTT.c ****   //
 627:Middlewares/Third_Party/SEGGER_RTT/SEGGER_RTT.c ****   SEGGER_RTT_UNLOCK();
 699              		.loc 1 627 3 is_stmt 1 view .LVU217
 700              		.syntax unified
 701              	@ 627 "Middlewares/Third_Party/SEGGER_RTT/SEGGER_RTT.c" 1
 702 0016 84F31188 		msr   basepri, r4  
 703              		
 704              	@ 0 "" 2
 705              		.thumb
 706              		.syntax unified
 707              	.LBE2:
 708              		.loc 1 627 22 view .LVU218
 628:Middlewares/Third_Party/SEGGER_RTT/SEGGER_RTT.c ****   //
 629:Middlewares/Third_Party/SEGGER_RTT/SEGGER_RTT.c ****   return NumBytesRead;
ARM GAS  C:\Users\Brandon\AppData\Local\Temp\ccaGXwj6.s 			page 27


 709              		.loc 1 629 3 view .LVU219
 630:Middlewares/Third_Party/SEGGER_RTT/SEGGER_RTT.c **** }
 710              		.loc 1 630 1 is_stmt 0 view .LVU220
 711 001a 10BD     		pop	{r4, pc}
 712              		.loc 1 630 1 view .LVU221
 713              		.cfi_endproc
 714              	.LFE6:
 716              		.section	.text.SEGGER_RTT_WriteWithOverwriteNoLock,"ax",%progbits
 717              		.align	1
 718              		.global	SEGGER_RTT_WriteWithOverwriteNoLock
 719              		.syntax unified
 720              		.thumb
 721              		.thumb_func
 722              		.fpu fpv5-d16
 724              	SEGGER_RTT_WriteWithOverwriteNoLock:
 725              	.LVL73:
 726              	.LFB7:
 631:Middlewares/Third_Party/SEGGER_RTT/SEGGER_RTT.c **** 
 632:Middlewares/Third_Party/SEGGER_RTT/SEGGER_RTT.c **** /*********************************************************************
 633:Middlewares/Third_Party/SEGGER_RTT/SEGGER_RTT.c **** *
 634:Middlewares/Third_Party/SEGGER_RTT/SEGGER_RTT.c **** *       SEGGER_RTT_WriteWithOverwriteNoLock
 635:Middlewares/Third_Party/SEGGER_RTT/SEGGER_RTT.c **** *
 636:Middlewares/Third_Party/SEGGER_RTT/SEGGER_RTT.c **** *  Function description
 637:Middlewares/Third_Party/SEGGER_RTT/SEGGER_RTT.c **** *    Stores a specified number of characters in SEGGER RTT
 638:Middlewares/Third_Party/SEGGER_RTT/SEGGER_RTT.c **** *    control block.
 639:Middlewares/Third_Party/SEGGER_RTT/SEGGER_RTT.c **** *    SEGGER_RTT_WriteWithOverwriteNoLock does not lock the application 
 640:Middlewares/Third_Party/SEGGER_RTT/SEGGER_RTT.c **** *    and overwrites data if the data does not fit into the buffer.
 641:Middlewares/Third_Party/SEGGER_RTT/SEGGER_RTT.c **** *
 642:Middlewares/Third_Party/SEGGER_RTT/SEGGER_RTT.c **** *  Parameters
 643:Middlewares/Third_Party/SEGGER_RTT/SEGGER_RTT.c **** *    BufferIndex  Index of "Up"-buffer to be used (e.g. 0 for "Terminal").
 644:Middlewares/Third_Party/SEGGER_RTT/SEGGER_RTT.c **** *    pBuffer      Pointer to character array. Does not need to point to a \0 terminated string.
 645:Middlewares/Third_Party/SEGGER_RTT/SEGGER_RTT.c **** *    NumBytes     Number of bytes to be stored in the SEGGER RTT control block.
 646:Middlewares/Third_Party/SEGGER_RTT/SEGGER_RTT.c **** *
 647:Middlewares/Third_Party/SEGGER_RTT/SEGGER_RTT.c **** *  Notes
 648:Middlewares/Third_Party/SEGGER_RTT/SEGGER_RTT.c **** *    (1) If there is not enough space in the "Up"-buffer, data is overwritten.
 649:Middlewares/Third_Party/SEGGER_RTT/SEGGER_RTT.c **** *    (2) For performance reasons this function does not call Init()
 650:Middlewares/Third_Party/SEGGER_RTT/SEGGER_RTT.c **** *        and may only be called after RTT has been initialized.
 651:Middlewares/Third_Party/SEGGER_RTT/SEGGER_RTT.c **** *        Either by calling SEGGER_RTT_Init() or calling another RTT API function first.
 652:Middlewares/Third_Party/SEGGER_RTT/SEGGER_RTT.c **** *    (3) Do not use SEGGER_RTT_WriteWithOverwriteNoLock if a J-Link 
 653:Middlewares/Third_Party/SEGGER_RTT/SEGGER_RTT.c **** *        connection reads RTT data.
 654:Middlewares/Third_Party/SEGGER_RTT/SEGGER_RTT.c **** */
 655:Middlewares/Third_Party/SEGGER_RTT/SEGGER_RTT.c **** void SEGGER_RTT_WriteWithOverwriteNoLock(unsigned BufferIndex, const void* pBuffer, unsigned NumByt
 727              		.loc 1 655 104 is_stmt 1 view -0
 728              		.cfi_startproc
 729              		@ args = 0, pretend = 0, frame = 0
 730              		@ frame_needed = 0, uses_anonymous_args = 0
 731              		.loc 1 655 104 is_stmt 0 view .LVU223
 732 0000 2DE9F843 		push	{r3, r4, r5, r6, r7, r8, r9, lr}
 733              	.LCFI7:
 734              		.cfi_def_cfa_offset 32
 735              		.cfi_offset 3, -32
 736              		.cfi_offset 4, -28
 737              		.cfi_offset 5, -24
 738              		.cfi_offset 6, -20
 739              		.cfi_offset 7, -16
 740              		.cfi_offset 8, -12
 741              		.cfi_offset 9, -8
ARM GAS  C:\Users\Brandon\AppData\Local\Temp\ccaGXwj6.s 			page 28


 742              		.cfi_offset 14, -4
 743 0004 0646     		mov	r6, r0
 744 0006 8846     		mov	r8, r1
 745 0008 1746     		mov	r7, r2
 656:Middlewares/Third_Party/SEGGER_RTT/SEGGER_RTT.c ****   const char*           pData;
 746              		.loc 1 656 3 is_stmt 1 view .LVU224
 657:Middlewares/Third_Party/SEGGER_RTT/SEGGER_RTT.c ****   SEGGER_RTT_BUFFER_UP* pRing;
 747              		.loc 1 657 3 view .LVU225
 658:Middlewares/Third_Party/SEGGER_RTT/SEGGER_RTT.c ****   unsigned              Avail;
 748              		.loc 1 658 3 view .LVU226
 659:Middlewares/Third_Party/SEGGER_RTT/SEGGER_RTT.c **** #if SEGGER_RTT_MEMCPY_USE_BYTELOOP
 660:Middlewares/Third_Party/SEGGER_RTT/SEGGER_RTT.c ****   char*                 pDst;
 661:Middlewares/Third_Party/SEGGER_RTT/SEGGER_RTT.c **** #endif
 662:Middlewares/Third_Party/SEGGER_RTT/SEGGER_RTT.c **** 
 663:Middlewares/Third_Party/SEGGER_RTT/SEGGER_RTT.c ****   pData = (const char *)pBuffer;
 749              		.loc 1 663 3 view .LVU227
 750              	.LVL74:
 664:Middlewares/Third_Party/SEGGER_RTT/SEGGER_RTT.c ****   //
 665:Middlewares/Third_Party/SEGGER_RTT/SEGGER_RTT.c ****   // Get "to-host" ring buffer and copy some elements into local variables.
 666:Middlewares/Third_Party/SEGGER_RTT/SEGGER_RTT.c ****   //
 667:Middlewares/Third_Party/SEGGER_RTT/SEGGER_RTT.c ****   pRing = &_SEGGER_RTT.aUp[BufferIndex];
 751              		.loc 1 667 3 view .LVU228
 668:Middlewares/Third_Party/SEGGER_RTT/SEGGER_RTT.c ****   //
 669:Middlewares/Third_Party/SEGGER_RTT/SEGGER_RTT.c ****   // Check if we will overwrite data and need to adjust the RdOff.
 670:Middlewares/Third_Party/SEGGER_RTT/SEGGER_RTT.c ****   //
 671:Middlewares/Third_Party/SEGGER_RTT/SEGGER_RTT.c ****   if (pRing->WrOff == pRing->RdOff) {
 752              		.loc 1 671 3 view .LVU229
 753              		.loc 1 671 12 is_stmt 0 view .LVU230
 754 000a 00EB4002 		add	r2, r0, r0, lsl #1
 755              	.LVL75:
 756              		.loc 1 671 12 view .LVU231
 757 000e 3F4B     		ldr	r3, .L53
 758 0010 03EBC203 		add	r3, r3, r2, lsl #3
 759 0014 596A     		ldr	r1, [r3, #36]
 760              	.LVL76:
 761              		.loc 1 671 28 view .LVU232
 762 0016 9B6A     		ldr	r3, [r3, #40]
 763              		.loc 1 671 6 view .LVU233
 764 0018 9942     		cmp	r1, r3
 765 001a 0FD0     		beq	.L51
 672:Middlewares/Third_Party/SEGGER_RTT/SEGGER_RTT.c ****     Avail = pRing->SizeOfBuffer - 1u;
 673:Middlewares/Third_Party/SEGGER_RTT/SEGGER_RTT.c ****   } else if ( pRing->WrOff < pRing->RdOff) {
 766              		.loc 1 673 10 is_stmt 1 view .LVU234
 767              		.loc 1 673 35 is_stmt 0 view .LVU235
 768 001c 00EB4003 		add	r3, r0, r0, lsl #1
 769 0020 3A4A     		ldr	r2, .L53
 770 0022 02EBC303 		add	r3, r2, r3, lsl #3
 771 0026 9B6A     		ldr	r3, [r3, #40]
 772              		.loc 1 673 13 view .LVU236
 773 0028 9942     		cmp	r1, r3
 774 002a 19D2     		bcs	.L43
 674:Middlewares/Third_Party/SEGGER_RTT/SEGGER_RTT.c ****     Avail = pRing->RdOff - pRing->WrOff - 1u;
 775              		.loc 1 674 5 is_stmt 1 view .LVU237
 776              		.loc 1 674 18 is_stmt 0 view .LVU238
 777 002c 00EB4003 		add	r3, r0, r0, lsl #1
 778 0030 02EBC303 		add	r3, r2, r3, lsl #3
 779 0034 9B6A     		ldr	r3, [r3, #40]
ARM GAS  C:\Users\Brandon\AppData\Local\Temp\ccaGXwj6.s 			page 29


 780              		.loc 1 674 26 view .LVU239
 781 0036 5B1A     		subs	r3, r3, r1
 782              		.loc 1 674 11 view .LVU240
 783 0038 013B     		subs	r3, r3, #1
 784              	.LVL77:
 785              		.loc 1 674 11 view .LVU241
 786 003a 05E0     		b	.L42
 787              	.LVL78:
 788              	.L51:
 672:Middlewares/Third_Party/SEGGER_RTT/SEGGER_RTT.c ****     Avail = pRing->SizeOfBuffer - 1u;
 789              		.loc 1 672 5 is_stmt 1 view .LVU242
 672:Middlewares/Third_Party/SEGGER_RTT/SEGGER_RTT.c ****     Avail = pRing->SizeOfBuffer - 1u;
 790              		.loc 1 672 18 is_stmt 0 view .LVU243
 791 003c 1346     		mov	r3, r2
 792 003e 334A     		ldr	r2, .L53
 793 0040 02EBC303 		add	r3, r2, r3, lsl #3
 794 0044 1B6A     		ldr	r3, [r3, #32]
 672:Middlewares/Third_Party/SEGGER_RTT/SEGGER_RTT.c ****     Avail = pRing->SizeOfBuffer - 1u;
 795              		.loc 1 672 11 view .LVU244
 796 0046 013B     		subs	r3, r3, #1
 797              	.LVL79:
 798              	.L42:
 675:Middlewares/Third_Party/SEGGER_RTT/SEGGER_RTT.c ****   } else {
 676:Middlewares/Third_Party/SEGGER_RTT/SEGGER_RTT.c ****     Avail = pRing->RdOff - pRing->WrOff - 1u + pRing->SizeOfBuffer;
 677:Middlewares/Third_Party/SEGGER_RTT/SEGGER_RTT.c ****   }
 678:Middlewares/Third_Party/SEGGER_RTT/SEGGER_RTT.c ****   if (NumBytes > Avail) {
 799              		.loc 1 678 3 is_stmt 1 view .LVU245
 800              		.loc 1 678 6 is_stmt 0 view .LVU246
 801 0048 BB42     		cmp	r3, r7
 802 004a 25D2     		bcs	.L44
 679:Middlewares/Third_Party/SEGGER_RTT/SEGGER_RTT.c ****     pRing->RdOff += (NumBytes - Avail);
 803              		.loc 1 679 5 is_stmt 1 view .LVU247
 804              		.loc 1 679 18 is_stmt 0 view .LVU248
 805 004c 06EB4602 		add	r2, r6, r6, lsl #1
 806 0050 2E48     		ldr	r0, .L53
 807              	.LVL80:
 808              		.loc 1 679 18 view .LVU249
 809 0052 00EBC202 		add	r2, r0, r2, lsl #3
 810 0056 906A     		ldr	r0, [r2, #40]
 811              		.loc 1 679 31 view .LVU250
 812 0058 FB1A     		subs	r3, r7, r3
 813              	.LVL81:
 814              		.loc 1 679 18 view .LVU251
 815 005a 0344     		add	r3, r3, r0
 816 005c 9362     		str	r3, [r2, #40]
 680:Middlewares/Third_Party/SEGGER_RTT/SEGGER_RTT.c ****     while (pRing->RdOff >= pRing->SizeOfBuffer) {
 817              		.loc 1 680 5 is_stmt 1 view .LVU252
 818              		.loc 1 680 11 is_stmt 0 view .LVU253
 819 005e 12E0     		b	.L45
 820              	.LVL82:
 821              	.L43:
 676:Middlewares/Third_Party/SEGGER_RTT/SEGGER_RTT.c ****   }
 822              		.loc 1 676 5 is_stmt 1 view .LVU254
 676:Middlewares/Third_Party/SEGGER_RTT/SEGGER_RTT.c ****   }
 823              		.loc 1 676 18 is_stmt 0 view .LVU255
 824 0060 00EB4002 		add	r2, r0, r0, lsl #1
 825 0064 294B     		ldr	r3, .L53
ARM GAS  C:\Users\Brandon\AppData\Local\Temp\ccaGXwj6.s 			page 30


 826 0066 03EBC202 		add	r2, r3, r2, lsl #3
 827 006a 936A     		ldr	r3, [r2, #40]
 676:Middlewares/Third_Party/SEGGER_RTT/SEGGER_RTT.c ****   }
 828              		.loc 1 676 26 view .LVU256
 829 006c 5B1A     		subs	r3, r3, r1
 676:Middlewares/Third_Party/SEGGER_RTT/SEGGER_RTT.c ****   }
 830              		.loc 1 676 53 view .LVU257
 831 006e 126A     		ldr	r2, [r2, #32]
 676:Middlewares/Third_Party/SEGGER_RTT/SEGGER_RTT.c ****   }
 832              		.loc 1 676 46 view .LVU258
 833 0070 1344     		add	r3, r3, r2
 676:Middlewares/Third_Party/SEGGER_RTT/SEGGER_RTT.c ****   }
 834              		.loc 1 676 11 view .LVU259
 835 0072 013B     		subs	r3, r3, #1
 836              	.LVL83:
 676:Middlewares/Third_Party/SEGGER_RTT/SEGGER_RTT.c ****   }
 837              		.loc 1 676 11 view .LVU260
 838 0074 E8E7     		b	.L42
 839              	.LVL84:
 840              	.L46:
 681:Middlewares/Third_Party/SEGGER_RTT/SEGGER_RTT.c ****       pRing->RdOff -= pRing->SizeOfBuffer;
 841              		.loc 1 681 7 is_stmt 1 view .LVU261
 842              		.loc 1 681 20 is_stmt 0 view .LVU262
 843 0076 06EB4603 		add	r3, r6, r6, lsl #1
 844 007a 244A     		ldr	r2, .L53
 845 007c 02EBC303 		add	r3, r2, r3, lsl #3
 846 0080 9A6A     		ldr	r2, [r3, #40]
 847 0082 121A     		subs	r2, r2, r0
 848 0084 9A62     		str	r2, [r3, #40]
 849              	.L45:
 680:Middlewares/Third_Party/SEGGER_RTT/SEGGER_RTT.c ****     while (pRing->RdOff >= pRing->SizeOfBuffer) {
 850              		.loc 1 680 11 is_stmt 1 view .LVU263
 680:Middlewares/Third_Party/SEGGER_RTT/SEGGER_RTT.c ****     while (pRing->RdOff >= pRing->SizeOfBuffer) {
 851              		.loc 1 680 17 is_stmt 0 view .LVU264
 852 0086 06EB4603 		add	r3, r6, r6, lsl #1
 853 008a 204A     		ldr	r2, .L53
 854 008c 02EBC303 		add	r3, r2, r3, lsl #3
 855 0090 9A6A     		ldr	r2, [r3, #40]
 680:Middlewares/Third_Party/SEGGER_RTT/SEGGER_RTT.c ****     while (pRing->RdOff >= pRing->SizeOfBuffer) {
 856              		.loc 1 680 33 view .LVU265
 857 0092 186A     		ldr	r0, [r3, #32]
 680:Middlewares/Third_Party/SEGGER_RTT/SEGGER_RTT.c ****     while (pRing->RdOff >= pRing->SizeOfBuffer) {
 858              		.loc 1 680 11 view .LVU266
 859 0094 8242     		cmp	r2, r0
 860 0096 EED2     		bcs	.L46
 861              	.L44:
 682:Middlewares/Third_Party/SEGGER_RTT/SEGGER_RTT.c ****     }
 683:Middlewares/Third_Party/SEGGER_RTT/SEGGER_RTT.c ****   }
 684:Middlewares/Third_Party/SEGGER_RTT/SEGGER_RTT.c ****   //
 685:Middlewares/Third_Party/SEGGER_RTT/SEGGER_RTT.c ****   // Write all data, no need to check the RdOff, but possibly handle multiple wrap-arounds
 686:Middlewares/Third_Party/SEGGER_RTT/SEGGER_RTT.c ****   //
 687:Middlewares/Third_Party/SEGGER_RTT/SEGGER_RTT.c ****   Avail = pRing->SizeOfBuffer - pRing->WrOff;
 862              		.loc 1 687 3 is_stmt 1 view .LVU267
 863              		.loc 1 687 16 is_stmt 0 view .LVU268
 864 0098 06EB4603 		add	r3, r6, r6, lsl #1
 865 009c 1B4A     		ldr	r2, .L53
 866 009e 02EBC303 		add	r3, r2, r3, lsl #3
ARM GAS  C:\Users\Brandon\AppData\Local\Temp\ccaGXwj6.s 			page 31


 867 00a2 1C6A     		ldr	r4, [r3, #32]
 868              		.loc 1 687 9 view .LVU269
 869 00a4 641A     		subs	r4, r4, r1
 870              	.LVL85:
 871              	.L49:
 688:Middlewares/Third_Party/SEGGER_RTT/SEGGER_RTT.c ****   do {
 872              		.loc 1 688 3 is_stmt 1 view .LVU270
 689:Middlewares/Third_Party/SEGGER_RTT/SEGGER_RTT.c ****     if (Avail > NumBytes) {
 873              		.loc 1 689 5 view .LVU271
 874              		.loc 1 689 8 is_stmt 0 view .LVU272
 875 00a6 A742     		cmp	r7, r4
 876 00a8 19D3     		bcc	.L52
 690:Middlewares/Third_Party/SEGGER_RTT/SEGGER_RTT.c ****       //
 691:Middlewares/Third_Party/SEGGER_RTT/SEGGER_RTT.c ****       // Last round
 692:Middlewares/Third_Party/SEGGER_RTT/SEGGER_RTT.c ****       //
 693:Middlewares/Third_Party/SEGGER_RTT/SEGGER_RTT.c **** #if SEGGER_RTT_MEMCPY_USE_BYTELOOP
 694:Middlewares/Third_Party/SEGGER_RTT/SEGGER_RTT.c ****       pDst = pRing->pBuffer + pRing->WrOff;
 695:Middlewares/Third_Party/SEGGER_RTT/SEGGER_RTT.c ****       Avail = NumBytes;
 696:Middlewares/Third_Party/SEGGER_RTT/SEGGER_RTT.c ****       while (NumBytes--) {
 697:Middlewares/Third_Party/SEGGER_RTT/SEGGER_RTT.c ****         *pDst++ = *pData++;
 698:Middlewares/Third_Party/SEGGER_RTT/SEGGER_RTT.c ****       };
 699:Middlewares/Third_Party/SEGGER_RTT/SEGGER_RTT.c ****       pRing->WrOff += Avail;
 700:Middlewares/Third_Party/SEGGER_RTT/SEGGER_RTT.c **** #else
 701:Middlewares/Third_Party/SEGGER_RTT/SEGGER_RTT.c ****       SEGGER_RTT_MEMCPY(pRing->pBuffer + pRing->WrOff, pData, NumBytes);
 702:Middlewares/Third_Party/SEGGER_RTT/SEGGER_RTT.c ****       pRing->WrOff += NumBytes;
 703:Middlewares/Third_Party/SEGGER_RTT/SEGGER_RTT.c **** #endif
 704:Middlewares/Third_Party/SEGGER_RTT/SEGGER_RTT.c ****       break;
 705:Middlewares/Third_Party/SEGGER_RTT/SEGGER_RTT.c ****     } else {
 706:Middlewares/Third_Party/SEGGER_RTT/SEGGER_RTT.c ****       //
 707:Middlewares/Third_Party/SEGGER_RTT/SEGGER_RTT.c ****       //  Wrap-around necessary, write until wrap-around and reset WrOff
 708:Middlewares/Third_Party/SEGGER_RTT/SEGGER_RTT.c ****       //
 709:Middlewares/Third_Party/SEGGER_RTT/SEGGER_RTT.c **** #if SEGGER_RTT_MEMCPY_USE_BYTELOOP
 710:Middlewares/Third_Party/SEGGER_RTT/SEGGER_RTT.c ****       pDst = pRing->pBuffer + pRing->WrOff;
 711:Middlewares/Third_Party/SEGGER_RTT/SEGGER_RTT.c ****       NumBytes -= Avail;
 712:Middlewares/Third_Party/SEGGER_RTT/SEGGER_RTT.c ****       while (Avail--) {
 713:Middlewares/Third_Party/SEGGER_RTT/SEGGER_RTT.c ****         *pDst++ = *pData++;
 714:Middlewares/Third_Party/SEGGER_RTT/SEGGER_RTT.c ****       };
 715:Middlewares/Third_Party/SEGGER_RTT/SEGGER_RTT.c ****       pRing->WrOff = 0;
 716:Middlewares/Third_Party/SEGGER_RTT/SEGGER_RTT.c **** #else
 717:Middlewares/Third_Party/SEGGER_RTT/SEGGER_RTT.c ****       SEGGER_RTT_MEMCPY(pRing->pBuffer + pRing->WrOff, pData, Avail);
 877              		.loc 1 717 7 is_stmt 1 view .LVU273
 878 00aa 184D     		ldr	r5, .L53
 879 00ac 731C     		adds	r3, r6, #1
 880 00ae 03EB4303 		add	r3, r3, r3, lsl #1
 881 00b2 05EBC303 		add	r3, r5, r3, lsl #3
 882 00b6 5868     		ldr	r0, [r3, #4]
 883 00b8 06EB4603 		add	r3, r6, r6, lsl #1
 884 00bc 05EBC305 		add	r5, r5, r3, lsl #3
 885 00c0 6B6A     		ldr	r3, [r5, #36]
 886 00c2 2246     		mov	r2, r4
 887 00c4 4146     		mov	r1, r8
 888 00c6 1844     		add	r0, r0, r3
 889 00c8 FFF7FEFF 		bl	memcpy
 890              	.LVL86:
 718:Middlewares/Third_Party/SEGGER_RTT/SEGGER_RTT.c ****       pData += Avail;
 891              		.loc 1 718 7 view .LVU274
 892              		.loc 1 718 13 is_stmt 0 view .LVU275
ARM GAS  C:\Users\Brandon\AppData\Local\Temp\ccaGXwj6.s 			page 32


 893 00cc A044     		add	r8, r8, r4
 894              	.LVL87:
 719:Middlewares/Third_Party/SEGGER_RTT/SEGGER_RTT.c ****       pRing->WrOff = 0;
 895              		.loc 1 719 7 is_stmt 1 view .LVU276
 896              		.loc 1 719 20 is_stmt 0 view .LVU277
 897 00ce 0023     		movs	r3, #0
 898 00d0 6B62     		str	r3, [r5, #36]
 720:Middlewares/Third_Party/SEGGER_RTT/SEGGER_RTT.c ****       NumBytes -= Avail;
 899              		.loc 1 720 7 is_stmt 1 view .LVU278
 900              		.loc 1 720 16 is_stmt 0 view .LVU279
 901 00d2 3F1B     		subs	r7, r7, r4
 902              	.LVL88:
 721:Middlewares/Third_Party/SEGGER_RTT/SEGGER_RTT.c **** #endif
 722:Middlewares/Third_Party/SEGGER_RTT/SEGGER_RTT.c ****       Avail = (pRing->SizeOfBuffer - 1);
 903              		.loc 1 722 7 is_stmt 1 view .LVU280
 904              		.loc 1 722 21 is_stmt 0 view .LVU281
 905 00d4 2C6A     		ldr	r4, [r5, #32]
 906              	.LVL89:
 907              		.loc 1 722 13 view .LVU282
 908 00d6 013C     		subs	r4, r4, #1
 909              	.LVL90:
 723:Middlewares/Third_Party/SEGGER_RTT/SEGGER_RTT.c ****     }
 724:Middlewares/Third_Party/SEGGER_RTT/SEGGER_RTT.c ****   } while (NumBytes);
 910              		.loc 1 724 11 is_stmt 1 view .LVU283
 911              		.loc 1 724 3 is_stmt 0 view .LVU284
 912 00d8 002F     		cmp	r7, #0
 913 00da E4D1     		bne	.L49
 914 00dc 13E0     		b	.L40
 915              	.L52:
 701:Middlewares/Third_Party/SEGGER_RTT/SEGGER_RTT.c ****       pRing->WrOff += NumBytes;
 916              		.loc 1 701 7 is_stmt 1 view .LVU285
 917 00de 0B4C     		ldr	r4, .L53
 918              	.LVL91:
 701:Middlewares/Third_Party/SEGGER_RTT/SEGGER_RTT.c ****       pRing->WrOff += NumBytes;
 919              		.loc 1 701 7 is_stmt 0 view .LVU286
 920 00e0 731C     		adds	r3, r6, #1
 921 00e2 03EB4303 		add	r3, r3, r3, lsl #1
 922 00e6 04EBC303 		add	r3, r4, r3, lsl #3
 923 00ea 5868     		ldr	r0, [r3, #4]
 924 00ec 06EB4605 		add	r5, r6, r6, lsl #1
 925 00f0 04EBC505 		add	r5, r4, r5, lsl #3
 926 00f4 6B6A     		ldr	r3, [r5, #36]
 927 00f6 3A46     		mov	r2, r7
 928 00f8 4146     		mov	r1, r8
 929 00fa 1844     		add	r0, r0, r3
 930 00fc FFF7FEFF 		bl	memcpy
 931              	.LVL92:
 702:Middlewares/Third_Party/SEGGER_RTT/SEGGER_RTT.c **** #endif
 932              		.loc 1 702 7 is_stmt 1 view .LVU287
 702:Middlewares/Third_Party/SEGGER_RTT/SEGGER_RTT.c **** #endif
 933              		.loc 1 702 20 is_stmt 0 view .LVU288
 934 0100 6B6A     		ldr	r3, [r5, #36]
 935 0102 1F44     		add	r7, r7, r3
 936              	.LVL93:
 702:Middlewares/Third_Party/SEGGER_RTT/SEGGER_RTT.c **** #endif
 937              		.loc 1 702 20 view .LVU289
 938 0104 6F62     		str	r7, [r5, #36]
ARM GAS  C:\Users\Brandon\AppData\Local\Temp\ccaGXwj6.s 			page 33


 704:Middlewares/Third_Party/SEGGER_RTT/SEGGER_RTT.c ****     } else {
 939              		.loc 1 704 7 is_stmt 1 view .LVU290
 940              	.L40:
 725:Middlewares/Third_Party/SEGGER_RTT/SEGGER_RTT.c **** }
 941              		.loc 1 725 1 is_stmt 0 view .LVU291
 942 0106 BDE8F883 		pop	{r3, r4, r5, r6, r7, r8, r9, pc}
 943              	.LVL94:
 944              	.L54:
 945              		.loc 1 725 1 view .LVU292
 946 010a 00BF     		.align	2
 947              	.L53:
 948 010c 00000000 		.word	_SEGGER_RTT
 949              		.cfi_endproc
 950              	.LFE7:
 952              		.section	.text.SEGGER_RTT_WriteSkipNoLock,"ax",%progbits
 953              		.align	1
 954              		.global	SEGGER_RTT_WriteSkipNoLock
 955              		.syntax unified
 956              		.thumb
 957              		.thumb_func
 958              		.fpu fpv5-d16
 960              	SEGGER_RTT_WriteSkipNoLock:
 961              	.LVL95:
 962              	.LFB8:
 726:Middlewares/Third_Party/SEGGER_RTT/SEGGER_RTT.c **** 
 727:Middlewares/Third_Party/SEGGER_RTT/SEGGER_RTT.c **** /*********************************************************************
 728:Middlewares/Third_Party/SEGGER_RTT/SEGGER_RTT.c **** *
 729:Middlewares/Third_Party/SEGGER_RTT/SEGGER_RTT.c **** *       SEGGER_RTT_WriteSkipNoLock
 730:Middlewares/Third_Party/SEGGER_RTT/SEGGER_RTT.c **** *
 731:Middlewares/Third_Party/SEGGER_RTT/SEGGER_RTT.c **** *  Function description
 732:Middlewares/Third_Party/SEGGER_RTT/SEGGER_RTT.c **** *    Stores a specified number of characters in SEGGER RTT
 733:Middlewares/Third_Party/SEGGER_RTT/SEGGER_RTT.c **** *    control block which is then read by the host.
 734:Middlewares/Third_Party/SEGGER_RTT/SEGGER_RTT.c **** *    SEGGER_RTT_WriteSkipNoLock does not lock the application and
 735:Middlewares/Third_Party/SEGGER_RTT/SEGGER_RTT.c **** *    skips all data, if the data does not fit into the buffer.
 736:Middlewares/Third_Party/SEGGER_RTT/SEGGER_RTT.c **** *
 737:Middlewares/Third_Party/SEGGER_RTT/SEGGER_RTT.c **** *  Parameters
 738:Middlewares/Third_Party/SEGGER_RTT/SEGGER_RTT.c **** *    BufferIndex  Index of "Up"-buffer to be used (e.g. 0 for "Terminal").
 739:Middlewares/Third_Party/SEGGER_RTT/SEGGER_RTT.c **** *    pBuffer      Pointer to character array. Does not need to point to a \0 terminated string.
 740:Middlewares/Third_Party/SEGGER_RTT/SEGGER_RTT.c **** *    NumBytes     Number of bytes to be stored in the SEGGER RTT control block.
 741:Middlewares/Third_Party/SEGGER_RTT/SEGGER_RTT.c **** *
 742:Middlewares/Third_Party/SEGGER_RTT/SEGGER_RTT.c **** *  Return value
 743:Middlewares/Third_Party/SEGGER_RTT/SEGGER_RTT.c **** *    Number of bytes which have been stored in the "Up"-buffer.
 744:Middlewares/Third_Party/SEGGER_RTT/SEGGER_RTT.c **** *
 745:Middlewares/Third_Party/SEGGER_RTT/SEGGER_RTT.c **** *  Notes
 746:Middlewares/Third_Party/SEGGER_RTT/SEGGER_RTT.c **** *    (1) If there is not enough space in the "Up"-buffer, all data is dropped.
 747:Middlewares/Third_Party/SEGGER_RTT/SEGGER_RTT.c **** *    (2) For performance reasons this function does not call Init()
 748:Middlewares/Third_Party/SEGGER_RTT/SEGGER_RTT.c **** *        and may only be called after RTT has been initialized.
 749:Middlewares/Third_Party/SEGGER_RTT/SEGGER_RTT.c **** *        Either by calling SEGGER_RTT_Init() or calling another RTT API function first.
 750:Middlewares/Third_Party/SEGGER_RTT/SEGGER_RTT.c **** */
 751:Middlewares/Third_Party/SEGGER_RTT/SEGGER_RTT.c **** unsigned SEGGER_RTT_WriteSkipNoLock(unsigned BufferIndex, const void* pBuffer, unsigned NumBytes) {
 963              		.loc 1 751 99 is_stmt 1 view -0
 964              		.cfi_startproc
 965              		@ args = 0, pretend = 0, frame = 8
 966              		@ frame_needed = 0, uses_anonymous_args = 0
 967              		.loc 1 751 99 is_stmt 0 view .LVU294
 968 0000 2DE9F04F 		push	{r4, r5, r6, r7, r8, r9, r10, fp, lr}
 969              	.LCFI8:
ARM GAS  C:\Users\Brandon\AppData\Local\Temp\ccaGXwj6.s 			page 34


 970              		.cfi_def_cfa_offset 36
 971              		.cfi_offset 4, -36
 972              		.cfi_offset 5, -32
 973              		.cfi_offset 6, -28
 974              		.cfi_offset 7, -24
 975              		.cfi_offset 8, -20
 976              		.cfi_offset 9, -16
 977              		.cfi_offset 10, -12
 978              		.cfi_offset 11, -8
 979              		.cfi_offset 14, -4
 980 0004 83B0     		sub	sp, sp, #12
 981              	.LCFI9:
 982              		.cfi_def_cfa_offset 48
 983 0006 0446     		mov	r4, r0
 984 0008 0F46     		mov	r7, r1
 985 000a 1546     		mov	r5, r2
 752:Middlewares/Third_Party/SEGGER_RTT/SEGGER_RTT.c ****   const char*           pData;
 986              		.loc 1 752 3 is_stmt 1 view .LVU295
 753:Middlewares/Third_Party/SEGGER_RTT/SEGGER_RTT.c ****   SEGGER_RTT_BUFFER_UP* pRing;
 987              		.loc 1 753 3 view .LVU296
 754:Middlewares/Third_Party/SEGGER_RTT/SEGGER_RTT.c ****   unsigned              Avail;
 988              		.loc 1 754 3 view .LVU297
 755:Middlewares/Third_Party/SEGGER_RTT/SEGGER_RTT.c ****   unsigned              RdOff;
 989              		.loc 1 755 3 view .LVU298
 756:Middlewares/Third_Party/SEGGER_RTT/SEGGER_RTT.c ****   unsigned              WrOff;
 990              		.loc 1 756 3 view .LVU299
 757:Middlewares/Third_Party/SEGGER_RTT/SEGGER_RTT.c ****   unsigned              Rem;
 991              		.loc 1 757 3 view .LVU300
 758:Middlewares/Third_Party/SEGGER_RTT/SEGGER_RTT.c **** #if SEGGER_RTT_MEMCPY_USE_BYTELOOP
 759:Middlewares/Third_Party/SEGGER_RTT/SEGGER_RTT.c ****   char*                 pDst;
 760:Middlewares/Third_Party/SEGGER_RTT/SEGGER_RTT.c **** #endif
 761:Middlewares/Third_Party/SEGGER_RTT/SEGGER_RTT.c **** 
 762:Middlewares/Third_Party/SEGGER_RTT/SEGGER_RTT.c ****   pData = (const char *)pBuffer;
 992              		.loc 1 762 3 view .LVU301
 993              	.LVL96:
 763:Middlewares/Third_Party/SEGGER_RTT/SEGGER_RTT.c ****   //
 764:Middlewares/Third_Party/SEGGER_RTT/SEGGER_RTT.c ****   // Get "to-host" ring buffer and copy some elements into local variables.
 765:Middlewares/Third_Party/SEGGER_RTT/SEGGER_RTT.c ****   //
 766:Middlewares/Third_Party/SEGGER_RTT/SEGGER_RTT.c ****   pRing = &_SEGGER_RTT.aUp[BufferIndex];
 994              		.loc 1 766 3 view .LVU302
 767:Middlewares/Third_Party/SEGGER_RTT/SEGGER_RTT.c ****   RdOff = pRing->RdOff;
 995              		.loc 1 767 3 view .LVU303
 996              		.loc 1 767 9 is_stmt 0 view .LVU304
 997 000c 00EB4003 		add	r3, r0, r0, lsl #1
 998 0010 434A     		ldr	r2, .L67
 999              	.LVL97:
 1000              		.loc 1 767 9 view .LVU305
 1001 0012 02EBC302 		add	r2, r2, r3, lsl #3
 1002 0016 936A     		ldr	r3, [r2, #40]
 1003              	.LVL98:
 768:Middlewares/Third_Party/SEGGER_RTT/SEGGER_RTT.c ****   WrOff = pRing->WrOff;
 1004              		.loc 1 768 3 is_stmt 1 view .LVU306
 1005              		.loc 1 768 9 is_stmt 0 view .LVU307
 1006 0018 566A     		ldr	r6, [r2, #36]
 1007              	.LVL99:
 769:Middlewares/Third_Party/SEGGER_RTT/SEGGER_RTT.c ****   //
 770:Middlewares/Third_Party/SEGGER_RTT/SEGGER_RTT.c ****   // Handle the most common cases fastest.
ARM GAS  C:\Users\Brandon\AppData\Local\Temp\ccaGXwj6.s 			page 35


 771:Middlewares/Third_Party/SEGGER_RTT/SEGGER_RTT.c ****   // Which is:
 772:Middlewares/Third_Party/SEGGER_RTT/SEGGER_RTT.c ****   //    RdOff <= WrOff -> Space until wrap around is free.
 773:Middlewares/Third_Party/SEGGER_RTT/SEGGER_RTT.c ****   //  AND
 774:Middlewares/Third_Party/SEGGER_RTT/SEGGER_RTT.c ****   //    WrOff + NumBytes < SizeOfBuffer -> No Wrap around necessary.
 775:Middlewares/Third_Party/SEGGER_RTT/SEGGER_RTT.c ****   //
 776:Middlewares/Third_Party/SEGGER_RTT/SEGGER_RTT.c ****   //  OR
 777:Middlewares/Third_Party/SEGGER_RTT/SEGGER_RTT.c ****   //
 778:Middlewares/Third_Party/SEGGER_RTT/SEGGER_RTT.c ****   //    RdOff > WrOff -> Space until RdOff - 1 is free.
 779:Middlewares/Third_Party/SEGGER_RTT/SEGGER_RTT.c ****   //  AND
 780:Middlewares/Third_Party/SEGGER_RTT/SEGGER_RTT.c ****   //    WrOff + NumBytes < RdOff -> Data fits into buffer
 781:Middlewares/Third_Party/SEGGER_RTT/SEGGER_RTT.c ****   //
 782:Middlewares/Third_Party/SEGGER_RTT/SEGGER_RTT.c ****   if (RdOff <= WrOff) {
 1008              		.loc 1 782 3 is_stmt 1 view .LVU308
 1009              		.loc 1 782 6 is_stmt 0 view .LVU309
 1010 001a B342     		cmp	r3, r6
 1011 001c 64D8     		bhi	.L56
 783:Middlewares/Third_Party/SEGGER_RTT/SEGGER_RTT.c ****     //
 784:Middlewares/Third_Party/SEGGER_RTT/SEGGER_RTT.c ****     // Get space until WrOff will be at wrap around.
 785:Middlewares/Third_Party/SEGGER_RTT/SEGGER_RTT.c ****     //
 786:Middlewares/Third_Party/SEGGER_RTT/SEGGER_RTT.c ****     Avail = pRing->SizeOfBuffer - 1u - WrOff ;
 1012              		.loc 1 786 5 is_stmt 1 view .LVU310
 1013              		.loc 1 786 18 is_stmt 0 view .LVU311
 1014 001e 00EB4002 		add	r2, r0, r0, lsl #1
 1015 0022 3F49     		ldr	r1, .L67
 1016              	.LVL100:
 1017              		.loc 1 786 18 view .LVU312
 1018 0024 01EBC202 		add	r2, r1, r2, lsl #3
 1019 0028 D2F82080 		ldr	r8, [r2, #32]
 1020              		.loc 1 786 38 view .LVU313
 1021 002c A8EB0609 		sub	r9, r8, r6
 1022              		.loc 1 786 11 view .LVU314
 1023 0030 09F1FF32 		add	r2, r9, #-1
 1024              	.LVL101:
 787:Middlewares/Third_Party/SEGGER_RTT/SEGGER_RTT.c ****     if (Avail >= NumBytes) {
 1025              		.loc 1 787 5 is_stmt 1 view .LVU315
 1026              		.loc 1 787 8 is_stmt 0 view .LVU316
 1027 0034 9542     		cmp	r5, r2
 1028 0036 04D9     		bls	.L64
 788:Middlewares/Third_Party/SEGGER_RTT/SEGGER_RTT.c **** #if SEGGER_RTT_MEMCPY_USE_BYTELOOP
 789:Middlewares/Third_Party/SEGGER_RTT/SEGGER_RTT.c ****       pDst = pRing->pBuffer + WrOff;
 790:Middlewares/Third_Party/SEGGER_RTT/SEGGER_RTT.c ****       WrOff += NumBytes;
 791:Middlewares/Third_Party/SEGGER_RTT/SEGGER_RTT.c ****       while (NumBytes--) {
 792:Middlewares/Third_Party/SEGGER_RTT/SEGGER_RTT.c ****         *pDst++ = *pData++;
 793:Middlewares/Third_Party/SEGGER_RTT/SEGGER_RTT.c ****       };
 794:Middlewares/Third_Party/SEGGER_RTT/SEGGER_RTT.c ****       pRing->WrOff = WrOff;
 795:Middlewares/Third_Party/SEGGER_RTT/SEGGER_RTT.c **** #else
 796:Middlewares/Third_Party/SEGGER_RTT/SEGGER_RTT.c ****       SEGGER_RTT_MEMCPY(pRing->pBuffer + WrOff, pData, NumBytes);
 797:Middlewares/Third_Party/SEGGER_RTT/SEGGER_RTT.c ****       pRing->WrOff = WrOff + NumBytes;
 798:Middlewares/Third_Party/SEGGER_RTT/SEGGER_RTT.c **** #endif
 799:Middlewares/Third_Party/SEGGER_RTT/SEGGER_RTT.c ****       return 1;
 800:Middlewares/Third_Party/SEGGER_RTT/SEGGER_RTT.c ****     }
 801:Middlewares/Third_Party/SEGGER_RTT/SEGGER_RTT.c ****     //
 802:Middlewares/Third_Party/SEGGER_RTT/SEGGER_RTT.c ****     // If data did not fit into space until wrap around calculate complete space in buffer.
 803:Middlewares/Third_Party/SEGGER_RTT/SEGGER_RTT.c ****     //
 804:Middlewares/Third_Party/SEGGER_RTT/SEGGER_RTT.c ****     Avail += RdOff;
 1029              		.loc 1 804 5 is_stmt 1 view .LVU317
 1030              		.loc 1 804 11 is_stmt 0 view .LVU318
ARM GAS  C:\Users\Brandon\AppData\Local\Temp\ccaGXwj6.s 			page 36


 1031 0038 1344     		add	r3, r3, r2
 1032              	.LVL102:
 805:Middlewares/Third_Party/SEGGER_RTT/SEGGER_RTT.c ****     //
 806:Middlewares/Third_Party/SEGGER_RTT/SEGGER_RTT.c ****     // If there is still no space for the whole of this output, don't bother.
 807:Middlewares/Third_Party/SEGGER_RTT/SEGGER_RTT.c ****     //
 808:Middlewares/Third_Party/SEGGER_RTT/SEGGER_RTT.c ****     if (Avail >= NumBytes) {
 1033              		.loc 1 808 5 is_stmt 1 view .LVU319
 1034              		.loc 1 808 8 is_stmt 0 view .LVU320
 1035 003a 9D42     		cmp	r5, r3
 1036 003c 16D9     		bls	.L65
 809:Middlewares/Third_Party/SEGGER_RTT/SEGGER_RTT.c ****       //
 810:Middlewares/Third_Party/SEGGER_RTT/SEGGER_RTT.c ****       //  OK, we have enough space in buffer. Copy in one or 2 chunks
 811:Middlewares/Third_Party/SEGGER_RTT/SEGGER_RTT.c ****       //
 812:Middlewares/Third_Party/SEGGER_RTT/SEGGER_RTT.c ****       Rem = pRing->SizeOfBuffer - WrOff;      // Space until end of buffer
 813:Middlewares/Third_Party/SEGGER_RTT/SEGGER_RTT.c ****       if (Rem > NumBytes) {
 814:Middlewares/Third_Party/SEGGER_RTT/SEGGER_RTT.c **** #if SEGGER_RTT_MEMCPY_USE_BYTELOOP
 815:Middlewares/Third_Party/SEGGER_RTT/SEGGER_RTT.c ****         pDst = pRing->pBuffer + WrOff;
 816:Middlewares/Third_Party/SEGGER_RTT/SEGGER_RTT.c ****         WrOff += NumBytes;
 817:Middlewares/Third_Party/SEGGER_RTT/SEGGER_RTT.c ****         while (NumBytes--) {
 818:Middlewares/Third_Party/SEGGER_RTT/SEGGER_RTT.c ****           *pDst++ = *pData++;
 819:Middlewares/Third_Party/SEGGER_RTT/SEGGER_RTT.c ****         };
 820:Middlewares/Third_Party/SEGGER_RTT/SEGGER_RTT.c ****         pRing->WrOff = WrOff;
 821:Middlewares/Third_Party/SEGGER_RTT/SEGGER_RTT.c **** #else
 822:Middlewares/Third_Party/SEGGER_RTT/SEGGER_RTT.c ****         SEGGER_RTT_MEMCPY(pRing->pBuffer + WrOff, pData, NumBytes);
 823:Middlewares/Third_Party/SEGGER_RTT/SEGGER_RTT.c ****         pRing->WrOff = WrOff + NumBytes;
 824:Middlewares/Third_Party/SEGGER_RTT/SEGGER_RTT.c **** #endif
 825:Middlewares/Third_Party/SEGGER_RTT/SEGGER_RTT.c ****       } else {
 826:Middlewares/Third_Party/SEGGER_RTT/SEGGER_RTT.c ****         //
 827:Middlewares/Third_Party/SEGGER_RTT/SEGGER_RTT.c ****         // We reach the end of the buffer, so need to wrap around
 828:Middlewares/Third_Party/SEGGER_RTT/SEGGER_RTT.c ****         //
 829:Middlewares/Third_Party/SEGGER_RTT/SEGGER_RTT.c **** #if SEGGER_RTT_MEMCPY_USE_BYTELOOP
 830:Middlewares/Third_Party/SEGGER_RTT/SEGGER_RTT.c ****         pDst = pRing->pBuffer + WrOff;
 831:Middlewares/Third_Party/SEGGER_RTT/SEGGER_RTT.c ****         NumBytes -= Rem;
 832:Middlewares/Third_Party/SEGGER_RTT/SEGGER_RTT.c ****         WrOff = NumBytes;
 833:Middlewares/Third_Party/SEGGER_RTT/SEGGER_RTT.c ****         do {
 834:Middlewares/Third_Party/SEGGER_RTT/SEGGER_RTT.c ****           *pDst++ = *pData++;
 835:Middlewares/Third_Party/SEGGER_RTT/SEGGER_RTT.c ****         } while (--Rem);
 836:Middlewares/Third_Party/SEGGER_RTT/SEGGER_RTT.c ****         pDst = pRing->pBuffer;
 837:Middlewares/Third_Party/SEGGER_RTT/SEGGER_RTT.c ****         do {
 838:Middlewares/Third_Party/SEGGER_RTT/SEGGER_RTT.c ****           *pDst++ = *pData++;
 839:Middlewares/Third_Party/SEGGER_RTT/SEGGER_RTT.c ****         } while (--NumBytes);
 840:Middlewares/Third_Party/SEGGER_RTT/SEGGER_RTT.c ****         pRing->WrOff = WrOff;
 841:Middlewares/Third_Party/SEGGER_RTT/SEGGER_RTT.c **** #else
 842:Middlewares/Third_Party/SEGGER_RTT/SEGGER_RTT.c ****         SEGGER_RTT_MEMCPY(pRing->pBuffer + WrOff, pData, Rem);
 843:Middlewares/Third_Party/SEGGER_RTT/SEGGER_RTT.c ****         SEGGER_RTT_MEMCPY(pRing->pBuffer, pData + Rem, NumBytes - Rem);
 844:Middlewares/Third_Party/SEGGER_RTT/SEGGER_RTT.c ****         pRing->WrOff = NumBytes - Rem;
 845:Middlewares/Third_Party/SEGGER_RTT/SEGGER_RTT.c **** #endif
 846:Middlewares/Third_Party/SEGGER_RTT/SEGGER_RTT.c ****       }
 847:Middlewares/Third_Party/SEGGER_RTT/SEGGER_RTT.c ****       return 1;
 848:Middlewares/Third_Party/SEGGER_RTT/SEGGER_RTT.c ****     }
 849:Middlewares/Third_Party/SEGGER_RTT/SEGGER_RTT.c ****   } else {
 850:Middlewares/Third_Party/SEGGER_RTT/SEGGER_RTT.c ****     Avail = RdOff - WrOff - 1u;
 851:Middlewares/Third_Party/SEGGER_RTT/SEGGER_RTT.c ****     if (Avail >= NumBytes) {
 852:Middlewares/Third_Party/SEGGER_RTT/SEGGER_RTT.c **** #if SEGGER_RTT_MEMCPY_USE_BYTELOOP
 853:Middlewares/Third_Party/SEGGER_RTT/SEGGER_RTT.c ****       pDst = pRing->pBuffer + WrOff;
 854:Middlewares/Third_Party/SEGGER_RTT/SEGGER_RTT.c ****       WrOff += NumBytes;
 855:Middlewares/Third_Party/SEGGER_RTT/SEGGER_RTT.c ****       while (NumBytes--) {
ARM GAS  C:\Users\Brandon\AppData\Local\Temp\ccaGXwj6.s 			page 37


 856:Middlewares/Third_Party/SEGGER_RTT/SEGGER_RTT.c ****         *pDst++ = *pData++;
 857:Middlewares/Third_Party/SEGGER_RTT/SEGGER_RTT.c ****       };
 858:Middlewares/Third_Party/SEGGER_RTT/SEGGER_RTT.c ****       pRing->WrOff = WrOff;
 859:Middlewares/Third_Party/SEGGER_RTT/SEGGER_RTT.c **** #else
 860:Middlewares/Third_Party/SEGGER_RTT/SEGGER_RTT.c ****       SEGGER_RTT_MEMCPY(pRing->pBuffer + WrOff, pData, NumBytes);
 861:Middlewares/Third_Party/SEGGER_RTT/SEGGER_RTT.c ****       pRing->WrOff = WrOff + NumBytes;
 862:Middlewares/Third_Party/SEGGER_RTT/SEGGER_RTT.c **** #endif
 863:Middlewares/Third_Party/SEGGER_RTT/SEGGER_RTT.c ****       return 1;
 864:Middlewares/Third_Party/SEGGER_RTT/SEGGER_RTT.c ****     }
 865:Middlewares/Third_Party/SEGGER_RTT/SEGGER_RTT.c ****   }
 866:Middlewares/Third_Party/SEGGER_RTT/SEGGER_RTT.c ****   //
 867:Middlewares/Third_Party/SEGGER_RTT/SEGGER_RTT.c ****   // If we reach this point no data has been written
 868:Middlewares/Third_Party/SEGGER_RTT/SEGGER_RTT.c ****   //
 869:Middlewares/Third_Party/SEGGER_RTT/SEGGER_RTT.c ****   return 0;
 1037              		.loc 1 869 10 view .LVU321
 1038 003e 0020     		movs	r0, #0
 1039              	.LVL103:
 1040              		.loc 1 869 10 view .LVU322
 1041 0040 57E0     		b	.L55
 1042              	.LVL104:
 1043              	.L64:
 796:Middlewares/Third_Party/SEGGER_RTT/SEGGER_RTT.c ****       pRing->WrOff = WrOff + NumBytes;
 1044              		.loc 1 796 7 is_stmt 1 view .LVU323
 1045 0042 8846     		mov	r8, r1
 1046 0044 431C     		adds	r3, r0, #1
 1047              	.LVL105:
 796:Middlewares/Third_Party/SEGGER_RTT/SEGGER_RTT.c ****       pRing->WrOff = WrOff + NumBytes;
 1048              		.loc 1 796 7 is_stmt 0 view .LVU324
 1049 0046 03EB4303 		add	r3, r3, r3, lsl #1
 1050 004a 01EBC303 		add	r3, r1, r3, lsl #3
 1051 004e 5868     		ldr	r0, [r3, #4]
 1052              	.LVL106:
 796:Middlewares/Third_Party/SEGGER_RTT/SEGGER_RTT.c ****       pRing->WrOff = WrOff + NumBytes;
 1053              		.loc 1 796 7 view .LVU325
 1054 0050 2A46     		mov	r2, r5
 1055              	.LVL107:
 796:Middlewares/Third_Party/SEGGER_RTT/SEGGER_RTT.c ****       pRing->WrOff = WrOff + NumBytes;
 1056              		.loc 1 796 7 view .LVU326
 1057 0052 3946     		mov	r1, r7
 1058 0054 3044     		add	r0, r0, r6
 1059 0056 FFF7FEFF 		bl	memcpy
 1060              	.LVL108:
 797:Middlewares/Third_Party/SEGGER_RTT/SEGGER_RTT.c **** #endif
 1061              		.loc 1 797 7 is_stmt 1 view .LVU327
 797:Middlewares/Third_Party/SEGGER_RTT/SEGGER_RTT.c **** #endif
 1062              		.loc 1 797 28 is_stmt 0 view .LVU328
 1063 005a 3544     		add	r5, r5, r6
 1064              	.LVL109:
 797:Middlewares/Third_Party/SEGGER_RTT/SEGGER_RTT.c **** #endif
 1065              		.loc 1 797 20 view .LVU329
 1066 005c 04EB4404 		add	r4, r4, r4, lsl #1
 1067              	.LVL110:
 797:Middlewares/Third_Party/SEGGER_RTT/SEGGER_RTT.c **** #endif
 1068              		.loc 1 797 20 view .LVU330
 1069 0060 08EBC408 		add	r8, r8, r4, lsl #3
 1070 0064 C8F82450 		str	r5, [r8, #36]
 799:Middlewares/Third_Party/SEGGER_RTT/SEGGER_RTT.c ****     }
ARM GAS  C:\Users\Brandon\AppData\Local\Temp\ccaGXwj6.s 			page 38


 1071              		.loc 1 799 7 is_stmt 1 view .LVU331
 799:Middlewares/Third_Party/SEGGER_RTT/SEGGER_RTT.c ****     }
 1072              		.loc 1 799 14 is_stmt 0 view .LVU332
 1073 0068 0120     		movs	r0, #1
 1074 006a 42E0     		b	.L55
 1075              	.LVL111:
 1076              	.L65:
 812:Middlewares/Third_Party/SEGGER_RTT/SEGGER_RTT.c ****       if (Rem > NumBytes) {
 1077              		.loc 1 812 7 is_stmt 1 view .LVU333
 813:Middlewares/Third_Party/SEGGER_RTT/SEGGER_RTT.c **** #if SEGGER_RTT_MEMCPY_USE_BYTELOOP
 1078              		.loc 1 813 7 view .LVU334
 813:Middlewares/Third_Party/SEGGER_RTT/SEGGER_RTT.c **** #if SEGGER_RTT_MEMCPY_USE_BYTELOOP
 1079              		.loc 1 813 10 is_stmt 0 view .LVU335
 1080 006c A945     		cmp	r9, r5
 1081 006e 15D9     		bls	.L59
 822:Middlewares/Third_Party/SEGGER_RTT/SEGGER_RTT.c ****         pRing->WrOff = WrOff + NumBytes;
 1082              		.loc 1 822 9 is_stmt 1 view .LVU336
 1083 0070 DFF8AC80 		ldr	r8, .L67
 1084 0074 431C     		adds	r3, r0, #1
 1085              	.LVL112:
 822:Middlewares/Third_Party/SEGGER_RTT/SEGGER_RTT.c ****         pRing->WrOff = WrOff + NumBytes;
 1086              		.loc 1 822 9 is_stmt 0 view .LVU337
 1087 0076 03EB4303 		add	r3, r3, r3, lsl #1
 1088 007a 08EBC303 		add	r3, r8, r3, lsl #3
 1089 007e 5868     		ldr	r0, [r3, #4]
 1090              	.LVL113:
 822:Middlewares/Third_Party/SEGGER_RTT/SEGGER_RTT.c ****         pRing->WrOff = WrOff + NumBytes;
 1091              		.loc 1 822 9 view .LVU338
 1092 0080 2A46     		mov	r2, r5
 1093 0082 3946     		mov	r1, r7
 1094 0084 3044     		add	r0, r0, r6
 1095 0086 FFF7FEFF 		bl	memcpy
 1096              	.LVL114:
 823:Middlewares/Third_Party/SEGGER_RTT/SEGGER_RTT.c **** #endif
 1097              		.loc 1 823 9 is_stmt 1 view .LVU339
 823:Middlewares/Third_Party/SEGGER_RTT/SEGGER_RTT.c **** #endif
 1098              		.loc 1 823 30 is_stmt 0 view .LVU340
 1099 008a 3544     		add	r5, r5, r6
 1100              	.LVL115:
 823:Middlewares/Third_Party/SEGGER_RTT/SEGGER_RTT.c **** #endif
 1101              		.loc 1 823 22 view .LVU341
 1102 008c 04EB4404 		add	r4, r4, r4, lsl #1
 1103              	.LVL116:
 823:Middlewares/Third_Party/SEGGER_RTT/SEGGER_RTT.c **** #endif
 1104              		.loc 1 823 22 view .LVU342
 1105 0090 08EBC408 		add	r8, r8, r4, lsl #3
 1106 0094 C8F82450 		str	r5, [r8, #36]
 1107              	.LVL117:
 1108              	.L60:
 847:Middlewares/Third_Party/SEGGER_RTT/SEGGER_RTT.c ****     }
 1109              		.loc 1 847 7 is_stmt 1 view .LVU343
 847:Middlewares/Third_Party/SEGGER_RTT/SEGGER_RTT.c ****     }
 1110              		.loc 1 847 14 is_stmt 0 view .LVU344
 1111 0098 0120     		movs	r0, #1
 1112 009a 2AE0     		b	.L55
 1113              	.LVL118:
 1114              	.L59:
ARM GAS  C:\Users\Brandon\AppData\Local\Temp\ccaGXwj6.s 			page 39


 842:Middlewares/Third_Party/SEGGER_RTT/SEGGER_RTT.c ****         SEGGER_RTT_MEMCPY(pRing->pBuffer, pData + Rem, NumBytes - Rem);
 1115              		.loc 1 842 9 is_stmt 1 view .LVU345
 1116 009c DFF880A0 		ldr	r10, .L67
 1117 00a0 00F1010B 		add	fp, r0, #1
 1118 00a4 4FEA4B03 		lsl	r3, fp, #1
 1119              	.LVL119:
 842:Middlewares/Third_Party/SEGGER_RTT/SEGGER_RTT.c ****         SEGGER_RTT_MEMCPY(pRing->pBuffer, pData + Rem, NumBytes - Rem);
 1120              		.loc 1 842 9 is_stmt 0 view .LVU346
 1121 00a8 0193     		str	r3, [sp, #4]
 1122 00aa 0BEB4B03 		add	r3, fp, fp, lsl #1
 1123 00ae 0AEBC303 		add	r3, r10, r3, lsl #3
 1124 00b2 5868     		ldr	r0, [r3, #4]
 1125              	.LVL120:
 842:Middlewares/Third_Party/SEGGER_RTT/SEGGER_RTT.c ****         SEGGER_RTT_MEMCPY(pRing->pBuffer, pData + Rem, NumBytes - Rem);
 1126              		.loc 1 842 9 view .LVU347
 1127 00b4 4A46     		mov	r2, r9
 1128 00b6 3946     		mov	r1, r7
 1129 00b8 3044     		add	r0, r0, r6
 1130 00ba FFF7FEFF 		bl	memcpy
 1131              	.LVL121:
 843:Middlewares/Third_Party/SEGGER_RTT/SEGGER_RTT.c ****         pRing->WrOff = NumBytes - Rem;
 1132              		.loc 1 843 9 is_stmt 1 view .LVU348
 1133 00be 019B     		ldr	r3, [sp, #4]
 1134 00c0 9B44     		add	fp, fp, r3
 1135 00c2 0AEBCB0B 		add	fp, r10, fp, lsl #3
 1136 00c6 A6EB0806 		sub	r6, r6, r8
 1137              	.LVL122:
 843:Middlewares/Third_Party/SEGGER_RTT/SEGGER_RTT.c ****         pRing->WrOff = NumBytes - Rem;
 1138              		.loc 1 843 9 is_stmt 0 view .LVU349
 1139 00ca 3544     		add	r5, r5, r6
 1140              	.LVL123:
 843:Middlewares/Third_Party/SEGGER_RTT/SEGGER_RTT.c ****         pRing->WrOff = NumBytes - Rem;
 1141              		.loc 1 843 9 view .LVU350
 1142 00cc 2A46     		mov	r2, r5
 1143 00ce 07EB0901 		add	r1, r7, r9
 1144 00d2 DBF80400 		ldr	r0, [fp, #4]
 1145 00d6 FFF7FEFF 		bl	memcpy
 1146              	.LVL124:
 844:Middlewares/Third_Party/SEGGER_RTT/SEGGER_RTT.c **** #endif
 1147              		.loc 1 844 9 is_stmt 1 view .LVU351
 844:Middlewares/Third_Party/SEGGER_RTT/SEGGER_RTT.c **** #endif
 1148              		.loc 1 844 22 is_stmt 0 view .LVU352
 1149 00da 04EB4404 		add	r4, r4, r4, lsl #1
 1150              	.LVL125:
 844:Middlewares/Third_Party/SEGGER_RTT/SEGGER_RTT.c **** #endif
 1151              		.loc 1 844 22 view .LVU353
 1152 00de 0AEBC40A 		add	r10, r10, r4, lsl #3
 1153 00e2 CAF82450 		str	r5, [r10, #36]
 1154 00e6 D7E7     		b	.L60
 1155              	.LVL126:
 1156              	.L56:
 850:Middlewares/Third_Party/SEGGER_RTT/SEGGER_RTT.c ****     if (Avail >= NumBytes) {
 1157              		.loc 1 850 5 is_stmt 1 view .LVU354
 850:Middlewares/Third_Party/SEGGER_RTT/SEGGER_RTT.c ****     if (Avail >= NumBytes) {
 1158              		.loc 1 850 19 is_stmt 0 view .LVU355
 1159 00e8 9B1B     		subs	r3, r3, r6
 1160              	.LVL127:
ARM GAS  C:\Users\Brandon\AppData\Local\Temp\ccaGXwj6.s 			page 40


 850:Middlewares/Third_Party/SEGGER_RTT/SEGGER_RTT.c ****     if (Avail >= NumBytes) {
 1161              		.loc 1 850 11 view .LVU356
 1162 00ea 013B     		subs	r3, r3, #1
 1163              	.LVL128:
 851:Middlewares/Third_Party/SEGGER_RTT/SEGGER_RTT.c **** #if SEGGER_RTT_MEMCPY_USE_BYTELOOP
 1164              		.loc 1 851 5 is_stmt 1 view .LVU357
 851:Middlewares/Third_Party/SEGGER_RTT/SEGGER_RTT.c **** #if SEGGER_RTT_MEMCPY_USE_BYTELOOP
 1165              		.loc 1 851 8 is_stmt 0 view .LVU358
 1166 00ec AB42     		cmp	r3, r5
 1167 00ee 03D2     		bcs	.L66
 1168              		.loc 1 869 10 view .LVU359
 1169 00f0 0020     		movs	r0, #0
 1170              	.LVL129:
 1171              	.L55:
 870:Middlewares/Third_Party/SEGGER_RTT/SEGGER_RTT.c **** }
 1172              		.loc 1 870 1 view .LVU360
 1173 00f2 03B0     		add	sp, sp, #12
 1174              	.LCFI10:
 1175              		.cfi_remember_state
 1176              		.cfi_def_cfa_offset 36
 1177              		@ sp needed
 1178 00f4 BDE8F08F 		pop	{r4, r5, r6, r7, r8, r9, r10, fp, pc}
 1179              	.LVL130:
 1180              	.L66:
 1181              	.LCFI11:
 1182              		.cfi_restore_state
 860:Middlewares/Third_Party/SEGGER_RTT/SEGGER_RTT.c ****       pRing->WrOff = WrOff + NumBytes;
 1183              		.loc 1 860 7 is_stmt 1 view .LVU361
 1184 00f8 DFF82480 		ldr	r8, .L67
 1185 00fc 431C     		adds	r3, r0, #1
 1186              	.LVL131:
 860:Middlewares/Third_Party/SEGGER_RTT/SEGGER_RTT.c ****       pRing->WrOff = WrOff + NumBytes;
 1187              		.loc 1 860 7 is_stmt 0 view .LVU362
 1188 00fe 03EB4303 		add	r3, r3, r3, lsl #1
 1189 0102 08EBC303 		add	r3, r8, r3, lsl #3
 1190 0106 5868     		ldr	r0, [r3, #4]
 1191              	.LVL132:
 860:Middlewares/Third_Party/SEGGER_RTT/SEGGER_RTT.c ****       pRing->WrOff = WrOff + NumBytes;
 1192              		.loc 1 860 7 view .LVU363
 1193 0108 2A46     		mov	r2, r5
 1194 010a 3044     		add	r0, r0, r6
 1195 010c FFF7FEFF 		bl	memcpy
 1196              	.LVL133:
 861:Middlewares/Third_Party/SEGGER_RTT/SEGGER_RTT.c **** #endif
 1197              		.loc 1 861 7 is_stmt 1 view .LVU364
 861:Middlewares/Third_Party/SEGGER_RTT/SEGGER_RTT.c **** #endif
 1198              		.loc 1 861 28 is_stmt 0 view .LVU365
 1199 0110 3544     		add	r5, r5, r6
 1200              	.LVL134:
 861:Middlewares/Third_Party/SEGGER_RTT/SEGGER_RTT.c **** #endif
 1201              		.loc 1 861 20 view .LVU366
 1202 0112 04EB4404 		add	r4, r4, r4, lsl #1
 1203              	.LVL135:
 861:Middlewares/Third_Party/SEGGER_RTT/SEGGER_RTT.c **** #endif
 1204              		.loc 1 861 20 view .LVU367
 1205 0116 08EBC404 		add	r4, r8, r4, lsl #3
 1206 011a 6562     		str	r5, [r4, #36]
ARM GAS  C:\Users\Brandon\AppData\Local\Temp\ccaGXwj6.s 			page 41


 863:Middlewares/Third_Party/SEGGER_RTT/SEGGER_RTT.c ****     }
 1207              		.loc 1 863 7 is_stmt 1 view .LVU368
 863:Middlewares/Third_Party/SEGGER_RTT/SEGGER_RTT.c ****     }
 1208              		.loc 1 863 14 is_stmt 0 view .LVU369
 1209 011c 0120     		movs	r0, #1
 1210 011e E8E7     		b	.L55
 1211              	.L68:
 1212              		.align	2
 1213              	.L67:
 1214 0120 00000000 		.word	_SEGGER_RTT
 1215              		.cfi_endproc
 1216              	.LFE8:
 1218              		.section	.text.SEGGER_RTT_WriteNoLock,"ax",%progbits
 1219              		.align	1
 1220              		.global	SEGGER_RTT_WriteNoLock
 1221              		.syntax unified
 1222              		.thumb
 1223              		.thumb_func
 1224              		.fpu fpv5-d16
 1226              	SEGGER_RTT_WriteNoLock:
 1227              	.LVL136:
 1228              	.LFB9:
 871:Middlewares/Third_Party/SEGGER_RTT/SEGGER_RTT.c **** 
 872:Middlewares/Third_Party/SEGGER_RTT/SEGGER_RTT.c **** /*********************************************************************
 873:Middlewares/Third_Party/SEGGER_RTT/SEGGER_RTT.c **** *
 874:Middlewares/Third_Party/SEGGER_RTT/SEGGER_RTT.c **** *       SEGGER_RTT_WriteNoLock
 875:Middlewares/Third_Party/SEGGER_RTT/SEGGER_RTT.c **** *
 876:Middlewares/Third_Party/SEGGER_RTT/SEGGER_RTT.c **** *  Function description
 877:Middlewares/Third_Party/SEGGER_RTT/SEGGER_RTT.c **** *    Stores a specified number of characters in SEGGER RTT
 878:Middlewares/Third_Party/SEGGER_RTT/SEGGER_RTT.c **** *    control block which is then read by the host.
 879:Middlewares/Third_Party/SEGGER_RTT/SEGGER_RTT.c **** *    SEGGER_RTT_WriteNoLock does not lock the application.
 880:Middlewares/Third_Party/SEGGER_RTT/SEGGER_RTT.c **** *
 881:Middlewares/Third_Party/SEGGER_RTT/SEGGER_RTT.c **** *  Parameters
 882:Middlewares/Third_Party/SEGGER_RTT/SEGGER_RTT.c **** *    BufferIndex  Index of "Up"-buffer to be used (e.g. 0 for "Terminal").
 883:Middlewares/Third_Party/SEGGER_RTT/SEGGER_RTT.c **** *    pBuffer      Pointer to character array. Does not need to point to a \0 terminated string.
 884:Middlewares/Third_Party/SEGGER_RTT/SEGGER_RTT.c **** *    NumBytes     Number of bytes to be stored in the SEGGER RTT control block.
 885:Middlewares/Third_Party/SEGGER_RTT/SEGGER_RTT.c **** *
 886:Middlewares/Third_Party/SEGGER_RTT/SEGGER_RTT.c **** *  Return value
 887:Middlewares/Third_Party/SEGGER_RTT/SEGGER_RTT.c **** *    Number of bytes which have been stored in the "Up"-buffer.
 888:Middlewares/Third_Party/SEGGER_RTT/SEGGER_RTT.c **** *
 889:Middlewares/Third_Party/SEGGER_RTT/SEGGER_RTT.c **** *  Notes
 890:Middlewares/Third_Party/SEGGER_RTT/SEGGER_RTT.c **** *    (1) Data is stored according to buffer flags.
 891:Middlewares/Third_Party/SEGGER_RTT/SEGGER_RTT.c **** *    (2) For performance reasons this function does not call Init()
 892:Middlewares/Third_Party/SEGGER_RTT/SEGGER_RTT.c **** *        and may only be called after RTT has been initialized.
 893:Middlewares/Third_Party/SEGGER_RTT/SEGGER_RTT.c **** *        Either by calling SEGGER_RTT_Init() or calling another RTT API function first.
 894:Middlewares/Third_Party/SEGGER_RTT/SEGGER_RTT.c **** */
 895:Middlewares/Third_Party/SEGGER_RTT/SEGGER_RTT.c **** unsigned SEGGER_RTT_WriteNoLock(unsigned BufferIndex, const void* pBuffer, unsigned NumBytes) {
 1229              		.loc 1 895 95 is_stmt 1 view -0
 1230              		.cfi_startproc
 1231              		@ args = 0, pretend = 0, frame = 0
 1232              		@ frame_needed = 0, uses_anonymous_args = 0
 1233              		.loc 1 895 95 is_stmt 0 view .LVU371
 1234 0000 F8B5     		push	{r3, r4, r5, r6, r7, lr}
 1235              	.LCFI12:
 1236              		.cfi_def_cfa_offset 24
 1237              		.cfi_offset 3, -24
 1238              		.cfi_offset 4, -20
ARM GAS  C:\Users\Brandon\AppData\Local\Temp\ccaGXwj6.s 			page 42


 1239              		.cfi_offset 5, -16
 1240              		.cfi_offset 6, -12
 1241              		.cfi_offset 7, -8
 1242              		.cfi_offset 14, -4
 1243 0002 0F46     		mov	r7, r1
 1244 0004 1646     		mov	r6, r2
 896:Middlewares/Third_Party/SEGGER_RTT/SEGGER_RTT.c ****   unsigned              Status;
 1245              		.loc 1 896 3 is_stmt 1 view .LVU372
 897:Middlewares/Third_Party/SEGGER_RTT/SEGGER_RTT.c ****   unsigned              Avail;
 1246              		.loc 1 897 3 view .LVU373
 898:Middlewares/Third_Party/SEGGER_RTT/SEGGER_RTT.c ****   const char*           pData;
 1247              		.loc 1 898 3 view .LVU374
 899:Middlewares/Third_Party/SEGGER_RTT/SEGGER_RTT.c ****   SEGGER_RTT_BUFFER_UP* pRing;
 1248              		.loc 1 899 3 view .LVU375
 900:Middlewares/Third_Party/SEGGER_RTT/SEGGER_RTT.c **** 
 901:Middlewares/Third_Party/SEGGER_RTT/SEGGER_RTT.c ****   pData = (const char *)pBuffer;
 1249              		.loc 1 901 3 view .LVU376
 1250              	.LVL137:
 902:Middlewares/Third_Party/SEGGER_RTT/SEGGER_RTT.c ****   //
 903:Middlewares/Third_Party/SEGGER_RTT/SEGGER_RTT.c ****   // Get "to-host" ring buffer.
 904:Middlewares/Third_Party/SEGGER_RTT/SEGGER_RTT.c ****   //
 905:Middlewares/Third_Party/SEGGER_RTT/SEGGER_RTT.c ****   pRing = &_SEGGER_RTT.aUp[BufferIndex];
 1251              		.loc 1 905 3 view .LVU377
 1252              		.loc 1 905 9 is_stmt 0 view .LVU378
 1253 0006 451C     		adds	r5, r0, #1
 1254 0008 05EB4505 		add	r5, r5, r5, lsl #1
 1255 000c 164B     		ldr	r3, .L76
 1256 000e 03EBC505 		add	r5, r3, r5, lsl #3
 1257              	.LVL138:
 906:Middlewares/Third_Party/SEGGER_RTT/SEGGER_RTT.c ****   //
 907:Middlewares/Third_Party/SEGGER_RTT/SEGGER_RTT.c ****   // How we output depends upon the mode...
 908:Middlewares/Third_Party/SEGGER_RTT/SEGGER_RTT.c ****   //
 909:Middlewares/Third_Party/SEGGER_RTT/SEGGER_RTT.c ****   switch (pRing->Flags) {
 1258              		.loc 1 909 3 is_stmt 1 view .LVU379
 1259              		.loc 1 909 16 is_stmt 0 view .LVU380
 1260 0012 00EB4000 		add	r0, r0, r0, lsl #1
 1261              	.LVL139:
 1262              		.loc 1 909 16 view .LVU381
 1263 0016 03EBC000 		add	r0, r3, r0, lsl #3
 1264 001a C46A     		ldr	r4, [r0, #44]
 1265              		.loc 1 909 3 view .LVU382
 1266 001c 012C     		cmp	r4, #1
 1267 001e 11D0     		beq	.L70
 1268 0020 022C     		cmp	r4, #2
 1269 0022 1CD0     		beq	.L71
 1270 0024 14B1     		cbz	r4, .L75
 1271 0026 0024     		movs	r4, #0
 1272              	.LVL140:
 910:Middlewares/Third_Party/SEGGER_RTT/SEGGER_RTT.c ****   case SEGGER_RTT_MODE_NO_BLOCK_SKIP:
 911:Middlewares/Third_Party/SEGGER_RTT/SEGGER_RTT.c ****     //
 912:Middlewares/Third_Party/SEGGER_RTT/SEGGER_RTT.c ****     // If we are in skip mode and there is no space for the whole
 913:Middlewares/Third_Party/SEGGER_RTT/SEGGER_RTT.c ****     // of this output, don't bother.
 914:Middlewares/Third_Party/SEGGER_RTT/SEGGER_RTT.c ****     //
 915:Middlewares/Third_Party/SEGGER_RTT/SEGGER_RTT.c ****     Avail = _GetAvailWriteSpace(pRing);
 916:Middlewares/Third_Party/SEGGER_RTT/SEGGER_RTT.c ****     if (Avail < NumBytes) {
 917:Middlewares/Third_Party/SEGGER_RTT/SEGGER_RTT.c ****       Status = 0u;
 918:Middlewares/Third_Party/SEGGER_RTT/SEGGER_RTT.c ****     } else {
ARM GAS  C:\Users\Brandon\AppData\Local\Temp\ccaGXwj6.s 			page 43


 919:Middlewares/Third_Party/SEGGER_RTT/SEGGER_RTT.c ****       Status = NumBytes;
 920:Middlewares/Third_Party/SEGGER_RTT/SEGGER_RTT.c ****       _WriteNoCheck(pRing, pData, NumBytes);
 921:Middlewares/Third_Party/SEGGER_RTT/SEGGER_RTT.c ****     }
 922:Middlewares/Third_Party/SEGGER_RTT/SEGGER_RTT.c ****     break;
 923:Middlewares/Third_Party/SEGGER_RTT/SEGGER_RTT.c ****   case SEGGER_RTT_MODE_NO_BLOCK_TRIM:
 924:Middlewares/Third_Party/SEGGER_RTT/SEGGER_RTT.c ****     //
 925:Middlewares/Third_Party/SEGGER_RTT/SEGGER_RTT.c ****     // If we are in trim mode, trim to what we can output without blocking.
 926:Middlewares/Third_Party/SEGGER_RTT/SEGGER_RTT.c ****     //
 927:Middlewares/Third_Party/SEGGER_RTT/SEGGER_RTT.c ****     Avail = _GetAvailWriteSpace(pRing);
 928:Middlewares/Third_Party/SEGGER_RTT/SEGGER_RTT.c ****     Status = Avail < NumBytes ? Avail : NumBytes;
 929:Middlewares/Third_Party/SEGGER_RTT/SEGGER_RTT.c ****     _WriteNoCheck(pRing, pData, Status);
 930:Middlewares/Third_Party/SEGGER_RTT/SEGGER_RTT.c ****     break;
 931:Middlewares/Third_Party/SEGGER_RTT/SEGGER_RTT.c ****   case SEGGER_RTT_MODE_BLOCK_IF_FIFO_FULL:
 932:Middlewares/Third_Party/SEGGER_RTT/SEGGER_RTT.c ****     //
 933:Middlewares/Third_Party/SEGGER_RTT/SEGGER_RTT.c ****     // If we are in blocking mode, output everything.
 934:Middlewares/Third_Party/SEGGER_RTT/SEGGER_RTT.c ****     //
 935:Middlewares/Third_Party/SEGGER_RTT/SEGGER_RTT.c ****     Status = _WriteBlocking(pRing, pData, NumBytes);
 936:Middlewares/Third_Party/SEGGER_RTT/SEGGER_RTT.c ****     break;
 937:Middlewares/Third_Party/SEGGER_RTT/SEGGER_RTT.c ****   default:
 938:Middlewares/Third_Party/SEGGER_RTT/SEGGER_RTT.c ****     Status = 0u;
 939:Middlewares/Third_Party/SEGGER_RTT/SEGGER_RTT.c ****     break;
 940:Middlewares/Third_Party/SEGGER_RTT/SEGGER_RTT.c ****   }
 941:Middlewares/Third_Party/SEGGER_RTT/SEGGER_RTT.c ****   //
 942:Middlewares/Third_Party/SEGGER_RTT/SEGGER_RTT.c ****   // Finish up.
 943:Middlewares/Third_Party/SEGGER_RTT/SEGGER_RTT.c ****   //
 944:Middlewares/Third_Party/SEGGER_RTT/SEGGER_RTT.c ****   return Status;
 1273              		.loc 1 944 3 is_stmt 1 view .LVU383
 1274              	.L69:
 945:Middlewares/Third_Party/SEGGER_RTT/SEGGER_RTT.c **** }
 1275              		.loc 1 945 1 is_stmt 0 view .LVU384
 1276 0028 2046     		mov	r0, r4
 1277 002a F8BD     		pop	{r3, r4, r5, r6, r7, pc}
 1278              	.LVL141:
 1279              	.L75:
 915:Middlewares/Third_Party/SEGGER_RTT/SEGGER_RTT.c ****     if (Avail < NumBytes) {
 1280              		.loc 1 915 5 is_stmt 1 view .LVU385
 915:Middlewares/Third_Party/SEGGER_RTT/SEGGER_RTT.c ****     if (Avail < NumBytes) {
 1281              		.loc 1 915 13 is_stmt 0 view .LVU386
 1282 002c 2846     		mov	r0, r5
 1283 002e FFF7FEFF 		bl	_GetAvailWriteSpace
 1284              	.LVL142:
 916:Middlewares/Third_Party/SEGGER_RTT/SEGGER_RTT.c ****       Status = 0u;
 1285              		.loc 1 916 5 is_stmt 1 view .LVU387
 916:Middlewares/Third_Party/SEGGER_RTT/SEGGER_RTT.c ****       Status = 0u;
 1286              		.loc 1 916 8 is_stmt 0 view .LVU388
 1287 0032 8642     		cmp	r6, r0
 1288 0034 F8D8     		bhi	.L69
 919:Middlewares/Third_Party/SEGGER_RTT/SEGGER_RTT.c ****       _WriteNoCheck(pRing, pData, NumBytes);
 1289              		.loc 1 919 7 is_stmt 1 view .LVU389
 1290              	.LVL143:
 920:Middlewares/Third_Party/SEGGER_RTT/SEGGER_RTT.c ****     }
 1291              		.loc 1 920 7 view .LVU390
 1292 0036 3246     		mov	r2, r6
 1293 0038 3946     		mov	r1, r7
 1294 003a 2846     		mov	r0, r5
 1295              	.LVL144:
 920:Middlewares/Third_Party/SEGGER_RTT/SEGGER_RTT.c ****     }
ARM GAS  C:\Users\Brandon\AppData\Local\Temp\ccaGXwj6.s 			page 44


 1296              		.loc 1 920 7 is_stmt 0 view .LVU391
 1297 003c FFF7FEFF 		bl	_WriteNoCheck
 1298              	.LVL145:
 919:Middlewares/Third_Party/SEGGER_RTT/SEGGER_RTT.c ****       _WriteNoCheck(pRing, pData, NumBytes);
 1299              		.loc 1 919 14 view .LVU392
 1300 0040 3446     		mov	r4, r6
 1301 0042 F1E7     		b	.L69
 1302              	.LVL146:
 1303              	.L70:
 927:Middlewares/Third_Party/SEGGER_RTT/SEGGER_RTT.c ****     Status = Avail < NumBytes ? Avail : NumBytes;
 1304              		.loc 1 927 5 is_stmt 1 view .LVU393
 927:Middlewares/Third_Party/SEGGER_RTT/SEGGER_RTT.c ****     Status = Avail < NumBytes ? Avail : NumBytes;
 1305              		.loc 1 927 13 is_stmt 0 view .LVU394
 1306 0044 2846     		mov	r0, r5
 1307 0046 FFF7FEFF 		bl	_GetAvailWriteSpace
 1308              	.LVL147:
 928:Middlewares/Third_Party/SEGGER_RTT/SEGGER_RTT.c ****     _WriteNoCheck(pRing, pData, Status);
 1309              		.loc 1 928 5 is_stmt 1 view .LVU395
 928:Middlewares/Third_Party/SEGGER_RTT/SEGGER_RTT.c ****     _WriteNoCheck(pRing, pData, Status);
 1310              		.loc 1 928 12 is_stmt 0 view .LVU396
 1311 004a 3446     		mov	r4, r6
 1312 004c 8642     		cmp	r6, r0
 1313 004e 28BF     		it	cs
 1314 0050 0446     		movcs	r4, r0
 1315              	.LVL148:
 929:Middlewares/Third_Party/SEGGER_RTT/SEGGER_RTT.c ****     break;
 1316              		.loc 1 929 5 is_stmt 1 view .LVU397
 1317 0052 2246     		mov	r2, r4
 1318 0054 3946     		mov	r1, r7
 1319 0056 2846     		mov	r0, r5
 1320              	.LVL149:
 929:Middlewares/Third_Party/SEGGER_RTT/SEGGER_RTT.c ****     break;
 1321              		.loc 1 929 5 is_stmt 0 view .LVU398
 1322 0058 FFF7FEFF 		bl	_WriteNoCheck
 1323              	.LVL150:
 930:Middlewares/Third_Party/SEGGER_RTT/SEGGER_RTT.c ****   case SEGGER_RTT_MODE_BLOCK_IF_FIFO_FULL:
 1324              		.loc 1 930 5 is_stmt 1 view .LVU399
 1325 005c E4E7     		b	.L69
 1326              	.LVL151:
 1327              	.L71:
 935:Middlewares/Third_Party/SEGGER_RTT/SEGGER_RTT.c ****     break;
 1328              		.loc 1 935 5 view .LVU400
 935:Middlewares/Third_Party/SEGGER_RTT/SEGGER_RTT.c ****     break;
 1329              		.loc 1 935 14 is_stmt 0 view .LVU401
 1330 005e 2846     		mov	r0, r5
 1331 0060 FFF7FEFF 		bl	_WriteBlocking
 1332              	.LVL152:
 935:Middlewares/Third_Party/SEGGER_RTT/SEGGER_RTT.c ****     break;
 1333              		.loc 1 935 14 view .LVU402
 1334 0064 0446     		mov	r4, r0
 1335              	.LVL153:
 936:Middlewares/Third_Party/SEGGER_RTT/SEGGER_RTT.c ****   default:
 1336              		.loc 1 936 5 is_stmt 1 view .LVU403
 1337 0066 DFE7     		b	.L69
 1338              	.L77:
 1339              		.align	2
 1340              	.L76:
ARM GAS  C:\Users\Brandon\AppData\Local\Temp\ccaGXwj6.s 			page 45


 1341 0068 00000000 		.word	_SEGGER_RTT
 1342              		.cfi_endproc
 1343              	.LFE9:
 1345              		.section	.text.SEGGER_RTT_Write,"ax",%progbits
 1346              		.align	1
 1347              		.global	SEGGER_RTT_Write
 1348              		.syntax unified
 1349              		.thumb
 1350              		.thumb_func
 1351              		.fpu fpv5-d16
 1353              	SEGGER_RTT_Write:
 1354              	.LVL154:
 1355              	.LFB10:
 946:Middlewares/Third_Party/SEGGER_RTT/SEGGER_RTT.c **** 
 947:Middlewares/Third_Party/SEGGER_RTT/SEGGER_RTT.c **** /*********************************************************************
 948:Middlewares/Third_Party/SEGGER_RTT/SEGGER_RTT.c **** *
 949:Middlewares/Third_Party/SEGGER_RTT/SEGGER_RTT.c **** *       SEGGER_RTT_Write
 950:Middlewares/Third_Party/SEGGER_RTT/SEGGER_RTT.c **** *
 951:Middlewares/Third_Party/SEGGER_RTT/SEGGER_RTT.c **** *  Function description
 952:Middlewares/Third_Party/SEGGER_RTT/SEGGER_RTT.c **** *    Stores a specified number of characters in SEGGER RTT
 953:Middlewares/Third_Party/SEGGER_RTT/SEGGER_RTT.c **** *    control block which is then read by the host.
 954:Middlewares/Third_Party/SEGGER_RTT/SEGGER_RTT.c **** *
 955:Middlewares/Third_Party/SEGGER_RTT/SEGGER_RTT.c **** *  Parameters
 956:Middlewares/Third_Party/SEGGER_RTT/SEGGER_RTT.c **** *    BufferIndex  Index of "Up"-buffer to be used (e.g. 0 for "Terminal").
 957:Middlewares/Third_Party/SEGGER_RTT/SEGGER_RTT.c **** *    pBuffer      Pointer to character array. Does not need to point to a \0 terminated string.
 958:Middlewares/Third_Party/SEGGER_RTT/SEGGER_RTT.c **** *    NumBytes     Number of bytes to be stored in the SEGGER RTT control block.
 959:Middlewares/Third_Party/SEGGER_RTT/SEGGER_RTT.c **** *
 960:Middlewares/Third_Party/SEGGER_RTT/SEGGER_RTT.c **** *  Return value
 961:Middlewares/Third_Party/SEGGER_RTT/SEGGER_RTT.c **** *    Number of bytes which have been stored in the "Up"-buffer.
 962:Middlewares/Third_Party/SEGGER_RTT/SEGGER_RTT.c **** *
 963:Middlewares/Third_Party/SEGGER_RTT/SEGGER_RTT.c **** *  Notes
 964:Middlewares/Third_Party/SEGGER_RTT/SEGGER_RTT.c **** *    (1) Data is stored according to buffer flags.
 965:Middlewares/Third_Party/SEGGER_RTT/SEGGER_RTT.c **** */
 966:Middlewares/Third_Party/SEGGER_RTT/SEGGER_RTT.c **** unsigned SEGGER_RTT_Write(unsigned BufferIndex, const void* pBuffer, unsigned NumBytes) {
 1356              		.loc 1 966 89 view -0
 1357              		.cfi_startproc
 1358              		@ args = 0, pretend = 0, frame = 0
 1359              		@ frame_needed = 0, uses_anonymous_args = 0
 1360              		.loc 1 966 89 is_stmt 0 view .LVU405
 1361 0000 F8B5     		push	{r3, r4, r5, r6, r7, lr}
 1362              	.LCFI13:
 1363              		.cfi_def_cfa_offset 24
 1364              		.cfi_offset 3, -24
 1365              		.cfi_offset 4, -20
 1366              		.cfi_offset 5, -16
 1367              		.cfi_offset 6, -12
 1368              		.cfi_offset 7, -8
 1369              		.cfi_offset 14, -4
 1370 0002 0446     		mov	r4, r0
 1371 0004 0D46     		mov	r5, r1
 1372 0006 1646     		mov	r6, r2
 967:Middlewares/Third_Party/SEGGER_RTT/SEGGER_RTT.c ****   unsigned Status;
 1373              		.loc 1 967 3 is_stmt 1 view .LVU406
 968:Middlewares/Third_Party/SEGGER_RTT/SEGGER_RTT.c ****   //
 969:Middlewares/Third_Party/SEGGER_RTT/SEGGER_RTT.c ****   INIT();
 1374              		.loc 1 969 3 view .LVU407
 1375              		.loc 1 969 3 view .LVU408
ARM GAS  C:\Users\Brandon\AppData\Local\Temp\ccaGXwj6.s 			page 46


 1376 0008 094B     		ldr	r3, .L82
 1377 000a 1B78     		ldrb	r3, [r3]	@ zero_extendqisi2
 1378 000c 6BB1     		cbz	r3, .L81
 1379              	.LVL155:
 1380              	.L79:
 1381              		.loc 1 969 3 discriminator 3 view .LVU409
 1382              	.LBB3:
 970:Middlewares/Third_Party/SEGGER_RTT/SEGGER_RTT.c ****   SEGGER_RTT_LOCK();
 1383              		.loc 1 970 3 discriminator 3 view .LVU410
 1384              		.loc 1 970 3 discriminator 3 view .LVU411
 1385              		.syntax unified
 1386              	@ 970 "Middlewares/Third_Party/SEGGER_RTT/SEGGER_RTT.c" 1
 1387 000e EFF31187 		mrs   r7, basepri  
 1388 0012 4FF02001 		mov   r1, #32       
 1389 0016 81F31188 		msr   basepri, r1  
 1390              		
 1391              	@ 0 "" 2
 1392              	.LVL156:
 1393              		.loc 1 970 20 discriminator 3 view .LVU412
 971:Middlewares/Third_Party/SEGGER_RTT/SEGGER_RTT.c ****   //
 972:Middlewares/Third_Party/SEGGER_RTT/SEGGER_RTT.c ****   // Call the non-locking write function
 973:Middlewares/Third_Party/SEGGER_RTT/SEGGER_RTT.c ****   //
 974:Middlewares/Third_Party/SEGGER_RTT/SEGGER_RTT.c ****   Status = SEGGER_RTT_WriteNoLock(BufferIndex, pBuffer, NumBytes);
 1394              		.loc 1 974 3 discriminator 3 view .LVU413
 1395              		.loc 1 974 12 is_stmt 0 discriminator 3 view .LVU414
 1396              		.thumb
 1397              		.syntax unified
 1398 001a 3246     		mov	r2, r6
 1399 001c 2946     		mov	r1, r5
 1400 001e 2046     		mov	r0, r4
 1401 0020 FFF7FEFF 		bl	SEGGER_RTT_WriteNoLock
 1402              	.LVL157:
 975:Middlewares/Third_Party/SEGGER_RTT/SEGGER_RTT.c ****   //
 976:Middlewares/Third_Party/SEGGER_RTT/SEGGER_RTT.c ****   // Finish up.
 977:Middlewares/Third_Party/SEGGER_RTT/SEGGER_RTT.c ****   //
 978:Middlewares/Third_Party/SEGGER_RTT/SEGGER_RTT.c ****   SEGGER_RTT_UNLOCK();
 1403              		.loc 1 978 3 is_stmt 1 discriminator 3 view .LVU415
 1404              		.syntax unified
 1405              	@ 978 "Middlewares/Third_Party/SEGGER_RTT/SEGGER_RTT.c" 1
 1406 0024 87F31188 		msr   basepri, r7  
 1407              		
 1408              	@ 0 "" 2
 1409              		.thumb
 1410              		.syntax unified
 1411              	.LBE3:
 1412              		.loc 1 978 22 discriminator 3 view .LVU416
 979:Middlewares/Third_Party/SEGGER_RTT/SEGGER_RTT.c ****   //
 980:Middlewares/Third_Party/SEGGER_RTT/SEGGER_RTT.c ****   return Status;
 1413              		.loc 1 980 3 discriminator 3 view .LVU417
 981:Middlewares/Third_Party/SEGGER_RTT/SEGGER_RTT.c **** }
 1414              		.loc 1 981 1 is_stmt 0 discriminator 3 view .LVU418
 1415 0028 F8BD     		pop	{r3, r4, r5, r6, r7, pc}
 1416              	.LVL158:
 1417              	.L81:
 969:Middlewares/Third_Party/SEGGER_RTT/SEGGER_RTT.c ****   SEGGER_RTT_LOCK();
 1418              		.loc 1 969 3 is_stmt 1 discriminator 1 view .LVU419
 1419 002a FFF7FEFF 		bl	_DoInit
ARM GAS  C:\Users\Brandon\AppData\Local\Temp\ccaGXwj6.s 			page 47


 1420              	.LVL159:
 969:Middlewares/Third_Party/SEGGER_RTT/SEGGER_RTT.c ****   SEGGER_RTT_LOCK();
 1421              		.loc 1 969 3 is_stmt 0 discriminator 1 view .LVU420
 1422 002e EEE7     		b	.L79
 1423              	.L83:
 1424              		.align	2
 1425              	.L82:
 1426 0030 00000000 		.word	_SEGGER_RTT
 1427              		.cfi_endproc
 1428              	.LFE10:
 1430              		.section	.text.SEGGER_RTT_WriteString,"ax",%progbits
 1431              		.align	1
 1432              		.global	SEGGER_RTT_WriteString
 1433              		.syntax unified
 1434              		.thumb
 1435              		.thumb_func
 1436              		.fpu fpv5-d16
 1438              	SEGGER_RTT_WriteString:
 1439              	.LVL160:
 1440              	.LFB11:
 982:Middlewares/Third_Party/SEGGER_RTT/SEGGER_RTT.c **** 
 983:Middlewares/Third_Party/SEGGER_RTT/SEGGER_RTT.c **** /*********************************************************************
 984:Middlewares/Third_Party/SEGGER_RTT/SEGGER_RTT.c **** *
 985:Middlewares/Third_Party/SEGGER_RTT/SEGGER_RTT.c **** *       SEGGER_RTT_WriteString
 986:Middlewares/Third_Party/SEGGER_RTT/SEGGER_RTT.c **** *
 987:Middlewares/Third_Party/SEGGER_RTT/SEGGER_RTT.c **** *  Function description
 988:Middlewares/Third_Party/SEGGER_RTT/SEGGER_RTT.c **** *    Stores string in SEGGER RTT control block.
 989:Middlewares/Third_Party/SEGGER_RTT/SEGGER_RTT.c **** *    This data is read by the host.
 990:Middlewares/Third_Party/SEGGER_RTT/SEGGER_RTT.c **** *
 991:Middlewares/Third_Party/SEGGER_RTT/SEGGER_RTT.c **** *  Parameters
 992:Middlewares/Third_Party/SEGGER_RTT/SEGGER_RTT.c **** *    BufferIndex  Index of "Up"-buffer to be used (e.g. 0 for "Terminal").
 993:Middlewares/Third_Party/SEGGER_RTT/SEGGER_RTT.c **** *    s            Pointer to string.
 994:Middlewares/Third_Party/SEGGER_RTT/SEGGER_RTT.c **** *
 995:Middlewares/Third_Party/SEGGER_RTT/SEGGER_RTT.c **** *  Return value
 996:Middlewares/Third_Party/SEGGER_RTT/SEGGER_RTT.c **** *    Number of bytes which have been stored in the "Up"-buffer.
 997:Middlewares/Third_Party/SEGGER_RTT/SEGGER_RTT.c **** *
 998:Middlewares/Third_Party/SEGGER_RTT/SEGGER_RTT.c **** *  Notes
 999:Middlewares/Third_Party/SEGGER_RTT/SEGGER_RTT.c **** *    (1) Data is stored according to buffer flags.
1000:Middlewares/Third_Party/SEGGER_RTT/SEGGER_RTT.c **** *    (2) String passed to this function has to be \0 terminated
1001:Middlewares/Third_Party/SEGGER_RTT/SEGGER_RTT.c **** *    (3) \0 termination character is *not* stored in RTT buffer
1002:Middlewares/Third_Party/SEGGER_RTT/SEGGER_RTT.c **** */
1003:Middlewares/Third_Party/SEGGER_RTT/SEGGER_RTT.c **** unsigned SEGGER_RTT_WriteString(unsigned BufferIndex, const char* s) {
 1441              		.loc 1 1003 70 is_stmt 1 view -0
 1442              		.cfi_startproc
 1443              		@ args = 0, pretend = 0, frame = 0
 1444              		@ frame_needed = 0, uses_anonymous_args = 0
 1445              		.loc 1 1003 70 is_stmt 0 view .LVU422
 1446 0000 38B5     		push	{r3, r4, r5, lr}
 1447              	.LCFI14:
 1448              		.cfi_def_cfa_offset 16
 1449              		.cfi_offset 3, -16
 1450              		.cfi_offset 4, -12
 1451              		.cfi_offset 5, -8
 1452              		.cfi_offset 14, -4
 1453 0002 0546     		mov	r5, r0
 1454 0004 0C46     		mov	r4, r1
1004:Middlewares/Third_Party/SEGGER_RTT/SEGGER_RTT.c ****   unsigned Len;
ARM GAS  C:\Users\Brandon\AppData\Local\Temp\ccaGXwj6.s 			page 48


 1455              		.loc 1 1004 3 is_stmt 1 view .LVU423
1005:Middlewares/Third_Party/SEGGER_RTT/SEGGER_RTT.c **** 
1006:Middlewares/Third_Party/SEGGER_RTT/SEGGER_RTT.c ****   Len = STRLEN(s);
 1456              		.loc 1 1006 3 view .LVU424
 1457              		.loc 1 1006 9 is_stmt 0 view .LVU425
 1458 0006 0846     		mov	r0, r1
 1459              	.LVL161:
 1460              		.loc 1 1006 9 view .LVU426
 1461 0008 FFF7FEFF 		bl	strlen
 1462              	.LVL162:
 1463              		.loc 1 1006 9 view .LVU427
 1464 000c 0246     		mov	r2, r0
 1465              	.LVL163:
1007:Middlewares/Third_Party/SEGGER_RTT/SEGGER_RTT.c ****   return SEGGER_RTT_Write(BufferIndex, s, Len);
 1466              		.loc 1 1007 3 is_stmt 1 view .LVU428
 1467              		.loc 1 1007 10 is_stmt 0 view .LVU429
 1468 000e 2146     		mov	r1, r4
 1469 0010 2846     		mov	r0, r5
 1470              	.LVL164:
 1471              		.loc 1 1007 10 view .LVU430
 1472 0012 FFF7FEFF 		bl	SEGGER_RTT_Write
 1473              	.LVL165:
1008:Middlewares/Third_Party/SEGGER_RTT/SEGGER_RTT.c **** }
 1474              		.loc 1 1008 1 view .LVU431
 1475 0016 38BD     		pop	{r3, r4, r5, pc}
 1476              		.loc 1 1008 1 view .LVU432
 1477              		.cfi_endproc
 1478              	.LFE11:
 1480              		.section	.text.SEGGER_RTT_PutCharSkipNoLock,"ax",%progbits
 1481              		.align	1
 1482              		.global	SEGGER_RTT_PutCharSkipNoLock
 1483              		.syntax unified
 1484              		.thumb
 1485              		.thumb_func
 1486              		.fpu fpv5-d16
 1488              	SEGGER_RTT_PutCharSkipNoLock:
 1489              	.LVL166:
 1490              	.LFB12:
1009:Middlewares/Third_Party/SEGGER_RTT/SEGGER_RTT.c **** 
1010:Middlewares/Third_Party/SEGGER_RTT/SEGGER_RTT.c **** /*********************************************************************
1011:Middlewares/Third_Party/SEGGER_RTT/SEGGER_RTT.c **** *
1012:Middlewares/Third_Party/SEGGER_RTT/SEGGER_RTT.c **** *       SEGGER_RTT_PutCharSkipNoLock
1013:Middlewares/Third_Party/SEGGER_RTT/SEGGER_RTT.c **** *
1014:Middlewares/Third_Party/SEGGER_RTT/SEGGER_RTT.c **** *  Function description
1015:Middlewares/Third_Party/SEGGER_RTT/SEGGER_RTT.c **** *    Stores a single character/byte in SEGGER RTT buffer.
1016:Middlewares/Third_Party/SEGGER_RTT/SEGGER_RTT.c **** *    SEGGER_RTT_PutCharSkipNoLock does not lock the application and
1017:Middlewares/Third_Party/SEGGER_RTT/SEGGER_RTT.c **** *    skips the byte, if it does not fit into the buffer.
1018:Middlewares/Third_Party/SEGGER_RTT/SEGGER_RTT.c **** *
1019:Middlewares/Third_Party/SEGGER_RTT/SEGGER_RTT.c **** *  Parameters
1020:Middlewares/Third_Party/SEGGER_RTT/SEGGER_RTT.c **** *    BufferIndex  Index of "Up"-buffer to be used (e.g. 0 for "Terminal").
1021:Middlewares/Third_Party/SEGGER_RTT/SEGGER_RTT.c **** *    c            Byte to be stored.
1022:Middlewares/Third_Party/SEGGER_RTT/SEGGER_RTT.c **** *
1023:Middlewares/Third_Party/SEGGER_RTT/SEGGER_RTT.c **** *  Return value
1024:Middlewares/Third_Party/SEGGER_RTT/SEGGER_RTT.c **** *    Number of bytes which have been stored in the "Up"-buffer.
1025:Middlewares/Third_Party/SEGGER_RTT/SEGGER_RTT.c **** *
1026:Middlewares/Third_Party/SEGGER_RTT/SEGGER_RTT.c **** *  Notes
1027:Middlewares/Third_Party/SEGGER_RTT/SEGGER_RTT.c **** *    (1) If there is not enough space in the "Up"-buffer, the character is dropped.
ARM GAS  C:\Users\Brandon\AppData\Local\Temp\ccaGXwj6.s 			page 49


1028:Middlewares/Third_Party/SEGGER_RTT/SEGGER_RTT.c **** *    (2) For performance reasons this function does not call Init()
1029:Middlewares/Third_Party/SEGGER_RTT/SEGGER_RTT.c **** *        and may only be called after RTT has been initialized.
1030:Middlewares/Third_Party/SEGGER_RTT/SEGGER_RTT.c **** *        Either by calling SEGGER_RTT_Init() or calling another RTT API function first.
1031:Middlewares/Third_Party/SEGGER_RTT/SEGGER_RTT.c **** */
1032:Middlewares/Third_Party/SEGGER_RTT/SEGGER_RTT.c **** 
1033:Middlewares/Third_Party/SEGGER_RTT/SEGGER_RTT.c **** unsigned SEGGER_RTT_PutCharSkipNoLock(unsigned BufferIndex, char c) {
 1491              		.loc 1 1033 69 is_stmt 1 view -0
 1492              		.cfi_startproc
 1493              		@ args = 0, pretend = 0, frame = 0
 1494              		@ frame_needed = 0, uses_anonymous_args = 0
 1495              		@ link register save eliminated.
 1496              		.loc 1 1033 69 is_stmt 0 view .LVU434
 1497 0000 30B4     		push	{r4, r5}
 1498              	.LCFI15:
 1499              		.cfi_def_cfa_offset 8
 1500              		.cfi_offset 4, -8
 1501              		.cfi_offset 5, -4
1034:Middlewares/Third_Party/SEGGER_RTT/SEGGER_RTT.c ****   SEGGER_RTT_BUFFER_UP* pRing;
 1502              		.loc 1 1034 3 is_stmt 1 view .LVU435
1035:Middlewares/Third_Party/SEGGER_RTT/SEGGER_RTT.c ****   unsigned              WrOff;
 1503              		.loc 1 1035 3 view .LVU436
1036:Middlewares/Third_Party/SEGGER_RTT/SEGGER_RTT.c ****   unsigned              Status;
 1504              		.loc 1 1036 3 view .LVU437
1037:Middlewares/Third_Party/SEGGER_RTT/SEGGER_RTT.c ****   //
1038:Middlewares/Third_Party/SEGGER_RTT/SEGGER_RTT.c ****   // Get "to-host" ring buffer.
1039:Middlewares/Third_Party/SEGGER_RTT/SEGGER_RTT.c ****   //
1040:Middlewares/Third_Party/SEGGER_RTT/SEGGER_RTT.c ****   pRing = &_SEGGER_RTT.aUp[BufferIndex];
 1505              		.loc 1 1040 3 view .LVU438
 1506              	.LVL167:
1041:Middlewares/Third_Party/SEGGER_RTT/SEGGER_RTT.c ****   //
1042:Middlewares/Third_Party/SEGGER_RTT/SEGGER_RTT.c ****   // Get write position and handle wrap-around if necessary
1043:Middlewares/Third_Party/SEGGER_RTT/SEGGER_RTT.c ****   //
1044:Middlewares/Third_Party/SEGGER_RTT/SEGGER_RTT.c ****   WrOff = pRing->WrOff + 1;
 1507              		.loc 1 1044 3 view .LVU439
 1508              		.loc 1 1044 16 is_stmt 0 view .LVU440
 1509 0002 00EB4002 		add	r2, r0, r0, lsl #1
 1510 0006 114B     		ldr	r3, .L93
 1511 0008 03EBC203 		add	r3, r3, r2, lsl #3
 1512 000c 5D6A     		ldr	r5, [r3, #36]
 1513              		.loc 1 1044 9 view .LVU441
 1514 000e 6A1C     		adds	r2, r5, #1
 1515              	.LVL168:
1045:Middlewares/Third_Party/SEGGER_RTT/SEGGER_RTT.c ****   if (WrOff == pRing->SizeOfBuffer) {
 1516              		.loc 1 1045 3 is_stmt 1 view .LVU442
 1517              		.loc 1 1045 21 is_stmt 0 view .LVU443
 1518 0010 1B6A     		ldr	r3, [r3, #32]
 1519              		.loc 1 1045 6 view .LVU444
 1520 0012 9342     		cmp	r3, r2
 1521 0014 16D0     		beq	.L92
 1522              	.LVL169:
 1523              	.L87:
1046:Middlewares/Third_Party/SEGGER_RTT/SEGGER_RTT.c ****     WrOff = 0;
1047:Middlewares/Third_Party/SEGGER_RTT/SEGGER_RTT.c ****   }
1048:Middlewares/Third_Party/SEGGER_RTT/SEGGER_RTT.c ****   //
1049:Middlewares/Third_Party/SEGGER_RTT/SEGGER_RTT.c ****   // Output byte if free space is available
1050:Middlewares/Third_Party/SEGGER_RTT/SEGGER_RTT.c ****   //
1051:Middlewares/Third_Party/SEGGER_RTT/SEGGER_RTT.c ****   if (WrOff != pRing->RdOff) {
ARM GAS  C:\Users\Brandon\AppData\Local\Temp\ccaGXwj6.s 			page 50


 1524              		.loc 1 1051 3 is_stmt 1 view .LVU445
 1525              		.loc 1 1051 21 is_stmt 0 view .LVU446
 1526 0016 00EB4003 		add	r3, r0, r0, lsl #1
 1527 001a 0C4C     		ldr	r4, .L93
 1528 001c 04EBC303 		add	r3, r4, r3, lsl #3
 1529 0020 9B6A     		ldr	r3, [r3, #40]
 1530              		.loc 1 1051 6 view .LVU447
 1531 0022 9342     		cmp	r3, r2
 1532 0024 10D0     		beq	.L90
1052:Middlewares/Third_Party/SEGGER_RTT/SEGGER_RTT.c ****     pRing->pBuffer[pRing->WrOff] = c;
 1533              		.loc 1 1052 5 is_stmt 1 view .LVU448
 1534              		.loc 1 1052 10 is_stmt 0 view .LVU449
 1535 0026 431C     		adds	r3, r0, #1
 1536 0028 03EB4303 		add	r3, r3, r3, lsl #1
 1537 002c 04EBC303 		add	r3, r4, r3, lsl #3
 1538 0030 5B68     		ldr	r3, [r3, #4]
 1539              		.loc 1 1052 34 view .LVU450
 1540 0032 5955     		strb	r1, [r3, r5]
1053:Middlewares/Third_Party/SEGGER_RTT/SEGGER_RTT.c ****     pRing->WrOff = WrOff;
 1541              		.loc 1 1053 5 is_stmt 1 view .LVU451
 1542              		.loc 1 1053 18 is_stmt 0 view .LVU452
 1543 0034 00EB4000 		add	r0, r0, r0, lsl #1
 1544              	.LVL170:
 1545              		.loc 1 1053 18 view .LVU453
 1546 0038 04EBC000 		add	r0, r4, r0, lsl #3
 1547 003c 4262     		str	r2, [r0, #36]
1054:Middlewares/Third_Party/SEGGER_RTT/SEGGER_RTT.c ****     Status = 1;
 1548              		.loc 1 1054 5 is_stmt 1 view .LVU454
 1549              	.LVL171:
 1550              		.loc 1 1054 12 is_stmt 0 view .LVU455
 1551 003e 0120     		movs	r0, #1
 1552              	.LVL172:
 1553              	.L86:
1055:Middlewares/Third_Party/SEGGER_RTT/SEGGER_RTT.c ****   } else {
1056:Middlewares/Third_Party/SEGGER_RTT/SEGGER_RTT.c ****     Status = 0;
1057:Middlewares/Third_Party/SEGGER_RTT/SEGGER_RTT.c ****   }
1058:Middlewares/Third_Party/SEGGER_RTT/SEGGER_RTT.c ****   //
1059:Middlewares/Third_Party/SEGGER_RTT/SEGGER_RTT.c ****   return Status;
1060:Middlewares/Third_Party/SEGGER_RTT/SEGGER_RTT.c **** }
 1554              		.loc 1 1060 1 view .LVU456
 1555 0040 30BC     		pop	{r4, r5}
 1556              	.LCFI16:
 1557              		.cfi_remember_state
 1558              		.cfi_restore 5
 1559              		.cfi_restore 4
 1560              		.cfi_def_cfa_offset 0
 1561 0042 7047     		bx	lr
 1562              	.LVL173:
 1563              	.L92:
 1564              	.LCFI17:
 1565              		.cfi_restore_state
1046:Middlewares/Third_Party/SEGGER_RTT/SEGGER_RTT.c ****   }
 1566              		.loc 1 1046 11 view .LVU457
 1567 0044 0022     		movs	r2, #0
 1568              	.LVL174:
1046:Middlewares/Third_Party/SEGGER_RTT/SEGGER_RTT.c ****   }
 1569              		.loc 1 1046 11 view .LVU458
ARM GAS  C:\Users\Brandon\AppData\Local\Temp\ccaGXwj6.s 			page 51


 1570 0046 E6E7     		b	.L87
 1571              	.LVL175:
 1572              	.L90:
1056:Middlewares/Third_Party/SEGGER_RTT/SEGGER_RTT.c ****   }
 1573              		.loc 1 1056 12 view .LVU459
 1574 0048 0020     		movs	r0, #0
 1575              	.LVL176:
1059:Middlewares/Third_Party/SEGGER_RTT/SEGGER_RTT.c **** }
 1576              		.loc 1 1059 3 is_stmt 1 view .LVU460
1059:Middlewares/Third_Party/SEGGER_RTT/SEGGER_RTT.c **** }
 1577              		.loc 1 1059 10 is_stmt 0 view .LVU461
 1578 004a F9E7     		b	.L86
 1579              	.L94:
 1580              		.align	2
 1581              	.L93:
 1582 004c 00000000 		.word	_SEGGER_RTT
 1583              		.cfi_endproc
 1584              	.LFE12:
 1586              		.section	.text.SEGGER_RTT_PutCharSkip,"ax",%progbits
 1587              		.align	1
 1588              		.global	SEGGER_RTT_PutCharSkip
 1589              		.syntax unified
 1590              		.thumb
 1591              		.thumb_func
 1592              		.fpu fpv5-d16
 1594              	SEGGER_RTT_PutCharSkip:
 1595              	.LVL177:
 1596              	.LFB13:
1061:Middlewares/Third_Party/SEGGER_RTT/SEGGER_RTT.c **** 
1062:Middlewares/Third_Party/SEGGER_RTT/SEGGER_RTT.c **** /*********************************************************************
1063:Middlewares/Third_Party/SEGGER_RTT/SEGGER_RTT.c **** *
1064:Middlewares/Third_Party/SEGGER_RTT/SEGGER_RTT.c **** *       SEGGER_RTT_PutCharSkip
1065:Middlewares/Third_Party/SEGGER_RTT/SEGGER_RTT.c **** *
1066:Middlewares/Third_Party/SEGGER_RTT/SEGGER_RTT.c **** *  Function description
1067:Middlewares/Third_Party/SEGGER_RTT/SEGGER_RTT.c **** *    Stores a single character/byte in SEGGER RTT buffer.
1068:Middlewares/Third_Party/SEGGER_RTT/SEGGER_RTT.c **** *
1069:Middlewares/Third_Party/SEGGER_RTT/SEGGER_RTT.c **** *  Parameters
1070:Middlewares/Third_Party/SEGGER_RTT/SEGGER_RTT.c **** *    BufferIndex  Index of "Up"-buffer to be used (e.g. 0 for "Terminal").
1071:Middlewares/Third_Party/SEGGER_RTT/SEGGER_RTT.c **** *    c            Byte to be stored.
1072:Middlewares/Third_Party/SEGGER_RTT/SEGGER_RTT.c **** *
1073:Middlewares/Third_Party/SEGGER_RTT/SEGGER_RTT.c **** *  Return value
1074:Middlewares/Third_Party/SEGGER_RTT/SEGGER_RTT.c **** *    Number of bytes which have been stored in the "Up"-buffer.
1075:Middlewares/Third_Party/SEGGER_RTT/SEGGER_RTT.c **** *
1076:Middlewares/Third_Party/SEGGER_RTT/SEGGER_RTT.c **** *  Notes
1077:Middlewares/Third_Party/SEGGER_RTT/SEGGER_RTT.c **** *    (1) If there is not enough space in the "Up"-buffer, the character is dropped.
1078:Middlewares/Third_Party/SEGGER_RTT/SEGGER_RTT.c **** */
1079:Middlewares/Third_Party/SEGGER_RTT/SEGGER_RTT.c **** 
1080:Middlewares/Third_Party/SEGGER_RTT/SEGGER_RTT.c **** unsigned SEGGER_RTT_PutCharSkip(unsigned BufferIndex, char c) {
 1597              		.loc 1 1080 63 is_stmt 1 view -0
 1598              		.cfi_startproc
 1599              		@ args = 0, pretend = 0, frame = 0
 1600              		@ frame_needed = 0, uses_anonymous_args = 0
 1601              		.loc 1 1080 63 is_stmt 0 view .LVU463
 1602 0000 F8B5     		push	{r3, r4, r5, r6, r7, lr}
 1603              	.LCFI18:
 1604              		.cfi_def_cfa_offset 24
 1605              		.cfi_offset 3, -24
ARM GAS  C:\Users\Brandon\AppData\Local\Temp\ccaGXwj6.s 			page 52


 1606              		.cfi_offset 4, -20
 1607              		.cfi_offset 5, -16
 1608              		.cfi_offset 6, -12
 1609              		.cfi_offset 7, -8
 1610              		.cfi_offset 14, -4
 1611 0002 0446     		mov	r4, r0
 1612 0004 0D46     		mov	r5, r1
1081:Middlewares/Third_Party/SEGGER_RTT/SEGGER_RTT.c ****   SEGGER_RTT_BUFFER_UP* pRing;
 1613              		.loc 1 1081 3 is_stmt 1 view .LVU464
1082:Middlewares/Third_Party/SEGGER_RTT/SEGGER_RTT.c ****   unsigned              WrOff;
 1614              		.loc 1 1082 3 view .LVU465
1083:Middlewares/Third_Party/SEGGER_RTT/SEGGER_RTT.c ****   unsigned              Status;
 1615              		.loc 1 1083 3 view .LVU466
1084:Middlewares/Third_Party/SEGGER_RTT/SEGGER_RTT.c ****   //
1085:Middlewares/Third_Party/SEGGER_RTT/SEGGER_RTT.c ****   // Prepare
1086:Middlewares/Third_Party/SEGGER_RTT/SEGGER_RTT.c ****   //
1087:Middlewares/Third_Party/SEGGER_RTT/SEGGER_RTT.c ****   INIT();
 1616              		.loc 1 1087 3 view .LVU467
 1617              		.loc 1 1087 3 view .LVU468
 1618 0006 194B     		ldr	r3, .L104
 1619 0008 1B78     		ldrb	r3, [r3]	@ zero_extendqisi2
 1620 000a 3BB3     		cbz	r3, .L102
 1621              	.LVL178:
 1622              	.L96:
 1623              		.loc 1 1087 3 discriminator 3 view .LVU469
 1624              	.LBB4:
1088:Middlewares/Third_Party/SEGGER_RTT/SEGGER_RTT.c ****   SEGGER_RTT_LOCK();
 1625              		.loc 1 1088 3 discriminator 3 view .LVU470
 1626              		.loc 1 1088 3 discriminator 3 view .LVU471
 1627              		.syntax unified
 1628              	@ 1088 "Middlewares/Third_Party/SEGGER_RTT/SEGGER_RTT.c" 1
 1629 000c EFF31186 		mrs   r6, basepri  
 1630 0010 4FF02001 		mov   r1, #32       
 1631 0014 81F31188 		msr   basepri, r1  
 1632              		
 1633              	@ 0 "" 2
 1634              	.LVL179:
 1635              		.loc 1 1088 20 discriminator 3 view .LVU472
1089:Middlewares/Third_Party/SEGGER_RTT/SEGGER_RTT.c ****   //
1090:Middlewares/Third_Party/SEGGER_RTT/SEGGER_RTT.c ****   // Get "to-host" ring buffer.
1091:Middlewares/Third_Party/SEGGER_RTT/SEGGER_RTT.c ****   //
1092:Middlewares/Third_Party/SEGGER_RTT/SEGGER_RTT.c ****   pRing = &_SEGGER_RTT.aUp[BufferIndex];
 1636              		.loc 1 1092 3 discriminator 3 view .LVU473
1093:Middlewares/Third_Party/SEGGER_RTT/SEGGER_RTT.c ****   //
1094:Middlewares/Third_Party/SEGGER_RTT/SEGGER_RTT.c ****   // Get write position and handle wrap-around if necessary
1095:Middlewares/Third_Party/SEGGER_RTT/SEGGER_RTT.c ****   //
1096:Middlewares/Third_Party/SEGGER_RTT/SEGGER_RTT.c ****   WrOff = pRing->WrOff + 1;
 1637              		.loc 1 1096 3 discriminator 3 view .LVU474
 1638              		.loc 1 1096 16 is_stmt 0 discriminator 3 view .LVU475
 1639              		.thumb
 1640              		.syntax unified
 1641 0018 04EB4403 		add	r3, r4, r4, lsl #1
 1642 001c 134A     		ldr	r2, .L104
 1643 001e 02EBC303 		add	r3, r2, r3, lsl #3
 1644 0022 5F6A     		ldr	r7, [r3, #36]
 1645              		.loc 1 1096 9 discriminator 3 view .LVU476
 1646 0024 7A1C     		adds	r2, r7, #1
ARM GAS  C:\Users\Brandon\AppData\Local\Temp\ccaGXwj6.s 			page 53


 1647              	.LVL180:
1097:Middlewares/Third_Party/SEGGER_RTT/SEGGER_RTT.c ****   if (WrOff == pRing->SizeOfBuffer) {
 1648              		.loc 1 1097 3 is_stmt 1 discriminator 3 view .LVU477
 1649              		.loc 1 1097 21 is_stmt 0 discriminator 3 view .LVU478
 1650 0026 1B6A     		ldr	r3, [r3, #32]
 1651              		.loc 1 1097 6 discriminator 3 view .LVU479
 1652 0028 9342     		cmp	r3, r2
 1653 002a 1AD0     		beq	.L103
 1654              	.LVL181:
 1655              	.L97:
1098:Middlewares/Third_Party/SEGGER_RTT/SEGGER_RTT.c ****     WrOff = 0;
1099:Middlewares/Third_Party/SEGGER_RTT/SEGGER_RTT.c ****   }
1100:Middlewares/Third_Party/SEGGER_RTT/SEGGER_RTT.c ****   //
1101:Middlewares/Third_Party/SEGGER_RTT/SEGGER_RTT.c ****   // Output byte if free space is available
1102:Middlewares/Third_Party/SEGGER_RTT/SEGGER_RTT.c ****   //
1103:Middlewares/Third_Party/SEGGER_RTT/SEGGER_RTT.c ****   if (WrOff != pRing->RdOff) {
 1656              		.loc 1 1103 3 is_stmt 1 view .LVU480
 1657              		.loc 1 1103 21 is_stmt 0 view .LVU481
 1658 002c 04EB4403 		add	r3, r4, r4, lsl #1
 1659 0030 0E49     		ldr	r1, .L104
 1660 0032 01EBC303 		add	r3, r1, r3, lsl #3
 1661 0036 9B6A     		ldr	r3, [r3, #40]
 1662              		.loc 1 1103 6 view .LVU482
 1663 0038 9342     		cmp	r3, r2
 1664 003a 14D0     		beq	.L100
1104:Middlewares/Third_Party/SEGGER_RTT/SEGGER_RTT.c ****     pRing->pBuffer[pRing->WrOff] = c;
 1665              		.loc 1 1104 5 is_stmt 1 view .LVU483
 1666              		.loc 1 1104 10 is_stmt 0 view .LVU484
 1667 003c 631C     		adds	r3, r4, #1
 1668 003e 03EB4303 		add	r3, r3, r3, lsl #1
 1669 0042 01EBC303 		add	r3, r1, r3, lsl #3
 1670 0046 5B68     		ldr	r3, [r3, #4]
 1671              		.loc 1 1104 34 view .LVU485
 1672 0048 DD55     		strb	r5, [r3, r7]
1105:Middlewares/Third_Party/SEGGER_RTT/SEGGER_RTT.c ****     pRing->WrOff = WrOff;
 1673              		.loc 1 1105 5 is_stmt 1 view .LVU486
 1674              		.loc 1 1105 18 is_stmt 0 view .LVU487
 1675 004a 04EB4404 		add	r4, r4, r4, lsl #1
 1676              	.LVL182:
 1677              		.loc 1 1105 18 view .LVU488
 1678 004e 01EBC404 		add	r4, r1, r4, lsl #3
 1679 0052 6262     		str	r2, [r4, #36]
1106:Middlewares/Third_Party/SEGGER_RTT/SEGGER_RTT.c ****     Status = 1;
 1680              		.loc 1 1106 5 is_stmt 1 view .LVU489
 1681              	.LVL183:
 1682              		.loc 1 1106 12 is_stmt 0 view .LVU490
 1683 0054 0120     		movs	r0, #1
 1684              	.LVL184:
 1685              	.L98:
1107:Middlewares/Third_Party/SEGGER_RTT/SEGGER_RTT.c ****   } else {
1108:Middlewares/Third_Party/SEGGER_RTT/SEGGER_RTT.c ****     Status = 0;
1109:Middlewares/Third_Party/SEGGER_RTT/SEGGER_RTT.c ****   }
1110:Middlewares/Third_Party/SEGGER_RTT/SEGGER_RTT.c ****   //
1111:Middlewares/Third_Party/SEGGER_RTT/SEGGER_RTT.c ****   // Finish up.
1112:Middlewares/Third_Party/SEGGER_RTT/SEGGER_RTT.c ****   //
1113:Middlewares/Third_Party/SEGGER_RTT/SEGGER_RTT.c ****   SEGGER_RTT_UNLOCK();
 1686              		.loc 1 1113 3 is_stmt 1 view .LVU491
ARM GAS  C:\Users\Brandon\AppData\Local\Temp\ccaGXwj6.s 			page 54


 1687              		.syntax unified
 1688              	@ 1113 "Middlewares/Third_Party/SEGGER_RTT/SEGGER_RTT.c" 1
 1689 0056 86F31188 		msr   basepri, r6  
 1690              		
 1691              	@ 0 "" 2
 1692              		.thumb
 1693              		.syntax unified
 1694              	.LBE4:
 1695              		.loc 1 1113 22 view .LVU492
1114:Middlewares/Third_Party/SEGGER_RTT/SEGGER_RTT.c ****   //
1115:Middlewares/Third_Party/SEGGER_RTT/SEGGER_RTT.c ****   return Status;
 1696              		.loc 1 1115 3 view .LVU493
1116:Middlewares/Third_Party/SEGGER_RTT/SEGGER_RTT.c **** }
 1697              		.loc 1 1116 1 is_stmt 0 view .LVU494
 1698 005a F8BD     		pop	{r3, r4, r5, r6, r7, pc}
 1699              	.LVL185:
 1700              	.L102:
1087:Middlewares/Third_Party/SEGGER_RTT/SEGGER_RTT.c ****   SEGGER_RTT_LOCK();
 1701              		.loc 1 1087 3 is_stmt 1 discriminator 1 view .LVU495
 1702 005c FFF7FEFF 		bl	_DoInit
 1703              	.LVL186:
1087:Middlewares/Third_Party/SEGGER_RTT/SEGGER_RTT.c ****   SEGGER_RTT_LOCK();
 1704              		.loc 1 1087 3 is_stmt 0 discriminator 1 view .LVU496
 1705 0060 D4E7     		b	.L96
 1706              	.LVL187:
 1707              	.L103:
 1708              	.LBB5:
1098:Middlewares/Third_Party/SEGGER_RTT/SEGGER_RTT.c ****   }
 1709              		.loc 1 1098 11 view .LVU497
 1710 0062 0022     		movs	r2, #0
 1711              	.LVL188:
1098:Middlewares/Third_Party/SEGGER_RTT/SEGGER_RTT.c ****   }
 1712              		.loc 1 1098 11 view .LVU498
 1713 0064 E2E7     		b	.L97
 1714              	.LVL189:
 1715              	.L100:
1108:Middlewares/Third_Party/SEGGER_RTT/SEGGER_RTT.c ****   }
 1716              		.loc 1 1108 12 view .LVU499
 1717 0066 0020     		movs	r0, #0
 1718 0068 F5E7     		b	.L98
 1719              	.L105:
 1720 006a 00BF     		.align	2
 1721              	.L104:
 1722 006c 00000000 		.word	_SEGGER_RTT
 1723              	.LBE5:
 1724              		.cfi_endproc
 1725              	.LFE13:
 1727              		.section	.text.SEGGER_RTT_PutChar,"ax",%progbits
 1728              		.align	1
 1729              		.global	SEGGER_RTT_PutChar
 1730              		.syntax unified
 1731              		.thumb
 1732              		.thumb_func
 1733              		.fpu fpv5-d16
 1735              	SEGGER_RTT_PutChar:
 1736              	.LVL190:
 1737              	.LFB14:
ARM GAS  C:\Users\Brandon\AppData\Local\Temp\ccaGXwj6.s 			page 55


1117:Middlewares/Third_Party/SEGGER_RTT/SEGGER_RTT.c **** 
1118:Middlewares/Third_Party/SEGGER_RTT/SEGGER_RTT.c ****  /*********************************************************************
1119:Middlewares/Third_Party/SEGGER_RTT/SEGGER_RTT.c **** *
1120:Middlewares/Third_Party/SEGGER_RTT/SEGGER_RTT.c **** *       SEGGER_RTT_PutChar
1121:Middlewares/Third_Party/SEGGER_RTT/SEGGER_RTT.c **** *
1122:Middlewares/Third_Party/SEGGER_RTT/SEGGER_RTT.c **** *  Function description
1123:Middlewares/Third_Party/SEGGER_RTT/SEGGER_RTT.c **** *    Stores a single character/byte in SEGGER RTT buffer.
1124:Middlewares/Third_Party/SEGGER_RTT/SEGGER_RTT.c **** *
1125:Middlewares/Third_Party/SEGGER_RTT/SEGGER_RTT.c **** *  Parameters
1126:Middlewares/Third_Party/SEGGER_RTT/SEGGER_RTT.c **** *    BufferIndex  Index of "Up"-buffer to be used (e.g. 0 for "Terminal").
1127:Middlewares/Third_Party/SEGGER_RTT/SEGGER_RTT.c **** *    c            Byte to be stored.
1128:Middlewares/Third_Party/SEGGER_RTT/SEGGER_RTT.c **** *
1129:Middlewares/Third_Party/SEGGER_RTT/SEGGER_RTT.c **** *  Return value
1130:Middlewares/Third_Party/SEGGER_RTT/SEGGER_RTT.c **** *    Number of bytes which have been stored in the "Up"-buffer.
1131:Middlewares/Third_Party/SEGGER_RTT/SEGGER_RTT.c **** *
1132:Middlewares/Third_Party/SEGGER_RTT/SEGGER_RTT.c **** *  Notes
1133:Middlewares/Third_Party/SEGGER_RTT/SEGGER_RTT.c **** *    (1) Data is stored according to buffer flags.
1134:Middlewares/Third_Party/SEGGER_RTT/SEGGER_RTT.c **** */
1135:Middlewares/Third_Party/SEGGER_RTT/SEGGER_RTT.c **** 
1136:Middlewares/Third_Party/SEGGER_RTT/SEGGER_RTT.c **** unsigned SEGGER_RTT_PutChar(unsigned BufferIndex, char c) {
 1738              		.loc 1 1136 59 is_stmt 1 view -0
 1739              		.cfi_startproc
 1740              		@ args = 0, pretend = 0, frame = 0
 1741              		@ frame_needed = 0, uses_anonymous_args = 0
 1742              		.loc 1 1136 59 is_stmt 0 view .LVU501
 1743 0000 70B5     		push	{r4, r5, r6, lr}
 1744              	.LCFI19:
 1745              		.cfi_def_cfa_offset 16
 1746              		.cfi_offset 4, -16
 1747              		.cfi_offset 5, -12
 1748              		.cfi_offset 6, -8
 1749              		.cfi_offset 14, -4
 1750 0002 0446     		mov	r4, r0
 1751 0004 0D46     		mov	r5, r1
1137:Middlewares/Third_Party/SEGGER_RTT/SEGGER_RTT.c ****   SEGGER_RTT_BUFFER_UP* pRing;
 1752              		.loc 1 1137 3 is_stmt 1 view .LVU502
1138:Middlewares/Third_Party/SEGGER_RTT/SEGGER_RTT.c ****   unsigned              WrOff;
 1753              		.loc 1 1138 3 view .LVU503
1139:Middlewares/Third_Party/SEGGER_RTT/SEGGER_RTT.c ****   unsigned              Status;
 1754              		.loc 1 1139 3 view .LVU504
1140:Middlewares/Third_Party/SEGGER_RTT/SEGGER_RTT.c ****   //
1141:Middlewares/Third_Party/SEGGER_RTT/SEGGER_RTT.c ****   // Prepare
1142:Middlewares/Third_Party/SEGGER_RTT/SEGGER_RTT.c ****   //
1143:Middlewares/Third_Party/SEGGER_RTT/SEGGER_RTT.c ****   INIT();
 1755              		.loc 1 1143 3 view .LVU505
 1756              		.loc 1 1143 3 view .LVU506
 1757 0006 214B     		ldr	r3, .L117
 1758 0008 1B78     		ldrb	r3, [r3]	@ zero_extendqisi2
 1759 000a 7BB3     		cbz	r3, .L115
 1760              	.LVL191:
 1761              	.L107:
 1762              		.loc 1 1143 3 discriminator 3 view .LVU507
 1763              	.LBB6:
1144:Middlewares/Third_Party/SEGGER_RTT/SEGGER_RTT.c ****   SEGGER_RTT_LOCK();
 1764              		.loc 1 1144 3 discriminator 3 view .LVU508
 1765              		.loc 1 1144 3 discriminator 3 view .LVU509
 1766              		.syntax unified
ARM GAS  C:\Users\Brandon\AppData\Local\Temp\ccaGXwj6.s 			page 56


 1767              	@ 1144 "Middlewares/Third_Party/SEGGER_RTT/SEGGER_RTT.c" 1
 1768 000c EFF31186 		mrs   r6, basepri  
 1769 0010 4FF02001 		mov   r1, #32       
 1770 0014 81F31188 		msr   basepri, r1  
 1771              		
 1772              	@ 0 "" 2
 1773              	.LVL192:
 1774              		.loc 1 1144 20 discriminator 3 view .LVU510
1145:Middlewares/Third_Party/SEGGER_RTT/SEGGER_RTT.c ****   //
1146:Middlewares/Third_Party/SEGGER_RTT/SEGGER_RTT.c ****   // Get "to-host" ring buffer.
1147:Middlewares/Third_Party/SEGGER_RTT/SEGGER_RTT.c ****   //
1148:Middlewares/Third_Party/SEGGER_RTT/SEGGER_RTT.c ****   pRing = &_SEGGER_RTT.aUp[BufferIndex];
 1775              		.loc 1 1148 3 discriminator 3 view .LVU511
1149:Middlewares/Third_Party/SEGGER_RTT/SEGGER_RTT.c ****   //
1150:Middlewares/Third_Party/SEGGER_RTT/SEGGER_RTT.c ****   // Get write position and handle wrap-around if necessary
1151:Middlewares/Third_Party/SEGGER_RTT/SEGGER_RTT.c ****   //
1152:Middlewares/Third_Party/SEGGER_RTT/SEGGER_RTT.c ****   WrOff = pRing->WrOff + 1;
 1776              		.loc 1 1152 3 discriminator 3 view .LVU512
 1777              		.loc 1 1152 16 is_stmt 0 discriminator 3 view .LVU513
 1778              		.thumb
 1779              		.syntax unified
 1780 0018 04EB4403 		add	r3, r4, r4, lsl #1
 1781 001c 1B4A     		ldr	r2, .L117
 1782 001e 02EBC303 		add	r3, r2, r3, lsl #3
 1783 0022 596A     		ldr	r1, [r3, #36]
 1784              		.loc 1 1152 9 discriminator 3 view .LVU514
 1785 0024 481C     		adds	r0, r1, #1
 1786              	.LVL193:
1153:Middlewares/Third_Party/SEGGER_RTT/SEGGER_RTT.c ****   if (WrOff == pRing->SizeOfBuffer) {
 1787              		.loc 1 1153 3 is_stmt 1 discriminator 3 view .LVU515
 1788              		.loc 1 1153 21 is_stmt 0 discriminator 3 view .LVU516
 1789 0026 1B6A     		ldr	r3, [r3, #32]
 1790              		.loc 1 1153 6 discriminator 3 view .LVU517
 1791 0028 8342     		cmp	r3, r0
 1792 002a 22D0     		beq	.L116
 1793              	.LVL194:
 1794              	.L108:
1154:Middlewares/Third_Party/SEGGER_RTT/SEGGER_RTT.c ****     WrOff = 0;
1155:Middlewares/Third_Party/SEGGER_RTT/SEGGER_RTT.c ****   }
1156:Middlewares/Third_Party/SEGGER_RTT/SEGGER_RTT.c ****   //
1157:Middlewares/Third_Party/SEGGER_RTT/SEGGER_RTT.c ****   // Wait for free space if mode is set to blocking
1158:Middlewares/Third_Party/SEGGER_RTT/SEGGER_RTT.c ****   //
1159:Middlewares/Third_Party/SEGGER_RTT/SEGGER_RTT.c ****   if (pRing->Flags == SEGGER_RTT_MODE_BLOCK_IF_FIFO_FULL) {
 1795              		.loc 1 1159 3 is_stmt 1 view .LVU518
 1796              		.loc 1 1159 12 is_stmt 0 view .LVU519
 1797 002c 04EB4403 		add	r3, r4, r4, lsl #1
 1798 0030 164A     		ldr	r2, .L117
 1799 0032 02EBC303 		add	r3, r2, r3, lsl #3
 1800 0036 DB6A     		ldr	r3, [r3, #44]
 1801              		.loc 1 1159 6 view .LVU520
 1802 0038 022B     		cmp	r3, #2
 1803 003a 1CD0     		beq	.L110
 1804              	.L109:
1160:Middlewares/Third_Party/SEGGER_RTT/SEGGER_RTT.c ****     while (WrOff == pRing->RdOff) {
1161:Middlewares/Third_Party/SEGGER_RTT/SEGGER_RTT.c ****       ;
1162:Middlewares/Third_Party/SEGGER_RTT/SEGGER_RTT.c ****     }
1163:Middlewares/Third_Party/SEGGER_RTT/SEGGER_RTT.c ****   }
ARM GAS  C:\Users\Brandon\AppData\Local\Temp\ccaGXwj6.s 			page 57


1164:Middlewares/Third_Party/SEGGER_RTT/SEGGER_RTT.c ****   //
1165:Middlewares/Third_Party/SEGGER_RTT/SEGGER_RTT.c ****   // Output byte if free space is available
1166:Middlewares/Third_Party/SEGGER_RTT/SEGGER_RTT.c ****   //
1167:Middlewares/Third_Party/SEGGER_RTT/SEGGER_RTT.c ****   if (WrOff != pRing->RdOff) {
 1805              		.loc 1 1167 3 is_stmt 1 view .LVU521
 1806              		.loc 1 1167 21 is_stmt 0 view .LVU522
 1807 003c 04EB4403 		add	r3, r4, r4, lsl #1
 1808 0040 124A     		ldr	r2, .L117
 1809 0042 02EBC303 		add	r3, r2, r3, lsl #3
 1810 0046 9B6A     		ldr	r3, [r3, #40]
 1811              		.loc 1 1167 6 view .LVU523
 1812 0048 8342     		cmp	r3, r0
 1813 004a 1DD0     		beq	.L113
1168:Middlewares/Third_Party/SEGGER_RTT/SEGGER_RTT.c ****     pRing->pBuffer[pRing->WrOff] = c;
 1814              		.loc 1 1168 5 is_stmt 1 view .LVU524
 1815              		.loc 1 1168 10 is_stmt 0 view .LVU525
 1816 004c 631C     		adds	r3, r4, #1
 1817 004e 03EB4303 		add	r3, r3, r3, lsl #1
 1818 0052 02EBC303 		add	r3, r2, r3, lsl #3
 1819 0056 5B68     		ldr	r3, [r3, #4]
 1820              		.loc 1 1168 34 view .LVU526
 1821 0058 5D54     		strb	r5, [r3, r1]
1169:Middlewares/Third_Party/SEGGER_RTT/SEGGER_RTT.c ****     pRing->WrOff = WrOff;
 1822              		.loc 1 1169 5 is_stmt 1 view .LVU527
 1823              		.loc 1 1169 18 is_stmt 0 view .LVU528
 1824 005a 04EB4404 		add	r4, r4, r4, lsl #1
 1825              	.LVL195:
 1826              		.loc 1 1169 18 view .LVU529
 1827 005e 02EBC404 		add	r4, r2, r4, lsl #3
 1828 0062 6062     		str	r0, [r4, #36]
1170:Middlewares/Third_Party/SEGGER_RTT/SEGGER_RTT.c ****     Status = 1;
 1829              		.loc 1 1170 5 is_stmt 1 view .LVU530
 1830              	.LVL196:
 1831              		.loc 1 1170 12 is_stmt 0 view .LVU531
 1832 0064 0120     		movs	r0, #1
 1833              	.LVL197:
 1834              	.L111:
1171:Middlewares/Third_Party/SEGGER_RTT/SEGGER_RTT.c ****   } else {
1172:Middlewares/Third_Party/SEGGER_RTT/SEGGER_RTT.c ****     Status = 0;
1173:Middlewares/Third_Party/SEGGER_RTT/SEGGER_RTT.c ****   }
1174:Middlewares/Third_Party/SEGGER_RTT/SEGGER_RTT.c ****   //
1175:Middlewares/Third_Party/SEGGER_RTT/SEGGER_RTT.c ****   // Finish up.
1176:Middlewares/Third_Party/SEGGER_RTT/SEGGER_RTT.c ****   //
1177:Middlewares/Third_Party/SEGGER_RTT/SEGGER_RTT.c ****   SEGGER_RTT_UNLOCK();
 1835              		.loc 1 1177 3 is_stmt 1 view .LVU532
 1836              		.syntax unified
 1837              	@ 1177 "Middlewares/Third_Party/SEGGER_RTT/SEGGER_RTT.c" 1
 1838 0066 86F31188 		msr   basepri, r6  
 1839              		
 1840              	@ 0 "" 2
 1841              		.thumb
 1842              		.syntax unified
 1843              	.LBE6:
 1844              		.loc 1 1177 22 view .LVU533
1178:Middlewares/Third_Party/SEGGER_RTT/SEGGER_RTT.c ****   //
1179:Middlewares/Third_Party/SEGGER_RTT/SEGGER_RTT.c ****   return Status;
 1845              		.loc 1 1179 3 view .LVU534
ARM GAS  C:\Users\Brandon\AppData\Local\Temp\ccaGXwj6.s 			page 58


1180:Middlewares/Third_Party/SEGGER_RTT/SEGGER_RTT.c **** }
 1846              		.loc 1 1180 1 is_stmt 0 view .LVU535
 1847 006a 70BD     		pop	{r4, r5, r6, pc}
 1848              	.LVL198:
 1849              	.L115:
1143:Middlewares/Third_Party/SEGGER_RTT/SEGGER_RTT.c ****   SEGGER_RTT_LOCK();
 1850              		.loc 1 1143 3 is_stmt 1 discriminator 1 view .LVU536
 1851 006c FFF7FEFF 		bl	_DoInit
 1852              	.LVL199:
1143:Middlewares/Third_Party/SEGGER_RTT/SEGGER_RTT.c ****   SEGGER_RTT_LOCK();
 1853              		.loc 1 1143 3 is_stmt 0 discriminator 1 view .LVU537
 1854 0070 CCE7     		b	.L107
 1855              	.LVL200:
 1856              	.L116:
 1857              	.LBB7:
1154:Middlewares/Third_Party/SEGGER_RTT/SEGGER_RTT.c ****   }
 1858              		.loc 1 1154 11 view .LVU538
 1859 0072 0020     		movs	r0, #0
 1860              	.LVL201:
1154:Middlewares/Third_Party/SEGGER_RTT/SEGGER_RTT.c ****   }
 1861              		.loc 1 1154 11 view .LVU539
 1862 0074 DAE7     		b	.L108
 1863              	.LVL202:
 1864              	.L110:
1161:Middlewares/Third_Party/SEGGER_RTT/SEGGER_RTT.c ****     }
 1865              		.loc 1 1161 7 is_stmt 1 discriminator 1 view .LVU540
1160:Middlewares/Third_Party/SEGGER_RTT/SEGGER_RTT.c ****       ;
 1866              		.loc 1 1160 11 discriminator 1 view .LVU541
1160:Middlewares/Third_Party/SEGGER_RTT/SEGGER_RTT.c ****       ;
 1867              		.loc 1 1160 26 is_stmt 0 discriminator 1 view .LVU542
 1868 0076 04EB4403 		add	r3, r4, r4, lsl #1
 1869 007a 044A     		ldr	r2, .L117
 1870 007c 02EBC303 		add	r3, r2, r3, lsl #3
 1871 0080 9B6A     		ldr	r3, [r3, #40]
1160:Middlewares/Third_Party/SEGGER_RTT/SEGGER_RTT.c ****       ;
 1872              		.loc 1 1160 11 discriminator 1 view .LVU543
 1873 0082 8342     		cmp	r3, r0
 1874 0084 F7D0     		beq	.L110
 1875 0086 D9E7     		b	.L109
 1876              	.L113:
1172:Middlewares/Third_Party/SEGGER_RTT/SEGGER_RTT.c ****   }
 1877              		.loc 1 1172 12 view .LVU544
 1878 0088 0020     		movs	r0, #0
 1879              	.LVL203:
1172:Middlewares/Third_Party/SEGGER_RTT/SEGGER_RTT.c ****   }
 1880              		.loc 1 1172 12 view .LVU545
 1881 008a ECE7     		b	.L111
 1882              	.L118:
 1883              		.align	2
 1884              	.L117:
 1885 008c 00000000 		.word	_SEGGER_RTT
 1886              	.LBE7:
 1887              		.cfi_endproc
 1888              	.LFE14:
 1890              		.section	.text.SEGGER_RTT_GetKey,"ax",%progbits
 1891              		.align	1
 1892              		.global	SEGGER_RTT_GetKey
ARM GAS  C:\Users\Brandon\AppData\Local\Temp\ccaGXwj6.s 			page 59


 1893              		.syntax unified
 1894              		.thumb
 1895              		.thumb_func
 1896              		.fpu fpv5-d16
 1898              	SEGGER_RTT_GetKey:
 1899              	.LFB15:
1181:Middlewares/Third_Party/SEGGER_RTT/SEGGER_RTT.c **** 
1182:Middlewares/Third_Party/SEGGER_RTT/SEGGER_RTT.c **** /*********************************************************************
1183:Middlewares/Third_Party/SEGGER_RTT/SEGGER_RTT.c **** *
1184:Middlewares/Third_Party/SEGGER_RTT/SEGGER_RTT.c **** *       SEGGER_RTT_GetKey
1185:Middlewares/Third_Party/SEGGER_RTT/SEGGER_RTT.c **** *
1186:Middlewares/Third_Party/SEGGER_RTT/SEGGER_RTT.c **** *  Function description
1187:Middlewares/Third_Party/SEGGER_RTT/SEGGER_RTT.c **** *    Reads one character from the SEGGER RTT buffer.
1188:Middlewares/Third_Party/SEGGER_RTT/SEGGER_RTT.c **** *    Host has previously stored data there.
1189:Middlewares/Third_Party/SEGGER_RTT/SEGGER_RTT.c **** *
1190:Middlewares/Third_Party/SEGGER_RTT/SEGGER_RTT.c **** *  Return value
1191:Middlewares/Third_Party/SEGGER_RTT/SEGGER_RTT.c **** *    <  0 -   No character available (buffer empty).
1192:Middlewares/Third_Party/SEGGER_RTT/SEGGER_RTT.c **** *    >= 0 -   Character which has been read. (Possible values: 0 - 255)
1193:Middlewares/Third_Party/SEGGER_RTT/SEGGER_RTT.c **** *
1194:Middlewares/Third_Party/SEGGER_RTT/SEGGER_RTT.c **** *  Notes
1195:Middlewares/Third_Party/SEGGER_RTT/SEGGER_RTT.c **** *    (1) This function is only specified for accesses to RTT buffer 0.
1196:Middlewares/Third_Party/SEGGER_RTT/SEGGER_RTT.c **** */
1197:Middlewares/Third_Party/SEGGER_RTT/SEGGER_RTT.c **** int SEGGER_RTT_GetKey(void) {
 1900              		.loc 1 1197 29 is_stmt 1 view -0
 1901              		.cfi_startproc
 1902              		@ args = 0, pretend = 0, frame = 8
 1903              		@ frame_needed = 0, uses_anonymous_args = 0
 1904 0000 00B5     		push	{lr}
 1905              	.LCFI20:
 1906              		.cfi_def_cfa_offset 4
 1907              		.cfi_offset 14, -4
 1908 0002 83B0     		sub	sp, sp, #12
 1909              	.LCFI21:
 1910              		.cfi_def_cfa_offset 16
1198:Middlewares/Third_Party/SEGGER_RTT/SEGGER_RTT.c ****   char c;
 1911              		.loc 1 1198 3 view .LVU547
1199:Middlewares/Third_Party/SEGGER_RTT/SEGGER_RTT.c ****   int r;
 1912              		.loc 1 1199 3 view .LVU548
1200:Middlewares/Third_Party/SEGGER_RTT/SEGGER_RTT.c **** 
1201:Middlewares/Third_Party/SEGGER_RTT/SEGGER_RTT.c ****   r = (int)SEGGER_RTT_Read(0u, &c, 1u);
 1913              		.loc 1 1201 3 view .LVU549
 1914              		.loc 1 1201 12 is_stmt 0 view .LVU550
 1915 0004 0122     		movs	r2, #1
 1916 0006 0DF10701 		add	r1, sp, #7
 1917 000a 0020     		movs	r0, #0
 1918 000c FFF7FEFF 		bl	SEGGER_RTT_Read
 1919              	.LVL204:
1202:Middlewares/Third_Party/SEGGER_RTT/SEGGER_RTT.c ****   if (r == 1) {
 1920              		.loc 1 1202 3 is_stmt 1 view .LVU551
 1921              		.loc 1 1202 6 is_stmt 0 view .LVU552
 1922 0010 0128     		cmp	r0, #1
 1923 0012 04D1     		bne	.L121
1203:Middlewares/Third_Party/SEGGER_RTT/SEGGER_RTT.c ****     r = (int)(unsigned char)c;
 1924              		.loc 1 1203 5 is_stmt 1 view .LVU553
 1925              		.loc 1 1203 9 is_stmt 0 view .LVU554
 1926 0014 9DF80700 		ldrb	r0, [sp, #7]	@ zero_extendqisi2
 1927              	.LVL205:
ARM GAS  C:\Users\Brandon\AppData\Local\Temp\ccaGXwj6.s 			page 60


 1928              	.L119:
1204:Middlewares/Third_Party/SEGGER_RTT/SEGGER_RTT.c ****   } else {
1205:Middlewares/Third_Party/SEGGER_RTT/SEGGER_RTT.c ****     r = -1;
1206:Middlewares/Third_Party/SEGGER_RTT/SEGGER_RTT.c ****   }
1207:Middlewares/Third_Party/SEGGER_RTT/SEGGER_RTT.c ****   return r;
1208:Middlewares/Third_Party/SEGGER_RTT/SEGGER_RTT.c **** }
 1929              		.loc 1 1208 1 view .LVU555
 1930 0018 03B0     		add	sp, sp, #12
 1931              	.LCFI22:
 1932              		.cfi_remember_state
 1933              		.cfi_def_cfa_offset 4
 1934              		@ sp needed
 1935 001a 5DF804FB 		ldr	pc, [sp], #4
 1936              	.LVL206:
 1937              	.L121:
 1938              	.LCFI23:
 1939              		.cfi_restore_state
1205:Middlewares/Third_Party/SEGGER_RTT/SEGGER_RTT.c ****   }
 1940              		.loc 1 1205 7 view .LVU556
 1941 001e 4FF0FF30 		mov	r0, #-1
 1942              	.LVL207:
1207:Middlewares/Third_Party/SEGGER_RTT/SEGGER_RTT.c **** }
 1943              		.loc 1 1207 3 is_stmt 1 view .LVU557
1207:Middlewares/Third_Party/SEGGER_RTT/SEGGER_RTT.c **** }
 1944              		.loc 1 1207 10 is_stmt 0 view .LVU558
 1945 0022 F9E7     		b	.L119
 1946              		.cfi_endproc
 1947              	.LFE15:
 1949              		.section	.text.SEGGER_RTT_WaitKey,"ax",%progbits
 1950              		.align	1
 1951              		.global	SEGGER_RTT_WaitKey
 1952              		.syntax unified
 1953              		.thumb
 1954              		.thumb_func
 1955              		.fpu fpv5-d16
 1957              	SEGGER_RTT_WaitKey:
 1958              	.LFB16:
1209:Middlewares/Third_Party/SEGGER_RTT/SEGGER_RTT.c **** 
1210:Middlewares/Third_Party/SEGGER_RTT/SEGGER_RTT.c **** /*********************************************************************
1211:Middlewares/Third_Party/SEGGER_RTT/SEGGER_RTT.c **** *
1212:Middlewares/Third_Party/SEGGER_RTT/SEGGER_RTT.c **** *       SEGGER_RTT_WaitKey
1213:Middlewares/Third_Party/SEGGER_RTT/SEGGER_RTT.c **** *
1214:Middlewares/Third_Party/SEGGER_RTT/SEGGER_RTT.c **** *  Function description
1215:Middlewares/Third_Party/SEGGER_RTT/SEGGER_RTT.c **** *    Waits until at least one character is avaible in the SEGGER RTT buffer.
1216:Middlewares/Third_Party/SEGGER_RTT/SEGGER_RTT.c **** *    Once a character is available, it is read and this function returns.
1217:Middlewares/Third_Party/SEGGER_RTT/SEGGER_RTT.c **** *
1218:Middlewares/Third_Party/SEGGER_RTT/SEGGER_RTT.c **** *  Return value
1219:Middlewares/Third_Party/SEGGER_RTT/SEGGER_RTT.c **** *    >=0 -   Character which has been read.
1220:Middlewares/Third_Party/SEGGER_RTT/SEGGER_RTT.c **** *
1221:Middlewares/Third_Party/SEGGER_RTT/SEGGER_RTT.c **** *  Notes
1222:Middlewares/Third_Party/SEGGER_RTT/SEGGER_RTT.c **** *    (1) This function is only specified for accesses to RTT buffer 0
1223:Middlewares/Third_Party/SEGGER_RTT/SEGGER_RTT.c **** *    (2) This function is blocking if no character is present in RTT buffer
1224:Middlewares/Third_Party/SEGGER_RTT/SEGGER_RTT.c **** */
1225:Middlewares/Third_Party/SEGGER_RTT/SEGGER_RTT.c **** int SEGGER_RTT_WaitKey(void) {
 1959              		.loc 1 1225 30 is_stmt 1 view -0
 1960              		.cfi_startproc
 1961              		@ args = 0, pretend = 0, frame = 0
ARM GAS  C:\Users\Brandon\AppData\Local\Temp\ccaGXwj6.s 			page 61


 1962              		@ frame_needed = 0, uses_anonymous_args = 0
 1963 0000 08B5     		push	{r3, lr}
 1964              	.LCFI24:
 1965              		.cfi_def_cfa_offset 8
 1966              		.cfi_offset 3, -8
 1967              		.cfi_offset 14, -4
 1968              	.L124:
1226:Middlewares/Third_Party/SEGGER_RTT/SEGGER_RTT.c ****   int r;
 1969              		.loc 1 1226 3 discriminator 1 view .LVU560
1227:Middlewares/Third_Party/SEGGER_RTT/SEGGER_RTT.c **** 
1228:Middlewares/Third_Party/SEGGER_RTT/SEGGER_RTT.c ****   do {
 1970              		.loc 1 1228 3 discriminator 1 view .LVU561
1229:Middlewares/Third_Party/SEGGER_RTT/SEGGER_RTT.c ****     r = SEGGER_RTT_GetKey();
 1971              		.loc 1 1229 5 discriminator 1 view .LVU562
 1972              		.loc 1 1229 9 is_stmt 0 discriminator 1 view .LVU563
 1973 0002 FFF7FEFF 		bl	SEGGER_RTT_GetKey
 1974              	.LVL208:
1230:Middlewares/Third_Party/SEGGER_RTT/SEGGER_RTT.c ****   } while (r < 0);
 1975              		.loc 1 1230 11 is_stmt 1 discriminator 1 view .LVU564
 1976              		.loc 1 1230 3 is_stmt 0 discriminator 1 view .LVU565
 1977 0006 0028     		cmp	r0, #0
 1978              		.loc 1 1230 3 discriminator 1 view .LVU566
 1979 0008 FBDB     		blt	.L124
1231:Middlewares/Third_Party/SEGGER_RTT/SEGGER_RTT.c ****   return r;
1232:Middlewares/Third_Party/SEGGER_RTT/SEGGER_RTT.c **** }
 1980              		.loc 1 1232 1 view .LVU567
 1981 000a 08BD     		pop	{r3, pc}
 1982              		.cfi_endproc
 1983              	.LFE16:
 1985              		.section	.text.SEGGER_RTT_HasKey,"ax",%progbits
 1986              		.align	1
 1987              		.global	SEGGER_RTT_HasKey
 1988              		.syntax unified
 1989              		.thumb
 1990              		.thumb_func
 1991              		.fpu fpv5-d16
 1993              	SEGGER_RTT_HasKey:
 1994              	.LFB17:
1233:Middlewares/Third_Party/SEGGER_RTT/SEGGER_RTT.c **** 
1234:Middlewares/Third_Party/SEGGER_RTT/SEGGER_RTT.c **** /*********************************************************************
1235:Middlewares/Third_Party/SEGGER_RTT/SEGGER_RTT.c **** *
1236:Middlewares/Third_Party/SEGGER_RTT/SEGGER_RTT.c **** *       SEGGER_RTT_HasKey
1237:Middlewares/Third_Party/SEGGER_RTT/SEGGER_RTT.c **** *
1238:Middlewares/Third_Party/SEGGER_RTT/SEGGER_RTT.c **** *  Function description
1239:Middlewares/Third_Party/SEGGER_RTT/SEGGER_RTT.c **** *    Checks if at least one character for reading is available in the SEGGER RTT buffer.
1240:Middlewares/Third_Party/SEGGER_RTT/SEGGER_RTT.c **** *
1241:Middlewares/Third_Party/SEGGER_RTT/SEGGER_RTT.c **** *  Return value
1242:Middlewares/Third_Party/SEGGER_RTT/SEGGER_RTT.c **** *    == 0 -     No characters are available to read.
1243:Middlewares/Third_Party/SEGGER_RTT/SEGGER_RTT.c **** *    == 1 -     At least one character is available.
1244:Middlewares/Third_Party/SEGGER_RTT/SEGGER_RTT.c **** *
1245:Middlewares/Third_Party/SEGGER_RTT/SEGGER_RTT.c **** *  Notes
1246:Middlewares/Third_Party/SEGGER_RTT/SEGGER_RTT.c **** *    (1) This function is only specified for accesses to RTT buffer 0
1247:Middlewares/Third_Party/SEGGER_RTT/SEGGER_RTT.c **** */
1248:Middlewares/Third_Party/SEGGER_RTT/SEGGER_RTT.c **** int SEGGER_RTT_HasKey(void) {
 1995              		.loc 1 1248 29 is_stmt 1 view -0
 1996              		.cfi_startproc
 1997              		@ args = 0, pretend = 0, frame = 0
ARM GAS  C:\Users\Brandon\AppData\Local\Temp\ccaGXwj6.s 			page 62


 1998              		@ frame_needed = 0, uses_anonymous_args = 0
 1999 0000 08B5     		push	{r3, lr}
 2000              	.LCFI25:
 2001              		.cfi_def_cfa_offset 8
 2002              		.cfi_offset 3, -8
 2003              		.cfi_offset 14, -4
1249:Middlewares/Third_Party/SEGGER_RTT/SEGGER_RTT.c ****   unsigned RdOff;
 2004              		.loc 1 1249 3 view .LVU569
1250:Middlewares/Third_Party/SEGGER_RTT/SEGGER_RTT.c ****   int r;
 2005              		.loc 1 1250 3 view .LVU570
1251:Middlewares/Third_Party/SEGGER_RTT/SEGGER_RTT.c **** 
1252:Middlewares/Third_Party/SEGGER_RTT/SEGGER_RTT.c ****   INIT();
 2006              		.loc 1 1252 3 view .LVU571
 2007              		.loc 1 1252 3 view .LVU572
 2008 0002 074B     		ldr	r3, .L132
 2009 0004 1B78     		ldrb	r3, [r3]	@ zero_extendqisi2
 2010 0006 33B1     		cbz	r3, .L131
 2011              	.L127:
 2012              		.loc 1 1252 3 discriminator 3 view .LVU573
1253:Middlewares/Third_Party/SEGGER_RTT/SEGGER_RTT.c ****   RdOff = _SEGGER_RTT.aDown[0].RdOff;
 2013              		.loc 1 1253 3 discriminator 3 view .LVU574
 2014              		.loc 1 1253 9 is_stmt 0 discriminator 3 view .LVU575
 2015 0008 054B     		ldr	r3, .L132
 2016 000a 9A6D     		ldr	r2, [r3, #88]
 2017              	.LVL209:
1254:Middlewares/Third_Party/SEGGER_RTT/SEGGER_RTT.c ****   if (RdOff != _SEGGER_RTT.aDown[0].WrOff) {
 2018              		.loc 1 1254 3 is_stmt 1 discriminator 3 view .LVU576
 2019              		.loc 1 1254 36 is_stmt 0 discriminator 3 view .LVU577
 2020 000c 5B6D     		ldr	r3, [r3, #84]
 2021              		.loc 1 1254 6 discriminator 3 view .LVU578
 2022 000e 9342     		cmp	r3, r2
 2023 0010 04D0     		beq	.L129
1255:Middlewares/Third_Party/SEGGER_RTT/SEGGER_RTT.c ****     r = 1;
 2024              		.loc 1 1255 7 view .LVU579
 2025 0012 0120     		movs	r0, #1
 2026              	.L126:
1256:Middlewares/Third_Party/SEGGER_RTT/SEGGER_RTT.c ****   } else {
1257:Middlewares/Third_Party/SEGGER_RTT/SEGGER_RTT.c ****     r = 0;
1258:Middlewares/Third_Party/SEGGER_RTT/SEGGER_RTT.c ****   }
1259:Middlewares/Third_Party/SEGGER_RTT/SEGGER_RTT.c ****   return r;
1260:Middlewares/Third_Party/SEGGER_RTT/SEGGER_RTT.c **** }
 2027              		.loc 1 1260 1 view .LVU580
 2028 0014 08BD     		pop	{r3, pc}
 2029              	.LVL210:
 2030              	.L131:
1252:Middlewares/Third_Party/SEGGER_RTT/SEGGER_RTT.c ****   RdOff = _SEGGER_RTT.aDown[0].RdOff;
 2031              		.loc 1 1252 3 is_stmt 1 discriminator 1 view .LVU581
 2032 0016 FFF7FEFF 		bl	_DoInit
 2033              	.LVL211:
 2034 001a F5E7     		b	.L127
 2035              	.LVL212:
 2036              	.L129:
1257:Middlewares/Third_Party/SEGGER_RTT/SEGGER_RTT.c ****   }
 2037              		.loc 1 1257 7 is_stmt 0 view .LVU582
 2038 001c 0020     		movs	r0, #0
 2039              	.LVL213:
1259:Middlewares/Third_Party/SEGGER_RTT/SEGGER_RTT.c **** }
ARM GAS  C:\Users\Brandon\AppData\Local\Temp\ccaGXwj6.s 			page 63


 2040              		.loc 1 1259 3 is_stmt 1 view .LVU583
1259:Middlewares/Third_Party/SEGGER_RTT/SEGGER_RTT.c **** }
 2041              		.loc 1 1259 10 is_stmt 0 view .LVU584
 2042 001e F9E7     		b	.L126
 2043              	.L133:
 2044              		.align	2
 2045              	.L132:
 2046 0020 00000000 		.word	_SEGGER_RTT
 2047              		.cfi_endproc
 2048              	.LFE17:
 2050              		.section	.text.SEGGER_RTT_HasData,"ax",%progbits
 2051              		.align	1
 2052              		.global	SEGGER_RTT_HasData
 2053              		.syntax unified
 2054              		.thumb
 2055              		.thumb_func
 2056              		.fpu fpv5-d16
 2058              	SEGGER_RTT_HasData:
 2059              	.LVL214:
 2060              	.LFB18:
1261:Middlewares/Third_Party/SEGGER_RTT/SEGGER_RTT.c **** 
1262:Middlewares/Third_Party/SEGGER_RTT/SEGGER_RTT.c **** /*********************************************************************
1263:Middlewares/Third_Party/SEGGER_RTT/SEGGER_RTT.c **** *
1264:Middlewares/Third_Party/SEGGER_RTT/SEGGER_RTT.c **** *       SEGGER_RTT_HasData
1265:Middlewares/Third_Party/SEGGER_RTT/SEGGER_RTT.c **** *
1266:Middlewares/Third_Party/SEGGER_RTT/SEGGER_RTT.c **** *  Function description
1267:Middlewares/Third_Party/SEGGER_RTT/SEGGER_RTT.c **** *    Check if there is data from the host in the given buffer.
1268:Middlewares/Third_Party/SEGGER_RTT/SEGGER_RTT.c **** *
1269:Middlewares/Third_Party/SEGGER_RTT/SEGGER_RTT.c **** *  Return value:
1270:Middlewares/Third_Party/SEGGER_RTT/SEGGER_RTT.c **** *  ==0:  No data
1271:Middlewares/Third_Party/SEGGER_RTT/SEGGER_RTT.c **** *  !=0:  Data in buffer
1272:Middlewares/Third_Party/SEGGER_RTT/SEGGER_RTT.c **** *
1273:Middlewares/Third_Party/SEGGER_RTT/SEGGER_RTT.c **** */
1274:Middlewares/Third_Party/SEGGER_RTT/SEGGER_RTT.c **** unsigned SEGGER_RTT_HasData(unsigned BufferIndex) {
 2061              		.loc 1 1274 51 is_stmt 1 view -0
 2062              		.cfi_startproc
 2063              		@ args = 0, pretend = 0, frame = 0
 2064              		@ frame_needed = 0, uses_anonymous_args = 0
 2065              		@ link register save eliminated.
1275:Middlewares/Third_Party/SEGGER_RTT/SEGGER_RTT.c ****   SEGGER_RTT_BUFFER_DOWN* pRing;
 2066              		.loc 1 1275 3 view .LVU586
1276:Middlewares/Third_Party/SEGGER_RTT/SEGGER_RTT.c ****   unsigned                v;
 2067              		.loc 1 1276 3 view .LVU587
1277:Middlewares/Third_Party/SEGGER_RTT/SEGGER_RTT.c **** 
1278:Middlewares/Third_Party/SEGGER_RTT/SEGGER_RTT.c ****   pRing = &_SEGGER_RTT.aDown[BufferIndex];
 2068              		.loc 1 1278 3 view .LVU588
1279:Middlewares/Third_Party/SEGGER_RTT/SEGGER_RTT.c ****   v = pRing->WrOff;
 2069              		.loc 1 1279 3 view .LVU589
 2070              		.loc 1 1279 5 is_stmt 0 view .LVU590
 2071 0000 064B     		ldr	r3, .L135
 2072 0002 00EB4002 		add	r2, r0, r0, lsl #1
 2073 0006 03EBC202 		add	r2, r3, r2, lsl #3
 2074 000a 526D     		ldr	r2, [r2, #84]
 2075              	.LVL215:
1280:Middlewares/Third_Party/SEGGER_RTT/SEGGER_RTT.c ****   return v - pRing->RdOff;
 2076              		.loc 1 1280 3 is_stmt 1 view .LVU591
 2077              		.loc 1 1280 19 is_stmt 0 view .LVU592
ARM GAS  C:\Users\Brandon\AppData\Local\Temp\ccaGXwj6.s 			page 64


 2078 000c 00EB4000 		add	r0, r0, r0, lsl #1
 2079              	.LVL216:
 2080              		.loc 1 1280 19 view .LVU593
 2081 0010 03EBC000 		add	r0, r3, r0, lsl #3
 2082 0014 806D     		ldr	r0, [r0, #88]
1281:Middlewares/Third_Party/SEGGER_RTT/SEGGER_RTT.c **** }
 2083              		.loc 1 1281 1 view .LVU594
 2084 0016 101A     		subs	r0, r2, r0
 2085 0018 7047     		bx	lr
 2086              	.L136:
 2087 001a 00BF     		.align	2
 2088              	.L135:
 2089 001c 00000000 		.word	_SEGGER_RTT
 2090              		.cfi_endproc
 2091              	.LFE18:
 2093              		.section	.text.SEGGER_RTT_AllocDownBuffer,"ax",%progbits
 2094              		.align	1
 2095              		.global	SEGGER_RTT_AllocDownBuffer
 2096              		.syntax unified
 2097              		.thumb
 2098              		.thumb_func
 2099              		.fpu fpv5-d16
 2101              	SEGGER_RTT_AllocDownBuffer:
 2102              	.LVL217:
 2103              	.LFB19:
1282:Middlewares/Third_Party/SEGGER_RTT/SEGGER_RTT.c **** 
1283:Middlewares/Third_Party/SEGGER_RTT/SEGGER_RTT.c **** /*********************************************************************
1284:Middlewares/Third_Party/SEGGER_RTT/SEGGER_RTT.c **** *
1285:Middlewares/Third_Party/SEGGER_RTT/SEGGER_RTT.c **** *       SEGGER_RTT_AllocDownBuffer
1286:Middlewares/Third_Party/SEGGER_RTT/SEGGER_RTT.c **** *
1287:Middlewares/Third_Party/SEGGER_RTT/SEGGER_RTT.c **** *  Function description
1288:Middlewares/Third_Party/SEGGER_RTT/SEGGER_RTT.c **** *    Run-time configuration of the next down-buffer (H->T).
1289:Middlewares/Third_Party/SEGGER_RTT/SEGGER_RTT.c **** *    The next buffer, which is not used yet is configured.
1290:Middlewares/Third_Party/SEGGER_RTT/SEGGER_RTT.c **** *    This includes: Buffer address, size, name, flags, ...
1291:Middlewares/Third_Party/SEGGER_RTT/SEGGER_RTT.c **** *
1292:Middlewares/Third_Party/SEGGER_RTT/SEGGER_RTT.c **** *  Parameters
1293:Middlewares/Third_Party/SEGGER_RTT/SEGGER_RTT.c **** *    sName        Pointer to a constant name string.
1294:Middlewares/Third_Party/SEGGER_RTT/SEGGER_RTT.c **** *    pBuffer      Pointer to a buffer to be used.
1295:Middlewares/Third_Party/SEGGER_RTT/SEGGER_RTT.c **** *    BufferSize   Size of the buffer.
1296:Middlewares/Third_Party/SEGGER_RTT/SEGGER_RTT.c **** *    Flags        Operating modes. Define behavior if buffer is full (not enough space for entire m
1297:Middlewares/Third_Party/SEGGER_RTT/SEGGER_RTT.c **** *
1298:Middlewares/Third_Party/SEGGER_RTT/SEGGER_RTT.c **** *  Return value
1299:Middlewares/Third_Party/SEGGER_RTT/SEGGER_RTT.c **** *    >= 0 - O.K. Buffer Index
1300:Middlewares/Third_Party/SEGGER_RTT/SEGGER_RTT.c **** *     < 0 - Error
1301:Middlewares/Third_Party/SEGGER_RTT/SEGGER_RTT.c **** */
1302:Middlewares/Third_Party/SEGGER_RTT/SEGGER_RTT.c **** int SEGGER_RTT_AllocDownBuffer(const char* sName, void* pBuffer, unsigned BufferSize, unsigned Flag
 2104              		.loc 1 1302 103 is_stmt 1 view -0
 2105              		.cfi_startproc
 2106              		@ args = 0, pretend = 0, frame = 0
 2107              		@ frame_needed = 0, uses_anonymous_args = 0
 2108              		.loc 1 1302 103 is_stmt 0 view .LVU596
 2109 0000 2DE9F843 		push	{r3, r4, r5, r6, r7, r8, r9, lr}
 2110              	.LCFI26:
 2111              		.cfi_def_cfa_offset 32
 2112              		.cfi_offset 3, -32
 2113              		.cfi_offset 4, -28
 2114              		.cfi_offset 5, -24
ARM GAS  C:\Users\Brandon\AppData\Local\Temp\ccaGXwj6.s 			page 65


 2115              		.cfi_offset 6, -20
 2116              		.cfi_offset 7, -16
 2117              		.cfi_offset 8, -12
 2118              		.cfi_offset 9, -8
 2119              		.cfi_offset 14, -4
 2120 0004 8146     		mov	r9, r0
 2121 0006 8846     		mov	r8, r1
 2122 0008 1746     		mov	r7, r2
 2123 000a 1E46     		mov	r6, r3
1303:Middlewares/Third_Party/SEGGER_RTT/SEGGER_RTT.c ****   int BufferIndex;
 2124              		.loc 1 1303 3 is_stmt 1 view .LVU597
1304:Middlewares/Third_Party/SEGGER_RTT/SEGGER_RTT.c **** 
1305:Middlewares/Third_Party/SEGGER_RTT/SEGGER_RTT.c ****   INIT();
 2125              		.loc 1 1305 3 view .LVU598
 2126              		.loc 1 1305 3 view .LVU599
 2127 000c 184B     		ldr	r3, .L145
 2128              	.LVL218:
 2129              		.loc 1 1305 3 is_stmt 0 view .LVU600
 2130 000e 1B78     		ldrb	r3, [r3]	@ zero_extendqisi2
 2131 0010 3BB3     		cbz	r3, .L144
 2132              	.LVL219:
 2133              	.L138:
 2134              		.loc 1 1305 3 is_stmt 1 discriminator 3 view .LVU601
 2135              	.LBB8:
1306:Middlewares/Third_Party/SEGGER_RTT/SEGGER_RTT.c ****   SEGGER_RTT_LOCK();
 2136              		.loc 1 1306 3 discriminator 3 view .LVU602
 2137              		.loc 1 1306 3 discriminator 3 view .LVU603
 2138              		.syntax unified
 2139              	@ 1306 "Middlewares/Third_Party/SEGGER_RTT/SEGGER_RTT.c" 1
 2140 0012 EFF31182 		mrs   r2, basepri  
 2141 0016 4FF02001 		mov   r1, #32       
 2142 001a 81F31188 		msr   basepri, r1  
 2143              		
 2144              	@ 0 "" 2
 2145              	.LVL220:
 2146              		.loc 1 1306 20 discriminator 3 view .LVU604
1307:Middlewares/Third_Party/SEGGER_RTT/SEGGER_RTT.c ****   BufferIndex = 0;
 2147              		.loc 1 1307 3 discriminator 3 view .LVU605
 2148              		.loc 1 1307 15 is_stmt 0 discriminator 3 view .LVU606
 2149              		.thumb
 2150              		.syntax unified
 2151 001e 0020     		movs	r0, #0
 2152              	.LVL221:
 2153              	.L140:
1308:Middlewares/Third_Party/SEGGER_RTT/SEGGER_RTT.c ****   do {
 2154              		.loc 1 1308 3 is_stmt 1 view .LVU607
1309:Middlewares/Third_Party/SEGGER_RTT/SEGGER_RTT.c ****     if (_SEGGER_RTT.aDown[BufferIndex].pBuffer == NULL) {
 2155              		.loc 1 1309 5 view .LVU608
 2156              		.loc 1 1309 39 is_stmt 0 view .LVU609
 2157 0020 00EB4004 		add	r4, r0, r0, lsl #1
 2158 0024 124D     		ldr	r5, .L145
 2159 0026 05EBC404 		add	r4, r5, r4, lsl #3
 2160 002a E36C     		ldr	r3, [r4, #76]
 2161              		.loc 1 1309 8 view .LVU610
 2162 002c 1BB1     		cbz	r3, .L139
1310:Middlewares/Third_Party/SEGGER_RTT/SEGGER_RTT.c ****       break;
1311:Middlewares/Third_Party/SEGGER_RTT/SEGGER_RTT.c ****     }
ARM GAS  C:\Users\Brandon\AppData\Local\Temp\ccaGXwj6.s 			page 66


1312:Middlewares/Third_Party/SEGGER_RTT/SEGGER_RTT.c ****     BufferIndex++;
 2163              		.loc 1 1312 5 is_stmt 1 view .LVU611
 2164              		.loc 1 1312 16 is_stmt 0 view .LVU612
 2165 002e 0130     		adds	r0, r0, #1
 2166              	.LVL222:
1313:Middlewares/Third_Party/SEGGER_RTT/SEGGER_RTT.c ****   } while (BufferIndex < _SEGGER_RTT.MaxNumDownBuffers);
 2167              		.loc 1 1313 11 is_stmt 1 view .LVU613
 2168              		.loc 1 1313 37 is_stmt 0 view .LVU614
 2169 0030 6B69     		ldr	r3, [r5, #20]
 2170              		.loc 1 1313 3 view .LVU615
 2171 0032 8342     		cmp	r3, r0
 2172 0034 F4DC     		bgt	.L140
 2173              	.L139:
1314:Middlewares/Third_Party/SEGGER_RTT/SEGGER_RTT.c ****   if (BufferIndex < _SEGGER_RTT.MaxNumDownBuffers) {
 2174              		.loc 1 1314 3 is_stmt 1 view .LVU616
 2175              		.loc 1 1314 32 is_stmt 0 view .LVU617
 2176 0036 0E4B     		ldr	r3, .L145
 2177 0038 5B69     		ldr	r3, [r3, #20]
 2178              		.loc 1 1314 6 view .LVU618
 2179 003a 8342     		cmp	r3, r0
 2180 003c 14DD     		ble	.L142
1315:Middlewares/Third_Party/SEGGER_RTT/SEGGER_RTT.c ****     _SEGGER_RTT.aDown[BufferIndex].sName        = sName;
 2181              		.loc 1 1315 5 is_stmt 1 view .LVU619
 2182              		.loc 1 1315 49 is_stmt 0 view .LVU620
 2183 003e 00EB4003 		add	r3, r0, r0, lsl #1
 2184 0042 0B49     		ldr	r1, .L145
 2185 0044 01EBC303 		add	r3, r1, r3, lsl #3
 2186 0048 C3F84890 		str	r9, [r3, #72]
1316:Middlewares/Third_Party/SEGGER_RTT/SEGGER_RTT.c ****     _SEGGER_RTT.aDown[BufferIndex].pBuffer      = (char*)pBuffer;
 2187              		.loc 1 1316 5 is_stmt 1 view .LVU621
 2188              		.loc 1 1316 49 is_stmt 0 view .LVU622
 2189 004c C3F84C80 		str	r8, [r3, #76]
1317:Middlewares/Third_Party/SEGGER_RTT/SEGGER_RTT.c ****     _SEGGER_RTT.aDown[BufferIndex].SizeOfBuffer = BufferSize;
 2190              		.loc 1 1317 5 is_stmt 1 view .LVU623
 2191              		.loc 1 1317 49 is_stmt 0 view .LVU624
 2192 0050 1F65     		str	r7, [r3, #80]
1318:Middlewares/Third_Party/SEGGER_RTT/SEGGER_RTT.c ****     _SEGGER_RTT.aDown[BufferIndex].RdOff        = 0u;
 2193              		.loc 1 1318 5 is_stmt 1 view .LVU625
 2194              		.loc 1 1318 49 is_stmt 0 view .LVU626
 2195 0052 0021     		movs	r1, #0
 2196 0054 9965     		str	r1, [r3, #88]
1319:Middlewares/Third_Party/SEGGER_RTT/SEGGER_RTT.c ****     _SEGGER_RTT.aDown[BufferIndex].WrOff        = 0u;
 2197              		.loc 1 1319 5 is_stmt 1 view .LVU627
 2198              		.loc 1 1319 49 is_stmt 0 view .LVU628
 2199 0056 5965     		str	r1, [r3, #84]
1320:Middlewares/Third_Party/SEGGER_RTT/SEGGER_RTT.c ****     _SEGGER_RTT.aDown[BufferIndex].Flags        = Flags;
 2200              		.loc 1 1320 5 is_stmt 1 view .LVU629
 2201              		.loc 1 1320 49 is_stmt 0 view .LVU630
 2202 0058 DE65     		str	r6, [r3, #92]
 2203              	.LVL223:
 2204              	.L141:
1321:Middlewares/Third_Party/SEGGER_RTT/SEGGER_RTT.c ****   } else {
1322:Middlewares/Third_Party/SEGGER_RTT/SEGGER_RTT.c ****     BufferIndex = -1;
1323:Middlewares/Third_Party/SEGGER_RTT/SEGGER_RTT.c ****   }
1324:Middlewares/Third_Party/SEGGER_RTT/SEGGER_RTT.c ****   SEGGER_RTT_UNLOCK();
 2205              		.loc 1 1324 3 is_stmt 1 view .LVU631
 2206              		.syntax unified
ARM GAS  C:\Users\Brandon\AppData\Local\Temp\ccaGXwj6.s 			page 67


 2207              	@ 1324 "Middlewares/Third_Party/SEGGER_RTT/SEGGER_RTT.c" 1
 2208 005a 82F31188 		msr   basepri, r2  
 2209              		
 2210              	@ 0 "" 2
 2211              		.thumb
 2212              		.syntax unified
 2213              	.LBE8:
 2214              		.loc 1 1324 22 view .LVU632
1325:Middlewares/Third_Party/SEGGER_RTT/SEGGER_RTT.c ****   return BufferIndex;
 2215              		.loc 1 1325 3 view .LVU633
1326:Middlewares/Third_Party/SEGGER_RTT/SEGGER_RTT.c **** }
 2216              		.loc 1 1326 1 is_stmt 0 view .LVU634
 2217 005e BDE8F883 		pop	{r3, r4, r5, r6, r7, r8, r9, pc}
 2218              	.LVL224:
 2219              	.L144:
1305:Middlewares/Third_Party/SEGGER_RTT/SEGGER_RTT.c ****   SEGGER_RTT_LOCK();
 2220              		.loc 1 1305 3 is_stmt 1 discriminator 1 view .LVU635
 2221 0062 FFF7FEFF 		bl	_DoInit
 2222              	.LVL225:
1305:Middlewares/Third_Party/SEGGER_RTT/SEGGER_RTT.c ****   SEGGER_RTT_LOCK();
 2223              		.loc 1 1305 3 is_stmt 0 discriminator 1 view .LVU636
 2224 0066 D4E7     		b	.L138
 2225              	.LVL226:
 2226              	.L142:
 2227              	.LBB9:
1322:Middlewares/Third_Party/SEGGER_RTT/SEGGER_RTT.c ****   }
 2228              		.loc 1 1322 17 view .LVU637
 2229 0068 4FF0FF30 		mov	r0, #-1
 2230              	.LVL227:
1322:Middlewares/Third_Party/SEGGER_RTT/SEGGER_RTT.c ****   }
 2231              		.loc 1 1322 17 view .LVU638
 2232 006c F5E7     		b	.L141
 2233              	.L146:
 2234 006e 00BF     		.align	2
 2235              	.L145:
 2236 0070 00000000 		.word	_SEGGER_RTT
 2237              	.LBE9:
 2238              		.cfi_endproc
 2239              	.LFE19:
 2241              		.section	.text.SEGGER_RTT_AllocUpBuffer,"ax",%progbits
 2242              		.align	1
 2243              		.global	SEGGER_RTT_AllocUpBuffer
 2244              		.syntax unified
 2245              		.thumb
 2246              		.thumb_func
 2247              		.fpu fpv5-d16
 2249              	SEGGER_RTT_AllocUpBuffer:
 2250              	.LVL228:
 2251              	.LFB20:
1327:Middlewares/Third_Party/SEGGER_RTT/SEGGER_RTT.c **** 
1328:Middlewares/Third_Party/SEGGER_RTT/SEGGER_RTT.c **** /*********************************************************************
1329:Middlewares/Third_Party/SEGGER_RTT/SEGGER_RTT.c **** *
1330:Middlewares/Third_Party/SEGGER_RTT/SEGGER_RTT.c **** *       SEGGER_RTT_AllocUpBuffer
1331:Middlewares/Third_Party/SEGGER_RTT/SEGGER_RTT.c **** *
1332:Middlewares/Third_Party/SEGGER_RTT/SEGGER_RTT.c **** *  Function description
1333:Middlewares/Third_Party/SEGGER_RTT/SEGGER_RTT.c **** *    Run-time configuration of the next up-buffer (T->H).
1334:Middlewares/Third_Party/SEGGER_RTT/SEGGER_RTT.c **** *    The next buffer, which is not used yet is configured.
ARM GAS  C:\Users\Brandon\AppData\Local\Temp\ccaGXwj6.s 			page 68


1335:Middlewares/Third_Party/SEGGER_RTT/SEGGER_RTT.c **** *    This includes: Buffer address, size, name, flags, ...
1336:Middlewares/Third_Party/SEGGER_RTT/SEGGER_RTT.c **** *
1337:Middlewares/Third_Party/SEGGER_RTT/SEGGER_RTT.c **** *  Parameters
1338:Middlewares/Third_Party/SEGGER_RTT/SEGGER_RTT.c **** *    sName        Pointer to a constant name string.
1339:Middlewares/Third_Party/SEGGER_RTT/SEGGER_RTT.c **** *    pBuffer      Pointer to a buffer to be used.
1340:Middlewares/Third_Party/SEGGER_RTT/SEGGER_RTT.c **** *    BufferSize   Size of the buffer.
1341:Middlewares/Third_Party/SEGGER_RTT/SEGGER_RTT.c **** *    Flags        Operating modes. Define behavior if buffer is full (not enough space for entire m
1342:Middlewares/Third_Party/SEGGER_RTT/SEGGER_RTT.c **** *
1343:Middlewares/Third_Party/SEGGER_RTT/SEGGER_RTT.c **** *  Return value
1344:Middlewares/Third_Party/SEGGER_RTT/SEGGER_RTT.c **** *    >= 0 - O.K. Buffer Index
1345:Middlewares/Third_Party/SEGGER_RTT/SEGGER_RTT.c **** *     < 0 - Error
1346:Middlewares/Third_Party/SEGGER_RTT/SEGGER_RTT.c **** */
1347:Middlewares/Third_Party/SEGGER_RTT/SEGGER_RTT.c **** int SEGGER_RTT_AllocUpBuffer(const char* sName, void* pBuffer, unsigned BufferSize, unsigned Flags)
 2252              		.loc 1 1347 101 is_stmt 1 view -0
 2253              		.cfi_startproc
 2254              		@ args = 0, pretend = 0, frame = 0
 2255              		@ frame_needed = 0, uses_anonymous_args = 0
 2256              		.loc 1 1347 101 is_stmt 0 view .LVU640
 2257 0000 2DE9F041 		push	{r4, r5, r6, r7, r8, lr}
 2258              	.LCFI27:
 2259              		.cfi_def_cfa_offset 24
 2260              		.cfi_offset 4, -24
 2261              		.cfi_offset 5, -20
 2262              		.cfi_offset 6, -16
 2263              		.cfi_offset 7, -12
 2264              		.cfi_offset 8, -8
 2265              		.cfi_offset 14, -4
 2266 0004 8046     		mov	r8, r0
 2267 0006 0F46     		mov	r7, r1
 2268 0008 1646     		mov	r6, r2
 2269 000a 1D46     		mov	r5, r3
1348:Middlewares/Third_Party/SEGGER_RTT/SEGGER_RTT.c ****   int BufferIndex;
 2270              		.loc 1 1348 3 is_stmt 1 view .LVU641
1349:Middlewares/Third_Party/SEGGER_RTT/SEGGER_RTT.c **** 
1350:Middlewares/Third_Party/SEGGER_RTT/SEGGER_RTT.c ****   INIT();
 2271              		.loc 1 1350 3 view .LVU642
 2272              		.loc 1 1350 3 view .LVU643
 2273 000c 1B4B     		ldr	r3, .L155
 2274              	.LVL229:
 2275              		.loc 1 1350 3 is_stmt 0 view .LVU644
 2276 000e 1B78     		ldrb	r3, [r3]	@ zero_extendqisi2
 2277 0010 6BB3     		cbz	r3, .L154
 2278              	.LVL230:
 2279              	.L148:
 2280              		.loc 1 1350 3 is_stmt 1 discriminator 3 view .LVU645
 2281              	.LBB10:
1351:Middlewares/Third_Party/SEGGER_RTT/SEGGER_RTT.c ****   SEGGER_RTT_LOCK();
 2282              		.loc 1 1351 3 discriminator 3 view .LVU646
 2283              		.loc 1 1351 3 discriminator 3 view .LVU647
 2284              		.syntax unified
 2285              	@ 1351 "Middlewares/Third_Party/SEGGER_RTT/SEGGER_RTT.c" 1
 2286 0012 EFF31182 		mrs   r2, basepri  
 2287 0016 4FF02001 		mov   r1, #32       
 2288 001a 81F31188 		msr   basepri, r1  
 2289              		
 2290              	@ 0 "" 2
 2291              	.LVL231:
ARM GAS  C:\Users\Brandon\AppData\Local\Temp\ccaGXwj6.s 			page 69


 2292              		.loc 1 1351 20 discriminator 3 view .LVU648
1352:Middlewares/Third_Party/SEGGER_RTT/SEGGER_RTT.c ****   BufferIndex = 0;
 2293              		.loc 1 1352 3 discriminator 3 view .LVU649
 2294              		.loc 1 1352 15 is_stmt 0 discriminator 3 view .LVU650
 2295              		.thumb
 2296              		.syntax unified
 2297 001e 0020     		movs	r0, #0
 2298              	.LVL232:
 2299              	.L150:
1353:Middlewares/Third_Party/SEGGER_RTT/SEGGER_RTT.c ****   do {
 2300              		.loc 1 1353 3 is_stmt 1 view .LVU651
1354:Middlewares/Third_Party/SEGGER_RTT/SEGGER_RTT.c ****     if (_SEGGER_RTT.aUp[BufferIndex].pBuffer == NULL) {
 2301              		.loc 1 1354 5 view .LVU652
 2302              		.loc 1 1354 37 is_stmt 0 view .LVU653
 2303 0020 441C     		adds	r4, r0, #1
 2304 0022 04EB4404 		add	r4, r4, r4, lsl #1
 2305 0026 154B     		ldr	r3, .L155
 2306 0028 03EBC404 		add	r4, r3, r4, lsl #3
 2307 002c 6368     		ldr	r3, [r4, #4]
 2308              		.loc 1 1354 8 view .LVU654
 2309 002e 23B1     		cbz	r3, .L149
1355:Middlewares/Third_Party/SEGGER_RTT/SEGGER_RTT.c ****       break;
1356:Middlewares/Third_Party/SEGGER_RTT/SEGGER_RTT.c ****     }
1357:Middlewares/Third_Party/SEGGER_RTT/SEGGER_RTT.c ****     BufferIndex++;
 2310              		.loc 1 1357 5 is_stmt 1 view .LVU655
 2311              		.loc 1 1357 16 is_stmt 0 view .LVU656
 2312 0030 0130     		adds	r0, r0, #1
 2313              	.LVL233:
1358:Middlewares/Third_Party/SEGGER_RTT/SEGGER_RTT.c ****   } while (BufferIndex < _SEGGER_RTT.MaxNumUpBuffers);
 2314              		.loc 1 1358 11 is_stmt 1 view .LVU657
 2315              		.loc 1 1358 37 is_stmt 0 view .LVU658
 2316 0032 124B     		ldr	r3, .L155
 2317 0034 1B69     		ldr	r3, [r3, #16]
 2318              		.loc 1 1358 3 view .LVU659
 2319 0036 8342     		cmp	r3, r0
 2320 0038 F2DC     		bgt	.L150
 2321              	.L149:
1359:Middlewares/Third_Party/SEGGER_RTT/SEGGER_RTT.c ****   if (BufferIndex < _SEGGER_RTT.MaxNumUpBuffers) {
 2322              		.loc 1 1359 3 is_stmt 1 view .LVU660
 2323              		.loc 1 1359 32 is_stmt 0 view .LVU661
 2324 003a 104B     		ldr	r3, .L155
 2325 003c 1B69     		ldr	r3, [r3, #16]
 2326              		.loc 1 1359 6 view .LVU662
 2327 003e 8342     		cmp	r3, r0
 2328 0040 18DD     		ble	.L152
1360:Middlewares/Third_Party/SEGGER_RTT/SEGGER_RTT.c ****     _SEGGER_RTT.aUp[BufferIndex].sName        = sName;
 2329              		.loc 1 1360 5 is_stmt 1 view .LVU663
 2330              		.loc 1 1360 47 is_stmt 0 view .LVU664
 2331 0042 0E4B     		ldr	r3, .L155
 2332 0044 411C     		adds	r1, r0, #1
 2333 0046 01EB4104 		add	r4, r1, r1, lsl #1
 2334 004a 43F83480 		str	r8, [r3, r4, lsl #3]
1361:Middlewares/Third_Party/SEGGER_RTT/SEGGER_RTT.c ****     _SEGGER_RTT.aUp[BufferIndex].pBuffer      = (char*)pBuffer;
 2335              		.loc 1 1361 5 is_stmt 1 view .LVU665
 2336              		.loc 1 1361 47 is_stmt 0 view .LVU666
 2337 004e 03EBC401 		add	r1, r3, r4, lsl #3
 2338 0052 4F60     		str	r7, [r1, #4]
ARM GAS  C:\Users\Brandon\AppData\Local\Temp\ccaGXwj6.s 			page 70


1362:Middlewares/Third_Party/SEGGER_RTT/SEGGER_RTT.c ****     _SEGGER_RTT.aUp[BufferIndex].SizeOfBuffer = BufferSize;
 2339              		.loc 1 1362 5 is_stmt 1 view .LVU667
 2340              		.loc 1 1362 47 is_stmt 0 view .LVU668
 2341 0054 00EB4001 		add	r1, r0, r0, lsl #1
 2342 0058 03EBC103 		add	r3, r3, r1, lsl #3
 2343 005c 1E62     		str	r6, [r3, #32]
1363:Middlewares/Third_Party/SEGGER_RTT/SEGGER_RTT.c ****     _SEGGER_RTT.aUp[BufferIndex].RdOff        = 0u;
 2344              		.loc 1 1363 5 is_stmt 1 view .LVU669
 2345              		.loc 1 1363 47 is_stmt 0 view .LVU670
 2346 005e 0021     		movs	r1, #0
 2347 0060 9962     		str	r1, [r3, #40]
1364:Middlewares/Third_Party/SEGGER_RTT/SEGGER_RTT.c ****     _SEGGER_RTT.aUp[BufferIndex].WrOff        = 0u;
 2348              		.loc 1 1364 5 is_stmt 1 view .LVU671
 2349              		.loc 1 1364 47 is_stmt 0 view .LVU672
 2350 0062 5962     		str	r1, [r3, #36]
1365:Middlewares/Third_Party/SEGGER_RTT/SEGGER_RTT.c ****     _SEGGER_RTT.aUp[BufferIndex].Flags        = Flags;
 2351              		.loc 1 1365 5 is_stmt 1 view .LVU673
 2352              		.loc 1 1365 47 is_stmt 0 view .LVU674
 2353 0064 DD62     		str	r5, [r3, #44]
 2354              	.LVL234:
 2355              	.L151:
1366:Middlewares/Third_Party/SEGGER_RTT/SEGGER_RTT.c ****   } else {
1367:Middlewares/Third_Party/SEGGER_RTT/SEGGER_RTT.c ****     BufferIndex = -1;
1368:Middlewares/Third_Party/SEGGER_RTT/SEGGER_RTT.c ****   }
1369:Middlewares/Third_Party/SEGGER_RTT/SEGGER_RTT.c ****   SEGGER_RTT_UNLOCK();
 2356              		.loc 1 1369 3 is_stmt 1 view .LVU675
 2357              		.syntax unified
 2358              	@ 1369 "Middlewares/Third_Party/SEGGER_RTT/SEGGER_RTT.c" 1
 2359 0066 82F31188 		msr   basepri, r2  
 2360              		
 2361              	@ 0 "" 2
 2362              		.thumb
 2363              		.syntax unified
 2364              	.LBE10:
 2365              		.loc 1 1369 22 view .LVU676
1370:Middlewares/Third_Party/SEGGER_RTT/SEGGER_RTT.c ****   return BufferIndex;
 2366              		.loc 1 1370 3 view .LVU677
1371:Middlewares/Third_Party/SEGGER_RTT/SEGGER_RTT.c **** }
 2367              		.loc 1 1371 1 is_stmt 0 view .LVU678
 2368 006a BDE8F081 		pop	{r4, r5, r6, r7, r8, pc}
 2369              	.LVL235:
 2370              	.L154:
1350:Middlewares/Third_Party/SEGGER_RTT/SEGGER_RTT.c ****   SEGGER_RTT_LOCK();
 2371              		.loc 1 1350 3 is_stmt 1 discriminator 1 view .LVU679
 2372 006e FFF7FEFF 		bl	_DoInit
 2373              	.LVL236:
1350:Middlewares/Third_Party/SEGGER_RTT/SEGGER_RTT.c ****   SEGGER_RTT_LOCK();
 2374              		.loc 1 1350 3 is_stmt 0 discriminator 1 view .LVU680
 2375 0072 CEE7     		b	.L148
 2376              	.LVL237:
 2377              	.L152:
 2378              	.LBB11:
1367:Middlewares/Third_Party/SEGGER_RTT/SEGGER_RTT.c ****   }
 2379              		.loc 1 1367 17 view .LVU681
 2380 0074 4FF0FF30 		mov	r0, #-1
 2381              	.LVL238:
1367:Middlewares/Third_Party/SEGGER_RTT/SEGGER_RTT.c ****   }
ARM GAS  C:\Users\Brandon\AppData\Local\Temp\ccaGXwj6.s 			page 71


 2382              		.loc 1 1367 17 view .LVU682
 2383 0078 F5E7     		b	.L151
 2384              	.L156:
 2385 007a 00BF     		.align	2
 2386              	.L155:
 2387 007c 00000000 		.word	_SEGGER_RTT
 2388              	.LBE11:
 2389              		.cfi_endproc
 2390              	.LFE20:
 2392              		.section	.text.SEGGER_RTT_ConfigUpBuffer,"ax",%progbits
 2393              		.align	1
 2394              		.global	SEGGER_RTT_ConfigUpBuffer
 2395              		.syntax unified
 2396              		.thumb
 2397              		.thumb_func
 2398              		.fpu fpv5-d16
 2400              	SEGGER_RTT_ConfigUpBuffer:
 2401              	.LVL239:
 2402              	.LFB21:
1372:Middlewares/Third_Party/SEGGER_RTT/SEGGER_RTT.c **** 
1373:Middlewares/Third_Party/SEGGER_RTT/SEGGER_RTT.c **** /*********************************************************************
1374:Middlewares/Third_Party/SEGGER_RTT/SEGGER_RTT.c **** *
1375:Middlewares/Third_Party/SEGGER_RTT/SEGGER_RTT.c **** *       SEGGER_RTT_ConfigUpBuffer
1376:Middlewares/Third_Party/SEGGER_RTT/SEGGER_RTT.c **** *
1377:Middlewares/Third_Party/SEGGER_RTT/SEGGER_RTT.c **** *  Function description
1378:Middlewares/Third_Party/SEGGER_RTT/SEGGER_RTT.c **** *    Run-time configuration of a specific up-buffer (T->H).
1379:Middlewares/Third_Party/SEGGER_RTT/SEGGER_RTT.c **** *    Buffer to be configured is specified by index.
1380:Middlewares/Third_Party/SEGGER_RTT/SEGGER_RTT.c **** *    This includes: Buffer address, size, name, flags, ...
1381:Middlewares/Third_Party/SEGGER_RTT/SEGGER_RTT.c **** *
1382:Middlewares/Third_Party/SEGGER_RTT/SEGGER_RTT.c **** *  Parameters
1383:Middlewares/Third_Party/SEGGER_RTT/SEGGER_RTT.c **** *    BufferIndex  Index of the buffer to configure.
1384:Middlewares/Third_Party/SEGGER_RTT/SEGGER_RTT.c **** *    sName        Pointer to a constant name string.
1385:Middlewares/Third_Party/SEGGER_RTT/SEGGER_RTT.c **** *    pBuffer      Pointer to a buffer to be used.
1386:Middlewares/Third_Party/SEGGER_RTT/SEGGER_RTT.c **** *    BufferSize   Size of the buffer.
1387:Middlewares/Third_Party/SEGGER_RTT/SEGGER_RTT.c **** *    Flags        Operating modes. Define behavior if buffer is full (not enough space for entire m
1388:Middlewares/Third_Party/SEGGER_RTT/SEGGER_RTT.c **** *
1389:Middlewares/Third_Party/SEGGER_RTT/SEGGER_RTT.c **** *  Return value
1390:Middlewares/Third_Party/SEGGER_RTT/SEGGER_RTT.c **** *    >= 0 - O.K.
1391:Middlewares/Third_Party/SEGGER_RTT/SEGGER_RTT.c **** *     < 0 - Error
1392:Middlewares/Third_Party/SEGGER_RTT/SEGGER_RTT.c **** *
1393:Middlewares/Third_Party/SEGGER_RTT/SEGGER_RTT.c **** *  Additional information
1394:Middlewares/Third_Party/SEGGER_RTT/SEGGER_RTT.c **** *    Buffer 0 is configured on compile-time.
1395:Middlewares/Third_Party/SEGGER_RTT/SEGGER_RTT.c **** *    May only be called once per buffer.
1396:Middlewares/Third_Party/SEGGER_RTT/SEGGER_RTT.c **** *    Buffer name and flags can be reconfigured using the appropriate functions.
1397:Middlewares/Third_Party/SEGGER_RTT/SEGGER_RTT.c **** */
1398:Middlewares/Third_Party/SEGGER_RTT/SEGGER_RTT.c **** int SEGGER_RTT_ConfigUpBuffer(unsigned BufferIndex, const char* sName, void* pBuffer, unsigned Buff
 2403              		.loc 1 1398 124 is_stmt 1 view -0
 2404              		.cfi_startproc
 2405              		@ args = 4, pretend = 0, frame = 0
 2406              		@ frame_needed = 0, uses_anonymous_args = 0
 2407              		.loc 1 1398 124 is_stmt 0 view .LVU684
 2408 0000 2DE9F041 		push	{r4, r5, r6, r7, r8, lr}
 2409              	.LCFI28:
 2410              		.cfi_def_cfa_offset 24
 2411              		.cfi_offset 4, -24
 2412              		.cfi_offset 5, -20
 2413              		.cfi_offset 6, -16
ARM GAS  C:\Users\Brandon\AppData\Local\Temp\ccaGXwj6.s 			page 72


 2414              		.cfi_offset 7, -12
 2415              		.cfi_offset 8, -8
 2416              		.cfi_offset 14, -4
 2417 0004 0446     		mov	r4, r0
 2418 0006 8846     		mov	r8, r1
 2419 0008 1746     		mov	r7, r2
 2420 000a 1E46     		mov	r6, r3
1399:Middlewares/Third_Party/SEGGER_RTT/SEGGER_RTT.c ****   int r;
 2421              		.loc 1 1399 3 is_stmt 1 view .LVU685
1400:Middlewares/Third_Party/SEGGER_RTT/SEGGER_RTT.c **** 
1401:Middlewares/Third_Party/SEGGER_RTT/SEGGER_RTT.c ****   INIT();
 2422              		.loc 1 1401 3 view .LVU686
 2423              		.loc 1 1401 3 view .LVU687
 2424 000c 184B     		ldr	r3, .L164
 2425              	.LVL240:
 2426              		.loc 1 1401 3 is_stmt 0 view .LVU688
 2427 000e 1B78     		ldrb	r3, [r3]	@ zero_extendqisi2
 2428 0010 3BB3     		cbz	r3, .L163
 2429              	.LVL241:
 2430              	.L158:
 2431              		.loc 1 1401 3 is_stmt 1 discriminator 3 view .LVU689
1402:Middlewares/Third_Party/SEGGER_RTT/SEGGER_RTT.c ****   if (BufferIndex < (unsigned)_SEGGER_RTT.MaxNumUpBuffers) {
 2432              		.loc 1 1402 3 discriminator 3 view .LVU690
 2433              		.loc 1 1402 42 is_stmt 0 discriminator 3 view .LVU691
 2434 0012 174B     		ldr	r3, .L164
 2435 0014 1B69     		ldr	r3, [r3, #16]
 2436              		.loc 1 1402 6 discriminator 3 view .LVU692
 2437 0016 A342     		cmp	r3, r4
 2438 0018 26D9     		bls	.L161
 2439              	.LBB12:
1403:Middlewares/Third_Party/SEGGER_RTT/SEGGER_RTT.c ****     SEGGER_RTT_LOCK();
 2440              		.loc 1 1403 5 is_stmt 1 view .LVU693
 2441              		.loc 1 1403 5 view .LVU694
 2442              		.syntax unified
 2443              	@ 1403 "Middlewares/Third_Party/SEGGER_RTT/SEGGER_RTT.c" 1
 2444 001a EFF31183 		mrs   r3, basepri  
 2445 001e 4FF02001 		mov   r1, #32       
 2446 0022 81F31188 		msr   basepri, r1  
 2447              		
 2448              	@ 0 "" 2
 2449              	.LVL242:
 2450              		.loc 1 1403 22 view .LVU695
1404:Middlewares/Third_Party/SEGGER_RTT/SEGGER_RTT.c ****     if (BufferIndex > 0u) {
 2451              		.loc 1 1404 5 view .LVU696
 2452              		.loc 1 1404 8 is_stmt 0 view .LVU697
 2453              		.thumb
 2454              		.syntax unified
 2455 0026 84B1     		cbz	r4, .L160
1405:Middlewares/Third_Party/SEGGER_RTT/SEGGER_RTT.c ****       _SEGGER_RTT.aUp[BufferIndex].sName        = sName;
 2456              		.loc 1 1405 7 is_stmt 1 view .LVU698
 2457              		.loc 1 1405 49 is_stmt 0 view .LVU699
 2458 0028 114D     		ldr	r5, .L164
 2459 002a 601C     		adds	r0, r4, #1
 2460 002c 00EB4002 		add	r2, r0, r0, lsl #1
 2461 0030 45F83280 		str	r8, [r5, r2, lsl #3]
1406:Middlewares/Third_Party/SEGGER_RTT/SEGGER_RTT.c ****       _SEGGER_RTT.aUp[BufferIndex].pBuffer      = (char*)pBuffer;
 2462              		.loc 1 1406 7 is_stmt 1 view .LVU700
ARM GAS  C:\Users\Brandon\AppData\Local\Temp\ccaGXwj6.s 			page 73


 2463              		.loc 1 1406 49 is_stmt 0 view .LVU701
 2464 0034 05EBC200 		add	r0, r5, r2, lsl #3
 2465 0038 4760     		str	r7, [r0, #4]
1407:Middlewares/Third_Party/SEGGER_RTT/SEGGER_RTT.c ****       _SEGGER_RTT.aUp[BufferIndex].SizeOfBuffer = BufferSize;
 2466              		.loc 1 1407 7 is_stmt 1 view .LVU702
 2467              		.loc 1 1407 49 is_stmt 0 view .LVU703
 2468 003a 04EB4402 		add	r2, r4, r4, lsl #1
 2469 003e 05EBC202 		add	r2, r5, r2, lsl #3
 2470 0042 1662     		str	r6, [r2, #32]
1408:Middlewares/Third_Party/SEGGER_RTT/SEGGER_RTT.c ****       _SEGGER_RTT.aUp[BufferIndex].RdOff        = 0u;
 2471              		.loc 1 1408 7 is_stmt 1 view .LVU704
 2472              		.loc 1 1408 49 is_stmt 0 view .LVU705
 2473 0044 0021     		movs	r1, #0
 2474 0046 9162     		str	r1, [r2, #40]
1409:Middlewares/Third_Party/SEGGER_RTT/SEGGER_RTT.c ****       _SEGGER_RTT.aUp[BufferIndex].WrOff        = 0u;
 2475              		.loc 1 1409 7 is_stmt 1 view .LVU706
 2476              		.loc 1 1409 49 is_stmt 0 view .LVU707
 2477 0048 5162     		str	r1, [r2, #36]
 2478              	.L160:
1410:Middlewares/Third_Party/SEGGER_RTT/SEGGER_RTT.c ****     }
1411:Middlewares/Third_Party/SEGGER_RTT/SEGGER_RTT.c ****     _SEGGER_RTT.aUp[BufferIndex].Flags          = Flags;
 2479              		.loc 1 1411 5 is_stmt 1 view .LVU708
 2480              		.loc 1 1411 49 is_stmt 0 view .LVU709
 2481 004a 04EB4404 		add	r4, r4, r4, lsl #1
 2482              	.LVL243:
 2483              		.loc 1 1411 49 view .LVU710
 2484 004e 0848     		ldr	r0, .L164
 2485 0050 00EBC404 		add	r4, r0, r4, lsl #3
 2486 0054 069A     		ldr	r2, [sp, #24]
 2487 0056 E262     		str	r2, [r4, #44]
1412:Middlewares/Third_Party/SEGGER_RTT/SEGGER_RTT.c ****     SEGGER_RTT_UNLOCK();
 2488              		.loc 1 1412 5 is_stmt 1 view .LVU711
 2489              		.syntax unified
 2490              	@ 1412 "Middlewares/Third_Party/SEGGER_RTT/SEGGER_RTT.c" 1
 2491 0058 83F31188 		msr   basepri, r3  
 2492              		
 2493              	@ 0 "" 2
 2494              		.thumb
 2495              		.syntax unified
 2496              	.LBE12:
 2497              		.loc 1 1412 24 view .LVU712
1413:Middlewares/Third_Party/SEGGER_RTT/SEGGER_RTT.c ****     r =  0;
 2498              		.loc 1 1413 5 view .LVU713
 2499              	.LVL244:
 2500              		.loc 1 1413 7 is_stmt 0 view .LVU714
 2501 005c 0020     		movs	r0, #0
 2502              	.LVL245:
 2503              	.L157:
1414:Middlewares/Third_Party/SEGGER_RTT/SEGGER_RTT.c ****   } else {
1415:Middlewares/Third_Party/SEGGER_RTT/SEGGER_RTT.c ****     r = -1;
1416:Middlewares/Third_Party/SEGGER_RTT/SEGGER_RTT.c ****   }
1417:Middlewares/Third_Party/SEGGER_RTT/SEGGER_RTT.c ****   return r;
1418:Middlewares/Third_Party/SEGGER_RTT/SEGGER_RTT.c **** }
 2504              		.loc 1 1418 1 view .LVU715
 2505 005e BDE8F081 		pop	{r4, r5, r6, r7, r8, pc}
 2506              	.LVL246:
 2507              	.L163:
ARM GAS  C:\Users\Brandon\AppData\Local\Temp\ccaGXwj6.s 			page 74


1401:Middlewares/Third_Party/SEGGER_RTT/SEGGER_RTT.c ****   if (BufferIndex < (unsigned)_SEGGER_RTT.MaxNumUpBuffers) {
 2508              		.loc 1 1401 3 is_stmt 1 discriminator 1 view .LVU716
 2509 0062 FFF7FEFF 		bl	_DoInit
 2510              	.LVL247:
1401:Middlewares/Third_Party/SEGGER_RTT/SEGGER_RTT.c ****   if (BufferIndex < (unsigned)_SEGGER_RTT.MaxNumUpBuffers) {
 2511              		.loc 1 1401 3 is_stmt 0 discriminator 1 view .LVU717
 2512 0066 D4E7     		b	.L158
 2513              	.L161:
1415:Middlewares/Third_Party/SEGGER_RTT/SEGGER_RTT.c ****   }
 2514              		.loc 1 1415 7 view .LVU718
 2515 0068 4FF0FF30 		mov	r0, #-1
 2516              	.LVL248:
1417:Middlewares/Third_Party/SEGGER_RTT/SEGGER_RTT.c **** }
 2517              		.loc 1 1417 3 is_stmt 1 view .LVU719
1417:Middlewares/Third_Party/SEGGER_RTT/SEGGER_RTT.c **** }
 2518              		.loc 1 1417 10 is_stmt 0 view .LVU720
 2519 006c F7E7     		b	.L157
 2520              	.L165:
 2521 006e 00BF     		.align	2
 2522              	.L164:
 2523 0070 00000000 		.word	_SEGGER_RTT
 2524              		.cfi_endproc
 2525              	.LFE21:
 2527              		.section	.text.SEGGER_RTT_ConfigDownBuffer,"ax",%progbits
 2528              		.align	1
 2529              		.global	SEGGER_RTT_ConfigDownBuffer
 2530              		.syntax unified
 2531              		.thumb
 2532              		.thumb_func
 2533              		.fpu fpv5-d16
 2535              	SEGGER_RTT_ConfigDownBuffer:
 2536              	.LVL249:
 2537              	.LFB22:
1419:Middlewares/Third_Party/SEGGER_RTT/SEGGER_RTT.c **** 
1420:Middlewares/Third_Party/SEGGER_RTT/SEGGER_RTT.c **** /*********************************************************************
1421:Middlewares/Third_Party/SEGGER_RTT/SEGGER_RTT.c **** *
1422:Middlewares/Third_Party/SEGGER_RTT/SEGGER_RTT.c **** *       SEGGER_RTT_ConfigDownBuffer
1423:Middlewares/Third_Party/SEGGER_RTT/SEGGER_RTT.c **** *
1424:Middlewares/Third_Party/SEGGER_RTT/SEGGER_RTT.c **** *  Function description
1425:Middlewares/Third_Party/SEGGER_RTT/SEGGER_RTT.c **** *    Run-time configuration of a specific down-buffer (H->T).
1426:Middlewares/Third_Party/SEGGER_RTT/SEGGER_RTT.c **** *    Buffer to be configured is specified by index.
1427:Middlewares/Third_Party/SEGGER_RTT/SEGGER_RTT.c **** *    This includes: Buffer address, size, name, flags, ...
1428:Middlewares/Third_Party/SEGGER_RTT/SEGGER_RTT.c **** *
1429:Middlewares/Third_Party/SEGGER_RTT/SEGGER_RTT.c **** *  Parameters
1430:Middlewares/Third_Party/SEGGER_RTT/SEGGER_RTT.c **** *    BufferIndex  Index of the buffer to configure.
1431:Middlewares/Third_Party/SEGGER_RTT/SEGGER_RTT.c **** *    sName        Pointer to a constant name string.
1432:Middlewares/Third_Party/SEGGER_RTT/SEGGER_RTT.c **** *    pBuffer      Pointer to a buffer to be used.
1433:Middlewares/Third_Party/SEGGER_RTT/SEGGER_RTT.c **** *    BufferSize   Size of the buffer.
1434:Middlewares/Third_Party/SEGGER_RTT/SEGGER_RTT.c **** *    Flags        Operating modes. Define behavior if buffer is full (not enough space for entire m
1435:Middlewares/Third_Party/SEGGER_RTT/SEGGER_RTT.c **** *
1436:Middlewares/Third_Party/SEGGER_RTT/SEGGER_RTT.c **** *  Return value
1437:Middlewares/Third_Party/SEGGER_RTT/SEGGER_RTT.c **** *    >= 0  O.K.
1438:Middlewares/Third_Party/SEGGER_RTT/SEGGER_RTT.c **** *     < 0  Error
1439:Middlewares/Third_Party/SEGGER_RTT/SEGGER_RTT.c **** *
1440:Middlewares/Third_Party/SEGGER_RTT/SEGGER_RTT.c **** *  Additional information
1441:Middlewares/Third_Party/SEGGER_RTT/SEGGER_RTT.c **** *    Buffer 0 is configured on compile-time.
1442:Middlewares/Third_Party/SEGGER_RTT/SEGGER_RTT.c **** *    May only be called once per buffer.
ARM GAS  C:\Users\Brandon\AppData\Local\Temp\ccaGXwj6.s 			page 75


1443:Middlewares/Third_Party/SEGGER_RTT/SEGGER_RTT.c **** *    Buffer name and flags can be reconfigured using the appropriate functions.
1444:Middlewares/Third_Party/SEGGER_RTT/SEGGER_RTT.c **** */
1445:Middlewares/Third_Party/SEGGER_RTT/SEGGER_RTT.c **** int SEGGER_RTT_ConfigDownBuffer(unsigned BufferIndex, const char* sName, void* pBuffer, unsigned Bu
 2538              		.loc 1 1445 126 is_stmt 1 view -0
 2539              		.cfi_startproc
 2540              		@ args = 4, pretend = 0, frame = 0
 2541              		@ frame_needed = 0, uses_anonymous_args = 0
 2542              		.loc 1 1445 126 is_stmt 0 view .LVU722
 2543 0000 2DE9F041 		push	{r4, r5, r6, r7, r8, lr}
 2544              	.LCFI29:
 2545              		.cfi_def_cfa_offset 24
 2546              		.cfi_offset 4, -24
 2547              		.cfi_offset 5, -20
 2548              		.cfi_offset 6, -16
 2549              		.cfi_offset 7, -12
 2550              		.cfi_offset 8, -8
 2551              		.cfi_offset 14, -4
 2552 0004 0446     		mov	r4, r0
 2553 0006 8846     		mov	r8, r1
 2554 0008 1746     		mov	r7, r2
 2555 000a 1E46     		mov	r6, r3
1446:Middlewares/Third_Party/SEGGER_RTT/SEGGER_RTT.c ****   int r;
 2556              		.loc 1 1446 3 is_stmt 1 view .LVU723
1447:Middlewares/Third_Party/SEGGER_RTT/SEGGER_RTT.c **** 
1448:Middlewares/Third_Party/SEGGER_RTT/SEGGER_RTT.c ****   INIT();
 2557              		.loc 1 1448 3 view .LVU724
 2558              		.loc 1 1448 3 view .LVU725
 2559 000c 154B     		ldr	r3, .L173
 2560              	.LVL250:
 2561              		.loc 1 1448 3 is_stmt 0 view .LVU726
 2562 000e 1B78     		ldrb	r3, [r3]	@ zero_extendqisi2
 2563 0010 13B3     		cbz	r3, .L172
 2564              	.LVL251:
 2565              	.L167:
 2566              		.loc 1 1448 3 is_stmt 1 discriminator 3 view .LVU727
1449:Middlewares/Third_Party/SEGGER_RTT/SEGGER_RTT.c ****   if (BufferIndex < (unsigned)_SEGGER_RTT.MaxNumDownBuffers) {
 2567              		.loc 1 1449 3 discriminator 3 view .LVU728
 2568              		.loc 1 1449 42 is_stmt 0 discriminator 3 view .LVU729
 2569 0012 144B     		ldr	r3, .L173
 2570 0014 5B69     		ldr	r3, [r3, #20]
 2571              		.loc 1 1449 6 discriminator 3 view .LVU730
 2572 0016 A342     		cmp	r3, r4
 2573 0018 21D9     		bls	.L170
 2574              	.LBB13:
1450:Middlewares/Third_Party/SEGGER_RTT/SEGGER_RTT.c ****     SEGGER_RTT_LOCK();
 2575              		.loc 1 1450 5 is_stmt 1 view .LVU731
 2576              		.loc 1 1450 5 view .LVU732
 2577              		.syntax unified
 2578              	@ 1450 "Middlewares/Third_Party/SEGGER_RTT/SEGGER_RTT.c" 1
 2579 001a EFF31183 		mrs   r3, basepri  
 2580 001e 4FF02001 		mov   r1, #32       
 2581 0022 81F31188 		msr   basepri, r1  
 2582              		
 2583              	@ 0 "" 2
 2584              	.LVL252:
 2585              		.loc 1 1450 22 view .LVU733
1451:Middlewares/Third_Party/SEGGER_RTT/SEGGER_RTT.c ****     if (BufferIndex > 0u) {
ARM GAS  C:\Users\Brandon\AppData\Local\Temp\ccaGXwj6.s 			page 76


 2586              		.loc 1 1451 5 view .LVU734
 2587              		.loc 1 1451 8 is_stmt 0 view .LVU735
 2588              		.thumb
 2589              		.syntax unified
 2590 0026 5CB1     		cbz	r4, .L169
1452:Middlewares/Third_Party/SEGGER_RTT/SEGGER_RTT.c ****       _SEGGER_RTT.aDown[BufferIndex].sName        = sName;
 2591              		.loc 1 1452 7 is_stmt 1 view .LVU736
 2592              		.loc 1 1452 51 is_stmt 0 view .LVU737
 2593 0028 04EB4400 		add	r0, r4, r4, lsl #1
 2594 002c 0D4D     		ldr	r5, .L173
 2595 002e 05EBC000 		add	r0, r5, r0, lsl #3
 2596 0032 C0F84880 		str	r8, [r0, #72]
1453:Middlewares/Third_Party/SEGGER_RTT/SEGGER_RTT.c ****       _SEGGER_RTT.aDown[BufferIndex].pBuffer      = (char*)pBuffer;
 2597              		.loc 1 1453 7 is_stmt 1 view .LVU738
 2598              		.loc 1 1453 51 is_stmt 0 view .LVU739
 2599 0036 C764     		str	r7, [r0, #76]
1454:Middlewares/Third_Party/SEGGER_RTT/SEGGER_RTT.c ****       _SEGGER_RTT.aDown[BufferIndex].SizeOfBuffer = BufferSize;
 2600              		.loc 1 1454 7 is_stmt 1 view .LVU740
 2601              		.loc 1 1454 51 is_stmt 0 view .LVU741
 2602 0038 0665     		str	r6, [r0, #80]
1455:Middlewares/Third_Party/SEGGER_RTT/SEGGER_RTT.c ****       _SEGGER_RTT.aDown[BufferIndex].RdOff        = 0u;
 2603              		.loc 1 1455 7 is_stmt 1 view .LVU742
 2604              		.loc 1 1455 51 is_stmt 0 view .LVU743
 2605 003a 0022     		movs	r2, #0
 2606 003c 8265     		str	r2, [r0, #88]
1456:Middlewares/Third_Party/SEGGER_RTT/SEGGER_RTT.c ****       _SEGGER_RTT.aDown[BufferIndex].WrOff        = 0u;
 2607              		.loc 1 1456 7 is_stmt 1 view .LVU744
 2608              		.loc 1 1456 51 is_stmt 0 view .LVU745
 2609 003e 4265     		str	r2, [r0, #84]
 2610              	.L169:
1457:Middlewares/Third_Party/SEGGER_RTT/SEGGER_RTT.c ****     }
1458:Middlewares/Third_Party/SEGGER_RTT/SEGGER_RTT.c ****     _SEGGER_RTT.aDown[BufferIndex].Flags          = Flags;
 2611              		.loc 1 1458 5 is_stmt 1 view .LVU746
 2612              		.loc 1 1458 51 is_stmt 0 view .LVU747
 2613 0040 04EB4404 		add	r4, r4, r4, lsl #1
 2614              	.LVL253:
 2615              		.loc 1 1458 51 view .LVU748
 2616 0044 0748     		ldr	r0, .L173
 2617 0046 00EBC404 		add	r4, r0, r4, lsl #3
 2618 004a 069A     		ldr	r2, [sp, #24]
 2619 004c E265     		str	r2, [r4, #92]
1459:Middlewares/Third_Party/SEGGER_RTT/SEGGER_RTT.c ****     SEGGER_RTT_UNLOCK();
 2620              		.loc 1 1459 5 is_stmt 1 view .LVU749
 2621              		.syntax unified
 2622              	@ 1459 "Middlewares/Third_Party/SEGGER_RTT/SEGGER_RTT.c" 1
 2623 004e 83F31188 		msr   basepri, r3  
 2624              		
 2625              	@ 0 "" 2
 2626              		.thumb
 2627              		.syntax unified
 2628              	.LBE13:
 2629              		.loc 1 1459 24 view .LVU750
1460:Middlewares/Third_Party/SEGGER_RTT/SEGGER_RTT.c ****     r =  0;
 2630              		.loc 1 1460 5 view .LVU751
 2631              	.LVL254:
 2632              		.loc 1 1460 7 is_stmt 0 view .LVU752
 2633 0052 0020     		movs	r0, #0
ARM GAS  C:\Users\Brandon\AppData\Local\Temp\ccaGXwj6.s 			page 77


 2634              	.LVL255:
 2635              	.L166:
1461:Middlewares/Third_Party/SEGGER_RTT/SEGGER_RTT.c ****   } else {
1462:Middlewares/Third_Party/SEGGER_RTT/SEGGER_RTT.c ****     r = -1;
1463:Middlewares/Third_Party/SEGGER_RTT/SEGGER_RTT.c ****   }
1464:Middlewares/Third_Party/SEGGER_RTT/SEGGER_RTT.c ****   return r;
1465:Middlewares/Third_Party/SEGGER_RTT/SEGGER_RTT.c **** }
 2636              		.loc 1 1465 1 view .LVU753
 2637 0054 BDE8F081 		pop	{r4, r5, r6, r7, r8, pc}
 2638              	.LVL256:
 2639              	.L172:
1448:Middlewares/Third_Party/SEGGER_RTT/SEGGER_RTT.c ****   if (BufferIndex < (unsigned)_SEGGER_RTT.MaxNumDownBuffers) {
 2640              		.loc 1 1448 3 is_stmt 1 discriminator 1 view .LVU754
 2641 0058 FFF7FEFF 		bl	_DoInit
 2642              	.LVL257:
1448:Middlewares/Third_Party/SEGGER_RTT/SEGGER_RTT.c ****   if (BufferIndex < (unsigned)_SEGGER_RTT.MaxNumDownBuffers) {
 2643              		.loc 1 1448 3 is_stmt 0 discriminator 1 view .LVU755
 2644 005c D9E7     		b	.L167
 2645              	.L170:
1462:Middlewares/Third_Party/SEGGER_RTT/SEGGER_RTT.c ****   }
 2646              		.loc 1 1462 7 view .LVU756
 2647 005e 4FF0FF30 		mov	r0, #-1
 2648              	.LVL258:
1464:Middlewares/Third_Party/SEGGER_RTT/SEGGER_RTT.c **** }
 2649              		.loc 1 1464 3 is_stmt 1 view .LVU757
1464:Middlewares/Third_Party/SEGGER_RTT/SEGGER_RTT.c **** }
 2650              		.loc 1 1464 10 is_stmt 0 view .LVU758
 2651 0062 F7E7     		b	.L166
 2652              	.L174:
 2653              		.align	2
 2654              	.L173:
 2655 0064 00000000 		.word	_SEGGER_RTT
 2656              		.cfi_endproc
 2657              	.LFE22:
 2659              		.section	.text.SEGGER_RTT_SetNameUpBuffer,"ax",%progbits
 2660              		.align	1
 2661              		.global	SEGGER_RTT_SetNameUpBuffer
 2662              		.syntax unified
 2663              		.thumb
 2664              		.thumb_func
 2665              		.fpu fpv5-d16
 2667              	SEGGER_RTT_SetNameUpBuffer:
 2668              	.LVL259:
 2669              	.LFB23:
1466:Middlewares/Third_Party/SEGGER_RTT/SEGGER_RTT.c **** 
1467:Middlewares/Third_Party/SEGGER_RTT/SEGGER_RTT.c **** /*********************************************************************
1468:Middlewares/Third_Party/SEGGER_RTT/SEGGER_RTT.c **** *
1469:Middlewares/Third_Party/SEGGER_RTT/SEGGER_RTT.c **** *       SEGGER_RTT_SetNameUpBuffer
1470:Middlewares/Third_Party/SEGGER_RTT/SEGGER_RTT.c **** *
1471:Middlewares/Third_Party/SEGGER_RTT/SEGGER_RTT.c **** *  Function description
1472:Middlewares/Third_Party/SEGGER_RTT/SEGGER_RTT.c **** *    Run-time configuration of a specific up-buffer name (T->H).
1473:Middlewares/Third_Party/SEGGER_RTT/SEGGER_RTT.c **** *    Buffer to be configured is specified by index.
1474:Middlewares/Third_Party/SEGGER_RTT/SEGGER_RTT.c **** *
1475:Middlewares/Third_Party/SEGGER_RTT/SEGGER_RTT.c **** *  Parameters
1476:Middlewares/Third_Party/SEGGER_RTT/SEGGER_RTT.c **** *    BufferIndex  Index of the buffer to renamed.
1477:Middlewares/Third_Party/SEGGER_RTT/SEGGER_RTT.c **** *    sName        Pointer to a constant name string.
1478:Middlewares/Third_Party/SEGGER_RTT/SEGGER_RTT.c **** *
ARM GAS  C:\Users\Brandon\AppData\Local\Temp\ccaGXwj6.s 			page 78


1479:Middlewares/Third_Party/SEGGER_RTT/SEGGER_RTT.c **** *  Return value
1480:Middlewares/Third_Party/SEGGER_RTT/SEGGER_RTT.c **** *    >= 0  O.K.
1481:Middlewares/Third_Party/SEGGER_RTT/SEGGER_RTT.c **** *     < 0  Error
1482:Middlewares/Third_Party/SEGGER_RTT/SEGGER_RTT.c **** */
1483:Middlewares/Third_Party/SEGGER_RTT/SEGGER_RTT.c **** int SEGGER_RTT_SetNameUpBuffer(unsigned BufferIndex, const char* sName) {
 2670              		.loc 1 1483 73 is_stmt 1 view -0
 2671              		.cfi_startproc
 2672              		@ args = 0, pretend = 0, frame = 0
 2673              		@ frame_needed = 0, uses_anonymous_args = 0
 2674              		.loc 1 1483 73 is_stmt 0 view .LVU760
 2675 0000 38B5     		push	{r3, r4, r5, lr}
 2676              	.LCFI30:
 2677              		.cfi_def_cfa_offset 16
 2678              		.cfi_offset 3, -16
 2679              		.cfi_offset 4, -12
 2680              		.cfi_offset 5, -8
 2681              		.cfi_offset 14, -4
 2682 0002 0446     		mov	r4, r0
 2683 0004 0D46     		mov	r5, r1
1484:Middlewares/Third_Party/SEGGER_RTT/SEGGER_RTT.c ****   int r;
 2684              		.loc 1 1484 3 is_stmt 1 view .LVU761
1485:Middlewares/Third_Party/SEGGER_RTT/SEGGER_RTT.c **** 
1486:Middlewares/Third_Party/SEGGER_RTT/SEGGER_RTT.c ****   INIT();
 2685              		.loc 1 1486 3 view .LVU762
 2686              		.loc 1 1486 3 view .LVU763
 2687 0006 0E4B     		ldr	r3, .L181
 2688 0008 1B78     		ldrb	r3, [r3]	@ zero_extendqisi2
 2689 000a 9BB1     		cbz	r3, .L180
 2690              	.LVL260:
 2691              	.L176:
 2692              		.loc 1 1486 3 discriminator 3 view .LVU764
1487:Middlewares/Third_Party/SEGGER_RTT/SEGGER_RTT.c ****   if (BufferIndex < (unsigned)_SEGGER_RTT.MaxNumUpBuffers) {
 2693              		.loc 1 1487 3 discriminator 3 view .LVU765
 2694              		.loc 1 1487 42 is_stmt 0 discriminator 3 view .LVU766
 2695 000c 0C4B     		ldr	r3, .L181
 2696 000e 1B69     		ldr	r3, [r3, #16]
 2697              		.loc 1 1487 6 discriminator 3 view .LVU767
 2698 0010 A342     		cmp	r3, r4
 2699 0012 12D9     		bls	.L178
 2700              	.LBB14:
1488:Middlewares/Third_Party/SEGGER_RTT/SEGGER_RTT.c ****     SEGGER_RTT_LOCK();
 2701              		.loc 1 1488 5 is_stmt 1 view .LVU768
 2702              		.loc 1 1488 5 view .LVU769
 2703              		.syntax unified
 2704              	@ 1488 "Middlewares/Third_Party/SEGGER_RTT/SEGGER_RTT.c" 1
 2705 0014 EFF31183 		mrs   r3, basepri  
 2706 0018 4FF02001 		mov   r1, #32       
 2707 001c 81F31188 		msr   basepri, r1  
 2708              		
 2709              	@ 0 "" 2
 2710              	.LVL261:
 2711              		.loc 1 1488 22 view .LVU770
1489:Middlewares/Third_Party/SEGGER_RTT/SEGGER_RTT.c ****     _SEGGER_RTT.aUp[BufferIndex].sName = sName;
 2712              		.loc 1 1489 5 view .LVU771
 2713              		.loc 1 1489 40 is_stmt 0 view .LVU772
 2714              		.thumb
 2715              		.syntax unified
ARM GAS  C:\Users\Brandon\AppData\Local\Temp\ccaGXwj6.s 			page 79


 2716 0020 0134     		adds	r4, r4, #1
 2717              	.LVL262:
 2718              		.loc 1 1489 40 view .LVU773
 2719 0022 04EB4404 		add	r4, r4, r4, lsl #1
 2720              	.LVL263:
 2721              		.loc 1 1489 40 view .LVU774
 2722 0026 064A     		ldr	r2, .L181
 2723 0028 42F83450 		str	r5, [r2, r4, lsl #3]
1490:Middlewares/Third_Party/SEGGER_RTT/SEGGER_RTT.c ****     SEGGER_RTT_UNLOCK();
 2724              		.loc 1 1490 5 is_stmt 1 view .LVU775
 2725              		.syntax unified
 2726              	@ 1490 "Middlewares/Third_Party/SEGGER_RTT/SEGGER_RTT.c" 1
 2727 002c 83F31188 		msr   basepri, r3  
 2728              		
 2729              	@ 0 "" 2
 2730              		.thumb
 2731              		.syntax unified
 2732              	.LBE14:
 2733              		.loc 1 1490 24 view .LVU776
1491:Middlewares/Third_Party/SEGGER_RTT/SEGGER_RTT.c ****     r =  0;
 2734              		.loc 1 1491 5 view .LVU777
 2735              	.LVL264:
 2736              		.loc 1 1491 7 is_stmt 0 view .LVU778
 2737 0030 0020     		movs	r0, #0
 2738              	.LVL265:
 2739              	.L175:
1492:Middlewares/Third_Party/SEGGER_RTT/SEGGER_RTT.c ****   } else {
1493:Middlewares/Third_Party/SEGGER_RTT/SEGGER_RTT.c ****     r = -1;
1494:Middlewares/Third_Party/SEGGER_RTT/SEGGER_RTT.c ****   }
1495:Middlewares/Third_Party/SEGGER_RTT/SEGGER_RTT.c ****   return r;
1496:Middlewares/Third_Party/SEGGER_RTT/SEGGER_RTT.c **** }
 2740              		.loc 1 1496 1 view .LVU779
 2741 0032 38BD     		pop	{r3, r4, r5, pc}
 2742              	.LVL266:
 2743              	.L180:
1486:Middlewares/Third_Party/SEGGER_RTT/SEGGER_RTT.c ****   if (BufferIndex < (unsigned)_SEGGER_RTT.MaxNumUpBuffers) {
 2744              		.loc 1 1486 3 is_stmt 1 discriminator 1 view .LVU780
 2745 0034 FFF7FEFF 		bl	_DoInit
 2746              	.LVL267:
1486:Middlewares/Third_Party/SEGGER_RTT/SEGGER_RTT.c ****   if (BufferIndex < (unsigned)_SEGGER_RTT.MaxNumUpBuffers) {
 2747              		.loc 1 1486 3 is_stmt 0 discriminator 1 view .LVU781
 2748 0038 E8E7     		b	.L176
 2749              	.L178:
1493:Middlewares/Third_Party/SEGGER_RTT/SEGGER_RTT.c ****   }
 2750              		.loc 1 1493 7 view .LVU782
 2751 003a 4FF0FF30 		mov	r0, #-1
 2752              	.LVL268:
1495:Middlewares/Third_Party/SEGGER_RTT/SEGGER_RTT.c **** }
 2753              		.loc 1 1495 3 is_stmt 1 view .LVU783
1495:Middlewares/Third_Party/SEGGER_RTT/SEGGER_RTT.c **** }
 2754              		.loc 1 1495 10 is_stmt 0 view .LVU784
 2755 003e F8E7     		b	.L175
 2756              	.L182:
 2757              		.align	2
 2758              	.L181:
 2759 0040 00000000 		.word	_SEGGER_RTT
 2760              		.cfi_endproc
ARM GAS  C:\Users\Brandon\AppData\Local\Temp\ccaGXwj6.s 			page 80


 2761              	.LFE23:
 2763              		.section	.text.SEGGER_RTT_SetNameDownBuffer,"ax",%progbits
 2764              		.align	1
 2765              		.global	SEGGER_RTT_SetNameDownBuffer
 2766              		.syntax unified
 2767              		.thumb
 2768              		.thumb_func
 2769              		.fpu fpv5-d16
 2771              	SEGGER_RTT_SetNameDownBuffer:
 2772              	.LVL269:
 2773              	.LFB24:
1497:Middlewares/Third_Party/SEGGER_RTT/SEGGER_RTT.c **** 
1498:Middlewares/Third_Party/SEGGER_RTT/SEGGER_RTT.c **** /*********************************************************************
1499:Middlewares/Third_Party/SEGGER_RTT/SEGGER_RTT.c **** *
1500:Middlewares/Third_Party/SEGGER_RTT/SEGGER_RTT.c **** *       SEGGER_RTT_SetNameDownBuffer
1501:Middlewares/Third_Party/SEGGER_RTT/SEGGER_RTT.c **** *
1502:Middlewares/Third_Party/SEGGER_RTT/SEGGER_RTT.c **** *  Function description
1503:Middlewares/Third_Party/SEGGER_RTT/SEGGER_RTT.c **** *    Run-time configuration of a specific Down-buffer name (T->H).
1504:Middlewares/Third_Party/SEGGER_RTT/SEGGER_RTT.c **** *    Buffer to be configured is specified by index.
1505:Middlewares/Third_Party/SEGGER_RTT/SEGGER_RTT.c **** *
1506:Middlewares/Third_Party/SEGGER_RTT/SEGGER_RTT.c **** *  Parameters
1507:Middlewares/Third_Party/SEGGER_RTT/SEGGER_RTT.c **** *    BufferIndex  Index of the buffer to renamed.
1508:Middlewares/Third_Party/SEGGER_RTT/SEGGER_RTT.c **** *    sName        Pointer to a constant name string.
1509:Middlewares/Third_Party/SEGGER_RTT/SEGGER_RTT.c **** *
1510:Middlewares/Third_Party/SEGGER_RTT/SEGGER_RTT.c **** *  Return value
1511:Middlewares/Third_Party/SEGGER_RTT/SEGGER_RTT.c **** *    >= 0  O.K.
1512:Middlewares/Third_Party/SEGGER_RTT/SEGGER_RTT.c **** *     < 0  Error
1513:Middlewares/Third_Party/SEGGER_RTT/SEGGER_RTT.c **** */
1514:Middlewares/Third_Party/SEGGER_RTT/SEGGER_RTT.c **** int SEGGER_RTT_SetNameDownBuffer(unsigned BufferIndex, const char* sName) {
 2774              		.loc 1 1514 75 is_stmt 1 view -0
 2775              		.cfi_startproc
 2776              		@ args = 0, pretend = 0, frame = 0
 2777              		@ frame_needed = 0, uses_anonymous_args = 0
 2778              		.loc 1 1514 75 is_stmt 0 view .LVU786
 2779 0000 38B5     		push	{r3, r4, r5, lr}
 2780              	.LCFI31:
 2781              		.cfi_def_cfa_offset 16
 2782              		.cfi_offset 3, -16
 2783              		.cfi_offset 4, -12
 2784              		.cfi_offset 5, -8
 2785              		.cfi_offset 14, -4
 2786 0002 0446     		mov	r4, r0
 2787 0004 0D46     		mov	r5, r1
1515:Middlewares/Third_Party/SEGGER_RTT/SEGGER_RTT.c ****   int r;
 2788              		.loc 1 1515 3 is_stmt 1 view .LVU787
1516:Middlewares/Third_Party/SEGGER_RTT/SEGGER_RTT.c **** 
1517:Middlewares/Third_Party/SEGGER_RTT/SEGGER_RTT.c ****   INIT();
 2789              		.loc 1 1517 3 view .LVU788
 2790              		.loc 1 1517 3 view .LVU789
 2791 0006 0E4B     		ldr	r3, .L189
 2792 0008 1B78     		ldrb	r3, [r3]	@ zero_extendqisi2
 2793 000a 9BB1     		cbz	r3, .L188
 2794              	.LVL270:
 2795              	.L184:
 2796              		.loc 1 1517 3 discriminator 3 view .LVU790
1518:Middlewares/Third_Party/SEGGER_RTT/SEGGER_RTT.c ****   if (BufferIndex < (unsigned)_SEGGER_RTT.MaxNumDownBuffers) {
 2797              		.loc 1 1518 3 discriminator 3 view .LVU791
ARM GAS  C:\Users\Brandon\AppData\Local\Temp\ccaGXwj6.s 			page 81


 2798              		.loc 1 1518 42 is_stmt 0 discriminator 3 view .LVU792
 2799 000c 0C4B     		ldr	r3, .L189
 2800 000e 5B69     		ldr	r3, [r3, #20]
 2801              		.loc 1 1518 6 discriminator 3 view .LVU793
 2802 0010 A342     		cmp	r3, r4
 2803 0012 12D9     		bls	.L186
 2804              	.LBB15:
1519:Middlewares/Third_Party/SEGGER_RTT/SEGGER_RTT.c ****     SEGGER_RTT_LOCK();
 2805              		.loc 1 1519 5 is_stmt 1 view .LVU794
 2806              		.loc 1 1519 5 view .LVU795
 2807              		.syntax unified
 2808              	@ 1519 "Middlewares/Third_Party/SEGGER_RTT/SEGGER_RTT.c" 1
 2809 0014 EFF31183 		mrs   r3, basepri  
 2810 0018 4FF02001 		mov   r1, #32       
 2811 001c 81F31188 		msr   basepri, r1  
 2812              		
 2813              	@ 0 "" 2
 2814              	.LVL271:
 2815              		.loc 1 1519 22 view .LVU796
1520:Middlewares/Third_Party/SEGGER_RTT/SEGGER_RTT.c ****     _SEGGER_RTT.aDown[BufferIndex].sName = sName;
 2816              		.loc 1 1520 5 view .LVU797
 2817              		.loc 1 1520 42 is_stmt 0 view .LVU798
 2818              		.thumb
 2819              		.syntax unified
 2820 0020 04EB4404 		add	r4, r4, r4, lsl #1
 2821              	.LVL272:
 2822              		.loc 1 1520 42 view .LVU799
 2823 0024 0648     		ldr	r0, .L189
 2824 0026 00EBC404 		add	r4, r0, r4, lsl #3
 2825 002a A564     		str	r5, [r4, #72]
1521:Middlewares/Third_Party/SEGGER_RTT/SEGGER_RTT.c ****     SEGGER_RTT_UNLOCK();
 2826              		.loc 1 1521 5 is_stmt 1 view .LVU800
 2827              		.syntax unified
 2828              	@ 1521 "Middlewares/Third_Party/SEGGER_RTT/SEGGER_RTT.c" 1
 2829 002c 83F31188 		msr   basepri, r3  
 2830              		
 2831              	@ 0 "" 2
 2832              		.thumb
 2833              		.syntax unified
 2834              	.LBE15:
 2835              		.loc 1 1521 24 view .LVU801
1522:Middlewares/Third_Party/SEGGER_RTT/SEGGER_RTT.c ****     r =  0;
 2836              		.loc 1 1522 5 view .LVU802
 2837              	.LVL273:
 2838              		.loc 1 1522 7 is_stmt 0 view .LVU803
 2839 0030 0020     		movs	r0, #0
 2840              	.LVL274:
 2841              	.L183:
1523:Middlewares/Third_Party/SEGGER_RTT/SEGGER_RTT.c ****   } else {
1524:Middlewares/Third_Party/SEGGER_RTT/SEGGER_RTT.c ****     r = -1;
1525:Middlewares/Third_Party/SEGGER_RTT/SEGGER_RTT.c ****   }
1526:Middlewares/Third_Party/SEGGER_RTT/SEGGER_RTT.c ****   return r;
1527:Middlewares/Third_Party/SEGGER_RTT/SEGGER_RTT.c **** }
 2842              		.loc 1 1527 1 view .LVU804
 2843 0032 38BD     		pop	{r3, r4, r5, pc}
 2844              	.LVL275:
 2845              	.L188:
ARM GAS  C:\Users\Brandon\AppData\Local\Temp\ccaGXwj6.s 			page 82


1517:Middlewares/Third_Party/SEGGER_RTT/SEGGER_RTT.c ****   if (BufferIndex < (unsigned)_SEGGER_RTT.MaxNumDownBuffers) {
 2846              		.loc 1 1517 3 is_stmt 1 discriminator 1 view .LVU805
 2847 0034 FFF7FEFF 		bl	_DoInit
 2848              	.LVL276:
1517:Middlewares/Third_Party/SEGGER_RTT/SEGGER_RTT.c ****   if (BufferIndex < (unsigned)_SEGGER_RTT.MaxNumDownBuffers) {
 2849              		.loc 1 1517 3 is_stmt 0 discriminator 1 view .LVU806
 2850 0038 E8E7     		b	.L184
 2851              	.L186:
1524:Middlewares/Third_Party/SEGGER_RTT/SEGGER_RTT.c ****   }
 2852              		.loc 1 1524 7 view .LVU807
 2853 003a 4FF0FF30 		mov	r0, #-1
 2854              	.LVL277:
1526:Middlewares/Third_Party/SEGGER_RTT/SEGGER_RTT.c **** }
 2855              		.loc 1 1526 3 is_stmt 1 view .LVU808
1526:Middlewares/Third_Party/SEGGER_RTT/SEGGER_RTT.c **** }
 2856              		.loc 1 1526 10 is_stmt 0 view .LVU809
 2857 003e F8E7     		b	.L183
 2858              	.L190:
 2859              		.align	2
 2860              	.L189:
 2861 0040 00000000 		.word	_SEGGER_RTT
 2862              		.cfi_endproc
 2863              	.LFE24:
 2865              		.section	.text.SEGGER_RTT_SetFlagsUpBuffer,"ax",%progbits
 2866              		.align	1
 2867              		.global	SEGGER_RTT_SetFlagsUpBuffer
 2868              		.syntax unified
 2869              		.thumb
 2870              		.thumb_func
 2871              		.fpu fpv5-d16
 2873              	SEGGER_RTT_SetFlagsUpBuffer:
 2874              	.LVL278:
 2875              	.LFB25:
1528:Middlewares/Third_Party/SEGGER_RTT/SEGGER_RTT.c **** 
1529:Middlewares/Third_Party/SEGGER_RTT/SEGGER_RTT.c **** /*********************************************************************
1530:Middlewares/Third_Party/SEGGER_RTT/SEGGER_RTT.c **** *
1531:Middlewares/Third_Party/SEGGER_RTT/SEGGER_RTT.c **** *       SEGGER_RTT_SetFlagsUpBuffer
1532:Middlewares/Third_Party/SEGGER_RTT/SEGGER_RTT.c **** *
1533:Middlewares/Third_Party/SEGGER_RTT/SEGGER_RTT.c **** *  Function description
1534:Middlewares/Third_Party/SEGGER_RTT/SEGGER_RTT.c **** *    Run-time configuration of specific up-buffer flags (T->H).
1535:Middlewares/Third_Party/SEGGER_RTT/SEGGER_RTT.c **** *    Buffer to be configured is specified by index.
1536:Middlewares/Third_Party/SEGGER_RTT/SEGGER_RTT.c **** *
1537:Middlewares/Third_Party/SEGGER_RTT/SEGGER_RTT.c **** *  Parameters
1538:Middlewares/Third_Party/SEGGER_RTT/SEGGER_RTT.c **** *    BufferIndex  Index of the buffer.
1539:Middlewares/Third_Party/SEGGER_RTT/SEGGER_RTT.c **** *    Flags        Flags to set for the buffer.
1540:Middlewares/Third_Party/SEGGER_RTT/SEGGER_RTT.c **** *
1541:Middlewares/Third_Party/SEGGER_RTT/SEGGER_RTT.c **** *  Return value
1542:Middlewares/Third_Party/SEGGER_RTT/SEGGER_RTT.c **** *    >= 0  O.K.
1543:Middlewares/Third_Party/SEGGER_RTT/SEGGER_RTT.c **** *     < 0  Error
1544:Middlewares/Third_Party/SEGGER_RTT/SEGGER_RTT.c **** */
1545:Middlewares/Third_Party/SEGGER_RTT/SEGGER_RTT.c **** int SEGGER_RTT_SetFlagsUpBuffer(unsigned BufferIndex, unsigned Flags) {
 2876              		.loc 1 1545 71 is_stmt 1 view -0
 2877              		.cfi_startproc
 2878              		@ args = 0, pretend = 0, frame = 0
 2879              		@ frame_needed = 0, uses_anonymous_args = 0
 2880              		.loc 1 1545 71 is_stmt 0 view .LVU811
 2881 0000 38B5     		push	{r3, r4, r5, lr}
ARM GAS  C:\Users\Brandon\AppData\Local\Temp\ccaGXwj6.s 			page 83


 2882              	.LCFI32:
 2883              		.cfi_def_cfa_offset 16
 2884              		.cfi_offset 3, -16
 2885              		.cfi_offset 4, -12
 2886              		.cfi_offset 5, -8
 2887              		.cfi_offset 14, -4
 2888 0002 0446     		mov	r4, r0
 2889 0004 0D46     		mov	r5, r1
1546:Middlewares/Third_Party/SEGGER_RTT/SEGGER_RTT.c ****   int r;
 2890              		.loc 1 1546 3 is_stmt 1 view .LVU812
1547:Middlewares/Third_Party/SEGGER_RTT/SEGGER_RTT.c **** 
1548:Middlewares/Third_Party/SEGGER_RTT/SEGGER_RTT.c ****   INIT();
 2891              		.loc 1 1548 3 view .LVU813
 2892              		.loc 1 1548 3 view .LVU814
 2893 0006 0E4B     		ldr	r3, .L197
 2894 0008 1B78     		ldrb	r3, [r3]	@ zero_extendqisi2
 2895 000a 9BB1     		cbz	r3, .L196
 2896              	.LVL279:
 2897              	.L192:
 2898              		.loc 1 1548 3 discriminator 3 view .LVU815
1549:Middlewares/Third_Party/SEGGER_RTT/SEGGER_RTT.c ****   if (BufferIndex < (unsigned)_SEGGER_RTT.MaxNumUpBuffers) {
 2899              		.loc 1 1549 3 discriminator 3 view .LVU816
 2900              		.loc 1 1549 42 is_stmt 0 discriminator 3 view .LVU817
 2901 000c 0C4B     		ldr	r3, .L197
 2902 000e 1B69     		ldr	r3, [r3, #16]
 2903              		.loc 1 1549 6 discriminator 3 view .LVU818
 2904 0010 A342     		cmp	r3, r4
 2905 0012 12D9     		bls	.L194
 2906              	.LBB16:
1550:Middlewares/Third_Party/SEGGER_RTT/SEGGER_RTT.c ****     SEGGER_RTT_LOCK();
 2907              		.loc 1 1550 5 is_stmt 1 view .LVU819
 2908              		.loc 1 1550 5 view .LVU820
 2909              		.syntax unified
 2910              	@ 1550 "Middlewares/Third_Party/SEGGER_RTT/SEGGER_RTT.c" 1
 2911 0014 EFF31183 		mrs   r3, basepri  
 2912 0018 4FF02001 		mov   r1, #32       
 2913 001c 81F31188 		msr   basepri, r1  
 2914              		
 2915              	@ 0 "" 2
 2916              	.LVL280:
 2917              		.loc 1 1550 22 view .LVU821
1551:Middlewares/Third_Party/SEGGER_RTT/SEGGER_RTT.c ****     _SEGGER_RTT.aUp[BufferIndex].Flags = Flags;
 2918              		.loc 1 1551 5 view .LVU822
 2919              		.loc 1 1551 40 is_stmt 0 view .LVU823
 2920              		.thumb
 2921              		.syntax unified
 2922 0020 04EB4404 		add	r4, r4, r4, lsl #1
 2923              	.LVL281:
 2924              		.loc 1 1551 40 view .LVU824
 2925 0024 0648     		ldr	r0, .L197
 2926 0026 00EBC404 		add	r4, r0, r4, lsl #3
 2927 002a E562     		str	r5, [r4, #44]
1552:Middlewares/Third_Party/SEGGER_RTT/SEGGER_RTT.c ****     SEGGER_RTT_UNLOCK();
 2928              		.loc 1 1552 5 is_stmt 1 view .LVU825
 2929              		.syntax unified
 2930              	@ 1552 "Middlewares/Third_Party/SEGGER_RTT/SEGGER_RTT.c" 1
 2931 002c 83F31188 		msr   basepri, r3  
ARM GAS  C:\Users\Brandon\AppData\Local\Temp\ccaGXwj6.s 			page 84


 2932              		
 2933              	@ 0 "" 2
 2934              		.thumb
 2935              		.syntax unified
 2936              	.LBE16:
 2937              		.loc 1 1552 24 view .LVU826
1553:Middlewares/Third_Party/SEGGER_RTT/SEGGER_RTT.c ****     r =  0;
 2938              		.loc 1 1553 5 view .LVU827
 2939              	.LVL282:
 2940              		.loc 1 1553 7 is_stmt 0 view .LVU828
 2941 0030 0020     		movs	r0, #0
 2942              	.LVL283:
 2943              	.L191:
1554:Middlewares/Third_Party/SEGGER_RTT/SEGGER_RTT.c ****   } else {
1555:Middlewares/Third_Party/SEGGER_RTT/SEGGER_RTT.c ****     r = -1;
1556:Middlewares/Third_Party/SEGGER_RTT/SEGGER_RTT.c ****   }
1557:Middlewares/Third_Party/SEGGER_RTT/SEGGER_RTT.c ****   return r;
1558:Middlewares/Third_Party/SEGGER_RTT/SEGGER_RTT.c **** }
 2944              		.loc 1 1558 1 view .LVU829
 2945 0032 38BD     		pop	{r3, r4, r5, pc}
 2946              	.LVL284:
 2947              	.L196:
1548:Middlewares/Third_Party/SEGGER_RTT/SEGGER_RTT.c ****   if (BufferIndex < (unsigned)_SEGGER_RTT.MaxNumUpBuffers) {
 2948              		.loc 1 1548 3 is_stmt 1 discriminator 1 view .LVU830
 2949 0034 FFF7FEFF 		bl	_DoInit
 2950              	.LVL285:
1548:Middlewares/Third_Party/SEGGER_RTT/SEGGER_RTT.c ****   if (BufferIndex < (unsigned)_SEGGER_RTT.MaxNumUpBuffers) {
 2951              		.loc 1 1548 3 is_stmt 0 discriminator 1 view .LVU831
 2952 0038 E8E7     		b	.L192
 2953              	.L194:
1555:Middlewares/Third_Party/SEGGER_RTT/SEGGER_RTT.c ****   }
 2954              		.loc 1 1555 7 view .LVU832
 2955 003a 4FF0FF30 		mov	r0, #-1
 2956              	.LVL286:
1557:Middlewares/Third_Party/SEGGER_RTT/SEGGER_RTT.c **** }
 2957              		.loc 1 1557 3 is_stmt 1 view .LVU833
1557:Middlewares/Third_Party/SEGGER_RTT/SEGGER_RTT.c **** }
 2958              		.loc 1 1557 10 is_stmt 0 view .LVU834
 2959 003e F8E7     		b	.L191
 2960              	.L198:
 2961              		.align	2
 2962              	.L197:
 2963 0040 00000000 		.word	_SEGGER_RTT
 2964              		.cfi_endproc
 2965              	.LFE25:
 2967              		.section	.text.SEGGER_RTT_SetFlagsDownBuffer,"ax",%progbits
 2968              		.align	1
 2969              		.global	SEGGER_RTT_SetFlagsDownBuffer
 2970              		.syntax unified
 2971              		.thumb
 2972              		.thumb_func
 2973              		.fpu fpv5-d16
 2975              	SEGGER_RTT_SetFlagsDownBuffer:
 2976              	.LVL287:
 2977              	.LFB26:
1559:Middlewares/Third_Party/SEGGER_RTT/SEGGER_RTT.c **** 
1560:Middlewares/Third_Party/SEGGER_RTT/SEGGER_RTT.c **** /*********************************************************************
ARM GAS  C:\Users\Brandon\AppData\Local\Temp\ccaGXwj6.s 			page 85


1561:Middlewares/Third_Party/SEGGER_RTT/SEGGER_RTT.c **** *
1562:Middlewares/Third_Party/SEGGER_RTT/SEGGER_RTT.c **** *       SEGGER_RTT_SetFlagsDownBuffer
1563:Middlewares/Third_Party/SEGGER_RTT/SEGGER_RTT.c **** *
1564:Middlewares/Third_Party/SEGGER_RTT/SEGGER_RTT.c **** *  Function description
1565:Middlewares/Third_Party/SEGGER_RTT/SEGGER_RTT.c **** *    Run-time configuration of specific Down-buffer flags (T->H).
1566:Middlewares/Third_Party/SEGGER_RTT/SEGGER_RTT.c **** *    Buffer to be configured is specified by index.
1567:Middlewares/Third_Party/SEGGER_RTT/SEGGER_RTT.c **** *
1568:Middlewares/Third_Party/SEGGER_RTT/SEGGER_RTT.c **** *  Parameters
1569:Middlewares/Third_Party/SEGGER_RTT/SEGGER_RTT.c **** *    BufferIndex  Index of the buffer to renamed.
1570:Middlewares/Third_Party/SEGGER_RTT/SEGGER_RTT.c **** *    Flags        Flags to set for the buffer.
1571:Middlewares/Third_Party/SEGGER_RTT/SEGGER_RTT.c **** *
1572:Middlewares/Third_Party/SEGGER_RTT/SEGGER_RTT.c **** *  Return value
1573:Middlewares/Third_Party/SEGGER_RTT/SEGGER_RTT.c **** *    >= 0  O.K.
1574:Middlewares/Third_Party/SEGGER_RTT/SEGGER_RTT.c **** *     < 0  Error
1575:Middlewares/Third_Party/SEGGER_RTT/SEGGER_RTT.c **** */
1576:Middlewares/Third_Party/SEGGER_RTT/SEGGER_RTT.c **** int SEGGER_RTT_SetFlagsDownBuffer(unsigned BufferIndex, unsigned Flags) {
 2978              		.loc 1 1576 73 is_stmt 1 view -0
 2979              		.cfi_startproc
 2980              		@ args = 0, pretend = 0, frame = 0
 2981              		@ frame_needed = 0, uses_anonymous_args = 0
 2982              		.loc 1 1576 73 is_stmt 0 view .LVU836
 2983 0000 38B5     		push	{r3, r4, r5, lr}
 2984              	.LCFI33:
 2985              		.cfi_def_cfa_offset 16
 2986              		.cfi_offset 3, -16
 2987              		.cfi_offset 4, -12
 2988              		.cfi_offset 5, -8
 2989              		.cfi_offset 14, -4
 2990 0002 0446     		mov	r4, r0
 2991 0004 0D46     		mov	r5, r1
1577:Middlewares/Third_Party/SEGGER_RTT/SEGGER_RTT.c ****   int r;
 2992              		.loc 1 1577 3 is_stmt 1 view .LVU837
1578:Middlewares/Third_Party/SEGGER_RTT/SEGGER_RTT.c **** 
1579:Middlewares/Third_Party/SEGGER_RTT/SEGGER_RTT.c ****   INIT();
 2993              		.loc 1 1579 3 view .LVU838
 2994              		.loc 1 1579 3 view .LVU839
 2995 0006 0E4B     		ldr	r3, .L205
 2996 0008 1B78     		ldrb	r3, [r3]	@ zero_extendqisi2
 2997 000a 9BB1     		cbz	r3, .L204
 2998              	.LVL288:
 2999              	.L200:
 3000              		.loc 1 1579 3 discriminator 3 view .LVU840
1580:Middlewares/Third_Party/SEGGER_RTT/SEGGER_RTT.c ****   if (BufferIndex < (unsigned)_SEGGER_RTT.MaxNumDownBuffers) {
 3001              		.loc 1 1580 3 discriminator 3 view .LVU841
 3002              		.loc 1 1580 42 is_stmt 0 discriminator 3 view .LVU842
 3003 000c 0C4B     		ldr	r3, .L205
 3004 000e 5B69     		ldr	r3, [r3, #20]
 3005              		.loc 1 1580 6 discriminator 3 view .LVU843
 3006 0010 A342     		cmp	r3, r4
 3007 0012 12D9     		bls	.L202
 3008              	.LBB17:
1581:Middlewares/Third_Party/SEGGER_RTT/SEGGER_RTT.c ****     SEGGER_RTT_LOCK();
 3009              		.loc 1 1581 5 is_stmt 1 view .LVU844
 3010              		.loc 1 1581 5 view .LVU845
 3011              		.syntax unified
 3012              	@ 1581 "Middlewares/Third_Party/SEGGER_RTT/SEGGER_RTT.c" 1
 3013 0014 EFF31183 		mrs   r3, basepri  
ARM GAS  C:\Users\Brandon\AppData\Local\Temp\ccaGXwj6.s 			page 86


 3014 0018 4FF02001 		mov   r1, #32       
 3015 001c 81F31188 		msr   basepri, r1  
 3016              		
 3017              	@ 0 "" 2
 3018              	.LVL289:
 3019              		.loc 1 1581 22 view .LVU846
1582:Middlewares/Third_Party/SEGGER_RTT/SEGGER_RTT.c ****     _SEGGER_RTT.aDown[BufferIndex].Flags = Flags;
 3020              		.loc 1 1582 5 view .LVU847
 3021              		.loc 1 1582 42 is_stmt 0 view .LVU848
 3022              		.thumb
 3023              		.syntax unified
 3024 0020 04EB4404 		add	r4, r4, r4, lsl #1
 3025              	.LVL290:
 3026              		.loc 1 1582 42 view .LVU849
 3027 0024 0648     		ldr	r0, .L205
 3028 0026 00EBC404 		add	r4, r0, r4, lsl #3
 3029 002a E565     		str	r5, [r4, #92]
1583:Middlewares/Third_Party/SEGGER_RTT/SEGGER_RTT.c ****     SEGGER_RTT_UNLOCK();
 3030              		.loc 1 1583 5 is_stmt 1 view .LVU850
 3031              		.syntax unified
 3032              	@ 1583 "Middlewares/Third_Party/SEGGER_RTT/SEGGER_RTT.c" 1
 3033 002c 83F31188 		msr   basepri, r3  
 3034              		
 3035              	@ 0 "" 2
 3036              		.thumb
 3037              		.syntax unified
 3038              	.LBE17:
 3039              		.loc 1 1583 24 view .LVU851
1584:Middlewares/Third_Party/SEGGER_RTT/SEGGER_RTT.c ****     r =  0;
 3040              		.loc 1 1584 5 view .LVU852
 3041              	.LVL291:
 3042              		.loc 1 1584 7 is_stmt 0 view .LVU853
 3043 0030 0020     		movs	r0, #0
 3044              	.LVL292:
 3045              	.L199:
1585:Middlewares/Third_Party/SEGGER_RTT/SEGGER_RTT.c ****   } else {
1586:Middlewares/Third_Party/SEGGER_RTT/SEGGER_RTT.c ****     r = -1;
1587:Middlewares/Third_Party/SEGGER_RTT/SEGGER_RTT.c ****   }
1588:Middlewares/Third_Party/SEGGER_RTT/SEGGER_RTT.c ****   return r;
1589:Middlewares/Third_Party/SEGGER_RTT/SEGGER_RTT.c **** }
 3046              		.loc 1 1589 1 view .LVU854
 3047 0032 38BD     		pop	{r3, r4, r5, pc}
 3048              	.LVL293:
 3049              	.L204:
1579:Middlewares/Third_Party/SEGGER_RTT/SEGGER_RTT.c ****   if (BufferIndex < (unsigned)_SEGGER_RTT.MaxNumDownBuffers) {
 3050              		.loc 1 1579 3 is_stmt 1 discriminator 1 view .LVU855
 3051 0034 FFF7FEFF 		bl	_DoInit
 3052              	.LVL294:
1579:Middlewares/Third_Party/SEGGER_RTT/SEGGER_RTT.c ****   if (BufferIndex < (unsigned)_SEGGER_RTT.MaxNumDownBuffers) {
 3053              		.loc 1 1579 3 is_stmt 0 discriminator 1 view .LVU856
 3054 0038 E8E7     		b	.L200
 3055              	.L202:
1586:Middlewares/Third_Party/SEGGER_RTT/SEGGER_RTT.c ****   }
 3056              		.loc 1 1586 7 view .LVU857
 3057 003a 4FF0FF30 		mov	r0, #-1
 3058              	.LVL295:
1588:Middlewares/Third_Party/SEGGER_RTT/SEGGER_RTT.c **** }
ARM GAS  C:\Users\Brandon\AppData\Local\Temp\ccaGXwj6.s 			page 87


 3059              		.loc 1 1588 3 is_stmt 1 view .LVU858
1588:Middlewares/Third_Party/SEGGER_RTT/SEGGER_RTT.c **** }
 3060              		.loc 1 1588 10 is_stmt 0 view .LVU859
 3061 003e F8E7     		b	.L199
 3062              	.L206:
 3063              		.align	2
 3064              	.L205:
 3065 0040 00000000 		.word	_SEGGER_RTT
 3066              		.cfi_endproc
 3067              	.LFE26:
 3069              		.section	.text.SEGGER_RTT_Init,"ax",%progbits
 3070              		.align	1
 3071              		.global	SEGGER_RTT_Init
 3072              		.syntax unified
 3073              		.thumb
 3074              		.thumb_func
 3075              		.fpu fpv5-d16
 3077              	SEGGER_RTT_Init:
 3078              	.LFB27:
1590:Middlewares/Third_Party/SEGGER_RTT/SEGGER_RTT.c **** 
1591:Middlewares/Third_Party/SEGGER_RTT/SEGGER_RTT.c **** /*********************************************************************
1592:Middlewares/Third_Party/SEGGER_RTT/SEGGER_RTT.c **** *
1593:Middlewares/Third_Party/SEGGER_RTT/SEGGER_RTT.c **** *       SEGGER_RTT_Init
1594:Middlewares/Third_Party/SEGGER_RTT/SEGGER_RTT.c **** *
1595:Middlewares/Third_Party/SEGGER_RTT/SEGGER_RTT.c **** *  Function description
1596:Middlewares/Third_Party/SEGGER_RTT/SEGGER_RTT.c **** *    Initializes the RTT Control Block.
1597:Middlewares/Third_Party/SEGGER_RTT/SEGGER_RTT.c **** *    Should be used in RAM targets, at start of the application.
1598:Middlewares/Third_Party/SEGGER_RTT/SEGGER_RTT.c **** *
1599:Middlewares/Third_Party/SEGGER_RTT/SEGGER_RTT.c **** */
1600:Middlewares/Third_Party/SEGGER_RTT/SEGGER_RTT.c **** void SEGGER_RTT_Init (void) {
 3079              		.loc 1 1600 29 is_stmt 1 view -0
 3080              		.cfi_startproc
 3081              		@ args = 0, pretend = 0, frame = 0
 3082              		@ frame_needed = 0, uses_anonymous_args = 0
 3083 0000 08B5     		push	{r3, lr}
 3084              	.LCFI34:
 3085              		.cfi_def_cfa_offset 8
 3086              		.cfi_offset 3, -8
 3087              		.cfi_offset 14, -4
1601:Middlewares/Third_Party/SEGGER_RTT/SEGGER_RTT.c ****   _DoInit();
 3088              		.loc 1 1601 3 view .LVU861
 3089 0002 FFF7FEFF 		bl	_DoInit
 3090              	.LVL296:
1602:Middlewares/Third_Party/SEGGER_RTT/SEGGER_RTT.c **** }
 3091              		.loc 1 1602 1 is_stmt 0 view .LVU862
 3092 0006 08BD     		pop	{r3, pc}
 3093              		.cfi_endproc
 3094              	.LFE27:
 3096              		.section	.text.SEGGER_RTT_SetTerminal,"ax",%progbits
 3097              		.align	1
 3098              		.global	SEGGER_RTT_SetTerminal
 3099              		.syntax unified
 3100              		.thumb
 3101              		.thumb_func
 3102              		.fpu fpv5-d16
 3104              	SEGGER_RTT_SetTerminal:
 3105              	.LVL297:
ARM GAS  C:\Users\Brandon\AppData\Local\Temp\ccaGXwj6.s 			page 88


 3106              	.LFB28:
1603:Middlewares/Third_Party/SEGGER_RTT/SEGGER_RTT.c **** 
1604:Middlewares/Third_Party/SEGGER_RTT/SEGGER_RTT.c **** /*********************************************************************
1605:Middlewares/Third_Party/SEGGER_RTT/SEGGER_RTT.c **** *
1606:Middlewares/Third_Party/SEGGER_RTT/SEGGER_RTT.c **** *       SEGGER_RTT_SetTerminal
1607:Middlewares/Third_Party/SEGGER_RTT/SEGGER_RTT.c **** *
1608:Middlewares/Third_Party/SEGGER_RTT/SEGGER_RTT.c **** *  Function description
1609:Middlewares/Third_Party/SEGGER_RTT/SEGGER_RTT.c **** *    Sets the terminal to be used for output on channel 0.
1610:Middlewares/Third_Party/SEGGER_RTT/SEGGER_RTT.c **** *
1611:Middlewares/Third_Party/SEGGER_RTT/SEGGER_RTT.c **** *  Parameters
1612:Middlewares/Third_Party/SEGGER_RTT/SEGGER_RTT.c **** *    TerminalId  Index of the terminal.
1613:Middlewares/Third_Party/SEGGER_RTT/SEGGER_RTT.c **** *
1614:Middlewares/Third_Party/SEGGER_RTT/SEGGER_RTT.c **** *  Return value
1615:Middlewares/Third_Party/SEGGER_RTT/SEGGER_RTT.c **** *    >= 0  O.K.
1616:Middlewares/Third_Party/SEGGER_RTT/SEGGER_RTT.c **** *     < 0  Error (e.g. if RTT is configured for non-blocking mode and there was no space in the buf
1617:Middlewares/Third_Party/SEGGER_RTT/SEGGER_RTT.c **** */
1618:Middlewares/Third_Party/SEGGER_RTT/SEGGER_RTT.c **** int SEGGER_RTT_SetTerminal (char TerminalId) {
 3107              		.loc 1 1618 46 is_stmt 1 view -0
 3108              		.cfi_startproc
 3109              		@ args = 0, pretend = 0, frame = 8
 3110              		@ frame_needed = 0, uses_anonymous_args = 0
 3111              		.loc 1 1618 46 is_stmt 0 view .LVU864
 3112 0000 30B5     		push	{r4, r5, lr}
 3113              	.LCFI35:
 3114              		.cfi_def_cfa_offset 12
 3115              		.cfi_offset 4, -12
 3116              		.cfi_offset 5, -8
 3117              		.cfi_offset 14, -4
 3118 0002 83B0     		sub	sp, sp, #12
 3119              	.LCFI36:
 3120              		.cfi_def_cfa_offset 24
 3121 0004 0446     		mov	r4, r0
1619:Middlewares/Third_Party/SEGGER_RTT/SEGGER_RTT.c ****   char                  ac[2];
 3122              		.loc 1 1619 3 is_stmt 1 view .LVU865
1620:Middlewares/Third_Party/SEGGER_RTT/SEGGER_RTT.c ****   SEGGER_RTT_BUFFER_UP* pRing;
 3123              		.loc 1 1620 3 view .LVU866
1621:Middlewares/Third_Party/SEGGER_RTT/SEGGER_RTT.c ****   unsigned Avail;
 3124              		.loc 1 1621 3 view .LVU867
1622:Middlewares/Third_Party/SEGGER_RTT/SEGGER_RTT.c ****   int r;
 3125              		.loc 1 1622 3 view .LVU868
1623:Middlewares/Third_Party/SEGGER_RTT/SEGGER_RTT.c ****   //
1624:Middlewares/Third_Party/SEGGER_RTT/SEGGER_RTT.c ****   INIT();
 3126              		.loc 1 1624 3 view .LVU869
 3127              		.loc 1 1624 3 view .LVU870
 3128 0006 1D4B     		ldr	r3, .L220
 3129 0008 1B78     		ldrb	r3, [r3]	@ zero_extendqisi2
 3130 000a FBB1     		cbz	r3, .L217
 3131              	.LVL298:
 3132              	.L210:
 3133              		.loc 1 1624 3 discriminator 3 view .LVU871
1625:Middlewares/Third_Party/SEGGER_RTT/SEGGER_RTT.c ****   //
1626:Middlewares/Third_Party/SEGGER_RTT/SEGGER_RTT.c ****   r = 0;
 3134              		.loc 1 1626 3 discriminator 3 view .LVU872
1627:Middlewares/Third_Party/SEGGER_RTT/SEGGER_RTT.c ****   ac[0] = 0xFFU;
 3135              		.loc 1 1627 3 discriminator 3 view .LVU873
 3136              		.loc 1 1627 9 is_stmt 0 discriminator 3 view .LVU874
 3137 000c FF23     		movs	r3, #255
ARM GAS  C:\Users\Brandon\AppData\Local\Temp\ccaGXwj6.s 			page 89


 3138 000e 8DF80430 		strb	r3, [sp, #4]
1628:Middlewares/Third_Party/SEGGER_RTT/SEGGER_RTT.c ****   if ((unsigned char)TerminalId < (unsigned char)sizeof(_aTerminalId)) { // We only support a certa
 3139              		.loc 1 1628 3 is_stmt 1 discriminator 3 view .LVU875
 3140              		.loc 1 1628 6 is_stmt 0 discriminator 3 view .LVU876
 3141 0012 0F2C     		cmp	r4, #15
 3142 0014 2FD8     		bhi	.L214
1629:Middlewares/Third_Party/SEGGER_RTT/SEGGER_RTT.c ****     ac[1] = _aTerminalId[(unsigned char)TerminalId];
 3143              		.loc 1 1629 5 is_stmt 1 view .LVU877
 3144              		.loc 1 1629 25 is_stmt 0 view .LVU878
 3145 0016 1A4B     		ldr	r3, .L220+4
 3146 0018 1B5D     		ldrb	r3, [r3, r4]	@ zero_extendqisi2
 3147              		.loc 1 1629 11 view .LVU879
 3148 001a 8DF80530 		strb	r3, [sp, #5]
1630:Middlewares/Third_Party/SEGGER_RTT/SEGGER_RTT.c ****     pRing = &_SEGGER_RTT.aUp[0];    // Buffer 0 is always reserved for terminal I/O, so we can use 
 3149              		.loc 1 1630 5 is_stmt 1 view .LVU880
 3150              	.LVL299:
 3151              	.LBB18:
1631:Middlewares/Third_Party/SEGGER_RTT/SEGGER_RTT.c ****     SEGGER_RTT_LOCK();    // Lock to make sure that no other task is writing into buffer, while we 
 3152              		.loc 1 1631 5 view .LVU881
 3153              		.loc 1 1631 5 view .LVU882
 3154              		.syntax unified
 3155              	@ 1631 "Middlewares/Third_Party/SEGGER_RTT/SEGGER_RTT.c" 1
 3156 001e EFF31185 		mrs   r5, basepri  
 3157 0022 4FF02001 		mov   r1, #32       
 3158 0026 81F31188 		msr   basepri, r1  
 3159              		
 3160              	@ 0 "" 2
 3161              	.LVL300:
 3162              		.loc 1 1631 22 view .LVU883
1632:Middlewares/Third_Party/SEGGER_RTT/SEGGER_RTT.c ****     if ((pRing->Flags & SEGGER_RTT_MODE_MASK) == SEGGER_RTT_MODE_BLOCK_IF_FIFO_FULL) {
 3163              		.loc 1 1632 5 view .LVU884
 3164              		.loc 1 1632 15 is_stmt 0 view .LVU885
 3165              		.thumb
 3166              		.syntax unified
 3167 002a 144B     		ldr	r3, .L220
 3168 002c DB6A     		ldr	r3, [r3, #44]
 3169              		.loc 1 1632 23 view .LVU886
 3170 002e 03F00303 		and	r3, r3, #3
 3171              		.loc 1 1632 8 view .LVU887
 3172 0032 022B     		cmp	r3, #2
 3173 0034 0DD0     		beq	.L218
1633:Middlewares/Third_Party/SEGGER_RTT/SEGGER_RTT.c ****       _ActiveTerminal = TerminalId;
1634:Middlewares/Third_Party/SEGGER_RTT/SEGGER_RTT.c ****       _WriteBlocking(pRing, ac, 2u);
1635:Middlewares/Third_Party/SEGGER_RTT/SEGGER_RTT.c ****     } else {                                                                            // Skipping
1636:Middlewares/Third_Party/SEGGER_RTT/SEGGER_RTT.c ****       Avail = _GetAvailWriteSpace(pRing);
 3174              		.loc 1 1636 7 is_stmt 1 view .LVU888
 3175              		.loc 1 1636 15 is_stmt 0 view .LVU889
 3176 0036 1348     		ldr	r0, .L220+8
 3177              	.LVL301:
 3178              		.loc 1 1636 15 view .LVU890
 3179 0038 FFF7FEFF 		bl	_GetAvailWriteSpace
 3180              	.LVL302:
1637:Middlewares/Third_Party/SEGGER_RTT/SEGGER_RTT.c ****       if (Avail >= 2) {
 3181              		.loc 1 1637 7 is_stmt 1 view .LVU891
 3182              		.loc 1 1637 10 is_stmt 0 view .LVU892
 3183 003c 0128     		cmp	r0, #1
 3184 003e 11D8     		bhi	.L219
ARM GAS  C:\Users\Brandon\AppData\Local\Temp\ccaGXwj6.s 			page 90


1638:Middlewares/Third_Party/SEGGER_RTT/SEGGER_RTT.c ****         _ActiveTerminal = TerminalId;    // Only change active terminal in case of success
1639:Middlewares/Third_Party/SEGGER_RTT/SEGGER_RTT.c ****         _WriteNoCheck(pRing, ac, 2u);
1640:Middlewares/Third_Party/SEGGER_RTT/SEGGER_RTT.c ****       } else {
1641:Middlewares/Third_Party/SEGGER_RTT/SEGGER_RTT.c ****         r = -1;
 3185              		.loc 1 1641 11 view .LVU893
 3186 0040 4FF0FF30 		mov	r0, #-1
 3187              	.LVL303:
 3188              	.L213:
1642:Middlewares/Third_Party/SEGGER_RTT/SEGGER_RTT.c ****       }
1643:Middlewares/Third_Party/SEGGER_RTT/SEGGER_RTT.c ****     }
1644:Middlewares/Third_Party/SEGGER_RTT/SEGGER_RTT.c ****     SEGGER_RTT_UNLOCK();
 3189              		.loc 1 1644 5 is_stmt 1 view .LVU894
 3190              		.syntax unified
 3191              	@ 1644 "Middlewares/Third_Party/SEGGER_RTT/SEGGER_RTT.c" 1
 3192 0044 85F31188 		msr   basepri, r5  
 3193              		
 3194              	@ 0 "" 2
 3195              		.thumb
 3196              		.syntax unified
 3197              	.LBE18:
 3198              		.loc 1 1644 24 view .LVU895
 3199              	.LVL304:
 3200              	.L209:
1645:Middlewares/Third_Party/SEGGER_RTT/SEGGER_RTT.c ****   } else {
1646:Middlewares/Third_Party/SEGGER_RTT/SEGGER_RTT.c ****     r = -1;
1647:Middlewares/Third_Party/SEGGER_RTT/SEGGER_RTT.c ****   }
1648:Middlewares/Third_Party/SEGGER_RTT/SEGGER_RTT.c ****   return r;
1649:Middlewares/Third_Party/SEGGER_RTT/SEGGER_RTT.c **** }
 3201              		.loc 1 1649 1 is_stmt 0 view .LVU896
 3202 0048 03B0     		add	sp, sp, #12
 3203              	.LCFI37:
 3204              		.cfi_remember_state
 3205              		.cfi_def_cfa_offset 12
 3206              		@ sp needed
 3207 004a 30BD     		pop	{r4, r5, pc}
 3208              	.LVL305:
 3209              	.L217:
 3210              	.LCFI38:
 3211              		.cfi_restore_state
1624:Middlewares/Third_Party/SEGGER_RTT/SEGGER_RTT.c ****   //
 3212              		.loc 1 1624 3 is_stmt 1 discriminator 1 view .LVU897
 3213 004c FFF7FEFF 		bl	_DoInit
 3214              	.LVL306:
1624:Middlewares/Third_Party/SEGGER_RTT/SEGGER_RTT.c ****   //
 3215              		.loc 1 1624 3 is_stmt 0 discriminator 1 view .LVU898
 3216 0050 DCE7     		b	.L210
 3217              	.LVL307:
 3218              	.L218:
 3219              	.LBB19:
1633:Middlewares/Third_Party/SEGGER_RTT/SEGGER_RTT.c ****       _WriteBlocking(pRing, ac, 2u);
 3220              		.loc 1 1633 7 is_stmt 1 view .LVU899
1633:Middlewares/Third_Party/SEGGER_RTT/SEGGER_RTT.c ****       _WriteBlocking(pRing, ac, 2u);
 3221              		.loc 1 1633 23 is_stmt 0 view .LVU900
 3222 0052 0D4B     		ldr	r3, .L220+12
 3223 0054 1C70     		strb	r4, [r3]
1634:Middlewares/Third_Party/SEGGER_RTT/SEGGER_RTT.c ****     } else {                                                                            // Skipping
 3224              		.loc 1 1634 7 is_stmt 1 view .LVU901
ARM GAS  C:\Users\Brandon\AppData\Local\Temp\ccaGXwj6.s 			page 91


 3225 0056 0222     		movs	r2, #2
 3226 0058 01A9     		add	r1, sp, #4
 3227 005a 0A48     		ldr	r0, .L220+8
 3228              	.LVL308:
1634:Middlewares/Third_Party/SEGGER_RTT/SEGGER_RTT.c ****     } else {                                                                            // Skipping
 3229              		.loc 1 1634 7 is_stmt 0 view .LVU902
 3230 005c FFF7FEFF 		bl	_WriteBlocking
 3231              	.LVL309:
1634:Middlewares/Third_Party/SEGGER_RTT/SEGGER_RTT.c ****     } else {                                                                            // Skipping
 3232              		.loc 1 1634 7 view .LVU903
 3233              	.LBE19:
1626:Middlewares/Third_Party/SEGGER_RTT/SEGGER_RTT.c ****   ac[0] = 0xFFU;
 3234              		.loc 1 1626 5 view .LVU904
 3235 0060 0020     		movs	r0, #0
 3236              	.LBB20:
 3237 0062 EFE7     		b	.L213
 3238              	.LVL310:
 3239              	.L219:
1638:Middlewares/Third_Party/SEGGER_RTT/SEGGER_RTT.c ****         _WriteNoCheck(pRing, ac, 2u);
 3240              		.loc 1 1638 9 is_stmt 1 view .LVU905
1638:Middlewares/Third_Party/SEGGER_RTT/SEGGER_RTT.c ****         _WriteNoCheck(pRing, ac, 2u);
 3241              		.loc 1 1638 25 is_stmt 0 view .LVU906
 3242 0064 084B     		ldr	r3, .L220+12
 3243 0066 1C70     		strb	r4, [r3]
1639:Middlewares/Third_Party/SEGGER_RTT/SEGGER_RTT.c ****       } else {
 3244              		.loc 1 1639 9 is_stmt 1 view .LVU907
 3245 0068 0222     		movs	r2, #2
 3246 006a 01A9     		add	r1, sp, #4
 3247 006c 0548     		ldr	r0, .L220+8
 3248              	.LVL311:
1639:Middlewares/Third_Party/SEGGER_RTT/SEGGER_RTT.c ****       } else {
 3249              		.loc 1 1639 9 is_stmt 0 view .LVU908
 3250 006e FFF7FEFF 		bl	_WriteNoCheck
 3251              	.LVL312:
1639:Middlewares/Third_Party/SEGGER_RTT/SEGGER_RTT.c ****       } else {
 3252              		.loc 1 1639 9 view .LVU909
 3253              	.LBE20:
1626:Middlewares/Third_Party/SEGGER_RTT/SEGGER_RTT.c ****   ac[0] = 0xFFU;
 3254              		.loc 1 1626 5 view .LVU910
 3255 0072 0020     		movs	r0, #0
 3256              	.LBB21:
 3257 0074 E6E7     		b	.L213
 3258              	.LVL313:
 3259              	.L214:
1626:Middlewares/Third_Party/SEGGER_RTT/SEGGER_RTT.c ****   ac[0] = 0xFFU;
 3260              		.loc 1 1626 5 view .LVU911
 3261              	.LBE21:
1646:Middlewares/Third_Party/SEGGER_RTT/SEGGER_RTT.c ****   }
 3262              		.loc 1 1646 7 view .LVU912
 3263 0076 4FF0FF30 		mov	r0, #-1
 3264              	.LVL314:
1648:Middlewares/Third_Party/SEGGER_RTT/SEGGER_RTT.c **** }
 3265              		.loc 1 1648 3 is_stmt 1 view .LVU913
1648:Middlewares/Third_Party/SEGGER_RTT/SEGGER_RTT.c **** }
 3266              		.loc 1 1648 10 is_stmt 0 view .LVU914
 3267 007a E5E7     		b	.L209
 3268              	.L221:
ARM GAS  C:\Users\Brandon\AppData\Local\Temp\ccaGXwj6.s 			page 92


 3269              		.align	2
 3270              	.L220:
 3271 007c 00000000 		.word	_SEGGER_RTT
 3272 0080 00000000 		.word	.LANCHOR0
 3273 0084 18000000 		.word	_SEGGER_RTT+24
 3274 0088 00000000 		.word	.LANCHOR3
 3275              		.cfi_endproc
 3276              	.LFE28:
 3278              		.section	.text.SEGGER_RTT_TerminalOut,"ax",%progbits
 3279              		.align	1
 3280              		.global	SEGGER_RTT_TerminalOut
 3281              		.syntax unified
 3282              		.thumb
 3283              		.thumb_func
 3284              		.fpu fpv5-d16
 3286              	SEGGER_RTT_TerminalOut:
 3287              	.LVL315:
 3288              	.LFB29:
1650:Middlewares/Third_Party/SEGGER_RTT/SEGGER_RTT.c **** 
1651:Middlewares/Third_Party/SEGGER_RTT/SEGGER_RTT.c **** /*********************************************************************
1652:Middlewares/Third_Party/SEGGER_RTT/SEGGER_RTT.c **** *
1653:Middlewares/Third_Party/SEGGER_RTT/SEGGER_RTT.c **** *       SEGGER_RTT_TerminalOut
1654:Middlewares/Third_Party/SEGGER_RTT/SEGGER_RTT.c **** *
1655:Middlewares/Third_Party/SEGGER_RTT/SEGGER_RTT.c **** *  Function description
1656:Middlewares/Third_Party/SEGGER_RTT/SEGGER_RTT.c **** *    Writes a string to the given terminal
1657:Middlewares/Third_Party/SEGGER_RTT/SEGGER_RTT.c **** *     without changing the terminal for channel 0.
1658:Middlewares/Third_Party/SEGGER_RTT/SEGGER_RTT.c **** *
1659:Middlewares/Third_Party/SEGGER_RTT/SEGGER_RTT.c **** *  Parameters
1660:Middlewares/Third_Party/SEGGER_RTT/SEGGER_RTT.c **** *    TerminalId   Index of the terminal.
1661:Middlewares/Third_Party/SEGGER_RTT/SEGGER_RTT.c **** *    s            String to be printed on the terminal.
1662:Middlewares/Third_Party/SEGGER_RTT/SEGGER_RTT.c **** *
1663:Middlewares/Third_Party/SEGGER_RTT/SEGGER_RTT.c **** *  Return value
1664:Middlewares/Third_Party/SEGGER_RTT/SEGGER_RTT.c **** *    >= 0 - Number of bytes written.
1665:Middlewares/Third_Party/SEGGER_RTT/SEGGER_RTT.c **** *     < 0 - Error.
1666:Middlewares/Third_Party/SEGGER_RTT/SEGGER_RTT.c **** *
1667:Middlewares/Third_Party/SEGGER_RTT/SEGGER_RTT.c **** */
1668:Middlewares/Third_Party/SEGGER_RTT/SEGGER_RTT.c **** int SEGGER_RTT_TerminalOut (char TerminalId, const char* s) {
 3289              		.loc 1 1668 61 is_stmt 1 view -0
 3290              		.cfi_startproc
 3291              		@ args = 0, pretend = 0, frame = 0
 3292              		@ frame_needed = 0, uses_anonymous_args = 0
 3293              		.loc 1 1668 61 is_stmt 0 view .LVU916
 3294 0000 2DE9F843 		push	{r3, r4, r5, r6, r7, r8, r9, lr}
 3295              	.LCFI39:
 3296              		.cfi_def_cfa_offset 32
 3297              		.cfi_offset 3, -32
 3298              		.cfi_offset 4, -28
 3299              		.cfi_offset 5, -24
 3300              		.cfi_offset 6, -20
 3301              		.cfi_offset 7, -16
 3302              		.cfi_offset 8, -12
 3303              		.cfi_offset 9, -8
 3304              		.cfi_offset 14, -4
 3305 0004 0446     		mov	r4, r0
 3306 0006 0D46     		mov	r5, r1
1669:Middlewares/Third_Party/SEGGER_RTT/SEGGER_RTT.c ****   int                   Status;
 3307              		.loc 1 1669 3 is_stmt 1 view .LVU917
ARM GAS  C:\Users\Brandon\AppData\Local\Temp\ccaGXwj6.s 			page 93


1670:Middlewares/Third_Party/SEGGER_RTT/SEGGER_RTT.c ****   unsigned              FragLen;
 3308              		.loc 1 1670 3 view .LVU918
1671:Middlewares/Third_Party/SEGGER_RTT/SEGGER_RTT.c ****   unsigned              Avail;
 3309              		.loc 1 1671 3 view .LVU919
1672:Middlewares/Third_Party/SEGGER_RTT/SEGGER_RTT.c ****   SEGGER_RTT_BUFFER_UP* pRing;
 3310              		.loc 1 1672 3 view .LVU920
1673:Middlewares/Third_Party/SEGGER_RTT/SEGGER_RTT.c ****   //
1674:Middlewares/Third_Party/SEGGER_RTT/SEGGER_RTT.c ****   INIT();
 3311              		.loc 1 1674 3 view .LVU921
 3312              		.loc 1 1674 3 view .LVU922
 3313 0008 344B     		ldr	r3, .L237
 3314 000a 1B78     		ldrb	r3, [r3]	@ zero_extendqisi2
 3315 000c FBB1     		cbz	r3, .L233
 3316              	.LVL316:
 3317              	.L223:
 3318              		.loc 1 1674 3 discriminator 3 view .LVU923
1675:Middlewares/Third_Party/SEGGER_RTT/SEGGER_RTT.c ****   //
1676:Middlewares/Third_Party/SEGGER_RTT/SEGGER_RTT.c ****   // Validate terminal ID.
1677:Middlewares/Third_Party/SEGGER_RTT/SEGGER_RTT.c ****   //
1678:Middlewares/Third_Party/SEGGER_RTT/SEGGER_RTT.c ****   if (TerminalId < (char)sizeof(_aTerminalId)) { // We only support a certain number of channels
 3319              		.loc 1 1678 3 discriminator 3 view .LVU924
 3320              		.loc 1 1678 6 is_stmt 0 discriminator 3 view .LVU925
 3321 000e 0F2C     		cmp	r4, #15
 3322 0010 61D8     		bhi	.L228
1679:Middlewares/Third_Party/SEGGER_RTT/SEGGER_RTT.c ****     //
1680:Middlewares/Third_Party/SEGGER_RTT/SEGGER_RTT.c ****     // Get "to-host" ring buffer.
1681:Middlewares/Third_Party/SEGGER_RTT/SEGGER_RTT.c ****     //
1682:Middlewares/Third_Party/SEGGER_RTT/SEGGER_RTT.c ****     pRing = &_SEGGER_RTT.aUp[0];
 3323              		.loc 1 1682 5 is_stmt 1 view .LVU926
 3324              	.LVL317:
1683:Middlewares/Third_Party/SEGGER_RTT/SEGGER_RTT.c ****     //
1684:Middlewares/Third_Party/SEGGER_RTT/SEGGER_RTT.c ****     // Need to be able to change terminal, write data, change back.
1685:Middlewares/Third_Party/SEGGER_RTT/SEGGER_RTT.c ****     // Compute the fixed and variable sizes.
1686:Middlewares/Third_Party/SEGGER_RTT/SEGGER_RTT.c ****     //
1687:Middlewares/Third_Party/SEGGER_RTT/SEGGER_RTT.c ****     FragLen = STRLEN(s);
 3325              		.loc 1 1687 5 view .LVU927
 3326              		.loc 1 1687 15 is_stmt 0 view .LVU928
 3327 0012 2846     		mov	r0, r5
 3328 0014 FFF7FEFF 		bl	strlen
 3329              	.LVL318:
 3330 0018 8046     		mov	r8, r0
 3331              	.LVL319:
 3332              	.LBB22:
1688:Middlewares/Third_Party/SEGGER_RTT/SEGGER_RTT.c ****     //
1689:Middlewares/Third_Party/SEGGER_RTT/SEGGER_RTT.c ****     // How we output depends upon the mode...
1690:Middlewares/Third_Party/SEGGER_RTT/SEGGER_RTT.c ****     //
1691:Middlewares/Third_Party/SEGGER_RTT/SEGGER_RTT.c ****     SEGGER_RTT_LOCK();
 3333              		.loc 1 1691 5 is_stmt 1 view .LVU929
 3334              		.loc 1 1691 5 view .LVU930
 3335              		.syntax unified
 3336              	@ 1691 "Middlewares/Third_Party/SEGGER_RTT/SEGGER_RTT.c" 1
 3337 001a EFF31186 		mrs   r6, basepri  
 3338 001e 4FF02001 		mov   r1, #32       
 3339 0022 81F31188 		msr   basepri, r1  
 3340              		
 3341              	@ 0 "" 2
 3342              	.LVL320:
ARM GAS  C:\Users\Brandon\AppData\Local\Temp\ccaGXwj6.s 			page 94


 3343              		.loc 1 1691 22 view .LVU931
1692:Middlewares/Third_Party/SEGGER_RTT/SEGGER_RTT.c ****     Avail = _GetAvailWriteSpace(pRing);
 3344              		.loc 1 1692 5 view .LVU932
 3345              		.loc 1 1692 13 is_stmt 0 view .LVU933
 3346              		.thumb
 3347              		.syntax unified
 3348 0026 2E4F     		ldr	r7, .L237+4
 3349              	.LVL321:
 3350              		.loc 1 1692 13 view .LVU934
 3351 0028 3846     		mov	r0, r7
 3352              	.LVL322:
 3353              		.loc 1 1692 13 view .LVU935
 3354 002a FFF7FEFF 		bl	_GetAvailWriteSpace
 3355              	.LVL323:
 3356 002e 8146     		mov	r9, r0
 3357              	.LVL324:
1693:Middlewares/Third_Party/SEGGER_RTT/SEGGER_RTT.c ****     switch (pRing->Flags & SEGGER_RTT_MODE_MASK) {
 3358              		.loc 1 1693 5 is_stmt 1 view .LVU936
 3359              		.loc 1 1693 18 is_stmt 0 view .LVU937
 3360 0030 7B69     		ldr	r3, [r7, #20]
 3361              		.loc 1 1693 26 view .LVU938
 3362 0032 03F00303 		and	r3, r3, #3
 3363              		.loc 1 1693 5 view .LVU939
 3364 0036 012B     		cmp	r3, #1
 3365 0038 22D0     		beq	.L225
 3366 003a 022B     		cmp	r3, #2
 3367 003c 3AD0     		beq	.L226
 3368 003e 4BB1     		cbz	r3, .L234
 3369 0040 4FF0FF34 		mov	r4, #-1
 3370              	.LVL325:
 3371              	.L227:
1694:Middlewares/Third_Party/SEGGER_RTT/SEGGER_RTT.c ****     case SEGGER_RTT_MODE_NO_BLOCK_SKIP:
1695:Middlewares/Third_Party/SEGGER_RTT/SEGGER_RTT.c ****       //
1696:Middlewares/Third_Party/SEGGER_RTT/SEGGER_RTT.c ****       // If we are in skip mode and there is no space for the whole
1697:Middlewares/Third_Party/SEGGER_RTT/SEGGER_RTT.c ****       // of this output, don't bother switching terminals at all.
1698:Middlewares/Third_Party/SEGGER_RTT/SEGGER_RTT.c ****       //
1699:Middlewares/Third_Party/SEGGER_RTT/SEGGER_RTT.c ****       if (Avail < (FragLen + 4u)) {
1700:Middlewares/Third_Party/SEGGER_RTT/SEGGER_RTT.c ****         Status = 0;
1701:Middlewares/Third_Party/SEGGER_RTT/SEGGER_RTT.c ****       } else {
1702:Middlewares/Third_Party/SEGGER_RTT/SEGGER_RTT.c ****         _PostTerminalSwitch(pRing, TerminalId);
1703:Middlewares/Third_Party/SEGGER_RTT/SEGGER_RTT.c ****         Status = (int)_WriteBlocking(pRing, s, FragLen);
1704:Middlewares/Third_Party/SEGGER_RTT/SEGGER_RTT.c ****         _PostTerminalSwitch(pRing, _ActiveTerminal);
1705:Middlewares/Third_Party/SEGGER_RTT/SEGGER_RTT.c ****       }
1706:Middlewares/Third_Party/SEGGER_RTT/SEGGER_RTT.c ****       break;
1707:Middlewares/Third_Party/SEGGER_RTT/SEGGER_RTT.c ****     case SEGGER_RTT_MODE_NO_BLOCK_TRIM:
1708:Middlewares/Third_Party/SEGGER_RTT/SEGGER_RTT.c ****       //
1709:Middlewares/Third_Party/SEGGER_RTT/SEGGER_RTT.c ****       // If we are in trim mode and there is not enough space for everything,
1710:Middlewares/Third_Party/SEGGER_RTT/SEGGER_RTT.c ****       // trim the output but always include the terminal switch.  If no room
1711:Middlewares/Third_Party/SEGGER_RTT/SEGGER_RTT.c ****       // for terminal switch, skip that totally.
1712:Middlewares/Third_Party/SEGGER_RTT/SEGGER_RTT.c ****       //
1713:Middlewares/Third_Party/SEGGER_RTT/SEGGER_RTT.c ****       if (Avail < 4u) {
1714:Middlewares/Third_Party/SEGGER_RTT/SEGGER_RTT.c ****         Status = -1;
1715:Middlewares/Third_Party/SEGGER_RTT/SEGGER_RTT.c ****       } else {
1716:Middlewares/Third_Party/SEGGER_RTT/SEGGER_RTT.c ****         _PostTerminalSwitch(pRing, TerminalId);
1717:Middlewares/Third_Party/SEGGER_RTT/SEGGER_RTT.c ****         Status = (int)_WriteBlocking(pRing, s, (FragLen < (Avail - 4u)) ? FragLen : (Avail - 4u));
1718:Middlewares/Third_Party/SEGGER_RTT/SEGGER_RTT.c ****         _PostTerminalSwitch(pRing, _ActiveTerminal);
1719:Middlewares/Third_Party/SEGGER_RTT/SEGGER_RTT.c ****       }
ARM GAS  C:\Users\Brandon\AppData\Local\Temp\ccaGXwj6.s 			page 95


1720:Middlewares/Third_Party/SEGGER_RTT/SEGGER_RTT.c ****       break;
1721:Middlewares/Third_Party/SEGGER_RTT/SEGGER_RTT.c ****     case SEGGER_RTT_MODE_BLOCK_IF_FIFO_FULL:
1722:Middlewares/Third_Party/SEGGER_RTT/SEGGER_RTT.c ****       //
1723:Middlewares/Third_Party/SEGGER_RTT/SEGGER_RTT.c ****       // If we are in blocking mode, output everything.
1724:Middlewares/Third_Party/SEGGER_RTT/SEGGER_RTT.c ****       //
1725:Middlewares/Third_Party/SEGGER_RTT/SEGGER_RTT.c ****       _PostTerminalSwitch(pRing, TerminalId);
1726:Middlewares/Third_Party/SEGGER_RTT/SEGGER_RTT.c ****       Status = (int)_WriteBlocking(pRing, s, FragLen);
1727:Middlewares/Third_Party/SEGGER_RTT/SEGGER_RTT.c ****       _PostTerminalSwitch(pRing, _ActiveTerminal);
1728:Middlewares/Third_Party/SEGGER_RTT/SEGGER_RTT.c ****       break;
1729:Middlewares/Third_Party/SEGGER_RTT/SEGGER_RTT.c ****     default:
1730:Middlewares/Third_Party/SEGGER_RTT/SEGGER_RTT.c ****       Status = -1;
1731:Middlewares/Third_Party/SEGGER_RTT/SEGGER_RTT.c ****       break;
1732:Middlewares/Third_Party/SEGGER_RTT/SEGGER_RTT.c ****     }
1733:Middlewares/Third_Party/SEGGER_RTT/SEGGER_RTT.c ****     //
1734:Middlewares/Third_Party/SEGGER_RTT/SEGGER_RTT.c ****     // Finish up.
1735:Middlewares/Third_Party/SEGGER_RTT/SEGGER_RTT.c ****     //
1736:Middlewares/Third_Party/SEGGER_RTT/SEGGER_RTT.c ****     SEGGER_RTT_UNLOCK();
 3372              		.loc 1 1736 5 is_stmt 1 view .LVU940
 3373              		.syntax unified
 3374              	@ 1736 "Middlewares/Third_Party/SEGGER_RTT/SEGGER_RTT.c" 1
 3375 0044 86F31188 		msr   basepri, r6  
 3376              		
 3377              	@ 0 "" 2
 3378              		.thumb
 3379              		.syntax unified
 3380              	.LBE22:
 3381              		.loc 1 1736 24 view .LVU941
 3382              	.LVL326:
 3383              	.L222:
1737:Middlewares/Third_Party/SEGGER_RTT/SEGGER_RTT.c ****   } else {
1738:Middlewares/Third_Party/SEGGER_RTT/SEGGER_RTT.c ****     Status = -1;
1739:Middlewares/Third_Party/SEGGER_RTT/SEGGER_RTT.c ****   }
1740:Middlewares/Third_Party/SEGGER_RTT/SEGGER_RTT.c ****   return Status;
1741:Middlewares/Third_Party/SEGGER_RTT/SEGGER_RTT.c **** }
 3384              		.loc 1 1741 1 is_stmt 0 view .LVU942
 3385 0048 2046     		mov	r0, r4
 3386 004a BDE8F883 		pop	{r3, r4, r5, r6, r7, r8, r9, pc}
 3387              	.LVL327:
 3388              	.L233:
1674:Middlewares/Third_Party/SEGGER_RTT/SEGGER_RTT.c ****   //
 3389              		.loc 1 1674 3 is_stmt 1 discriminator 1 view .LVU943
 3390 004e FFF7FEFF 		bl	_DoInit
 3391              	.LVL328:
1674:Middlewares/Third_Party/SEGGER_RTT/SEGGER_RTT.c ****   //
 3392              		.loc 1 1674 3 is_stmt 0 discriminator 1 view .LVU944
 3393 0052 DCE7     		b	.L223
 3394              	.LVL329:
 3395              	.L234:
 3396              	.LBB23:
1699:Middlewares/Third_Party/SEGGER_RTT/SEGGER_RTT.c ****         Status = 0;
 3397              		.loc 1 1699 7 is_stmt 1 view .LVU945
1699:Middlewares/Third_Party/SEGGER_RTT/SEGGER_RTT.c ****         Status = 0;
 3398              		.loc 1 1699 28 is_stmt 0 view .LVU946
 3399 0054 08F10403 		add	r3, r8, #4
1699:Middlewares/Third_Party/SEGGER_RTT/SEGGER_RTT.c ****         Status = 0;
 3400              		.loc 1 1699 10 view .LVU947
 3401 0058 8342     		cmp	r3, r0
ARM GAS  C:\Users\Brandon\AppData\Local\Temp\ccaGXwj6.s 			page 96


 3402 005a 01D9     		bls	.L235
1700:Middlewares/Third_Party/SEGGER_RTT/SEGGER_RTT.c ****       } else {
 3403              		.loc 1 1700 16 view .LVU948
 3404 005c 0024     		movs	r4, #0
 3405 005e F1E7     		b	.L227
 3406              	.L235:
1702:Middlewares/Third_Party/SEGGER_RTT/SEGGER_RTT.c ****         Status = (int)_WriteBlocking(pRing, s, FragLen);
 3407              		.loc 1 1702 9 is_stmt 1 view .LVU949
 3408 0060 2146     		mov	r1, r4
 3409 0062 3846     		mov	r0, r7
 3410              	.LVL330:
1702:Middlewares/Third_Party/SEGGER_RTT/SEGGER_RTT.c ****         Status = (int)_WriteBlocking(pRing, s, FragLen);
 3411              		.loc 1 1702 9 is_stmt 0 view .LVU950
 3412 0064 FFF7FEFF 		bl	_PostTerminalSwitch
 3413              	.LVL331:
1703:Middlewares/Third_Party/SEGGER_RTT/SEGGER_RTT.c ****         _PostTerminalSwitch(pRing, _ActiveTerminal);
 3414              		.loc 1 1703 9 is_stmt 1 view .LVU951
1703:Middlewares/Third_Party/SEGGER_RTT/SEGGER_RTT.c ****         _PostTerminalSwitch(pRing, _ActiveTerminal);
 3415              		.loc 1 1703 23 is_stmt 0 view .LVU952
 3416 0068 4246     		mov	r2, r8
 3417 006a 2946     		mov	r1, r5
 3418 006c 3846     		mov	r0, r7
 3419 006e FFF7FEFF 		bl	_WriteBlocking
 3420              	.LVL332:
 3421 0072 0446     		mov	r4, r0
 3422              	.LVL333:
1704:Middlewares/Third_Party/SEGGER_RTT/SEGGER_RTT.c ****       }
 3423              		.loc 1 1704 9 is_stmt 1 view .LVU953
 3424 0074 1B4B     		ldr	r3, .L237+8
 3425 0076 1978     		ldrb	r1, [r3]	@ zero_extendqisi2
 3426 0078 3846     		mov	r0, r7
 3427              	.LVL334:
1704:Middlewares/Third_Party/SEGGER_RTT/SEGGER_RTT.c ****       }
 3428              		.loc 1 1704 9 is_stmt 0 view .LVU954
 3429 007a FFF7FEFF 		bl	_PostTerminalSwitch
 3430              	.LVL335:
 3431 007e E1E7     		b	.L227
 3432              	.LVL336:
 3433              	.L225:
1713:Middlewares/Third_Party/SEGGER_RTT/SEGGER_RTT.c ****         Status = -1;
 3434              		.loc 1 1713 7 is_stmt 1 view .LVU955
1713:Middlewares/Third_Party/SEGGER_RTT/SEGGER_RTT.c ****         Status = -1;
 3435              		.loc 1 1713 10 is_stmt 0 view .LVU956
 3436 0080 0328     		cmp	r0, #3
 3437 0082 02D8     		bhi	.L236
1714:Middlewares/Third_Party/SEGGER_RTT/SEGGER_RTT.c ****       } else {
 3438              		.loc 1 1714 16 view .LVU957
 3439 0084 4FF0FF34 		mov	r4, #-1
 3440 0088 DCE7     		b	.L227
 3441              	.L236:
1716:Middlewares/Third_Party/SEGGER_RTT/SEGGER_RTT.c ****         Status = (int)_WriteBlocking(pRing, s, (FragLen < (Avail - 4u)) ? FragLen : (Avail - 4u));
 3442              		.loc 1 1716 9 is_stmt 1 view .LVU958
 3443 008a 154F     		ldr	r7, .L237+4
1716:Middlewares/Third_Party/SEGGER_RTT/SEGGER_RTT.c ****         Status = (int)_WriteBlocking(pRing, s, (FragLen < (Avail - 4u)) ? FragLen : (Avail - 4u));
 3444              		.loc 1 1716 9 is_stmt 0 view .LVU959
 3445 008c 2146     		mov	r1, r4
 3446 008e 3846     		mov	r0, r7
ARM GAS  C:\Users\Brandon\AppData\Local\Temp\ccaGXwj6.s 			page 97


 3447              	.LVL337:
1716:Middlewares/Third_Party/SEGGER_RTT/SEGGER_RTT.c ****         Status = (int)_WriteBlocking(pRing, s, (FragLen < (Avail - 4u)) ? FragLen : (Avail - 4u));
 3448              		.loc 1 1716 9 view .LVU960
 3449 0090 FFF7FEFF 		bl	_PostTerminalSwitch
 3450              	.LVL338:
1717:Middlewares/Third_Party/SEGGER_RTT/SEGGER_RTT.c ****         _PostTerminalSwitch(pRing, _ActiveTerminal);
 3451              		.loc 1 1717 9 is_stmt 1 view .LVU961
1717:Middlewares/Third_Party/SEGGER_RTT/SEGGER_RTT.c ****         _PostTerminalSwitch(pRing, _ActiveTerminal);
 3452              		.loc 1 1717 66 is_stmt 0 view .LVU962
 3453 0094 A9F10402 		sub	r2, r9, #4
1717:Middlewares/Third_Party/SEGGER_RTT/SEGGER_RTT.c ****         _PostTerminalSwitch(pRing, _ActiveTerminal);
 3454              		.loc 1 1717 23 view .LVU963
 3455 0098 4245     		cmp	r2, r8
 3456 009a 28BF     		it	cs
 3457 009c 4246     		movcs	r2, r8
 3458 009e 2946     		mov	r1, r5
 3459 00a0 3846     		mov	r0, r7
 3460 00a2 FFF7FEFF 		bl	_WriteBlocking
 3461              	.LVL339:
 3462 00a6 0446     		mov	r4, r0
 3463              	.LVL340:
1718:Middlewares/Third_Party/SEGGER_RTT/SEGGER_RTT.c ****       }
 3464              		.loc 1 1718 9 is_stmt 1 view .LVU964
 3465 00a8 0E4B     		ldr	r3, .L237+8
 3466 00aa 1978     		ldrb	r1, [r3]	@ zero_extendqisi2
 3467 00ac 3846     		mov	r0, r7
 3468              	.LVL341:
1718:Middlewares/Third_Party/SEGGER_RTT/SEGGER_RTT.c ****       }
 3469              		.loc 1 1718 9 is_stmt 0 view .LVU965
 3470 00ae FFF7FEFF 		bl	_PostTerminalSwitch
 3471              	.LVL342:
 3472 00b2 C7E7     		b	.L227
 3473              	.LVL343:
 3474              	.L226:
1725:Middlewares/Third_Party/SEGGER_RTT/SEGGER_RTT.c ****       Status = (int)_WriteBlocking(pRing, s, FragLen);
 3475              		.loc 1 1725 7 is_stmt 1 view .LVU966
 3476 00b4 0A4F     		ldr	r7, .L237+4
1725:Middlewares/Third_Party/SEGGER_RTT/SEGGER_RTT.c ****       Status = (int)_WriteBlocking(pRing, s, FragLen);
 3477              		.loc 1 1725 7 is_stmt 0 view .LVU967
 3478 00b6 2146     		mov	r1, r4
 3479 00b8 3846     		mov	r0, r7
 3480              	.LVL344:
1725:Middlewares/Third_Party/SEGGER_RTT/SEGGER_RTT.c ****       Status = (int)_WriteBlocking(pRing, s, FragLen);
 3481              		.loc 1 1725 7 view .LVU968
 3482 00ba FFF7FEFF 		bl	_PostTerminalSwitch
 3483              	.LVL345:
1726:Middlewares/Third_Party/SEGGER_RTT/SEGGER_RTT.c ****       _PostTerminalSwitch(pRing, _ActiveTerminal);
 3484              		.loc 1 1726 7 is_stmt 1 view .LVU969
1726:Middlewares/Third_Party/SEGGER_RTT/SEGGER_RTT.c ****       _PostTerminalSwitch(pRing, _ActiveTerminal);
 3485              		.loc 1 1726 21 is_stmt 0 view .LVU970
 3486 00be 4246     		mov	r2, r8
 3487 00c0 2946     		mov	r1, r5
 3488 00c2 3846     		mov	r0, r7
 3489 00c4 FFF7FEFF 		bl	_WriteBlocking
 3490              	.LVL346:
 3491 00c8 0446     		mov	r4, r0
 3492              	.LVL347:
ARM GAS  C:\Users\Brandon\AppData\Local\Temp\ccaGXwj6.s 			page 98


1727:Middlewares/Third_Party/SEGGER_RTT/SEGGER_RTT.c ****       break;
 3493              		.loc 1 1727 7 is_stmt 1 view .LVU971
 3494 00ca 064B     		ldr	r3, .L237+8
 3495 00cc 1978     		ldrb	r1, [r3]	@ zero_extendqisi2
 3496 00ce 3846     		mov	r0, r7
 3497              	.LVL348:
1727:Middlewares/Third_Party/SEGGER_RTT/SEGGER_RTT.c ****       break;
 3498              		.loc 1 1727 7 is_stmt 0 view .LVU972
 3499 00d0 FFF7FEFF 		bl	_PostTerminalSwitch
 3500              	.LVL349:
1728:Middlewares/Third_Party/SEGGER_RTT/SEGGER_RTT.c ****     default:
 3501              		.loc 1 1728 7 is_stmt 1 view .LVU973
 3502 00d4 B6E7     		b	.L227
 3503              	.LVL350:
 3504              	.L228:
1728:Middlewares/Third_Party/SEGGER_RTT/SEGGER_RTT.c ****     default:
 3505              		.loc 1 1728 7 is_stmt 0 view .LVU974
 3506              	.LBE23:
1738:Middlewares/Third_Party/SEGGER_RTT/SEGGER_RTT.c ****   }
 3507              		.loc 1 1738 12 view .LVU975
 3508 00d6 4FF0FF34 		mov	r4, #-1
 3509              	.LVL351:
1740:Middlewares/Third_Party/SEGGER_RTT/SEGGER_RTT.c **** }
 3510              		.loc 1 1740 3 is_stmt 1 view .LVU976
1740:Middlewares/Third_Party/SEGGER_RTT/SEGGER_RTT.c **** }
 3511              		.loc 1 1740 10 is_stmt 0 view .LVU977
 3512 00da B5E7     		b	.L222
 3513              	.L238:
 3514              		.align	2
 3515              	.L237:
 3516 00dc 00000000 		.word	_SEGGER_RTT
 3517 00e0 18000000 		.word	_SEGGER_RTT+24
 3518 00e4 00000000 		.word	.LANCHOR3
 3519              		.cfi_endproc
 3520              	.LFE29:
 3522              		.comm	_SEGGER_RTT,120,4
 3523              		.section	.bss._ActiveTerminal,"aw",%nobits
 3524              		.set	.LANCHOR3,. + 0
 3527              	_ActiveTerminal:
 3528 0000 00       		.space	1
 3529              		.section	.bss._acDownBuffer,"aw",%nobits
 3530              		.align	2
 3531              		.set	.LANCHOR2,. + 0
 3534              	_acDownBuffer:
 3535 0000 00000000 		.space	16
 3535      00000000 
 3535      00000000 
 3535      00000000 
 3536              		.section	.bss._acUpBuffer,"aw",%nobits
 3537              		.align	2
 3538              		.set	.LANCHOR1,. + 0
 3541              	_acUpBuffer:
 3542 0000 00000000 		.space	2048
 3542      00000000 
 3542      00000000 
 3542      00000000 
 3542      00000000 
ARM GAS  C:\Users\Brandon\AppData\Local\Temp\ccaGXwj6.s 			page 99


 3543              		.section	.rodata._aTerminalId,"a"
 3544              		.align	2
 3545              		.set	.LANCHOR0,. + 0
 3548              	_aTerminalId:
 3549 0000 30313233 		.ascii	"0123456789ABCDEF"
 3549      34353637 
 3549      38394142 
 3549      43444546 
 3550              		.text
 3551              	.Letext0:
 3552              		.file 2 "Middlewares/Third_Party/SEGGER_RTT/SEGGER_RTT.h"
 3553              		.file 3 "c:\\program files (x86)\\gnu arm embedded toolchain\\9 2020-q2-update\\lib\\gcc\\arm-none
 3554              		.file 4 "c:\\program files (x86)\\gnu arm embedded toolchain\\9 2020-q2-update\\arm-none-eabi\\inc
 3555              		.file 5 "c:\\program files (x86)\\gnu arm embedded toolchain\\9 2020-q2-update\\arm-none-eabi\\inc
 3556              		.file 6 "c:\\program files (x86)\\gnu arm embedded toolchain\\9 2020-q2-update\\arm-none-eabi\\inc
 3557              		.file 7 "c:\\program files (x86)\\gnu arm embedded toolchain\\9 2020-q2-update\\arm-none-eabi\\inc
 3558              		.file 8 "<built-in>"
ARM GAS  C:\Users\Brandon\AppData\Local\Temp\ccaGXwj6.s 			page 100


DEFINED SYMBOLS
                            *ABS*:00000000 SEGGER_RTT.c
C:\Users\Brandon\AppData\Local\Temp\ccaGXwj6.s:17     .text._GetAvailWriteSpace:00000000 $t
C:\Users\Brandon\AppData\Local\Temp\ccaGXwj6.s:24     .text._GetAvailWriteSpace:00000000 _GetAvailWriteSpace
C:\Users\Brandon\AppData\Local\Temp\ccaGXwj6.s:78     .text._WriteNoCheck:00000000 $t
C:\Users\Brandon\AppData\Local\Temp\ccaGXwj6.s:84     .text._WriteNoCheck:00000000 _WriteNoCheck
C:\Users\Brandon\AppData\Local\Temp\ccaGXwj6.s:174    .text._WriteBlocking:00000000 $t
C:\Users\Brandon\AppData\Local\Temp\ccaGXwj6.s:180    .text._WriteBlocking:00000000 _WriteBlocking
C:\Users\Brandon\AppData\Local\Temp\ccaGXwj6.s:319    .text._PostTerminalSwitch:00000000 $t
C:\Users\Brandon\AppData\Local\Temp\ccaGXwj6.s:325    .text._PostTerminalSwitch:00000000 _PostTerminalSwitch
C:\Users\Brandon\AppData\Local\Temp\ccaGXwj6.s:367    .text._PostTerminalSwitch:00000020 $d
C:\Users\Brandon\AppData\Local\Temp\ccaGXwj6.s:372    .rodata._DoInit.str1.4:00000000 $d
C:\Users\Brandon\AppData\Local\Temp\ccaGXwj6.s:382    .text._DoInit:00000000 $t
C:\Users\Brandon\AppData\Local\Temp\ccaGXwj6.s:388    .text._DoInit:00000000 _DoInit
C:\Users\Brandon\AppData\Local\Temp\ccaGXwj6.s:466    .text._DoInit:00000048 $d
                            *COM*:00000078 _SEGGER_RTT
C:\Users\Brandon\AppData\Local\Temp\ccaGXwj6.s:476    .text.SEGGER_RTT_ReadNoLock:00000000 $t
C:\Users\Brandon\AppData\Local\Temp\ccaGXwj6.s:483    .text.SEGGER_RTT_ReadNoLock:00000000 SEGGER_RTT_ReadNoLock
C:\Users\Brandon\AppData\Local\Temp\ccaGXwj6.s:653    .text.SEGGER_RTT_ReadNoLock:0000009c $d
C:\Users\Brandon\AppData\Local\Temp\ccaGXwj6.s:658    .text.SEGGER_RTT_Read:00000000 $t
C:\Users\Brandon\AppData\Local\Temp\ccaGXwj6.s:665    .text.SEGGER_RTT_Read:00000000 SEGGER_RTT_Read
C:\Users\Brandon\AppData\Local\Temp\ccaGXwj6.s:717    .text.SEGGER_RTT_WriteWithOverwriteNoLock:00000000 $t
C:\Users\Brandon\AppData\Local\Temp\ccaGXwj6.s:724    .text.SEGGER_RTT_WriteWithOverwriteNoLock:00000000 SEGGER_RTT_WriteWithOverwriteNoLock
C:\Users\Brandon\AppData\Local\Temp\ccaGXwj6.s:948    .text.SEGGER_RTT_WriteWithOverwriteNoLock:0000010c $d
C:\Users\Brandon\AppData\Local\Temp\ccaGXwj6.s:953    .text.SEGGER_RTT_WriteSkipNoLock:00000000 $t
C:\Users\Brandon\AppData\Local\Temp\ccaGXwj6.s:960    .text.SEGGER_RTT_WriteSkipNoLock:00000000 SEGGER_RTT_WriteSkipNoLock
C:\Users\Brandon\AppData\Local\Temp\ccaGXwj6.s:1214   .text.SEGGER_RTT_WriteSkipNoLock:00000120 $d
C:\Users\Brandon\AppData\Local\Temp\ccaGXwj6.s:1219   .text.SEGGER_RTT_WriteNoLock:00000000 $t
C:\Users\Brandon\AppData\Local\Temp\ccaGXwj6.s:1226   .text.SEGGER_RTT_WriteNoLock:00000000 SEGGER_RTT_WriteNoLock
C:\Users\Brandon\AppData\Local\Temp\ccaGXwj6.s:1341   .text.SEGGER_RTT_WriteNoLock:00000068 $d
C:\Users\Brandon\AppData\Local\Temp\ccaGXwj6.s:1346   .text.SEGGER_RTT_Write:00000000 $t
C:\Users\Brandon\AppData\Local\Temp\ccaGXwj6.s:1353   .text.SEGGER_RTT_Write:00000000 SEGGER_RTT_Write
C:\Users\Brandon\AppData\Local\Temp\ccaGXwj6.s:1426   .text.SEGGER_RTT_Write:00000030 $d
C:\Users\Brandon\AppData\Local\Temp\ccaGXwj6.s:1431   .text.SEGGER_RTT_WriteString:00000000 $t
C:\Users\Brandon\AppData\Local\Temp\ccaGXwj6.s:1438   .text.SEGGER_RTT_WriteString:00000000 SEGGER_RTT_WriteString
C:\Users\Brandon\AppData\Local\Temp\ccaGXwj6.s:1481   .text.SEGGER_RTT_PutCharSkipNoLock:00000000 $t
C:\Users\Brandon\AppData\Local\Temp\ccaGXwj6.s:1488   .text.SEGGER_RTT_PutCharSkipNoLock:00000000 SEGGER_RTT_PutCharSkipNoLock
C:\Users\Brandon\AppData\Local\Temp\ccaGXwj6.s:1582   .text.SEGGER_RTT_PutCharSkipNoLock:0000004c $d
C:\Users\Brandon\AppData\Local\Temp\ccaGXwj6.s:1587   .text.SEGGER_RTT_PutCharSkip:00000000 $t
C:\Users\Brandon\AppData\Local\Temp\ccaGXwj6.s:1594   .text.SEGGER_RTT_PutCharSkip:00000000 SEGGER_RTT_PutCharSkip
C:\Users\Brandon\AppData\Local\Temp\ccaGXwj6.s:1722   .text.SEGGER_RTT_PutCharSkip:0000006c $d
C:\Users\Brandon\AppData\Local\Temp\ccaGXwj6.s:1728   .text.SEGGER_RTT_PutChar:00000000 $t
C:\Users\Brandon\AppData\Local\Temp\ccaGXwj6.s:1735   .text.SEGGER_RTT_PutChar:00000000 SEGGER_RTT_PutChar
C:\Users\Brandon\AppData\Local\Temp\ccaGXwj6.s:1885   .text.SEGGER_RTT_PutChar:0000008c $d
C:\Users\Brandon\AppData\Local\Temp\ccaGXwj6.s:1891   .text.SEGGER_RTT_GetKey:00000000 $t
C:\Users\Brandon\AppData\Local\Temp\ccaGXwj6.s:1898   .text.SEGGER_RTT_GetKey:00000000 SEGGER_RTT_GetKey
C:\Users\Brandon\AppData\Local\Temp\ccaGXwj6.s:1950   .text.SEGGER_RTT_WaitKey:00000000 $t
C:\Users\Brandon\AppData\Local\Temp\ccaGXwj6.s:1957   .text.SEGGER_RTT_WaitKey:00000000 SEGGER_RTT_WaitKey
C:\Users\Brandon\AppData\Local\Temp\ccaGXwj6.s:1986   .text.SEGGER_RTT_HasKey:00000000 $t
C:\Users\Brandon\AppData\Local\Temp\ccaGXwj6.s:1993   .text.SEGGER_RTT_HasKey:00000000 SEGGER_RTT_HasKey
C:\Users\Brandon\AppData\Local\Temp\ccaGXwj6.s:2046   .text.SEGGER_RTT_HasKey:00000020 $d
C:\Users\Brandon\AppData\Local\Temp\ccaGXwj6.s:2051   .text.SEGGER_RTT_HasData:00000000 $t
C:\Users\Brandon\AppData\Local\Temp\ccaGXwj6.s:2058   .text.SEGGER_RTT_HasData:00000000 SEGGER_RTT_HasData
C:\Users\Brandon\AppData\Local\Temp\ccaGXwj6.s:2089   .text.SEGGER_RTT_HasData:0000001c $d
C:\Users\Brandon\AppData\Local\Temp\ccaGXwj6.s:2094   .text.SEGGER_RTT_AllocDownBuffer:00000000 $t
C:\Users\Brandon\AppData\Local\Temp\ccaGXwj6.s:2101   .text.SEGGER_RTT_AllocDownBuffer:00000000 SEGGER_RTT_AllocDownBuffer
C:\Users\Brandon\AppData\Local\Temp\ccaGXwj6.s:2236   .text.SEGGER_RTT_AllocDownBuffer:00000070 $d
ARM GAS  C:\Users\Brandon\AppData\Local\Temp\ccaGXwj6.s 			page 101


C:\Users\Brandon\AppData\Local\Temp\ccaGXwj6.s:2242   .text.SEGGER_RTT_AllocUpBuffer:00000000 $t
C:\Users\Brandon\AppData\Local\Temp\ccaGXwj6.s:2249   .text.SEGGER_RTT_AllocUpBuffer:00000000 SEGGER_RTT_AllocUpBuffer
C:\Users\Brandon\AppData\Local\Temp\ccaGXwj6.s:2387   .text.SEGGER_RTT_AllocUpBuffer:0000007c $d
C:\Users\Brandon\AppData\Local\Temp\ccaGXwj6.s:2393   .text.SEGGER_RTT_ConfigUpBuffer:00000000 $t
C:\Users\Brandon\AppData\Local\Temp\ccaGXwj6.s:2400   .text.SEGGER_RTT_ConfigUpBuffer:00000000 SEGGER_RTT_ConfigUpBuffer
C:\Users\Brandon\AppData\Local\Temp\ccaGXwj6.s:2523   .text.SEGGER_RTT_ConfigUpBuffer:00000070 $d
C:\Users\Brandon\AppData\Local\Temp\ccaGXwj6.s:2528   .text.SEGGER_RTT_ConfigDownBuffer:00000000 $t
C:\Users\Brandon\AppData\Local\Temp\ccaGXwj6.s:2535   .text.SEGGER_RTT_ConfigDownBuffer:00000000 SEGGER_RTT_ConfigDownBuffer
C:\Users\Brandon\AppData\Local\Temp\ccaGXwj6.s:2655   .text.SEGGER_RTT_ConfigDownBuffer:00000064 $d
C:\Users\Brandon\AppData\Local\Temp\ccaGXwj6.s:2660   .text.SEGGER_RTT_SetNameUpBuffer:00000000 $t
C:\Users\Brandon\AppData\Local\Temp\ccaGXwj6.s:2667   .text.SEGGER_RTT_SetNameUpBuffer:00000000 SEGGER_RTT_SetNameUpBuffer
C:\Users\Brandon\AppData\Local\Temp\ccaGXwj6.s:2759   .text.SEGGER_RTT_SetNameUpBuffer:00000040 $d
C:\Users\Brandon\AppData\Local\Temp\ccaGXwj6.s:2764   .text.SEGGER_RTT_SetNameDownBuffer:00000000 $t
C:\Users\Brandon\AppData\Local\Temp\ccaGXwj6.s:2771   .text.SEGGER_RTT_SetNameDownBuffer:00000000 SEGGER_RTT_SetNameDownBuffer
C:\Users\Brandon\AppData\Local\Temp\ccaGXwj6.s:2861   .text.SEGGER_RTT_SetNameDownBuffer:00000040 $d
C:\Users\Brandon\AppData\Local\Temp\ccaGXwj6.s:2866   .text.SEGGER_RTT_SetFlagsUpBuffer:00000000 $t
C:\Users\Brandon\AppData\Local\Temp\ccaGXwj6.s:2873   .text.SEGGER_RTT_SetFlagsUpBuffer:00000000 SEGGER_RTT_SetFlagsUpBuffer
C:\Users\Brandon\AppData\Local\Temp\ccaGXwj6.s:2963   .text.SEGGER_RTT_SetFlagsUpBuffer:00000040 $d
C:\Users\Brandon\AppData\Local\Temp\ccaGXwj6.s:2968   .text.SEGGER_RTT_SetFlagsDownBuffer:00000000 $t
C:\Users\Brandon\AppData\Local\Temp\ccaGXwj6.s:2975   .text.SEGGER_RTT_SetFlagsDownBuffer:00000000 SEGGER_RTT_SetFlagsDownBuffer
C:\Users\Brandon\AppData\Local\Temp\ccaGXwj6.s:3065   .text.SEGGER_RTT_SetFlagsDownBuffer:00000040 $d
C:\Users\Brandon\AppData\Local\Temp\ccaGXwj6.s:3070   .text.SEGGER_RTT_Init:00000000 $t
C:\Users\Brandon\AppData\Local\Temp\ccaGXwj6.s:3077   .text.SEGGER_RTT_Init:00000000 SEGGER_RTT_Init
C:\Users\Brandon\AppData\Local\Temp\ccaGXwj6.s:3097   .text.SEGGER_RTT_SetTerminal:00000000 $t
C:\Users\Brandon\AppData\Local\Temp\ccaGXwj6.s:3104   .text.SEGGER_RTT_SetTerminal:00000000 SEGGER_RTT_SetTerminal
C:\Users\Brandon\AppData\Local\Temp\ccaGXwj6.s:3271   .text.SEGGER_RTT_SetTerminal:0000007c $d
C:\Users\Brandon\AppData\Local\Temp\ccaGXwj6.s:3279   .text.SEGGER_RTT_TerminalOut:00000000 $t
C:\Users\Brandon\AppData\Local\Temp\ccaGXwj6.s:3286   .text.SEGGER_RTT_TerminalOut:00000000 SEGGER_RTT_TerminalOut
C:\Users\Brandon\AppData\Local\Temp\ccaGXwj6.s:3516   .text.SEGGER_RTT_TerminalOut:000000dc $d
C:\Users\Brandon\AppData\Local\Temp\ccaGXwj6.s:3527   .bss._ActiveTerminal:00000000 _ActiveTerminal
C:\Users\Brandon\AppData\Local\Temp\ccaGXwj6.s:3528   .bss._ActiveTerminal:00000000 $d
C:\Users\Brandon\AppData\Local\Temp\ccaGXwj6.s:3530   .bss._acDownBuffer:00000000 $d
C:\Users\Brandon\AppData\Local\Temp\ccaGXwj6.s:3534   .bss._acDownBuffer:00000000 _acDownBuffer
C:\Users\Brandon\AppData\Local\Temp\ccaGXwj6.s:3537   .bss._acUpBuffer:00000000 $d
C:\Users\Brandon\AppData\Local\Temp\ccaGXwj6.s:3541   .bss._acUpBuffer:00000000 _acUpBuffer
C:\Users\Brandon\AppData\Local\Temp\ccaGXwj6.s:3544   .rodata._aTerminalId:00000000 $d
C:\Users\Brandon\AppData\Local\Temp\ccaGXwj6.s:3548   .rodata._aTerminalId:00000000 _aTerminalId

UNDEFINED SYMBOLS
memcpy
strlen
