ARM GAS  C:\Users\Brandon\AppData\Local\Temp\cclgig91.s 			page 1


   1              		.cpu cortex-m7
   2              		.eabi_attribute 28, 1
   3              		.eabi_attribute 20, 1
   4              		.eabi_attribute 21, 1
   5              		.eabi_attribute 23, 3
   6              		.eabi_attribute 24, 1
   7              		.eabi_attribute 25, 1
   8              		.eabi_attribute 26, 1
   9              		.eabi_attribute 30, 2
  10              		.eabi_attribute 34, 1
  11              		.eabi_attribute 18, 4
  12              		.file	"stm32h7xx_hal_mdma.c"
  13              		.text
  14              		.section	.text.MDMA_SetConfig,"ax",%progbits
  15              		.align	1
  16              		.p2align 2,,3
  17              		.arch armv7e-m
  18              		.syntax unified
  19              		.thumb
  20              		.thumb_func
  21              		.fpu fpv5-d16
  23              	MDMA_SetConfig:
  24              		@ args = 4, pretend = 0, frame = 0
  25              		@ frame_needed = 0, uses_anonymous_args = 0
  26              		@ link register save eliminated.
  27 0000 F0B4     		push	{r4, r5, r6, r7}
  28 0002 0468     		ldr	r4, [r0]
  29 0004 C3F31003 		ubfx	r3, r3, #0, #17
  30 0008 144D     		ldr	r5, .L8
  31 000a 1F27     		movs	r7, #31
  32 000c 6669     		ldr	r6, [r4, #20]
  33 000e 11F05F4F 		tst	r1, #-553648128
  34 0012 05EA0605 		and	r5, r5, r6
  35 0016 049E     		ldr	r6, [sp, #16]
  36 0018 45EA0305 		orr	r5, r5, r3
  37 001c 06F1FF36 		add	r6, r6, #-1
  38 0020 6561     		str	r5, [r4, #20]
  39 0022 6369     		ldr	r3, [r4, #20]
  40 0024 C3F31303 		ubfx	r3, r3, #0, #20
  41 0028 43EA0653 		orr	r3, r3, r6, lsl #20
  42 002c 6361     		str	r3, [r4, #20]
  43 002e 6760     		str	r7, [r4, #4]
  44 0030 E261     		str	r2, [r4, #28]
  45 0032 A161     		str	r1, [r4, #24]
  46 0034 A36A     		ldr	r3, [r4, #40]
  47 0036 0CBF     		ite	eq
  48 0038 43F48033 		orreq	r3, r3, #65536
  49 003c 23F48033 		bicne	r3, r3, #65536
  50 0040 12F05F4F 		tst	r2, #-553648128
  51 0044 A362     		str	r3, [r4, #40]
  52 0046 A36A     		ldr	r3, [r4, #40]
  53 0048 0CBF     		ite	eq
  54 004a 43F40033 		orreq	r3, r3, #131072
  55 004e 23F40033 		bicne	r3, r3, #131072
  56 0052 A362     		str	r3, [r4, #40]
  57 0054 C36D     		ldr	r3, [r0, #92]
  58 0056 6362     		str	r3, [r4, #36]
ARM GAS  C:\Users\Brandon\AppData\Local\Temp\cclgig91.s 			page 2


  59 0058 F0BC     		pop	{r4, r5, r6, r7}
  60 005a 7047     		bx	lr
  61              	.L9:
  62              		.align	2
  63              	.L8:
  64 005c 0000FEFF 		.word	-131072
  66              		.section	.text.HAL_MDMA_Init,"ax",%progbits
  67              		.align	1
  68              		.p2align 2,,3
  69              		.global	HAL_MDMA_Init
  70              		.syntax unified
  71              		.thumb
  72              		.thumb_func
  73              		.fpu fpv5-d16
  75              	HAL_MDMA_Init:
  76              		@ args = 0, pretend = 0, frame = 0
  77              		@ frame_needed = 0, uses_anonymous_args = 0
  78 0000 38B5     		push	{r3, r4, r5, lr}
  79 0002 0446     		mov	r4, r0
  80 0004 FFF7FEFF 		bl	HAL_GetTick
  81 0008 002C     		cmp	r4, #0
  82 000a 5AD0     		beq	.L22
  83 000c 0222     		movs	r2, #2
  84 000e 2368     		ldr	r3, [r4]
  85 0010 0021     		movs	r1, #0
  86 0012 0546     		mov	r5, r0
  87 0014 84F83D20 		strb	r2, [r4, #61]
  88 0018 84F83C10 		strb	r1, [r4, #60]
  89 001c DA68     		ldr	r2, [r3, #12]
  90 001e 22F00102 		bic	r2, r2, #1
  91 0022 DA60     		str	r2, [r3, #12]
  92 0024 05E0     		b	.L12
  93              	.L14:
  94 0026 FFF7FEFF 		bl	HAL_GetTick
  95 002a 431B     		subs	r3, r0, r5
  96 002c 052B     		cmp	r3, #5
  97 002e 41D8     		bhi	.L24
  98 0030 2368     		ldr	r3, [r4]
  99              	.L12:
 100 0032 DA68     		ldr	r2, [r3, #12]
 101 0034 D207     		lsls	r2, r2, #31
 102 0036 F6D4     		bmi	.L14
 103 0038 D4E90520 		ldrd	r2, r0, [r4, #20]
 104 003c E169     		ldr	r1, [r4, #28]
 105 003e 0243     		orrs	r2, r2, r0
 106 0040 D4E90850 		ldrd	r5, r0, [r4, #32]
 107 0044 0A43     		orrs	r2, r2, r1
 108 0046 E16A     		ldr	r1, [r4, #44]
 109 0048 2A43     		orrs	r2, r2, r5
 110 004a 256B     		ldr	r5, [r4, #48]
 111 004c 0243     		orrs	r2, r2, r0
 112 004e A068     		ldr	r0, [r4, #8]
 113 0050 0A43     		orrs	r2, r2, r1
 114 0052 A16A     		ldr	r1, [r4, #40]
 115 0054 2A43     		orrs	r2, r2, r5
 116 0056 4D1E     		subs	r5, r1, #1
 117 0058 E168     		ldr	r1, [r4, #12]
ARM GAS  C:\Users\Brandon\AppData\Local\Temp\cclgig91.s 			page 3


 118 005a 0243     		orrs	r2, r2, r0
 119 005c 2069     		ldr	r0, [r4, #16]
 120 005e 0843     		orrs	r0, r0, r1
 121 0060 6168     		ldr	r1, [r4, #4]
 122 0062 42EA8542 		orr	r2, r2, r5, lsl #18
 123 0066 B1F1804F 		cmp	r1, #1073741824
 124 006a D860     		str	r0, [r3, #12]
 125 006c 1A61     		str	r2, [r3, #16]
 126 006e 03D1     		bne	.L15
 127 0070 1A69     		ldr	r2, [r3, #16]
 128 0072 42F04042 		orr	r2, r2, #-1073741824
 129 0076 1A61     		str	r2, [r3, #16]
 130              	.L15:
 131 0078 0020     		movs	r0, #0
 132 007a 626B     		ldr	r2, [r4, #52]
 133 007c 8242     		cmp	r2, r0
 134 007e 5861     		str	r0, [r3, #20]
 135 0080 30DB     		blt	.L25
 136 0082 92B2     		uxth	r2, r2
 137 0084 1A62     		str	r2, [r3, #32]
 138              	.L17:
 139 0086 A26B     		ldr	r2, [r4, #56]
 140 0088 002A     		cmp	r2, #0
 141 008a 1CDB     		blt	.L26
 142 008c 186A     		ldr	r0, [r3, #32]
 143 008e B1F1804F 		cmp	r1, #1073741824
 144 0092 40EA0242 		orr	r2, r0, r2, lsl #16
 145 0096 1A62     		str	r2, [r3, #32]
 146 0098 21D0     		beq	.L20
 147              	.L27:
 148 009a C9B2     		uxtb	r1, r1
 149 009c 9962     		str	r1, [r3, #40]
 150              	.L21:
 151 009e 0022     		movs	r2, #0
 152 00a0 0121     		movs	r1, #1
 153 00a2 5A62     		str	r2, [r3, #36]
 154 00a4 1046     		mov	r0, r2
 155 00a6 A266     		str	r2, [r4, #104]
 156 00a8 6266     		str	r2, [r4, #100]
 157 00aa 84F83D10 		strb	r1, [r4, #61]
 158 00ae C4E91722 		strd	r2, r2, [r4, #92]
 159 00b2 38BD     		pop	{r3, r4, r5, pc}
 160              	.L24:
 161 00b4 4022     		movs	r2, #64
 162 00b6 0323     		movs	r3, #3
 163 00b8 0120     		movs	r0, #1
 164 00ba A266     		str	r2, [r4, #104]
 165 00bc 84F83D30 		strb	r3, [r4, #61]
 166 00c0 38BD     		pop	{r3, r4, r5, pc}
 167              	.L22:
 168 00c2 0120     		movs	r0, #1
 169 00c4 38BD     		pop	{r3, r4, r5, pc}
 170              	.L26:
 171 00c6 5869     		ldr	r0, [r3, #20]
 172 00c8 5242     		rsbs	r2, r2, #0
 173 00ca B1F1804F 		cmp	r1, #1073741824
 174 00ce 40F40020 		orr	r0, r0, #524288
ARM GAS  C:\Users\Brandon\AppData\Local\Temp\cclgig91.s 			page 4


 175 00d2 5861     		str	r0, [r3, #20]
 176 00d4 186A     		ldr	r0, [r3, #32]
 177 00d6 40EA0242 		orr	r2, r0, r2, lsl #16
 178 00da 1A62     		str	r2, [r3, #32]
 179 00dc DDD1     		bne	.L27
 180              	.L20:
 181 00de 0022     		movs	r2, #0
 182 00e0 9A62     		str	r2, [r3, #40]
 183 00e2 DCE7     		b	.L21
 184              	.L25:
 185 00e4 5869     		ldr	r0, [r3, #20]
 186 00e6 5242     		rsbs	r2, r2, #0
 187 00e8 40F48020 		orr	r0, r0, #262144
 188 00ec 92B2     		uxth	r2, r2
 189 00ee 5861     		str	r0, [r3, #20]
 190 00f0 1A62     		str	r2, [r3, #32]
 191 00f2 C8E7     		b	.L17
 193              		.section	.text.HAL_MDMA_DeInit,"ax",%progbits
 194              		.align	1
 195              		.p2align 2,,3
 196              		.global	HAL_MDMA_DeInit
 197              		.syntax unified
 198              		.thumb
 199              		.thumb_func
 200              		.fpu fpv5-d16
 202              	HAL_MDMA_DeInit:
 203              		@ args = 0, pretend = 0, frame = 0
 204              		@ frame_needed = 0, uses_anonymous_args = 0
 205              		@ link register save eliminated.
 206 0000 F0B1     		cbz	r0, .L30
 207 0002 0268     		ldr	r2, [r0]
 208 0004 0023     		movs	r3, #0
 209 0006 0146     		mov	r1, r0
 210 0008 1846     		mov	r0, r3
 211 000a 30B4     		push	{r4, r5}
 212 000c D468     		ldr	r4, [r2, #12]
 213 000e 1F25     		movs	r5, #31
 214 0010 24F00104 		bic	r4, r4, #1
 215 0014 D460     		str	r4, [r2, #12]
 216 0016 D360     		str	r3, [r2, #12]
 217 0018 1361     		str	r3, [r2, #16]
 218 001a 5361     		str	r3, [r2, #20]
 219 001c 9361     		str	r3, [r2, #24]
 220 001e D361     		str	r3, [r2, #28]
 221 0020 1362     		str	r3, [r2, #32]
 222 0022 5362     		str	r3, [r2, #36]
 223 0024 9362     		str	r3, [r2, #40]
 224 0026 1363     		str	r3, [r2, #48]
 225 0028 5363     		str	r3, [r2, #52]
 226 002a 5560     		str	r5, [r2, #4]
 227 002c 8B66     		str	r3, [r1, #104]
 228 002e 81F83C30 		strb	r3, [r1, #60]
 229 0032 81F83D30 		strb	r3, [r1, #61]
 230 0036 4B66     		str	r3, [r1, #100]
 231 0038 30BC     		pop	{r4, r5}
 232 003a C1E91733 		strd	r3, r3, [r1, #92]
 233 003e 7047     		bx	lr
ARM GAS  C:\Users\Brandon\AppData\Local\Temp\cclgig91.s 			page 5


 234              	.L30:
 235 0040 0120     		movs	r0, #1
 236 0042 7047     		bx	lr
 238              		.section	.text.HAL_MDMA_ConfigPostRequestMask,"ax",%progbits
 239              		.align	1
 240              		.p2align 2,,3
 241              		.global	HAL_MDMA_ConfigPostRequestMask
 242              		.syntax unified
 243              		.thumb
 244              		.thumb_func
 245              		.fpu fpv5-d16
 247              	HAL_MDMA_ConfigPostRequestMask:
 248              		@ args = 0, pretend = 0, frame = 0
 249              		@ frame_needed = 0, uses_anonymous_args = 0
 250              		@ link register save eliminated.
 251 0000 08B3     		cbz	r0, .L39
 252 0002 90F83C30 		ldrb	r3, [r0, #60]	@ zero_extendqisi2
 253 0006 012B     		cmp	r3, #1
 254 0008 20D0     		beq	.L40
 255 000a 30B4     		push	{r4, r5}
 256 000c 0125     		movs	r5, #1
 257 000e 90F83D40 		ldrb	r4, [r0, #61]	@ zero_extendqisi2
 258 0012 AC42     		cmp	r4, r5
 259 0014 E3B2     		uxtb	r3, r4
 260 0016 80F83C50 		strb	r5, [r0, #60]
 261 001a 06D0     		beq	.L46
 262 001c 2B46     		mov	r3, r5
 263              	.L37:
 264 001e 0022     		movs	r2, #0
 265 0020 80F83C20 		strb	r2, [r0, #60]
 266 0024 1846     		mov	r0, r3
 267 0026 30BC     		pop	{r4, r5}
 268 0028 7047     		bx	lr
 269              	.L46:
 270 002a 0568     		ldr	r5, [r0]
 271 002c 2C69     		ldr	r4, [r5, #16]
 272 002e 14F08044 		ands	r4, r4, #1073741824
 273 0032 F4D1     		bne	.L37
 274 0034 2963     		str	r1, [r5, #48]
 275 0036 6A63     		str	r2, [r5, #52]
 276 0038 2A69     		ldr	r2, [r5, #16]
 277 003a 51B9     		cbnz	r1, .L38
 278 003c 22F00042 		bic	r2, r2, #-2147483648
 279 0040 0B46     		mov	r3, r1
 280 0042 2A61     		str	r2, [r5, #16]
 281 0044 EBE7     		b	.L37
 282              	.L39:
 283 0046 0123     		movs	r3, #1
 284 0048 1846     		mov	r0, r3
 285 004a 7047     		bx	lr
 286              	.L40:
 287 004c 0223     		movs	r3, #2
 288 004e 1846     		mov	r0, r3
 289 0050 7047     		bx	lr
 290              	.L38:
 291 0052 42F00042 		orr	r2, r2, #-2147483648
 292 0056 2346     		mov	r3, r4
ARM GAS  C:\Users\Brandon\AppData\Local\Temp\cclgig91.s 			page 6


 293 0058 2A61     		str	r2, [r5, #16]
 294 005a E0E7     		b	.L37
 296              		.section	.text.HAL_MDMA_RegisterCallback,"ax",%progbits
 297              		.align	1
 298              		.p2align 2,,3
 299              		.global	HAL_MDMA_RegisterCallback
 300              		.syntax unified
 301              		.thumb
 302              		.thumb_func
 303              		.fpu fpv5-d16
 305              	HAL_MDMA_RegisterCallback:
 306              		@ args = 0, pretend = 0, frame = 0
 307              		@ frame_needed = 0, uses_anonymous_args = 0
 308              		@ link register save eliminated.
 309 0000 0346     		mov	r3, r0
 310 0002 98B1     		cbz	r0, .L57
 311 0004 90F83C00 		ldrb	r0, [r0, #60]	@ zero_extendqisi2
 312 0008 0128     		cmp	r0, #1
 313 000a 11D0     		beq	.L58
 314 000c 93F83D00 		ldrb	r0, [r3, #61]	@ zero_extendqisi2
 315 0010 0128     		cmp	r0, #1
 316 0012 04D0     		beq	.L61
 317 0014 0120     		movs	r0, #1
 318              	.L49:
 319 0016 0022     		movs	r2, #0
 320 0018 83F83C20 		strb	r2, [r3, #60]
 321 001c 7047     		bx	lr
 322              	.L61:
 323 001e 0529     		cmp	r1, #5
 324 0020 1AD8     		bhi	.L60
 325 0022 DFE801F0 		tbb	[pc, r1]
 326              	.L51:
 327 0026 16       		.byte	(.L56-.L51)/2
 328 0027 13       		.byte	(.L55-.L51)/2
 329 0028 10       		.byte	(.L54-.L51)/2
 330 0029 0D       		.byte	(.L53-.L51)/2
 331 002a 0A       		.byte	(.L52-.L51)/2
 332 002b 07       		.byte	(.L50-.L51)/2
 333              		.p2align 1
 334              	.L57:
 335 002c 0120     		movs	r0, #1
 336 002e 7047     		bx	lr
 337              	.L58:
 338 0030 0220     		movs	r0, #2
 339 0032 7047     		bx	lr
 340              	.L50:
 341 0034 0020     		movs	r0, #0
 342 0036 9A65     		str	r2, [r3, #88]
 343 0038 EDE7     		b	.L49
 344              	.L52:
 345 003a 0020     		movs	r0, #0
 346 003c 5A65     		str	r2, [r3, #84]
 347 003e EAE7     		b	.L49
 348              	.L53:
 349 0040 0020     		movs	r0, #0
 350 0042 1A65     		str	r2, [r3, #80]
 351 0044 E7E7     		b	.L49
ARM GAS  C:\Users\Brandon\AppData\Local\Temp\cclgig91.s 			page 7


 352              	.L54:
 353 0046 0020     		movs	r0, #0
 354 0048 DA64     		str	r2, [r3, #76]
 355 004a E4E7     		b	.L49
 356              	.L55:
 357 004c 0020     		movs	r0, #0
 358 004e 9A64     		str	r2, [r3, #72]
 359 0050 E1E7     		b	.L49
 360              	.L56:
 361 0052 0846     		mov	r0, r1
 362 0054 5A64     		str	r2, [r3, #68]
 363 0056 DEE7     		b	.L49
 364              	.L60:
 365 0058 0020     		movs	r0, #0
 366 005a DCE7     		b	.L49
 368              		.section	.text.HAL_MDMA_UnRegisterCallback,"ax",%progbits
 369              		.align	1
 370              		.p2align 2,,3
 371              		.global	HAL_MDMA_UnRegisterCallback
 372              		.syntax unified
 373              		.thumb
 374              		.thumb_func
 375              		.fpu fpv5-d16
 377              	HAL_MDMA_UnRegisterCallback:
 378              		@ args = 0, pretend = 0, frame = 0
 379              		@ frame_needed = 0, uses_anonymous_args = 0
 380              		@ link register save eliminated.
 381 0000 E0B1     		cbz	r0, .L73
 382 0002 90F83C30 		ldrb	r3, [r0, #60]	@ zero_extendqisi2
 383 0006 012B     		cmp	r3, #1
 384 0008 1BD0     		beq	.L74
 385 000a 10B4     		push	{r4}
 386 000c 0124     		movs	r4, #1
 387 000e 90F83D20 		ldrb	r2, [r0, #61]	@ zero_extendqisi2
 388 0012 A242     		cmp	r2, r4
 389 0014 D3B2     		uxtb	r3, r2
 390 0016 80F83C40 		strb	r4, [r0, #60]
 391 001a 07D0     		beq	.L80
 392 001c 2346     		mov	r3, r4
 393              	.L64:
 394 001e 0022     		movs	r2, #0
 395 0020 80F83C20 		strb	r2, [r0, #60]
 396 0024 1846     		mov	r0, r3
 397 0026 5DF8044B 		ldr	r4, [sp], #4
 398 002a 7047     		bx	lr
 399              	.L80:
 400 002c 0629     		cmp	r1, #6
 401 002e F6D8     		bhi	.L64
 402 0030 DFE801F0 		tbb	[pc, r1]
 403              	.L66:
 404 0034 22       		.byte	(.L72-.L66)/2
 405 0035 1F       		.byte	(.L71-.L66)/2
 406 0036 1C       		.byte	(.L70-.L66)/2
 407 0037 19       		.byte	(.L69-.L66)/2
 408 0038 16       		.byte	(.L68-.L66)/2
 409 0039 13       		.byte	(.L67-.L66)/2
 410 003a 0A       		.byte	(.L65-.L66)/2
ARM GAS  C:\Users\Brandon\AppData\Local\Temp\cclgig91.s 			page 8


 411 003b 00       		.p2align 1
 412              	.L73:
 413 003c 0123     		movs	r3, #1
 414 003e 1846     		mov	r0, r3
 415 0040 7047     		bx	lr
 416              	.L74:
 417 0042 0223     		movs	r3, #2
 418 0044 1846     		mov	r0, r3
 419 0046 7047     		bx	lr
 420              	.L65:
 421 0048 0022     		movs	r2, #0
 422 004a 1346     		mov	r3, r2
 423 004c 4264     		str	r2, [r0, #68]
 424 004e 8265     		str	r2, [r0, #88]
 425 0050 C0E91222 		strd	r2, r2, [r0, #72]
 426 0054 C0E91422 		strd	r2, r2, [r0, #80]
 427 0058 E1E7     		b	.L64
 428              	.L67:
 429 005a 0023     		movs	r3, #0
 430 005c 8365     		str	r3, [r0, #88]
 431 005e DEE7     		b	.L64
 432              	.L68:
 433 0060 0023     		movs	r3, #0
 434 0062 4365     		str	r3, [r0, #84]
 435 0064 DBE7     		b	.L64
 436              	.L69:
 437 0066 0023     		movs	r3, #0
 438 0068 0365     		str	r3, [r0, #80]
 439 006a D8E7     		b	.L64
 440              	.L70:
 441 006c 0023     		movs	r3, #0
 442 006e C364     		str	r3, [r0, #76]
 443 0070 D5E7     		b	.L64
 444              	.L71:
 445 0072 0023     		movs	r3, #0
 446 0074 8364     		str	r3, [r0, #72]
 447 0076 D2E7     		b	.L64
 448              	.L72:
 449 0078 0022     		movs	r2, #0
 450 007a 0B46     		mov	r3, r1
 451 007c 4264     		str	r2, [r0, #68]
 452 007e CEE7     		b	.L64
 454              		.section	.text.HAL_MDMA_LinkedList_CreateNode,"ax",%progbits
 455              		.align	1
 456              		.p2align 2,,3
 457              		.global	HAL_MDMA_LinkedList_CreateNode
 458              		.syntax unified
 459              		.thumb
 460              		.thumb_func
 461              		.fpu fpv5-d16
 463              	HAL_MDMA_LinkedList_CreateNode:
 464              		@ args = 0, pretend = 0, frame = 0
 465              		@ frame_needed = 0, uses_anonymous_args = 0
 466              		@ link register save eliminated.
 467 0000 0028     		cmp	r0, #0
 468 0002 61D0     		beq	.L92
 469 0004 0346     		mov	r3, r0
ARM GAS  C:\Users\Brandon\AppData\Local\Temp\cclgig91.s 			page 9


 470 0006 B1FA81F0 		clz	r0, r1
 471 000a 4009     		lsrs	r0, r0, #5
 472 000c 0029     		cmp	r1, #0
 473 000e 5BD0     		beq	.L92
 474 0010 70B4     		push	{r4, r5, r6}
 475 0012 D1E90425 		ldrd	r2, r5, [r1, #16]
 476 0016 8C69     		ldr	r4, [r1, #24]
 477 0018 2A43     		orrs	r2, r2, r5
 478 001a CD69     		ldr	r5, [r1, #28]
 479 001c 5861     		str	r0, [r3, #20]
 480 001e 2243     		orrs	r2, r2, r4
 481 0020 0C6A     		ldr	r4, [r1, #32]
 482 0022 9861     		str	r0, [r3, #24]
 483 0024 2A43     		orrs	r2, r2, r5
 484 0026 8D6A     		ldr	r5, [r1, #40]
 485 0028 1862     		str	r0, [r3, #32]
 486 002a 2243     		orrs	r2, r2, r4
 487 002c CC6A     		ldr	r4, [r1, #44]
 488 002e 5862     		str	r0, [r3, #36]
 489 0030 2A43     		orrs	r2, r2, r5
 490 0032 4D68     		ldr	r5, [r1, #4]
 491 0034 D861     		str	r0, [r3, #28]
 492 0036 2243     		orrs	r2, r2, r4
 493 0038 486A     		ldr	r0, [r1, #36]
 494 003a 0C68     		ldr	r4, [r1]
 495 003c 2A43     		orrs	r2, r2, r5
 496 003e 0138     		subs	r0, r0, #1
 497 0040 B4F1804F 		cmp	r4, #1073741824
 498 0044 42EA8042 		orr	r2, r2, r0, lsl #18
 499 0048 1A60     		str	r2, [r3]
 500 004a 38D0     		beq	.L102
 501 004c 8A6C     		ldr	r2, [r1, #72]
 502 004e 1AB1     		cbz	r2, .L91
 503              	.L90:
 504 0050 1A68     		ldr	r2, [r3]
 505 0052 42F00042 		orr	r2, r2, #-2147483648
 506 0056 1A60     		str	r2, [r3]
 507              	.L91:
 508 0058 4A6C     		ldr	r2, [r1, #68]
 509 005a 086B     		ldr	r0, [r1, #48]
 510 005c 013A     		subs	r2, r2, #1
 511 005e 0028     		cmp	r0, #0
 512 0060 4FEA0252 		lsl	r2, r2, #20
 513 0064 5A60     		str	r2, [r3, #4]
 514 0066 3EDB     		blt	.L103
 515 0068 80B2     		uxth	r0, r0
 516 006a 1861     		str	r0, [r3, #16]
 517              	.L85:
 518 006c 4A6B     		ldr	r2, [r1, #52]
 519 006e 002A     		cmp	r2, #0
 520 0070 2FDB     		blt	.L104
 521 0072 1869     		ldr	r0, [r3, #16]
 522 0074 40EA0242 		orr	r2, r0, r2, lsl #16
 523 0078 1A61     		str	r2, [r3, #16]
 524              	.L87:
 525 007a 5A68     		ldr	r2, [r3, #4]
 526 007c B4F1804F 		cmp	r4, #1073741824
ARM GAS  C:\Users\Brandon\AppData\Local\Temp\cclgig91.s 			page 10


 527 0080 D1E90F05 		ldrd	r0, r5, [r1, #60]
 528 0084 42EA0502 		orr	r2, r2, r5
 529 0088 8D6B     		ldr	r5, [r1, #56]
 530 008a 5A60     		str	r2, [r3, #4]
 531 008c D860     		str	r0, [r3, #12]
 532 008e 9D60     		str	r5, [r3, #8]
 533 0090 05D0     		beq	.L88
 534 0092 E4B2     		uxtb	r4, r4
 535 0094 D1E91262 		ldrd	r6, r2, [r1, #72]
 536 0098 9C61     		str	r4, [r3, #24]
 537 009a 1E62     		str	r6, [r3, #32]
 538 009c 5A62     		str	r2, [r3, #36]
 539              	.L88:
 540 009e 15F05F4F 		tst	r5, #-553648128
 541 00a2 03D1     		bne	.L89
 542 00a4 9A69     		ldr	r2, [r3, #24]
 543 00a6 42F48032 		orr	r2, r2, #65536
 544 00aa 9A61     		str	r2, [r3, #24]
 545              	.L89:
 546 00ac 10F05F40 		ands	r0, r0, #-553648128
 547 00b0 0CD1     		bne	.L93
 548 00b2 9A69     		ldr	r2, [r3, #24]
 549 00b4 42F40032 		orr	r2, r2, #131072
 550 00b8 70BC     		pop	{r4, r5, r6}
 551 00ba 9A61     		str	r2, [r3, #24]
 552 00bc 7047     		bx	lr
 553              	.L102:
 554 00be 1A68     		ldr	r2, [r3]
 555 00c0 42F08042 		orr	r2, r2, #1073741824
 556 00c4 1A60     		str	r2, [r3]
 557 00c6 C3E7     		b	.L90
 558              	.L92:
 559 00c8 0120     		movs	r0, #1
 560 00ca 7047     		bx	lr
 561              	.L93:
 562 00cc 0020     		movs	r0, #0
 563 00ce 70BC     		pop	{r4, r5, r6}
 564 00d0 7047     		bx	lr
 565              	.L104:
 566 00d2 5868     		ldr	r0, [r3, #4]
 567 00d4 5242     		rsbs	r2, r2, #0
 568 00d6 40F40020 		orr	r0, r0, #524288
 569 00da 5860     		str	r0, [r3, #4]
 570 00dc 1869     		ldr	r0, [r3, #16]
 571 00de 40EA0242 		orr	r2, r0, r2, lsl #16
 572 00e2 1A61     		str	r2, [r3, #16]
 573 00e4 C9E7     		b	.L87
 574              	.L103:
 575 00e6 5A68     		ldr	r2, [r3, #4]
 576 00e8 4042     		rsbs	r0, r0, #0
 577 00ea 42F48022 		orr	r2, r2, #262144
 578 00ee 80B2     		uxth	r0, r0
 579 00f0 5A60     		str	r2, [r3, #4]
 580 00f2 1861     		str	r0, [r3, #16]
 581 00f4 BAE7     		b	.L85
 583 00f6 00BF     		.section	.text.HAL_MDMA_LinkedList_AddNode,"ax",%progbits
 584              		.align	1
ARM GAS  C:\Users\Brandon\AppData\Local\Temp\cclgig91.s 			page 11


 585              		.p2align 2,,3
 586              		.global	HAL_MDMA_LinkedList_AddNode
 587              		.syntax unified
 588              		.thumb
 589              		.thumb_func
 590              		.fpu fpv5-d16
 592              	HAL_MDMA_LinkedList_AddNode:
 593              		@ args = 0, pretend = 0, frame = 0
 594              		@ frame_needed = 0, uses_anonymous_args = 0
 595              		@ link register save eliminated.
 596 0000 F0B4     		push	{r4, r5, r6, r7}
 597 0002 0028     		cmp	r0, #0
 598 0004 38D0     		beq	.L119
 599 0006 B1FA81F3 		clz	r3, r1
 600 000a 5B09     		lsrs	r3, r3, #5
 601 000c A1B3     		cbz	r1, .L119
 602 000e 90F83C40 		ldrb	r4, [r0, #60]	@ zero_extendqisi2
 603 0012 012C     		cmp	r4, #1
 604 0014 40D0     		beq	.L120
 605 0016 90F83D40 		ldrb	r4, [r0, #61]	@ zero_extendqisi2
 606 001a 0125     		movs	r5, #1
 607 001c 012C     		cmp	r4, #1
 608 001e 80F83C50 		strb	r5, [r0, #60]
 609 0022 E5B2     		uxtb	r5, r4
 610 0024 05D0     		beq	.L130
 611 0026 0225     		movs	r5, #2
 612 0028 80F83C30 		strb	r3, [r0, #60]
 613              	.L128:
 614 002c 2846     		mov	r0, r5
 615 002e F0BC     		pop	{r4, r5, r6, r7}
 616 0030 7047     		bx	lr
 617              	.L130:
 618 0032 0224     		movs	r4, #2
 619 0034 C76D     		ldr	r7, [r0, #92]
 620 0036 80F83D40 		strb	r4, [r0, #61]
 621 003a 0FB3     		cbz	r7, .L131
 622 003c 8F42     		cmp	r7, r1
 623 003e 20D0     		beq	.L109
 624 0040 D0F864C0 		ldr	ip, [r0, #100]
 625 0044 BCF1000F 		cmp	ip, #0
 626 0048 41D0     		beq	.L110
 627 004a 3C46     		mov	r4, r7
 628              	.L112:
 629 004c 6669     		ldr	r6, [r4, #20]
 630 004e 0133     		adds	r3, r3, #1
 631 0050 8E42     		cmp	r6, r1
 632 0052 1FD0     		beq	.L132
 633 0054 6345     		cmp	r3, ip
 634 0056 6469     		ldr	r4, [r4, #20]
 635 0058 F8D1     		bne	.L112
 636 005a 046E     		ldr	r4, [r0, #96]
 637 005c 72B3     		cbz	r2, .L116
 638 005e 131B     		subs	r3, r2, r4
 639 0060 B3FA83F3 		clz	r3, r3
 640 0064 5B09     		lsrs	r3, r3, #5
 641 0066 4BBB     		cbnz	r3, .L116
 642              	.L115:
ARM GAS  C:\Users\Brandon\AppData\Local\Temp\cclgig91.s 			page 12


 643 0068 BA42     		cmp	r2, r7
 644 006a 03F10103 		add	r3, r3, #1
 645 006e 15D0     		beq	.L133
 646 0070 6345     		cmp	r3, ip
 647 0072 7F69     		ldr	r7, [r7, #20]
 648 0074 F8D1     		bne	.L115
 649 0076 04E0     		b	.L109
 650              	.L119:
 651 0078 0125     		movs	r5, #1
 652 007a 2846     		mov	r0, r5
 653 007c F0BC     		pop	{r4, r5, r6, r7}
 654 007e 7047     		bx	lr
 655              	.L131:
 656 0080 A2B1     		cbz	r2, .L134
 657              	.L109:
 658 0082 0022     		movs	r2, #0
 659 0084 0123     		movs	r3, #1
 660 0086 80F83C20 		strb	r2, [r0, #60]
 661 008a 80F83D30 		strb	r3, [r0, #61]
 662 008e 2846     		mov	r0, r5
 663 0090 F0BC     		pop	{r4, r5, r6, r7}
 664 0092 7047     		bx	lr
 665              	.L132:
 666 0094 6369     		ldr	r3, [r4, #20]
 667 0096 F4E7     		b	.L109
 668              	.L120:
 669 0098 0225     		movs	r5, #2
 670 009a C7E7     		b	.L128
 671              	.L133:
 672 009c 5469     		ldr	r4, [r2, #20]
 673 009e 0CF10103 		add	r3, ip, #1
 674 00a2 0025     		movs	r5, #0
 675 00a4 4C61     		str	r4, [r1, #20]
 676 00a6 5161     		str	r1, [r2, #20]
 677 00a8 4366     		str	r3, [r0, #100]
 678 00aa EAE7     		b	.L109
 679              	.L134:
 680 00ac 0368     		ldr	r3, [r0]
 681 00ae 5962     		str	r1, [r3, #36]
 682 00b0 C165     		str	r1, [r0, #92]
 683 00b2 4A61     		str	r2, [r1, #20]
 684 00b4 4566     		str	r5, [r0, #100]
 685 00b6 1546     		mov	r5, r2
 686 00b8 0166     		str	r1, [r0, #96]
 687 00ba E2E7     		b	.L109
 688              	.L116:
 689 00bc 0CF10103 		add	r3, ip, #1
 690              	.L118:
 691 00c0 6269     		ldr	r2, [r4, #20]
 692 00c2 0025     		movs	r5, #0
 693 00c4 4A61     		str	r2, [r1, #20]
 694 00c6 6161     		str	r1, [r4, #20]
 695 00c8 C0E91813 		strd	r1, r3, [r0, #96]
 696 00cc D9E7     		b	.L109
 697              	.L110:
 698 00ce 046E     		ldr	r4, [r0, #96]
 699 00d0 0AB1     		cbz	r2, .L121
ARM GAS  C:\Users\Brandon\AppData\Local\Temp\cclgig91.s 			page 13


 700 00d2 A242     		cmp	r2, r4
 701 00d4 D5D1     		bne	.L109
 702              	.L121:
 703 00d6 0123     		movs	r3, #1
 704 00d8 F2E7     		b	.L118
 706 00da 00BF     		.section	.text.HAL_MDMA_LinkedList_RemoveNode,"ax",%progbits
 707              		.align	1
 708              		.p2align 2,,3
 709              		.global	HAL_MDMA_LinkedList_RemoveNode
 710              		.syntax unified
 711              		.thumb
 712              		.thumb_func
 713              		.fpu fpv5-d16
 715              	HAL_MDMA_LinkedList_RemoveNode:
 716              		@ args = 0, pretend = 0, frame = 0
 717              		@ frame_needed = 0, uses_anonymous_args = 0
 718              		@ link register save eliminated.
 719 0000 88B3     		cbz	r0, .L145
 720 0002 B1FA81F3 		clz	r3, r1
 721 0006 5B09     		lsrs	r3, r3, #5
 722 0008 69B3     		cbz	r1, .L145
 723 000a 90F83C20 		ldrb	r2, [r0, #60]	@ zero_extendqisi2
 724 000e 012A     		cmp	r2, #1
 725 0010 3DD0     		beq	.L146
 726 0012 0122     		movs	r2, #1
 727 0014 F0B4     		push	{r4, r5, r6, r7}
 728 0016 90F83D40 		ldrb	r4, [r0, #61]	@ zero_extendqisi2
 729 001a 80F83C20 		strb	r2, [r0, #60]
 730 001e 012C     		cmp	r4, #1
 731 0020 E2B2     		uxtb	r2, r4
 732 0022 05D0     		beq	.L161
 733 0024 0222     		movs	r2, #2
 734 0026 80F83C30 		strb	r3, [r0, #60]
 735 002a 1046     		mov	r0, r2
 736 002c F0BC     		pop	{r4, r5, r6, r7}
 737 002e 7047     		bx	lr
 738              	.L161:
 739 0030 0225     		movs	r5, #2
 740 0032 C46D     		ldr	r4, [r0, #92]
 741 0034 80F83D50 		strb	r5, [r0, #61]
 742 0038 64B1     		cbz	r4, .L138
 743 003a 076E     		ldr	r7, [r0, #96]
 744 003c 57B1     		cbz	r7, .L138
 745 003e 456E     		ldr	r5, [r0, #100]
 746 0040 45B1     		cbz	r5, .L138
 747 0042 8C42     		cmp	r4, r1
 748 0044 25D0     		beq	.L162
 749              	.L144:
 750 0046 6669     		ldr	r6, [r4, #20]
 751 0048 0133     		adds	r3, r3, #1
 752 004a 8E42     		cmp	r6, r1
 753 004c 0ED0     		beq	.L163
 754 004e 9D42     		cmp	r5, r3
 755 0050 6469     		ldr	r4, [r4, #20]
 756 0052 F8D1     		bne	.L144
 757              	.L138:
 758 0054 0021     		movs	r1, #0
ARM GAS  C:\Users\Brandon\AppData\Local\Temp\cclgig91.s 			page 14


 759 0056 0123     		movs	r3, #1
 760 0058 80F83C10 		strb	r1, [r0, #60]
 761 005c 80F83D30 		strb	r3, [r0, #61]
 762              	.L164:
 763 0060 1046     		mov	r0, r2
 764 0062 F0BC     		pop	{r4, r5, r6, r7}
 765 0064 7047     		bx	lr
 766              	.L145:
 767 0066 0122     		movs	r2, #1
 768              	.L158:
 769 0068 1046     		mov	r0, r2
 770 006a 7047     		bx	lr
 771              	.L163:
 772 006c 4B69     		ldr	r3, [r1, #20]
 773 006e 8F42     		cmp	r7, r1
 774 0070 05F1FF35 		add	r5, r5, #-1
 775 0074 4FF00001 		mov	r1, #0
 776 0078 08BF     		it	eq
 777 007a 0466     		streq	r4, [r0, #96]
 778 007c 0022     		movs	r2, #0
 779 007e 6361     		str	r3, [r4, #20]
 780 0080 0123     		movs	r3, #1
 781 0082 4566     		str	r5, [r0, #100]
 782 0084 80F83C10 		strb	r1, [r0, #60]
 783 0088 80F83D30 		strb	r3, [r0, #61]
 784 008c E8E7     		b	.L164
 785              	.L146:
 786 008e 0222     		movs	r2, #2
 787 0090 EAE7     		b	.L158
 788              	.L162:
 789 0092 A742     		cmp	r7, r4
 790 0094 0DD0     		beq	.L165
 791 0096 7B69     		ldr	r3, [r7, #20]
 792 0098 9942     		cmp	r1, r3
 793 009a 01D1     		bne	.L141
 794 009c 4B69     		ldr	r3, [r1, #20]
 795 009e 7B61     		str	r3, [r7, #20]
 796              	.L141:
 797 00a0 4969     		ldr	r1, [r1, #20]
 798 00a2 013D     		subs	r5, r5, #1
 799 00a4 0368     		ldr	r3, [r0]
 800 00a6 0022     		movs	r2, #0
 801 00a8 5962     		str	r1, [r3, #36]
 802 00aa 5B6A     		ldr	r3, [r3, #36]
 803 00ac 4566     		str	r5, [r0, #100]
 804 00ae C365     		str	r3, [r0, #92]
 805 00b0 D0E7     		b	.L138
 806              	.L165:
 807 00b2 0168     		ldr	r1, [r0]
 808 00b4 1A46     		mov	r2, r3
 809 00b6 4366     		str	r3, [r0, #100]
 810 00b8 C0E91733 		strd	r3, r3, [r0, #92]
 811 00bc 4B62     		str	r3, [r1, #36]
 812 00be C9E7     		b	.L138
 814              		.section	.text.HAL_MDMA_LinkedList_EnableCircularMode,"ax",%progbits
 815              		.align	1
 816              		.p2align 2,,3
ARM GAS  C:\Users\Brandon\AppData\Local\Temp\cclgig91.s 			page 15


 817              		.global	HAL_MDMA_LinkedList_EnableCircularMode
 818              		.syntax unified
 819              		.thumb
 820              		.thumb_func
 821              		.fpu fpv5-d16
 823              	HAL_MDMA_LinkedList_EnableCircularMode:
 824              		@ args = 0, pretend = 0, frame = 0
 825              		@ frame_needed = 0, uses_anonymous_args = 0
 826              		@ link register save eliminated.
 827 0000 30B3     		cbz	r0, .L169
 828 0002 90F83C30 		ldrb	r3, [r0, #60]	@ zero_extendqisi2
 829 0006 012B     		cmp	r3, #1
 830 0008 25D0     		beq	.L170
 831 000a 0123     		movs	r3, #1
 832 000c 10B4     		push	{r4}
 833 000e 90F83D20 		ldrb	r2, [r0, #61]	@ zero_extendqisi2
 834 0012 80F83C30 		strb	r3, [r0, #60]
 835 0016 012A     		cmp	r2, #1
 836 0018 D3B2     		uxtb	r3, r2
 837 001a 0AD0     		beq	.L185
 838 001c 0023     		movs	r3, #0
 839              	.L168:
 840 001e 0021     		movs	r1, #0
 841 0020 0122     		movs	r2, #1
 842 0022 80F83C10 		strb	r1, [r0, #60]
 843 0026 80F83D20 		strb	r2, [r0, #61]
 844 002a 1846     		mov	r0, r3
 845 002c 5DF8044B 		ldr	r4, [sp], #4
 846 0030 7047     		bx	lr
 847              	.L185:
 848 0032 0221     		movs	r1, #2
 849 0034 C26D     		ldr	r2, [r0, #92]
 850 0036 80F83D10 		strb	r1, [r0, #61]
 851 003a 002A     		cmp	r2, #0
 852 003c EFD0     		beq	.L168
 853 003e 016E     		ldr	r1, [r0, #96]
 854 0040 0029     		cmp	r1, #0
 855 0042 ECD0     		beq	.L168
 856 0044 446E     		ldr	r4, [r0, #100]
 857 0046 002C     		cmp	r4, #0
 858 0048 E9D0     		beq	.L168
 859 004a 0023     		movs	r3, #0
 860 004c 4A61     		str	r2, [r1, #20]
 861 004e E6E7     		b	.L168
 862              	.L169:
 863 0050 0123     		movs	r3, #1
 864 0052 1846     		mov	r0, r3
 865 0054 7047     		bx	lr
 866              	.L170:
 867 0056 0223     		movs	r3, #2
 868 0058 1846     		mov	r0, r3
 869 005a 7047     		bx	lr
 871              		.section	.text.HAL_MDMA_LinkedList_DisableCircularMode,"ax",%progbits
 872              		.align	1
 873              		.p2align 2,,3
 874              		.global	HAL_MDMA_LinkedList_DisableCircularMode
 875              		.syntax unified
ARM GAS  C:\Users\Brandon\AppData\Local\Temp\cclgig91.s 			page 16


 876              		.thumb
 877              		.thumb_func
 878              		.fpu fpv5-d16
 880              	HAL_MDMA_LinkedList_DisableCircularMode:
 881              		@ args = 0, pretend = 0, frame = 0
 882              		@ frame_needed = 0, uses_anonymous_args = 0
 883              		@ link register save eliminated.
 884 0000 18B3     		cbz	r0, .L189
 885 0002 90F83C30 		ldrb	r3, [r0, #60]	@ zero_extendqisi2
 886 0006 012B     		cmp	r3, #1
 887 0008 22D0     		beq	.L190
 888 000a 90F83D20 		ldrb	r2, [r0, #61]	@ zero_extendqisi2
 889 000e 0123     		movs	r3, #1
 890 0010 012A     		cmp	r2, #1
 891 0012 80F83C30 		strb	r3, [r0, #60]
 892 0016 D3B2     		uxtb	r3, r2
 893 0018 08D0     		beq	.L201
 894 001a 0023     		movs	r3, #0
 895              	.L188:
 896 001c 0021     		movs	r1, #0
 897 001e 0122     		movs	r2, #1
 898 0020 80F83C10 		strb	r1, [r0, #60]
 899 0024 80F83D20 		strb	r2, [r0, #61]
 900 0028 1846     		mov	r0, r3
 901 002a 7047     		bx	lr
 902              	.L201:
 903 002c 0221     		movs	r1, #2
 904 002e C26D     		ldr	r2, [r0, #92]
 905 0030 80F83D10 		strb	r1, [r0, #61]
 906 0034 002A     		cmp	r2, #0
 907 0036 F1D0     		beq	.L188
 908 0038 026E     		ldr	r2, [r0, #96]
 909 003a 002A     		cmp	r2, #0
 910 003c EED0     		beq	.L188
 911 003e 416E     		ldr	r1, [r0, #100]
 912 0040 0029     		cmp	r1, #0
 913 0042 EBD0     		beq	.L188
 914 0044 0023     		movs	r3, #0
 915 0046 5361     		str	r3, [r2, #20]
 916 0048 E8E7     		b	.L188
 917              	.L189:
 918 004a 0123     		movs	r3, #1
 919 004c 1846     		mov	r0, r3
 920 004e 7047     		bx	lr
 921              	.L190:
 922 0050 0223     		movs	r3, #2
 923 0052 1846     		mov	r0, r3
 924 0054 7047     		bx	lr
 926 0056 00BF     		.section	.text.HAL_MDMA_Start,"ax",%progbits
 927              		.align	1
 928              		.p2align 2,,3
 929              		.global	HAL_MDMA_Start
 930              		.syntax unified
 931              		.thumb
 932              		.thumb_func
 933              		.fpu fpv5-d16
 935              	HAL_MDMA_Start:
ARM GAS  C:\Users\Brandon\AppData\Local\Temp\cclgig91.s 			page 17


 936              		@ args = 4, pretend = 0, frame = 0
 937              		@ frame_needed = 0, uses_anonymous_args = 0
 938 0000 68B3     		cbz	r0, .L205
 939 0002 F0B5     		push	{r4, r5, r6, r7, lr}
 940 0004 90F83C50 		ldrb	r5, [r0, #60]	@ zero_extendqisi2
 941 0008 83B0     		sub	sp, sp, #12
 942 000a 0446     		mov	r4, r0
 943 000c 012D     		cmp	r5, #1
 944 000e 2FD0     		beq	.L206
 945 0010 0126     		movs	r6, #1
 946 0012 90F83D50 		ldrb	r5, [r0, #61]	@ zero_extendqisi2
 947 0016 B542     		cmp	r5, r6
 948 0018 80F83C60 		strb	r6, [r0, #60]
 949 001c 05D0     		beq	.L212
 950 001e 0023     		movs	r3, #0
 951 0020 0220     		movs	r0, #2
 952 0022 84F83C30 		strb	r3, [r4, #60]
 953 0026 03B0     		add	sp, sp, #12
 954              		@ sp needed
 955 0028 F0BD     		pop	{r4, r5, r6, r7, pc}
 956              	.L212:
 957 002a 0226     		movs	r6, #2
 958 002c 0025     		movs	r5, #0
 959 002e 0768     		ldr	r7, [r0]
 960 0030 80F83D60 		strb	r6, [r0, #61]
 961 0034 8566     		str	r5, [r0, #104]
 962 0036 FE68     		ldr	r6, [r7, #12]
 963 0038 26F00106 		bic	r6, r6, #1
 964 003c FE60     		str	r6, [r7, #12]
 965 003e 089E     		ldr	r6, [sp, #32]
 966 0040 0096     		str	r6, [sp]
 967 0042 FFF7FEFF 		bl	MDMA_SetConfig
 968 0046 D0E90021 		ldrd	r2, r1, [r0]
 969 004a D368     		ldr	r3, [r2, #12]
 970 004c B1F1804F 		cmp	r1, #1073741824
 971 0050 43F00103 		orr	r3, r3, #1
 972 0054 D360     		str	r3, [r2, #12]
 973 0056 04D0     		beq	.L213
 974 0058 2846     		mov	r0, r5
 975 005a 03B0     		add	sp, sp, #12
 976              		@ sp needed
 977 005c F0BD     		pop	{r4, r5, r6, r7, pc}
 978              	.L205:
 979 005e 0120     		movs	r0, #1
 980 0060 7047     		bx	lr
 981              	.L213:
 982 0062 D368     		ldr	r3, [r2, #12]
 983 0064 2846     		mov	r0, r5
 984 0066 43F48033 		orr	r3, r3, #65536
 985 006a D360     		str	r3, [r2, #12]
 986 006c 03B0     		add	sp, sp, #12
 987              		@ sp needed
 988 006e F0BD     		pop	{r4, r5, r6, r7, pc}
 989              	.L206:
 990 0070 0220     		movs	r0, #2
 991 0072 03B0     		add	sp, sp, #12
 992              		@ sp needed
ARM GAS  C:\Users\Brandon\AppData\Local\Temp\cclgig91.s 			page 18


 993 0074 F0BD     		pop	{r4, r5, r6, r7, pc}
 995              		.section	.text.HAL_MDMA_Start_IT,"ax",%progbits
 996              		.align	1
 997              		.p2align 2,,3
 998              		.global	HAL_MDMA_Start_IT
 999              		.syntax unified
 1000              		.thumb
 1001              		.thumb_func
 1002              		.fpu fpv5-d16
 1004              	HAL_MDMA_Start_IT:
 1005              		@ args = 4, pretend = 0, frame = 0
 1006              		@ frame_needed = 0, uses_anonymous_args = 0
 1007 0000 0028     		cmp	r0, #0
 1008 0002 43D0     		beq	.L220
 1009 0004 F0B5     		push	{r4, r5, r6, r7, lr}
 1010 0006 90F83C50 		ldrb	r5, [r0, #60]	@ zero_extendqisi2
 1011 000a 83B0     		sub	sp, sp, #12
 1012 000c 0446     		mov	r4, r0
 1013 000e 012D     		cmp	r5, #1
 1014 0010 45D0     		beq	.L221
 1015 0012 0126     		movs	r6, #1
 1016 0014 90F83D50 		ldrb	r5, [r0, #61]	@ zero_extendqisi2
 1017 0018 B542     		cmp	r5, r6
 1018 001a 80F83C60 		strb	r6, [r0, #60]
 1019 001e 05D0     		beq	.L236
 1020 0020 0023     		movs	r3, #0
 1021 0022 0220     		movs	r0, #2
 1022 0024 84F83C30 		strb	r3, [r4, #60]
 1023 0028 03B0     		add	sp, sp, #12
 1024              		@ sp needed
 1025 002a F0BD     		pop	{r4, r5, r6, r7, pc}
 1026              	.L236:
 1027 002c 0668     		ldr	r6, [r0]
 1028 002e 0025     		movs	r5, #0
 1029 0030 0227     		movs	r7, #2
 1030 0032 80F83D70 		strb	r7, [r0, #61]
 1031 0036 8566     		str	r5, [r0, #104]
 1032 0038 F568     		ldr	r5, [r6, #12]
 1033 003a 25F00105 		bic	r5, r5, #1
 1034 003e F560     		str	r5, [r6, #12]
 1035 0040 089D     		ldr	r5, [sp, #32]
 1036 0042 0095     		str	r5, [sp]
 1037 0044 FFF7FEFF 		bl	MDMA_SetConfig
 1038 0048 0368     		ldr	r3, [r0]
 1039 004a C16C     		ldr	r1, [r0, #76]
 1040 004c DA68     		ldr	r2, [r3, #12]
 1041 004e 42F00602 		orr	r2, r2, #6
 1042 0052 DA60     		str	r2, [r3, #12]
 1043 0054 19B1     		cbz	r1, .L217
 1044 0056 DA68     		ldr	r2, [r3, #12]
 1045 0058 42F01002 		orr	r2, r2, #16
 1046 005c DA60     		str	r2, [r3, #12]
 1047              	.L217:
 1048 005e 226D     		ldr	r2, [r4, #80]
 1049 0060 1AB1     		cbz	r2, .L218
 1050 0062 DA68     		ldr	r2, [r3, #12]
 1051 0064 42F00802 		orr	r2, r2, #8
ARM GAS  C:\Users\Brandon\AppData\Local\Temp\cclgig91.s 			page 19


 1052 0068 DA60     		str	r2, [r3, #12]
 1053              	.L218:
 1054 006a A26C     		ldr	r2, [r4, #72]
 1055 006c 1AB1     		cbz	r2, .L219
 1056 006e DA68     		ldr	r2, [r3, #12]
 1057 0070 42F02002 		orr	r2, r2, #32
 1058 0074 DA60     		str	r2, [r3, #12]
 1059              	.L219:
 1060 0076 DA68     		ldr	r2, [r3, #12]
 1061 0078 6168     		ldr	r1, [r4, #4]
 1062 007a 42F00102 		orr	r2, r2, #1
 1063 007e B1F1804F 		cmp	r1, #1073741824
 1064 0082 DA60     		str	r2, [r3, #12]
 1065 0084 04D0     		beq	.L237
 1066 0086 0020     		movs	r0, #0
 1067 0088 03B0     		add	sp, sp, #12
 1068              		@ sp needed
 1069 008a F0BD     		pop	{r4, r5, r6, r7, pc}
 1070              	.L220:
 1071 008c 0120     		movs	r0, #1
 1072 008e 7047     		bx	lr
 1073              	.L237:
 1074 0090 DA68     		ldr	r2, [r3, #12]
 1075 0092 0020     		movs	r0, #0
 1076 0094 42F48032 		orr	r2, r2, #65536
 1077 0098 DA60     		str	r2, [r3, #12]
 1078 009a 03B0     		add	sp, sp, #12
 1079              		@ sp needed
 1080 009c F0BD     		pop	{r4, r5, r6, r7, pc}
 1081              	.L221:
 1082 009e 0220     		movs	r0, #2
 1083 00a0 03B0     		add	sp, sp, #12
 1084              		@ sp needed
 1085 00a2 F0BD     		pop	{r4, r5, r6, r7, pc}
 1087              		.section	.text.HAL_MDMA_Abort,"ax",%progbits
 1088              		.align	1
 1089              		.p2align 2,,3
 1090              		.global	HAL_MDMA_Abort
 1091              		.syntax unified
 1092              		.thumb
 1093              		.thumb_func
 1094              		.fpu fpv5-d16
 1096              	HAL_MDMA_Abort:
 1097              		@ args = 0, pretend = 0, frame = 0
 1098              		@ frame_needed = 0, uses_anonymous_args = 0
 1099 0000 38B5     		push	{r3, r4, r5, lr}
 1100 0002 0446     		mov	r4, r0
 1101 0004 FFF7FEFF 		bl	HAL_GetTick
 1102 0008 A4B3     		cbz	r4, .L244
 1103 000a 94F83D30 		ldrb	r3, [r4, #61]	@ zero_extendqisi2
 1104 000e 022B     		cmp	r3, #2
 1105 0010 1DD1     		bne	.L246
 1106 0012 2268     		ldr	r2, [r4]
 1107 0014 0546     		mov	r5, r0
 1108 0016 D368     		ldr	r3, [r2, #12]
 1109 0018 23F03E03 		bic	r3, r3, #62
 1110 001c D360     		str	r3, [r2, #12]
ARM GAS  C:\Users\Brandon\AppData\Local\Temp\cclgig91.s 			page 20


 1111 001e D368     		ldr	r3, [r2, #12]
 1112 0020 23F00103 		bic	r3, r3, #1
 1113 0024 D360     		str	r3, [r2, #12]
 1114 0026 05E0     		b	.L241
 1115              	.L243:
 1116 0028 FFF7FEFF 		bl	HAL_GetTick
 1117 002c 431B     		subs	r3, r0, r5
 1118 002e 052B     		cmp	r3, #5
 1119 0030 14D8     		bhi	.L247
 1120 0032 2268     		ldr	r2, [r4]
 1121              	.L241:
 1122 0034 D368     		ldr	r3, [r2, #12]
 1123 0036 13F00103 		ands	r3, r3, #1
 1124 003a F5D1     		bne	.L243
 1125 003c 1F25     		movs	r5, #31
 1126 003e 0121     		movs	r1, #1
 1127 0040 1846     		mov	r0, r3
 1128 0042 5560     		str	r5, [r2, #4]
 1129 0044 84F83C30 		strb	r3, [r4, #60]
 1130 0048 84F83D10 		strb	r1, [r4, #61]
 1131 004c 38BD     		pop	{r3, r4, r5, pc}
 1132              	.L246:
 1133 004e 8022     		movs	r2, #128
 1134 0050 0023     		movs	r3, #0
 1135 0052 0120     		movs	r0, #1
 1136 0054 A266     		str	r2, [r4, #104]
 1137 0056 84F83C30 		strb	r3, [r4, #60]
 1138 005a 38BD     		pop	{r3, r4, r5, pc}
 1139              	.L247:
 1140 005c A36E     		ldr	r3, [r4, #104]
 1141 005e 0021     		movs	r1, #0
 1142 0060 0322     		movs	r2, #3
 1143 0062 0120     		movs	r0, #1
 1144 0064 43F04003 		orr	r3, r3, #64
 1145 0068 84F83C10 		strb	r1, [r4, #60]
 1146 006c A366     		str	r3, [r4, #104]
 1147 006e 84F83D20 		strb	r2, [r4, #61]
 1148 0072 38BD     		pop	{r3, r4, r5, pc}
 1149              	.L244:
 1150 0074 0120     		movs	r0, #1
 1151 0076 38BD     		pop	{r3, r4, r5, pc}
 1153              		.section	.text.HAL_MDMA_Abort_IT,"ax",%progbits
 1154              		.align	1
 1155              		.p2align 2,,3
 1156              		.global	HAL_MDMA_Abort_IT
 1157              		.syntax unified
 1158              		.thumb
 1159              		.thumb_func
 1160              		.fpu fpv5-d16
 1162              	HAL_MDMA_Abort_IT:
 1163              		@ args = 0, pretend = 0, frame = 0
 1164              		@ frame_needed = 0, uses_anonymous_args = 0
 1165              		@ link register save eliminated.
 1166 0000 0346     		mov	r3, r0
 1167 0002 88B1     		cbz	r0, .L251
 1168 0004 90F83D20 		ldrb	r2, [r0, #61]	@ zero_extendqisi2
 1169 0008 022A     		cmp	r2, #2
ARM GAS  C:\Users\Brandon\AppData\Local\Temp\cclgig91.s 			page 21


 1170 000a 03D0     		beq	.L250
 1171 000c 8022     		movs	r2, #128
 1172 000e 0120     		movs	r0, #1
 1173 0010 9A66     		str	r2, [r3, #104]
 1174 0012 7047     		bx	lr
 1175              	.L250:
 1176 0014 0268     		ldr	r2, [r0]
 1177 0016 0421     		movs	r1, #4
 1178 0018 0020     		movs	r0, #0
 1179 001a 83F83D10 		strb	r1, [r3, #61]
 1180 001e D368     		ldr	r3, [r2, #12]
 1181 0020 23F00103 		bic	r3, r3, #1
 1182 0024 D360     		str	r3, [r2, #12]
 1183 0026 7047     		bx	lr
 1184              	.L251:
 1185 0028 0120     		movs	r0, #1
 1186 002a 7047     		bx	lr
 1188              		.section	.text.HAL_MDMA_PollForTransfer,"ax",%progbits
 1189              		.align	1
 1190              		.p2align 2,,3
 1191              		.global	HAL_MDMA_PollForTransfer
 1192              		.syntax unified
 1193              		.thumb
 1194              		.thumb_func
 1195              		.fpu fpv5-d16
 1197              	HAL_MDMA_PollForTransfer:
 1198              		@ args = 0, pretend = 0, frame = 0
 1199              		@ frame_needed = 0, uses_anonymous_args = 0
 1200 0000 0028     		cmp	r0, #0
 1201 0002 79D0     		beq	.L296
 1202 0004 2DE9F843 		push	{r3, r4, r5, r6, r7, r8, r9, lr}
 1203 0008 90F83D30 		ldrb	r3, [r0, #61]	@ zero_extendqisi2
 1204 000c 0746     		mov	r7, r0
 1205 000e 022B     		cmp	r3, #2
 1206 0010 DEB2     		uxtb	r6, r3
 1207 0012 04D0     		beq	.L255
 1208 0014 8023     		movs	r3, #128
 1209 0016 0120     		movs	r0, #1
 1210 0018 BB66     		str	r3, [r7, #104]
 1211              	.L254:
 1212 001a BDE8F883 		pop	{r3, r4, r5, r6, r7, r8, r9, pc}
 1213              	.L255:
 1214 001e 8846     		mov	r8, r1
 1215 0020 1546     		mov	r5, r2
 1216 0022 29B1     		cbz	r1, .L256
 1217 0024 0129     		cmp	r1, #1
 1218 0026 25D0     		beq	.L273
 1219 0028 0229     		cmp	r1, #2
 1220 002a 0CBF     		ite	eq
 1221 002c 0826     		moveq	r6, #8
 1222 002e 0426     		movne	r6, #4
 1223              	.L256:
 1224 0030 FFF7FEFF 		bl	HAL_GetTick
 1225 0034 8146     		mov	r9, r0
 1226              	.L257:
 1227 0036 3B68     		ldr	r3, [r7]
 1228 0038 04E0     		b	.L265
ARM GAS  C:\Users\Brandon\AppData\Local\Temp\cclgig91.s 			page 22


 1229              	.L267:
 1230 003a 1C68     		ldr	r4, [r3]
 1231 003c E207     		lsls	r2, r4, #31
 1232 003e 1FD4     		bmi	.L297
 1233 0040 6A1C     		adds	r2, r5, #1
 1234 0042 44D1     		bne	.L298
 1235              	.L265:
 1236 0044 1C68     		ldr	r4, [r3]
 1237 0046 3442     		tst	r4, r6
 1238 0048 F7D0     		beq	.L267
 1239 004a B8F1010F 		cmp	r8, #1
 1240 004e 13D0     		beq	.L299
 1241 0050 B8F1020F 		cmp	r8, #2
 1242 0054 4CD0     		beq	.L300
 1243 0056 B8F1030F 		cmp	r8, #3
 1244 005a 4FD0     		beq	.L301
 1245 005c B8F1000F 		cmp	r8, #0
 1246 0060 32D1     		bne	.L295
 1247 0062 1E21     		movs	r1, #30
 1248 0064 0122     		movs	r2, #1
 1249 0066 4046     		mov	r0, r8
 1250 0068 5960     		str	r1, [r3, #4]
 1251 006a 87F83C80 		strb	r8, [r7, #60]
 1252 006e 87F83D20 		strb	r2, [r7, #61]
 1253 0072 D2E7     		b	.L254
 1254              	.L273:
 1255 0074 1026     		movs	r6, #16
 1256 0076 DBE7     		b	.L256
 1257              	.L299:
 1258 0078 1022     		movs	r2, #16
 1259 007a 0020     		movs	r0, #0
 1260 007c 5A60     		str	r2, [r3, #4]
 1261 007e CCE7     		b	.L254
 1262              	.L297:
 1263 0080 9B68     		ldr	r3, [r3, #8]
 1264 0082 BA6E     		ldr	r2, [r7, #104]
 1265 0084 1E06     		lsls	r6, r3, #24
 1266 0086 54BF     		ite	pl
 1267 0088 42F00102 		orrpl	r2, r2, #1
 1268 008c 42F00202 		orrmi	r2, r2, #2
 1269 0090 9D05     		lsls	r5, r3, #22
 1270 0092 BA66     		str	r2, [r7, #104]
 1271 0094 03D5     		bpl	.L261
 1272 0096 BA6E     		ldr	r2, [r7, #104]
 1273 0098 42F00402 		orr	r2, r2, #4
 1274 009c BA66     		str	r2, [r7, #104]
 1275              	.L261:
 1276 009e DC05     		lsls	r4, r3, #23
 1277 00a0 03D5     		bpl	.L262
 1278 00a2 BA6E     		ldr	r2, [r7, #104]
 1279 00a4 42F00802 		orr	r2, r2, #8
 1280 00a8 BA66     		str	r2, [r7, #104]
 1281              	.L262:
 1282 00aa 5805     		lsls	r0, r3, #21
 1283 00ac 03D5     		bpl	.L263
 1284 00ae BA6E     		ldr	r2, [r7, #104]
 1285 00b0 42F01002 		orr	r2, r2, #16
ARM GAS  C:\Users\Brandon\AppData\Local\Temp\cclgig91.s 			page 23


 1286 00b4 BA66     		str	r2, [r7, #104]
 1287              	.L263:
 1288 00b6 1905     		lsls	r1, r3, #20
 1289 00b8 03D5     		bpl	.L264
 1290 00ba BB6E     		ldr	r3, [r7, #104]
 1291 00bc 43F02003 		orr	r3, r3, #32
 1292 00c0 BB66     		str	r3, [r7, #104]
 1293              	.L264:
 1294 00c2 3846     		mov	r0, r7
 1295 00c4 FFF7FEFF 		bl	HAL_MDMA_Abort
 1296              	.L295:
 1297 00c8 0120     		movs	r0, #1
 1298 00ca BDE8F883 		pop	{r3, r4, r5, r6, r7, r8, r9, pc}
 1299              	.L298:
 1300 00ce FFF7FEFF 		bl	HAL_GetTick
 1301 00d2 A0EB0900 		sub	r0, r0, r9
 1302 00d6 A842     		cmp	r0, r5
 1303 00d8 01D8     		bhi	.L275
 1304 00da 002D     		cmp	r5, #0
 1305 00dc ABD1     		bne	.L257
 1306              	.L275:
 1307 00de BB6E     		ldr	r3, [r7, #104]
 1308 00e0 3846     		mov	r0, r7
 1309 00e2 43F04003 		orr	r3, r3, #64
 1310 00e6 BB66     		str	r3, [r7, #104]
 1311 00e8 FFF7FEFF 		bl	HAL_MDMA_Abort
 1312 00ec 0120     		movs	r0, #1
 1313 00ee 94E7     		b	.L254
 1314              	.L300:
 1315 00f0 1822     		movs	r2, #24
 1316 00f2 0020     		movs	r0, #0
 1317 00f4 5A60     		str	r2, [r3, #4]
 1318 00f6 90E7     		b	.L254
 1319              	.L296:
 1320 00f8 0120     		movs	r0, #1
 1321 00fa 7047     		bx	lr
 1322              	.L301:
 1323 00fc 1C22     		movs	r2, #28
 1324 00fe 0020     		movs	r0, #0
 1325 0100 5A60     		str	r2, [r3, #4]
 1326 0102 8AE7     		b	.L254
 1328              		.section	.text.HAL_MDMA_GenerateSWRequest,"ax",%progbits
 1329              		.align	1
 1330              		.p2align 2,,3
 1331              		.global	HAL_MDMA_GenerateSWRequest
 1332              		.syntax unified
 1333              		.thumb
 1334              		.thumb_func
 1335              		.fpu fpv5-d16
 1337              	HAL_MDMA_GenerateSWRequest:
 1338              		@ args = 0, pretend = 0, frame = 0
 1339              		@ frame_needed = 0, uses_anonymous_args = 0
 1340              		@ link register save eliminated.
 1341 0000 0346     		mov	r3, r0
 1342 0002 C8B1     		cbz	r0, .L307
 1343 0004 0268     		ldr	r2, [r0]
 1344 0006 1069     		ldr	r0, [r2, #16]
ARM GAS  C:\Users\Brandon\AppData\Local\Temp\cclgig91.s 			page 24


 1345 0008 D168     		ldr	r1, [r2, #12]
 1346 000a C907     		lsls	r1, r1, #31
 1347 000c 0BD5     		bpl	.L309
 1348 000e 4000     		lsls	r0, r0, #1
 1349 0010 1168     		ldr	r1, [r2]
 1350 0012 03D5     		bpl	.L308
 1351 0014 C1F30040 		ubfx	r0, r1, #16, #1
 1352 0018 C903     		lsls	r1, r1, #15
 1353 001a 08D5     		bpl	.L305
 1354              	.L308:
 1355 001c 4FF48072 		mov	r2, #256
 1356 0020 0120     		movs	r0, #1
 1357 0022 9A66     		str	r2, [r3, #104]
 1358 0024 7047     		bx	lr
 1359              	.L309:
 1360 0026 8022     		movs	r2, #128
 1361 0028 0120     		movs	r0, #1
 1362 002a 9A66     		str	r2, [r3, #104]
 1363 002c 7047     		bx	lr
 1364              	.L305:
 1365 002e D368     		ldr	r3, [r2, #12]
 1366 0030 43F48033 		orr	r3, r3, #65536
 1367 0034 D360     		str	r3, [r2, #12]
 1368 0036 7047     		bx	lr
 1369              	.L307:
 1370 0038 0120     		movs	r0, #1
 1371 003a 7047     		bx	lr
 1373              		.section	.text.HAL_MDMA_IRQHandler,"ax",%progbits
 1374              		.align	1
 1375              		.p2align 2,,3
 1376              		.global	HAL_MDMA_IRQHandler
 1377              		.syntax unified
 1378              		.thumb
 1379              		.thumb_func
 1380              		.fpu fpv5-d16
 1382              	HAL_MDMA_IRQHandler:
 1383              		@ args = 0, pretend = 0, frame = 8
 1384              		@ frame_needed = 0, uses_anonymous_args = 0
 1385 0000 70B5     		push	{r4, r5, r6, lr}
 1386 0002 0023     		movs	r3, #0
 1387 0004 0446     		mov	r4, r0
 1388 0006 82B0     		sub	sp, sp, #8
 1389 0008 594A     		ldr	r2, .L397
 1390 000a 0121     		movs	r1, #1
 1391 000c 4FF0A440 		mov	r0, #1375731712
 1392 0010 0193     		str	r3, [sp, #4]
 1393 0012 2368     		ldr	r3, [r4]
 1394 0014 0068     		ldr	r0, [r0]
 1395 0016 1A44     		add	r2, r2, r3
 1396 0018 C2F38412 		ubfx	r2, r2, #6, #5
 1397 001c 01FA02F2 		lsl	r2, r1, r2
 1398 0020 0242     		tst	r2, r0
 1399 0022 00F0A280 		beq	.L310
 1400 0026 1A68     		ldr	r2, [r3]
 1401 0028 5249     		ldr	r1, .L397+4
 1402 002a D207     		lsls	r2, r2, #31
 1403 002c 0D68     		ldr	r5, [r1]
ARM GAS  C:\Users\Brandon\AppData\Local\Temp\cclgig91.s 			page 25


 1404 002e 29D5     		bpl	.L313
 1405 0030 DA68     		ldr	r2, [r3, #12]
 1406 0032 9607     		lsls	r6, r2, #30
 1407 0034 26D5     		bpl	.L313
 1408 0036 DA68     		ldr	r2, [r3, #12]
 1409 0038 22F00202 		bic	r2, r2, #2
 1410 003c DA60     		str	r2, [r3, #12]
 1411 003e 9A68     		ldr	r2, [r3, #8]
 1412 0040 A16E     		ldr	r1, [r4, #104]
 1413 0042 1006     		lsls	r0, r2, #24
 1414 0044 54BF     		ite	pl
 1415 0046 41F00101 		orrpl	r1, r1, #1
 1416 004a 41F00201 		orrmi	r1, r1, #2
 1417 004e 9605     		lsls	r6, r2, #22
 1418 0050 A166     		str	r1, [r4, #104]
 1419 0052 03D5     		bpl	.L316
 1420 0054 A16E     		ldr	r1, [r4, #104]
 1421 0056 41F00401 		orr	r1, r1, #4
 1422 005a A166     		str	r1, [r4, #104]
 1423              	.L316:
 1424 005c D005     		lsls	r0, r2, #23
 1425 005e 03D5     		bpl	.L317
 1426 0060 A16E     		ldr	r1, [r4, #104]
 1427 0062 41F00801 		orr	r1, r1, #8
 1428 0066 A166     		str	r1, [r4, #104]
 1429              	.L317:
 1430 0068 5105     		lsls	r1, r2, #21
 1431 006a 03D5     		bpl	.L318
 1432 006c A16E     		ldr	r1, [r4, #104]
 1433 006e 41F01001 		orr	r1, r1, #16
 1434 0072 A166     		str	r1, [r4, #104]
 1435              	.L318:
 1436 0074 1605     		lsls	r6, r2, #20
 1437 0076 03D5     		bpl	.L319
 1438 0078 A26E     		ldr	r2, [r4, #104]
 1439 007a 42F02002 		orr	r2, r2, #32
 1440 007e A266     		str	r2, [r4, #104]
 1441              	.L319:
 1442 0080 0122     		movs	r2, #1
 1443 0082 5A60     		str	r2, [r3, #4]
 1444              	.L313:
 1445 0084 1A68     		ldr	r2, [r3]
 1446 0086 D006     		lsls	r0, r2, #27
 1447 0088 09D5     		bpl	.L320
 1448 008a DA68     		ldr	r2, [r3, #12]
 1449 008c 9106     		lsls	r1, r2, #26
 1450 008e 06D5     		bpl	.L320
 1451 0090 1021     		movs	r1, #16
 1452 0092 A26C     		ldr	r2, [r4, #72]
 1453 0094 5960     		str	r1, [r3, #4]
 1454 0096 12B1     		cbz	r2, .L320
 1455 0098 2046     		mov	r0, r4
 1456 009a 9047     		blx	r2
 1457 009c 2368     		ldr	r3, [r4]
 1458              	.L320:
 1459 009e 1A68     		ldr	r2, [r3]
 1460 00a0 1207     		lsls	r2, r2, #28
ARM GAS  C:\Users\Brandon\AppData\Local\Temp\cclgig91.s 			page 26


 1461 00a2 09D5     		bpl	.L321
 1462 00a4 DA68     		ldr	r2, [r3, #12]
 1463 00a6 D606     		lsls	r6, r2, #27
 1464 00a8 06D5     		bpl	.L321
 1465 00aa 0821     		movs	r1, #8
 1466 00ac E26C     		ldr	r2, [r4, #76]
 1467 00ae 5960     		str	r1, [r3, #4]
 1468 00b0 12B1     		cbz	r2, .L321
 1469 00b2 2046     		mov	r0, r4
 1470 00b4 9047     		blx	r2
 1471 00b6 2368     		ldr	r3, [r4]
 1472              	.L321:
 1473 00b8 1A68     		ldr	r2, [r3]
 1474 00ba 5007     		lsls	r0, r2, #29
 1475 00bc 09D5     		bpl	.L322
 1476 00be DA68     		ldr	r2, [r3, #12]
 1477 00c0 1107     		lsls	r1, r2, #28
 1478 00c2 06D5     		bpl	.L322
 1479 00c4 0421     		movs	r1, #4
 1480 00c6 226D     		ldr	r2, [r4, #80]
 1481 00c8 5960     		str	r1, [r3, #4]
 1482 00ca 12B1     		cbz	r2, .L322
 1483 00cc 2046     		mov	r0, r4
 1484 00ce 9047     		blx	r2
 1485 00d0 2368     		ldr	r3, [r4]
 1486              	.L322:
 1487 00d2 1A68     		ldr	r2, [r3]
 1488 00d4 9207     		lsls	r2, r2, #30
 1489 00d6 16D5     		bpl	.L324
 1490 00d8 DA68     		ldr	r2, [r3, #12]
 1491 00da 5607     		lsls	r6, r2, #29
 1492 00dc 13D5     		bpl	.L324
 1493 00de DA68     		ldr	r2, [r3, #12]
 1494 00e0 22F03E02 		bic	r2, r2, #62
 1495 00e4 DA60     		str	r2, [r3, #12]
 1496 00e6 94F83D20 		ldrb	r2, [r4, #61]	@ zero_extendqisi2
 1497 00ea 042A     		cmp	r2, #4
 1498 00ec 34D0     		beq	.L395
 1499 00ee 0226     		movs	r6, #2
 1500 00f0 0020     		movs	r0, #0
 1501 00f2 0121     		movs	r1, #1
 1502 00f4 626C     		ldr	r2, [r4, #68]
 1503 00f6 5E60     		str	r6, [r3, #4]
 1504 00f8 84F83C00 		strb	r0, [r4, #60]
 1505 00fc 84F83D10 		strb	r1, [r4, #61]
 1506 0100 0AB1     		cbz	r2, .L324
 1507 0102 2046     		mov	r0, r4
 1508 0104 9047     		blx	r2
 1509              	.L324:
 1510 0106 A36E     		ldr	r3, [r4, #104]
 1511 0108 002B     		cmp	r3, #0
 1512 010a 2ED0     		beq	.L310
 1513 010c 0423     		movs	r3, #4
 1514 010e 2168     		ldr	r1, [r4]
 1515 0110 194A     		ldr	r2, .L397+8
 1516 0112 84F83D30 		strb	r3, [r4, #61]
 1517 0116 A2FB0532 		umull	r3, r2, r2, r5
ARM GAS  C:\Users\Brandon\AppData\Local\Temp\cclgig91.s 			page 27


 1518 011a CB68     		ldr	r3, [r1, #12]
 1519 011c 23F00103 		bic	r3, r3, #1
 1520 0120 920A     		lsrs	r2, r2, #10
 1521 0122 CB60     		str	r3, [r1, #12]
 1522 0124 02E0     		b	.L329
 1523              	.L396:
 1524 0126 CB68     		ldr	r3, [r1, #12]
 1525 0128 D807     		lsls	r0, r3, #31
 1526 012a 04D5     		bpl	.L328
 1527              	.L329:
 1528 012c 019B     		ldr	r3, [sp, #4]
 1529 012e 0133     		adds	r3, r3, #1
 1530 0130 9342     		cmp	r3, r2
 1531 0132 0193     		str	r3, [sp, #4]
 1532 0134 F7D9     		bls	.L396
 1533              	.L328:
 1534 0136 0023     		movs	r3, #0
 1535 0138 84F83C30 		strb	r3, [r4, #60]
 1536 013c CB68     		ldr	r3, [r1, #12]
 1537 013e DB07     		lsls	r3, r3, #31
 1538 0140 4CBF     		ite	mi
 1539 0142 0323     		movmi	r3, #3
 1540 0144 0123     		movpl	r3, #1
 1541 0146 84F83D30 		strb	r3, [r4, #61]
 1542 014a 636D     		ldr	r3, [r4, #84]
 1543 014c 6BB1     		cbz	r3, .L310
 1544              	.L394:
 1545 014e 2046     		mov	r0, r4
 1546 0150 02B0     		add	sp, sp, #8
 1547              		@ sp needed
 1548 0152 BDE87040 		pop	{r4, r5, r6, lr}
 1549 0156 1847     		bx	r3	@ indirect register sibling call
 1550              	.L395:
 1551 0158 0021     		movs	r1, #0
 1552 015a 0122     		movs	r2, #1
 1553 015c A36D     		ldr	r3, [r4, #88]
 1554 015e 84F83C10 		strb	r1, [r4, #60]
 1555 0162 84F83D20 		strb	r2, [r4, #61]
 1556 0166 002B     		cmp	r3, #0
 1557 0168 F1D1     		bne	.L394
 1558              	.L310:
 1559 016a 02B0     		add	sp, sp, #8
 1560              		@ sp needed
 1561 016c 70BD     		pop	{r4, r5, r6, pc}
 1562              	.L398:
 1563 016e 00BF     		.align	2
 1564              	.L397:
 1565 0170 C0FFFFAD 		.word	-1375731776
 1566 0174 00000000 		.word	SystemCoreClock
 1567 0178 B5814E1B 		.word	458129845
 1569              		.section	.text.HAL_MDMA_GetState,"ax",%progbits
 1570              		.align	1
 1571              		.p2align 2,,3
 1572              		.global	HAL_MDMA_GetState
 1573              		.syntax unified
 1574              		.thumb
 1575              		.thumb_func
ARM GAS  C:\Users\Brandon\AppData\Local\Temp\cclgig91.s 			page 28


 1576              		.fpu fpv5-d16
 1578              	HAL_MDMA_GetState:
 1579              		@ args = 0, pretend = 0, frame = 0
 1580              		@ frame_needed = 0, uses_anonymous_args = 0
 1581              		@ link register save eliminated.
 1582 0000 90F83D00 		ldrb	r0, [r0, #61]	@ zero_extendqisi2
 1583 0004 7047     		bx	lr
 1585 0006 00BF     		.section	.text.HAL_MDMA_GetError,"ax",%progbits
 1586              		.align	1
 1587              		.p2align 2,,3
 1588              		.global	HAL_MDMA_GetError
 1589              		.syntax unified
 1590              		.thumb
 1591              		.thumb_func
 1592              		.fpu fpv5-d16
 1594              	HAL_MDMA_GetError:
 1595              		@ args = 0, pretend = 0, frame = 0
 1596              		@ frame_needed = 0, uses_anonymous_args = 0
 1597              		@ link register save eliminated.
 1598 0000 806E     		ldr	r0, [r0, #104]
 1599 0002 7047     		bx	lr
 1601              		.ident	"GCC: (GNU Arm Embedded Toolchain 9-2020-q2-update) 9.3.1 20200408 (release)"
ARM GAS  C:\Users\Brandon\AppData\Local\Temp\cclgig91.s 			page 29

