ARM GAS  C:\Users\Brandon\AppData\Local\Temp\ccpsOax0.s 			page 1


   1              		.cpu cortex-m7
   2              		.eabi_attribute 28, 1
   3              		.eabi_attribute 20, 1
   4              		.eabi_attribute 21, 1
   5              		.eabi_attribute 23, 3
   6              		.eabi_attribute 24, 1
   7              		.eabi_attribute 25, 1
   8              		.eabi_attribute 26, 1
   9              		.eabi_attribute 30, 2
  10              		.eabi_attribute 34, 1
  11              		.eabi_attribute 18, 4
  12              		.file	"stm32h7xx_hal_rcc.c"
  13              		.text
  14              		.section	.text.HAL_RCC_DeInit,"ax",%progbits
  15              		.align	1
  16              		.p2align 2,,3
  17              		.global	HAL_RCC_DeInit
  18              		.arch armv7e-m
  19              		.syntax unified
  20              		.thumb
  21              		.thumb_func
  22              		.fpu fpv5-d16
  24              	HAL_RCC_DeInit:
  25              		@ args = 0, pretend = 0, frame = 0
  26              		@ frame_needed = 0, uses_anonymous_args = 0
  27 0000 5E4A     		ldr	r2, .L29
  28 0002 F8B5     		push	{r3, r4, r5, r6, r7, lr}
  29 0004 1368     		ldr	r3, [r2]
  30 0006 03F00F03 		and	r3, r3, #15
  31 000a 062B     		cmp	r3, #6
  32 000c 0AD8     		bhi	.L4
  33 000e 1368     		ldr	r3, [r2]
  34 0010 23F00F03 		bic	r3, r3, #15
  35 0014 43F00703 		orr	r3, r3, #7
  36 0018 1360     		str	r3, [r2]
  37 001a 1368     		ldr	r3, [r2]
  38 001c 03F00F03 		and	r3, r3, #15
  39 0020 072B     		cmp	r3, #7
  40 0022 22D1     		bne	.L7
  41              	.L4:
  42 0024 FFF7FEFF 		bl	HAL_GetTick
  43 0028 554B     		ldr	r3, .L29+4
  44 002a 0546     		mov	r5, r0
  45 002c 1A68     		ldr	r2, [r3]
  46 002e 1C46     		mov	r4, r3
  47 0030 42F00102 		orr	r2, r2, #1
  48 0034 1A60     		str	r2, [r3]
  49 0036 04E0     		b	.L3
  50              	.L6:
  51 0038 FFF7FEFF 		bl	HAL_GetTick
  52 003c 401B     		subs	r0, r0, r5
  53 003e 0228     		cmp	r0, #2
  54 0040 16D8     		bhi	.L9
  55              	.L3:
  56 0042 2368     		ldr	r3, [r4]
  57 0044 5E07     		lsls	r6, r3, #29
  58 0046 F7D5     		bpl	.L6
ARM GAS  C:\Users\Brandon\AppData\Local\Temp\ccpsOax0.s 			page 2


  59 0048 6368     		ldr	r3, [r4, #4]
  60 004a 0025     		movs	r5, #0
  61 004c 4D48     		ldr	r0, .L29+8
  62 004e 43F08043 		orr	r3, r3, #1073741824
  63 0052 4D4A     		ldr	r2, .L29+12
  64 0054 4D49     		ldr	r1, .L29+16
  65 0056 6360     		str	r3, [r4, #4]
  66 0058 4D4B     		ldr	r3, .L29+20
  67 005a 2561     		str	r5, [r4, #16]
  68 005c 0068     		ldr	r0, [r0]
  69 005e 0A60     		str	r2, [r1]
  70 0060 1A60     		str	r2, [r3]
  71 0062 FFF7FEFF 		bl	HAL_InitTick
  72 0066 0446     		mov	r4, r0
  73 0068 28B1     		cbz	r0, .L28
  74              	.L7:
  75 006a 0124     		movs	r4, #1
  76              	.L5:
  77 006c 2046     		mov	r0, r4
  78 006e F8BD     		pop	{r3, r4, r5, r6, r7, pc}
  79              	.L9:
  80 0070 0324     		movs	r4, #3
  81 0072 2046     		mov	r0, r4
  82 0074 F8BD     		pop	{r3, r4, r5, r6, r7, pc}
  83              	.L28:
  84 0076 FFF7FEFF 		bl	HAL_GetTick
  85 007a 414E     		ldr	r6, .L29+4
  86 007c 41F28837 		movw	r7, #5000
  87 0080 0546     		mov	r5, r0
  88 0082 04E0     		b	.L8
  89              	.L10:
  90 0084 FFF7FEFF 		bl	HAL_GetTick
  91 0088 431B     		subs	r3, r0, r5
  92 008a BB42     		cmp	r3, r7
  93 008c F0D8     		bhi	.L9
  94              	.L8:
  95 008e 3369     		ldr	r3, [r6, #16]
  96 0090 13F0380F 		tst	r3, #56
  97 0094 F6D1     		bne	.L10
  98 0096 FFF7FEFF 		bl	HAL_GetTick
  99 009a 3268     		ldr	r2, [r6]
 100 009c 3D4B     		ldr	r3, .L29+24
 101 009e 0546     		mov	r5, r0
 102 00a0 374F     		ldr	r7, .L29+4
 103 00a2 1340     		ands	r3, r3, r2
 104 00a4 3360     		str	r3, [r6]
 105 00a6 04E0     		b	.L11
 106              	.L12:
 107 00a8 FFF7FEFF 		bl	HAL_GetTick
 108 00ac 401B     		subs	r0, r0, r5
 109 00ae 6428     		cmp	r0, #100
 110 00b0 DED8     		bhi	.L9
 111              	.L11:
 112 00b2 3B68     		ldr	r3, [r7]
 113 00b4 9803     		lsls	r0, r3, #14
 114 00b6 F7D4     		bmi	.L12
 115 00b8 FFF7FEFF 		bl	HAL_GetTick
ARM GAS  C:\Users\Brandon\AppData\Local\Temp\ccpsOax0.s 			page 3


 116 00bc 3B68     		ldr	r3, [r7]
 117 00be 0546     		mov	r5, r0
 118 00c0 2F4E     		ldr	r6, .L29+4
 119 00c2 23F08073 		bic	r3, r3, #16777216
 120 00c6 3B60     		str	r3, [r7]
 121 00c8 04E0     		b	.L13
 122              	.L14:
 123 00ca FFF7FEFF 		bl	HAL_GetTick
 124 00ce 401B     		subs	r0, r0, r5
 125 00d0 0228     		cmp	r0, #2
 126 00d2 CDD8     		bhi	.L9
 127              	.L13:
 128 00d4 3368     		ldr	r3, [r6]
 129 00d6 9901     		lsls	r1, r3, #6
 130 00d8 F7D4     		bmi	.L14
 131 00da FFF7FEFF 		bl	HAL_GetTick
 132 00de 3368     		ldr	r3, [r6]
 133 00e0 0546     		mov	r5, r0
 134 00e2 274F     		ldr	r7, .L29+4
 135 00e4 23F08063 		bic	r3, r3, #67108864
 136 00e8 3360     		str	r3, [r6]
 137 00ea 04E0     		b	.L15
 138              	.L16:
 139 00ec FFF7FEFF 		bl	HAL_GetTick
 140 00f0 401B     		subs	r0, r0, r5
 141 00f2 0228     		cmp	r0, #2
 142 00f4 BCD8     		bhi	.L9
 143              	.L15:
 144 00f6 3B68     		ldr	r3, [r7]
 145 00f8 1A01     		lsls	r2, r3, #4
 146 00fa F7D4     		bmi	.L16
 147 00fc FFF7FEFF 		bl	HAL_GetTick
 148 0100 3B68     		ldr	r3, [r7]
 149 0102 0646     		mov	r6, r0
 150 0104 1E4D     		ldr	r5, .L29+4
 151 0106 23F08053 		bic	r3, r3, #268435456
 152 010a 3B60     		str	r3, [r7]
 153 010c 04E0     		b	.L17
 154              	.L18:
 155 010e FFF7FEFF 		bl	HAL_GetTick
 156 0112 801B     		subs	r0, r0, r6
 157 0114 0228     		cmp	r0, #2
 158 0116 ABD8     		bhi	.L9
 159              	.L17:
 160 0118 2B68     		ldr	r3, [r5]
 161 011a 13F00053 		ands	r3, r3, #536870912
 162 011e F6D1     		bne	.L18
 163 0120 1D4A     		ldr	r2, .L29+28
 164 0122 4FF0FF30 		mov	r0, #-1
 165 0126 1D49     		ldr	r1, .L29+32
 166 0128 1D4E     		ldr	r6, .L29+36
 167 012a AB61     		str	r3, [r5, #24]
 168 012c EB61     		str	r3, [r5, #28]
 169 012e 2B62     		str	r3, [r5, #32]
 170 0130 AE62     		str	r6, [r5, #40]
 171 0132 E962     		str	r1, [r5, #44]
 172 0134 2A63     		str	r2, [r5, #48]
ARM GAS  C:\Users\Brandon\AppData\Local\Temp\ccpsOax0.s 			page 4


 173 0136 6B63     		str	r3, [r5, #52]
 174 0138 AA63     		str	r2, [r5, #56]
 175 013a EB63     		str	r3, [r5, #60]
 176 013c 2A64     		str	r2, [r5, #64]
 177 013e 6B64     		str	r3, [r5, #68]
 178 0140 2968     		ldr	r1, [r5]
 179 0142 0E4A     		ldr	r2, .L29
 180 0144 21F48021 		bic	r1, r1, #262144
 181 0148 2960     		str	r1, [r5]
 182 014a 2B66     		str	r3, [r5, #96]
 183 014c A866     		str	r0, [r5, #104]
 184 014e D5F8D030 		ldr	r3, [r5, #208]
 185 0152 43F48033 		orr	r3, r3, #65536
 186 0156 C5F8D030 		str	r3, [r5, #208]
 187 015a 1368     		ldr	r3, [r2]
 188 015c 1B07     		lsls	r3, r3, #28
 189 015e 85D5     		bpl	.L5
 190 0160 1368     		ldr	r3, [r2]
 191 0162 23F00F03 		bic	r3, r3, #15
 192 0166 43F00703 		orr	r3, r3, #7
 193 016a 1360     		str	r3, [r2]
 194 016c 1468     		ldr	r4, [r2]
 195 016e 04F00F04 		and	r4, r4, #15
 196 0172 073C     		subs	r4, r4, #7
 197 0174 18BF     		it	ne
 198 0176 0124     		movne	r4, #1
 199 0178 78E7     		b	.L5
 200              	.L30:
 201 017a 00BF     		.align	2
 202              	.L29:
 203 017c 00200052 		.word	1375739904
 204 0180 00440258 		.word	1476543488
 205 0184 00000000 		.word	uwTickPrio
 206 0188 0090D003 		.word	64000000
 207 018c 00000000 		.word	SystemCoreClock
 208 0190 00000000 		.word	SystemD2Clock
 209 0194 45EDF6FF 		.word	-594619
 210 0198 80020101 		.word	16843392
 211 019c 0000FF01 		.word	33488896
 212 01a0 00020202 		.word	33686016
 214              		.section	.text.HAL_RCC_OscConfig,"ax",%progbits
 215              		.align	1
 216              		.p2align 2,,3
 217              		.weak	HAL_RCC_OscConfig
 218              		.syntax unified
 219              		.thumb
 220              		.thumb_func
 221              		.fpu fpv5-d16
 223              	HAL_RCC_OscConfig:
 224              		@ args = 0, pretend = 0, frame = 0
 225              		@ frame_needed = 0, uses_anonymous_args = 0
 226 0000 0028     		cmp	r0, #0
 227 0002 00F02782 		beq	.L153
 228 0006 F8B5     		push	{r3, r4, r5, r6, r7, lr}
 229 0008 0368     		ldr	r3, [r0]
 230 000a 0446     		mov	r4, r0
 231 000c D907     		lsls	r1, r3, #31
ARM GAS  C:\Users\Brandon\AppData\Local\Temp\ccpsOax0.s 			page 5


 232 000e 2ED5     		bpl	.L34
 233 0010 AD49     		ldr	r1, .L165
 234 0012 0A69     		ldr	r2, [r1, #16]
 235 0014 896A     		ldr	r1, [r1, #40]
 236 0016 02F03802 		and	r2, r2, #56
 237 001a 102A     		cmp	r2, #16
 238 001c 00F00F81 		beq	.L35
 239 0020 182A     		cmp	r2, #24
 240 0022 00F00781 		beq	.L154
 241              	.L36:
 242 0026 6368     		ldr	r3, [r4, #4]
 243 0028 B3F5803F 		cmp	r3, #65536
 244 002c 00F04681 		beq	.L155
 245 0030 002B     		cmp	r3, #0
 246 0032 00F05881 		beq	.L156
 247 0036 B3F5A02F 		cmp	r3, #327680
 248 003a A34B     		ldr	r3, .L165
 249 003c 1A68     		ldr	r2, [r3]
 250 003e 00F03982 		beq	.L157
 251 0042 22F48032 		bic	r2, r2, #65536
 252 0046 1A60     		str	r2, [r3]
 253 0048 1A68     		ldr	r2, [r3]
 254 004a 22F48022 		bic	r2, r2, #262144
 255 004e 1A60     		str	r2, [r3]
 256              	.L39:
 257 0050 FFF7FEFF 		bl	HAL_GetTick
 258 0054 9C4E     		ldr	r6, .L165
 259 0056 0546     		mov	r5, r0
 260 0058 05E0     		b	.L44
 261              	.L45:
 262 005a FFF7FEFF 		bl	HAL_GetTick
 263 005e 401B     		subs	r0, r0, r5
 264 0060 6428     		cmp	r0, #100
 265 0062 00F23E81 		bhi	.L46
 266              	.L44:
 267 0066 3368     		ldr	r3, [r6]
 268 0068 9B03     		lsls	r3, r3, #14
 269 006a F6D5     		bpl	.L45
 270              	.L150:
 271 006c 2368     		ldr	r3, [r4]
 272              	.L34:
 273 006e 9807     		lsls	r0, r3, #30
 274 0070 29D5     		bpl	.L48
 275 0072 9549     		ldr	r1, .L165
 276 0074 0A69     		ldr	r2, [r1, #16]
 277 0076 896A     		ldr	r1, [r1, #40]
 278 0078 12F03802 		ands	r2, r2, #56
 279 007c 00F0A880 		beq	.L49
 280 0080 182A     		cmp	r2, #24
 281 0082 00F0A280 		beq	.L158
 282              	.L50:
 283 0086 E268     		ldr	r2, [r4, #12]
 284 0088 002A     		cmp	r2, #0
 285 008a 00F06A81 		beq	.L52
 286 008e 8E49     		ldr	r1, .L165
 287 0090 0B68     		ldr	r3, [r1]
 288 0092 0E46     		mov	r6, r1
ARM GAS  C:\Users\Brandon\AppData\Local\Temp\ccpsOax0.s 			page 6


 289 0094 23F01903 		bic	r3, r3, #25
 290 0098 1343     		orrs	r3, r3, r2
 291 009a 0B60     		str	r3, [r1]
 292 009c FFF7FEFF 		bl	HAL_GetTick
 293 00a0 0546     		mov	r5, r0
 294 00a2 05E0     		b	.L53
 295              	.L54:
 296 00a4 FFF7FEFF 		bl	HAL_GetTick
 297 00a8 401B     		subs	r0, r0, r5
 298 00aa 0228     		cmp	r0, #2
 299 00ac 00F21981 		bhi	.L46
 300              	.L53:
 301 00b0 3368     		ldr	r3, [r6]
 302 00b2 5F07     		lsls	r7, r3, #29
 303 00b4 F6D5     		bpl	.L54
 304 00b6 7368     		ldr	r3, [r6, #4]
 305 00b8 2269     		ldr	r2, [r4, #16]
 306 00ba 23F0FE43 		bic	r3, r3, #2130706432
 307 00be 43EA0263 		orr	r3, r3, r2, lsl #24
 308 00c2 7360     		str	r3, [r6, #4]
 309 00c4 2368     		ldr	r3, [r4]
 310              	.L48:
 311 00c6 D906     		lsls	r1, r3, #27
 312 00c8 56D4     		bmi	.L159
 313              	.L57:
 314 00ca 1D07     		lsls	r5, r3, #28
 315 00cc 17D5     		bpl	.L66
 316 00ce 6369     		ldr	r3, [r4, #20]
 317 00d0 002B     		cmp	r3, #0
 318 00d2 00F08F80 		beq	.L67
 319 00d6 7C4B     		ldr	r3, .L165
 320 00d8 5A6F     		ldr	r2, [r3, #116]
 321 00da 1E46     		mov	r6, r3
 322 00dc 42F00102 		orr	r2, r2, #1
 323 00e0 5A67     		str	r2, [r3, #116]
 324 00e2 FFF7FEFF 		bl	HAL_GetTick
 325 00e6 0546     		mov	r5, r0
 326 00e8 05E0     		b	.L68
 327              	.L69:
 328 00ea FFF7FEFF 		bl	HAL_GetTick
 329 00ee 401B     		subs	r0, r0, r5
 330 00f0 0228     		cmp	r0, #2
 331 00f2 00F2F680 		bhi	.L46
 332              	.L68:
 333 00f6 736F     		ldr	r3, [r6, #116]
 334 00f8 9807     		lsls	r0, r3, #30
 335 00fa F6D5     		bpl	.L69
 336              	.L151:
 337 00fc 2368     		ldr	r3, [r4]
 338              	.L66:
 339 00fe 9A06     		lsls	r2, r3, #26
 340 0100 17D5     		bpl	.L72
 341 0102 A369     		ldr	r3, [r4, #24]
 342 0104 002B     		cmp	r3, #0
 343 0106 00F00581 		beq	.L73
 344 010a 6F4B     		ldr	r3, .L165
 345 010c 1A68     		ldr	r2, [r3]
ARM GAS  C:\Users\Brandon\AppData\Local\Temp\ccpsOax0.s 			page 7


 346 010e 1E46     		mov	r6, r3
 347 0110 42F48052 		orr	r2, r2, #4096
 348 0114 1A60     		str	r2, [r3]
 349 0116 FFF7FEFF 		bl	HAL_GetTick
 350 011a 0546     		mov	r5, r0
 351 011c 05E0     		b	.L74
 352              	.L75:
 353 011e FFF7FEFF 		bl	HAL_GetTick
 354 0122 401B     		subs	r0, r0, r5
 355 0124 0228     		cmp	r0, #2
 356 0126 00F2DC80 		bhi	.L46
 357              	.L74:
 358 012a 3368     		ldr	r3, [r6]
 359 012c 9F04     		lsls	r7, r3, #18
 360 012e F6D5     		bpl	.L75
 361              	.L152:
 362 0130 2368     		ldr	r3, [r4]
 363              	.L72:
 364 0132 5907     		lsls	r1, r3, #29
 365 0134 00F18D80 		bmi	.L78
 366              	.L91:
 367 0138 606A     		ldr	r0, [r4, #36]
 368 013a D8B1     		cbz	r0, .L80
 369 013c 624B     		ldr	r3, .L165
 370 013e 1A69     		ldr	r2, [r3, #16]
 371 0140 02F03802 		and	r2, r2, #56
 372 0144 182A     		cmp	r2, #24
 373 0146 00F08781 		beq	.L93
 374 014a 1A68     		ldr	r2, [r3]
 375 014c 0228     		cmp	r0, #2
 376 014e 1D46     		mov	r5, r3
 377 0150 22F08072 		bic	r2, r2, #16777216
 378 0154 1A60     		str	r2, [r3]
 379 0156 00F01881 		beq	.L160
 380 015a FFF7FEFF 		bl	HAL_GetTick
 381 015e 0446     		mov	r4, r0
 382 0160 05E0     		b	.L99
 383              	.L100:
 384 0162 FFF7FEFF 		bl	HAL_GetTick
 385 0166 001B     		subs	r0, r0, r4
 386 0168 0228     		cmp	r0, #2
 387 016a 00F2BA80 		bhi	.L46
 388              	.L99:
 389 016e 2B68     		ldr	r3, [r5]
 390 0170 9B01     		lsls	r3, r3, #6
 391 0172 F6D4     		bmi	.L100
 392              	.L80:
 393 0174 0020     		movs	r0, #0
 394              	.L33:
 395 0176 F8BD     		pop	{r3, r4, r5, r6, r7, pc}
 396              	.L159:
 397 0178 5349     		ldr	r1, .L165
 398 017a 0A69     		ldr	r2, [r1, #16]
 399 017c 896A     		ldr	r1, [r1, #40]
 400 017e 02F03802 		and	r2, r2, #56
 401 0182 082A     		cmp	r2, #8
 402 0184 4DD0     		beq	.L58
ARM GAS  C:\Users\Brandon\AppData\Local\Temp\ccpsOax0.s 			page 8


 403 0186 182A     		cmp	r2, #24
 404 0188 47D0     		beq	.L161
 405              	.L59:
 406 018a E369     		ldr	r3, [r4, #28]
 407 018c 002B     		cmp	r3, #0
 408 018e 00F0D480 		beq	.L61
 409 0192 4D4B     		ldr	r3, .L165
 410 0194 1A68     		ldr	r2, [r3]
 411 0196 1E46     		mov	r6, r3
 412 0198 42F08002 		orr	r2, r2, #128
 413 019c 1A60     		str	r2, [r3]
 414 019e FFF7FEFF 		bl	HAL_GetTick
 415 01a2 0546     		mov	r5, r0
 416 01a4 05E0     		b	.L62
 417              	.L63:
 418 01a6 FFF7FEFF 		bl	HAL_GetTick
 419 01aa 401B     		subs	r0, r0, r5
 420 01ac 0228     		cmp	r0, #2
 421 01ae 00F29880 		bhi	.L46
 422              	.L62:
 423 01b2 3368     		ldr	r3, [r6]
 424 01b4 DB05     		lsls	r3, r3, #23
 425 01b6 F6D5     		bpl	.L63
 426 01b8 F368     		ldr	r3, [r6, #12]
 427 01ba 226A     		ldr	r2, [r4, #32]
 428 01bc 23F07C53 		bic	r3, r3, #1056964608
 429 01c0 43EA0263 		orr	r3, r3, r2, lsl #24
 430 01c4 F360     		str	r3, [r6, #12]
 431 01c6 2368     		ldr	r3, [r4]
 432 01c8 7FE7     		b	.L57
 433              	.L158:
 434 01ca 8907     		lsls	r1, r1, #30
 435 01cc 7FF45BAF 		bne	.L50
 436              	.L49:
 437 01d0 3D4A     		ldr	r2, .L165
 438 01d2 1268     		ldr	r2, [r2]
 439 01d4 5207     		lsls	r2, r2, #29
 440 01d6 01D5     		bpl	.L51
 441 01d8 E268     		ldr	r2, [r4, #12]
 442 01da 4AB3     		cbz	r2, .L106
 443              	.L51:
 444 01dc 3A49     		ldr	r1, .L165
 445 01de 2069     		ldr	r0, [r4, #16]
 446 01e0 4A68     		ldr	r2, [r1, #4]
 447 01e2 22F0FE42 		bic	r2, r2, #2130706432
 448 01e6 42EA0062 		orr	r2, r2, r0, lsl #24
 449 01ea 4A60     		str	r2, [r1, #4]
 450 01ec D906     		lsls	r1, r3, #27
 451 01ee 7FF56CAF 		bpl	.L57
 452 01f2 C1E7     		b	.L159
 453              	.L67:
 454 01f4 344B     		ldr	r3, .L165
 455 01f6 5A6F     		ldr	r2, [r3, #116]
 456 01f8 1E46     		mov	r6, r3
 457 01fa 22F00102 		bic	r2, r2, #1
 458 01fe 5A67     		str	r2, [r3, #116]
 459 0200 FFF7FEFF 		bl	HAL_GetTick
ARM GAS  C:\Users\Brandon\AppData\Local\Temp\ccpsOax0.s 			page 9


 460 0204 0546     		mov	r5, r0
 461 0206 04E0     		b	.L70
 462              	.L71:
 463 0208 FFF7FEFF 		bl	HAL_GetTick
 464 020c 401B     		subs	r0, r0, r5
 465 020e 0228     		cmp	r0, #2
 466 0210 67D8     		bhi	.L46
 467              	.L70:
 468 0212 736F     		ldr	r3, [r6, #116]
 469 0214 9907     		lsls	r1, r3, #30
 470 0216 F7D4     		bmi	.L71
 471 0218 70E7     		b	.L151
 472              	.L161:
 473 021a 01F00301 		and	r1, r1, #3
 474 021e 0129     		cmp	r1, #1
 475 0220 B3D1     		bne	.L59
 476              	.L58:
 477 0222 294A     		ldr	r2, .L165
 478 0224 1268     		ldr	r2, [r2]
 479 0226 D205     		lsls	r2, r2, #23
 480 0228 52D5     		bpl	.L60
 481 022a E269     		ldr	r2, [r4, #28]
 482 022c 802A     		cmp	r2, #128
 483 022e 4FD0     		beq	.L60
 484              	.L106:
 485 0230 0120     		movs	r0, #1
 486 0232 F8BD     		pop	{r3, r4, r5, r6, r7, pc}
 487              	.L154:
 488 0234 01F00301 		and	r1, r1, #3
 489 0238 0229     		cmp	r1, #2
 490 023a 7FF4F4AE 		bne	.L36
 491              	.L35:
 492 023e 224A     		ldr	r2, .L165
 493 0240 1268     		ldr	r2, [r2]
 494 0242 9203     		lsls	r2, r2, #14
 495 0244 7FF513AF 		bpl	.L34
 496 0248 6268     		ldr	r2, [r4, #4]
 497 024a 002A     		cmp	r2, #0
 498 024c 7FF40FAF 		bne	.L34
 499 0250 EEE7     		b	.L106
 500              	.L78:
 501 0252 1E4B     		ldr	r3, .L165+4
 502 0254 1A68     		ldr	r2, [r3]
 503 0256 1E46     		mov	r6, r3
 504 0258 42F48072 		orr	r2, r2, #256
 505 025c 1A60     		str	r2, [r3]
 506 025e FFF7FEFF 		bl	HAL_GetTick
 507 0262 0546     		mov	r5, r0
 508 0264 04E0     		b	.L81
 509              	.L82:
 510 0266 FFF7FEFF 		bl	HAL_GetTick
 511 026a 401B     		subs	r0, r0, r5
 512 026c 6428     		cmp	r0, #100
 513 026e 38D8     		bhi	.L46
 514              	.L81:
 515 0270 3368     		ldr	r3, [r6]
 516 0272 DA05     		lsls	r2, r3, #23
ARM GAS  C:\Users\Brandon\AppData\Local\Temp\ccpsOax0.s 			page 10


 517 0274 F7D5     		bpl	.L82
 518 0276 A368     		ldr	r3, [r4, #8]
 519 0278 012B     		cmp	r3, #1
 520 027a 00F03D81 		beq	.L162
 521 027e 002B     		cmp	r3, #0
 522 0280 00F02081 		beq	.L163
 523 0284 052B     		cmp	r3, #5
 524 0286 104B     		ldr	r3, .L165
 525 0288 1A6F     		ldr	r2, [r3, #112]
 526 028a 00F03B81 		beq	.L164
 527 028e 22F00102 		bic	r2, r2, #1
 528 0292 1A67     		str	r2, [r3, #112]
 529 0294 1A6F     		ldr	r2, [r3, #112]
 530 0296 22F00402 		bic	r2, r2, #4
 531 029a 1A67     		str	r2, [r3, #112]
 532              	.L84:
 533 029c FFF7FEFF 		bl	HAL_GetTick
 534 02a0 094E     		ldr	r6, .L165
 535 02a2 41F28837 		movw	r7, #5000
 536 02a6 0546     		mov	r5, r0
 537 02a8 04E0     		b	.L89
 538              	.L90:
 539 02aa FFF7FEFF 		bl	HAL_GetTick
 540 02ae 401B     		subs	r0, r0, r5
 541 02b0 B842     		cmp	r0, r7
 542 02b2 16D8     		bhi	.L46
 543              	.L89:
 544 02b4 336F     		ldr	r3, [r6, #112]
 545 02b6 9B07     		lsls	r3, r3, #30
 546 02b8 F7D5     		bpl	.L90
 547 02ba 3DE7     		b	.L91
 548              	.L155:
 549 02bc 024A     		ldr	r2, .L165
 550 02be 1368     		ldr	r3, [r2]
 551 02c0 43F48033 		orr	r3, r3, #65536
 552 02c4 1360     		str	r3, [r2]
 553 02c6 C3E6     		b	.L39
 554              	.L166:
 555              		.align	2
 556              	.L165:
 557 02c8 00440258 		.word	1476543488
 558 02cc 00480258 		.word	1476544512
 559              	.L60:
 560 02d0 9049     		ldr	r1, .L167
 561 02d2 206A     		ldr	r0, [r4, #32]
 562 02d4 CA68     		ldr	r2, [r1, #12]
 563 02d6 22F07C52 		bic	r2, r2, #1056964608
 564 02da 42EA0062 		orr	r2, r2, r0, lsl #24
 565 02de CA60     		str	r2, [r1, #12]
 566 02e0 F3E6     		b	.L57
 567              	.L46:
 568 02e2 0320     		movs	r0, #3
 569 02e4 F8BD     		pop	{r3, r4, r5, r6, r7, pc}
 570              	.L156:
 571 02e6 8B4B     		ldr	r3, .L167
 572 02e8 1A68     		ldr	r2, [r3]
 573 02ea 1E46     		mov	r6, r3
ARM GAS  C:\Users\Brandon\AppData\Local\Temp\ccpsOax0.s 			page 11


 574 02ec 22F48032 		bic	r2, r2, #65536
 575 02f0 1A60     		str	r2, [r3]
 576 02f2 1A68     		ldr	r2, [r3]
 577 02f4 22F48022 		bic	r2, r2, #262144
 578 02f8 1A60     		str	r2, [r3]
 579 02fa FFF7FEFF 		bl	HAL_GetTick
 580 02fe 0546     		mov	r5, r0
 581 0300 04E0     		b	.L41
 582              	.L47:
 583 0302 FFF7FEFF 		bl	HAL_GetTick
 584 0306 401B     		subs	r0, r0, r5
 585 0308 6428     		cmp	r0, #100
 586 030a EAD8     		bhi	.L46
 587              	.L41:
 588 030c 3368     		ldr	r3, [r6]
 589 030e 9F03     		lsls	r7, r3, #14
 590 0310 F7D4     		bmi	.L47
 591 0312 ABE6     		b	.L150
 592              	.L73:
 593 0314 7F4B     		ldr	r3, .L167
 594 0316 1A68     		ldr	r2, [r3]
 595 0318 1E46     		mov	r6, r3
 596 031a 22F48052 		bic	r2, r2, #4096
 597 031e 1A60     		str	r2, [r3]
 598 0320 FFF7FEFF 		bl	HAL_GetTick
 599 0324 0546     		mov	r5, r0
 600 0326 04E0     		b	.L76
 601              	.L77:
 602 0328 FFF7FEFF 		bl	HAL_GetTick
 603 032c 401B     		subs	r0, r0, r5
 604 032e 0228     		cmp	r0, #2
 605 0330 D7D8     		bhi	.L46
 606              	.L76:
 607 0332 3368     		ldr	r3, [r6]
 608 0334 9804     		lsls	r0, r3, #18
 609 0336 F7D4     		bmi	.L77
 610 0338 FAE6     		b	.L152
 611              	.L61:
 612 033a 764B     		ldr	r3, .L167
 613 033c 1A68     		ldr	r2, [r3]
 614 033e 1E46     		mov	r6, r3
 615 0340 22F08002 		bic	r2, r2, #128
 616 0344 1A60     		str	r2, [r3]
 617 0346 FFF7FEFF 		bl	HAL_GetTick
 618 034a 0546     		mov	r5, r0
 619 034c 04E0     		b	.L64
 620              	.L65:
 621 034e FFF7FEFF 		bl	HAL_GetTick
 622 0352 401B     		subs	r0, r0, r5
 623 0354 0228     		cmp	r0, #2
 624 0356 C4D8     		bhi	.L46
 625              	.L64:
 626 0358 3368     		ldr	r3, [r6]
 627 035a DF05     		lsls	r7, r3, #23
 628 035c F7D4     		bmi	.L65
 629 035e 2368     		ldr	r3, [r4]
 630 0360 B3E6     		b	.L57
ARM GAS  C:\Users\Brandon\AppData\Local\Temp\ccpsOax0.s 			page 12


 631              	.L52:
 632 0362 6C4B     		ldr	r3, .L167
 633 0364 1A68     		ldr	r2, [r3]
 634 0366 1E46     		mov	r6, r3
 635 0368 22F00102 		bic	r2, r2, #1
 636 036c 1A60     		str	r2, [r3]
 637 036e FFF7FEFF 		bl	HAL_GetTick
 638 0372 0546     		mov	r5, r0
 639 0374 04E0     		b	.L55
 640              	.L56:
 641 0376 FFF7FEFF 		bl	HAL_GetTick
 642 037a 401B     		subs	r0, r0, r5
 643 037c 0228     		cmp	r0, #2
 644 037e B0D8     		bhi	.L46
 645              	.L55:
 646 0380 3368     		ldr	r3, [r6]
 647 0382 5807     		lsls	r0, r3, #29
 648 0384 F7D4     		bmi	.L56
 649 0386 2368     		ldr	r3, [r4]
 650 0388 9DE6     		b	.L48
 651              	.L160:
 652 038a FFF7FEFF 		bl	HAL_GetTick
 653 038e 0646     		mov	r6, r0
 654 0390 04E0     		b	.L95
 655              	.L96:
 656 0392 FFF7FEFF 		bl	HAL_GetTick
 657 0396 801B     		subs	r0, r0, r6
 658 0398 0228     		cmp	r0, #2
 659 039a A2D8     		bhi	.L46
 660              	.L95:
 661 039c 2B68     		ldr	r3, [r5]
 662 039e 9901     		lsls	r1, r3, #6
 663 03a0 F7D4     		bmi	.L96
 664 03a2 AA6A     		ldr	r2, [r5, #40]
 665 03a4 5C4B     		ldr	r3, .L167+4
 666 03a6 A06A     		ldr	r0, [r4, #40]
 667 03a8 1340     		ands	r3, r3, r2
 668 03aa E26A     		ldr	r2, [r4, #44]
 669 03ac 5B49     		ldr	r1, .L167+8
 670 03ae 0343     		orrs	r3, r3, r0
 671 03b0 584E     		ldr	r6, .L167
 672 03b2 43EA0213 		orr	r3, r3, r2, lsl #4
 673 03b6 AB62     		str	r3, [r5, #40]
 674 03b8 276B     		ldr	r7, [r4, #48]
 675 03ba D4E90D32 		ldrd	r3, r2, [r4, #52]
 676 03be 013F     		subs	r7, r7, #1
 677 03c0 501E     		subs	r0, r2, #1
 678 03c2 013B     		subs	r3, r3, #1
 679 03c4 E26B     		ldr	r2, [r4, #60]
 680 03c6 C7F30807 		ubfx	r7, r7, #0, #9
 681 03ca 5B02     		lsls	r3, r3, #9
 682 03cc 0004     		lsls	r0, r0, #16
 683 03ce 013A     		subs	r2, r2, #1
 684 03d0 9BB2     		uxth	r3, r3
 685 03d2 00F4FE00 		and	r0, r0, #8323072
 686 03d6 1206     		lsls	r2, r2, #24
 687 03d8 0343     		orrs	r3, r3, r0
ARM GAS  C:\Users\Brandon\AppData\Local\Temp\ccpsOax0.s 			page 13


 688 03da 02F0FE42 		and	r2, r2, #2130706432
 689 03de 3B43     		orrs	r3, r3, r7
 690 03e0 1343     		orrs	r3, r3, r2
 691 03e2 2B63     		str	r3, [r5, #48]
 692 03e4 EB6A     		ldr	r3, [r5, #44]
 693 03e6 23F00103 		bic	r3, r3, #1
 694 03ea EB62     		str	r3, [r5, #44]
 695 03ec 6A6B     		ldr	r2, [r5, #52]
 696 03ee A36C     		ldr	r3, [r4, #72]
 697 03f0 1140     		ands	r1, r1, r2
 698 03f2 41EAC301 		orr	r1, r1, r3, lsl #3
 699 03f6 6963     		str	r1, [r5, #52]
 700 03f8 EB6A     		ldr	r3, [r5, #44]
 701 03fa 226C     		ldr	r2, [r4, #64]
 702 03fc 23F00C03 		bic	r3, r3, #12
 703 0400 1343     		orrs	r3, r3, r2
 704 0402 EB62     		str	r3, [r5, #44]
 705 0404 EB6A     		ldr	r3, [r5, #44]
 706 0406 626C     		ldr	r2, [r4, #68]
 707 0408 23F00203 		bic	r3, r3, #2
 708 040c 1343     		orrs	r3, r3, r2
 709 040e EB62     		str	r3, [r5, #44]
 710 0410 EB6A     		ldr	r3, [r5, #44]
 711 0412 43F48033 		orr	r3, r3, #65536
 712 0416 EB62     		str	r3, [r5, #44]
 713 0418 EB6A     		ldr	r3, [r5, #44]
 714 041a 43F40033 		orr	r3, r3, #131072
 715 041e EB62     		str	r3, [r5, #44]
 716 0420 EB6A     		ldr	r3, [r5, #44]
 717 0422 43F48023 		orr	r3, r3, #262144
 718 0426 EB62     		str	r3, [r5, #44]
 719 0428 EB6A     		ldr	r3, [r5, #44]
 720 042a 43F00103 		orr	r3, r3, #1
 721 042e EB62     		str	r3, [r5, #44]
 722 0430 2B68     		ldr	r3, [r5]
 723 0432 43F08073 		orr	r3, r3, #16777216
 724 0436 2B60     		str	r3, [r5]
 725 0438 FFF7FEFF 		bl	HAL_GetTick
 726 043c 0446     		mov	r4, r0
 727 043e 05E0     		b	.L97
 728              	.L98:
 729 0440 FFF7FEFF 		bl	HAL_GetTick
 730 0444 001B     		subs	r0, r0, r4
 731 0446 0228     		cmp	r0, #2
 732 0448 3FF64BAF 		bhi	.L46
 733              	.L97:
 734 044c 3368     		ldr	r3, [r6]
 735 044e 9A01     		lsls	r2, r3, #6
 736 0450 F6D5     		bpl	.L98
 737 0452 8FE6     		b	.L80
 738              	.L153:
 739 0454 0120     		movs	r0, #1
 740 0456 7047     		bx	lr
 741              	.L93:
 742 0458 0128     		cmp	r0, #1
 743 045a 9A6A     		ldr	r2, [r3, #40]
 744 045c 1D6B     		ldr	r5, [r3, #48]
ARM GAS  C:\Users\Brandon\AppData\Local\Temp\ccpsOax0.s 			page 14


 745 045e 3FF48AAE 		beq	.L33
 746 0462 02F00303 		and	r3, r2, #3
 747 0466 A16A     		ldr	r1, [r4, #40]
 748 0468 8B42     		cmp	r3, r1
 749 046a 7FF4E1AE 		bne	.L106
 750 046e C2F30512 		ubfx	r2, r2, #4, #6
 751 0472 E36A     		ldr	r3, [r4, #44]
 752 0474 9A42     		cmp	r2, r3
 753 0476 7FF4DBAE 		bne	.L106
 754 047a 236B     		ldr	r3, [r4, #48]
 755 047c C5F30802 		ubfx	r2, r5, #0, #9
 756 0480 013B     		subs	r3, r3, #1
 757 0482 9A42     		cmp	r2, r3
 758 0484 7FF4D4AE 		bne	.L106
 759 0488 636B     		ldr	r3, [r4, #52]
 760 048a C5F34622 		ubfx	r2, r5, #9, #7
 761 048e 013B     		subs	r3, r3, #1
 762 0490 9A42     		cmp	r2, r3
 763 0492 7FF4CDAE 		bne	.L106
 764 0496 A36B     		ldr	r3, [r4, #56]
 765 0498 C5F30642 		ubfx	r2, r5, #16, #7
 766 049c 013B     		subs	r3, r3, #1
 767 049e 9A42     		cmp	r2, r3
 768 04a0 7FF4C6AE 		bne	.L106
 769 04a4 E06B     		ldr	r0, [r4, #60]
 770 04a6 C5F30665 		ubfx	r5, r5, #24, #7
 771 04aa 0138     		subs	r0, r0, #1
 772 04ac 281A     		subs	r0, r5, r0
 773 04ae 18BF     		it	ne
 774 04b0 0120     		movne	r0, #1
 775 04b2 F8BD     		pop	{r3, r4, r5, r6, r7, pc}
 776              	.L157:
 777 04b4 42F48022 		orr	r2, r2, #262144
 778 04b8 1A60     		str	r2, [r3]
 779 04ba 1A68     		ldr	r2, [r3]
 780 04bc 42F48032 		orr	r2, r2, #65536
 781 04c0 1A60     		str	r2, [r3]
 782 04c2 C5E5     		b	.L39
 783              	.L163:
 784 04c4 134B     		ldr	r3, .L167
 785 04c6 41F28837 		movw	r7, #5000
 786 04ca 1A6F     		ldr	r2, [r3, #112]
 787 04cc 1E46     		mov	r6, r3
 788 04ce 22F00102 		bic	r2, r2, #1
 789 04d2 1A67     		str	r2, [r3, #112]
 790 04d4 1A6F     		ldr	r2, [r3, #112]
 791 04d6 22F00402 		bic	r2, r2, #4
 792 04da 1A67     		str	r2, [r3, #112]
 793 04dc FFF7FEFF 		bl	HAL_GetTick
 794 04e0 0546     		mov	r5, r0
 795 04e2 05E0     		b	.L86
 796              	.L92:
 797 04e4 FFF7FEFF 		bl	HAL_GetTick
 798 04e8 401B     		subs	r0, r0, r5
 799 04ea B842     		cmp	r0, r7
 800 04ec 3FF6F9AE 		bhi	.L46
 801              	.L86:
ARM GAS  C:\Users\Brandon\AppData\Local\Temp\ccpsOax0.s 			page 15


 802 04f0 336F     		ldr	r3, [r6, #112]
 803 04f2 9807     		lsls	r0, r3, #30
 804 04f4 F6D4     		bmi	.L92
 805 04f6 1FE6     		b	.L91
 806              	.L162:
 807 04f8 064A     		ldr	r2, .L167
 808 04fa 136F     		ldr	r3, [r2, #112]
 809 04fc 43F00103 		orr	r3, r3, #1
 810 0500 1367     		str	r3, [r2, #112]
 811 0502 CBE6     		b	.L84
 812              	.L164:
 813 0504 42F00402 		orr	r2, r2, #4
 814 0508 1A67     		str	r2, [r3, #112]
 815 050a 1A6F     		ldr	r2, [r3, #112]
 816 050c 42F00102 		orr	r2, r2, #1
 817 0510 1A67     		str	r2, [r3, #112]
 818 0512 C3E6     		b	.L84
 819              	.L168:
 820              		.align	2
 821              	.L167:
 822 0514 00440258 		.word	1476543488
 823 0518 0CFCFFFF 		.word	-1012
 824 051c 0700FFFF 		.word	-65529
 826              		.section	.text.HAL_RCC_MCOConfig,"ax",%progbits
 827              		.align	1
 828              		.p2align 2,,3
 829              		.global	HAL_RCC_MCOConfig
 830              		.syntax unified
 831              		.thumb
 832              		.thumb_func
 833              		.fpu fpv5-d16
 835              	HAL_RCC_MCOConfig:
 836              		@ args = 0, pretend = 0, frame = 32
 837              		@ frame_needed = 0, uses_anonymous_args = 0
 838 0000 F0B5     		push	{r4, r5, r6, r7, lr}
 839 0002 0D46     		mov	r5, r1
 840 0004 89B0     		sub	sp, sp, #36
 841 0006 1446     		mov	r4, r2
 842 0008 234E     		ldr	r6, .L173
 843 000a 00BB     		cbnz	r0, .L170
 844 000c D6F8E030 		ldr	r3, [r6, #224]
 845 0010 4FF48072 		mov	r2, #256
 846 0014 0227     		movs	r7, #2
 847 0016 03A9     		add	r1, sp, #12
 848 0018 43F00103 		orr	r3, r3, #1
 849 001c C6F8E030 		str	r3, [r6, #224]
 850 0020 D6F8E030 		ldr	r3, [r6, #224]
 851 0024 0392     		str	r2, [sp, #12]
 852 0026 0322     		movs	r2, #3
 853 0028 03F00103 		and	r3, r3, #1
 854 002c 0590     		str	r0, [sp, #20]
 855 002e 0790     		str	r0, [sp, #28]
 856 0030 0193     		str	r3, [sp, #4]
 857 0032 1A48     		ldr	r0, .L173+4
 858 0034 0692     		str	r2, [sp, #24]
 859 0036 019B     		ldr	r3, [sp, #4]
 860 0038 0497     		str	r7, [sp, #16]
ARM GAS  C:\Users\Brandon\AppData\Local\Temp\ccpsOax0.s 			page 16


 861 003a FFF7FEFF 		bl	HAL_GPIO_Init
 862 003e 3269     		ldr	r2, [r6, #16]
 863 0040 22F0FE72 		bic	r2, r2, #33292288
 864 0044 2A43     		orrs	r2, r2, r5
 865 0046 2243     		orrs	r2, r2, r4
 866 0048 3261     		str	r2, [r6, #16]
 867 004a 09B0     		add	sp, sp, #36
 868              		@ sp needed
 869 004c F0BD     		pop	{r4, r5, r6, r7, pc}
 870              	.L170:
 871 004e D6F8E030 		ldr	r3, [r6, #224]
 872 0052 0222     		movs	r2, #2
 873 0054 4FF40070 		mov	r0, #512
 874 0058 0321     		movs	r1, #3
 875 005a 43F00403 		orr	r3, r3, #4
 876 005e C6F8E030 		str	r3, [r6, #224]
 877 0062 D6F8E030 		ldr	r3, [r6, #224]
 878 0066 0492     		str	r2, [sp, #16]
 879 0068 0022     		movs	r2, #0
 880 006a 03F00403 		and	r3, r3, #4
 881 006e 0390     		str	r0, [sp, #12]
 882 0070 0691     		str	r1, [sp, #24]
 883 0072 03A9     		add	r1, sp, #12
 884 0074 0293     		str	r3, [sp, #8]
 885 0076 0A48     		ldr	r0, .L173+8
 886 0078 029B     		ldr	r3, [sp, #8]
 887 007a 0592     		str	r2, [sp, #20]
 888 007c 0792     		str	r2, [sp, #28]
 889 007e FFF7FEFF 		bl	HAL_GPIO_Init
 890 0082 3369     		ldr	r3, [r6, #16]
 891 0084 23F07E43 		bic	r3, r3, #-33554432
 892 0088 43EA0501 		orr	r1, r3, r5
 893 008c 41EAC411 		orr	r1, r1, r4, lsl #7
 894 0090 3161     		str	r1, [r6, #16]
 895 0092 09B0     		add	sp, sp, #36
 896              		@ sp needed
 897 0094 F0BD     		pop	{r4, r5, r6, r7, pc}
 898              	.L174:
 899 0096 00BF     		.align	2
 900              	.L173:
 901 0098 00440258 		.word	1476543488
 902 009c 00000258 		.word	1476526080
 903 00a0 00080258 		.word	1476528128
 905              		.section	.text.HAL_RCC_EnableCSS,"ax",%progbits
 906              		.align	1
 907              		.p2align 2,,3
 908              		.global	HAL_RCC_EnableCSS
 909              		.syntax unified
 910              		.thumb
 911              		.thumb_func
 912              		.fpu fpv5-d16
 914              	HAL_RCC_EnableCSS:
 915              		@ args = 0, pretend = 0, frame = 0
 916              		@ frame_needed = 0, uses_anonymous_args = 0
 917              		@ link register save eliminated.
 918 0000 024A     		ldr	r2, .L176
 919 0002 1368     		ldr	r3, [r2]
ARM GAS  C:\Users\Brandon\AppData\Local\Temp\ccpsOax0.s 			page 17


 920 0004 43F40023 		orr	r3, r3, #524288
 921 0008 1360     		str	r3, [r2]
 922 000a 7047     		bx	lr
 923              	.L177:
 924              		.align	2
 925              	.L176:
 926 000c 00440258 		.word	1476543488
 928              		.section	.text.HAL_RCC_DisableCSS,"ax",%progbits
 929              		.align	1
 930              		.p2align 2,,3
 931              		.global	HAL_RCC_DisableCSS
 932              		.syntax unified
 933              		.thumb
 934              		.thumb_func
 935              		.fpu fpv5-d16
 937              	HAL_RCC_DisableCSS:
 938              		@ args = 0, pretend = 0, frame = 0
 939              		@ frame_needed = 0, uses_anonymous_args = 0
 940              		@ link register save eliminated.
 941 0000 024A     		ldr	r2, .L179
 942 0002 1368     		ldr	r3, [r2]
 943 0004 23F40023 		bic	r3, r3, #524288
 944 0008 1360     		str	r3, [r2]
 945 000a 7047     		bx	lr
 946              	.L180:
 947              		.align	2
 948              	.L179:
 949 000c 00440258 		.word	1476543488
 951              		.section	.text.HAL_RCC_GetSysClockFreq,"ax",%progbits
 952              		.align	1
 953              		.p2align 2,,3
 954              		.global	HAL_RCC_GetSysClockFreq
 955              		.syntax unified
 956              		.thumb
 957              		.thumb_func
 958              		.fpu fpv5-d16
 960              	HAL_RCC_GetSysClockFreq:
 961              		@ args = 0, pretend = 0, frame = 0
 962              		@ frame_needed = 0, uses_anonymous_args = 0
 963              		@ link register save eliminated.
 964 0000 474A     		ldr	r2, .L201
 965 0002 1369     		ldr	r3, [r2, #16]
 966 0004 03F03803 		and	r3, r3, #56
 967 0008 102B     		cmp	r3, #16
 968 000a 04D0     		beq	.L189
 969 000c 182B     		cmp	r3, #24
 970 000e 0DD0     		beq	.L183
 971 0010 1BB1     		cbz	r3, .L199
 972 0012 4448     		ldr	r0, .L201+4
 973 0014 7047     		bx	lr
 974              	.L189:
 975 0016 4448     		ldr	r0, .L201+8
 976 0018 7047     		bx	lr
 977              	.L199:
 978 001a 1368     		ldr	r3, [r2]
 979 001c 9906     		lsls	r1, r3, #26
 980 001e 4AD5     		bpl	.L191
ARM GAS  C:\Users\Brandon\AppData\Local\Temp\ccpsOax0.s 			page 18


 981 0020 1368     		ldr	r3, [r2]
 982 0022 4248     		ldr	r0, .L201+12
 983 0024 C3F3C103 		ubfx	r3, r3, #3, #2
 984 0028 D840     		lsrs	r0, r0, r3
 985 002a 7047     		bx	lr
 986              	.L183:
 987 002c 936A     		ldr	r3, [r2, #40]
 988 002e 30B4     		push	{r4, r5}
 989 0030 946A     		ldr	r4, [r2, #40]
 990 0032 D16A     		ldr	r1, [r2, #44]
 991 0034 14F47C7F 		tst	r4, #1008
 992 0038 C4F30510 		ubfx	r0, r4, #4, #6
 993 003c 556B     		ldr	r5, [r2, #52]
 994 003e 38D0     		beq	.L181
 995 0040 C5F3CC05 		ubfx	r5, r5, #3, #13
 996 0044 01F00101 		and	r1, r1, #1
 997 0048 03F00303 		and	r3, r3, #3
 998 004c 01FB05F1 		mul	r1, r1, r5
 999 0050 012B     		cmp	r3, #1
 1000 0052 07EE901A 		vmov	s15, r1	@ int
 1001 0056 B8EEE77A 		vcvt.f32.s32	s14, s15
 1002 005a 02D0     		beq	.L186
 1003 005c 022B     		cmp	r3, #2
 1004 005e 2CD0     		beq	.L185
 1005 0060 93B3     		cbz	r3, .L200
 1006              	.L186:
 1007 0062 07EE900A 		vmov	s15, r0	@ int
 1008 0066 9FED325A 		vldr.32	s10, .L201+16
 1009 006a F8EEE77A 		vcvt.f32.s32	s15, s15
 1010              	.L198:
 1011 006e 136B     		ldr	r3, [r2, #48]
 1012 0070 C5EE276A 		vdiv.f32	s13, s10, s15
 1013 0074 DFED2F5A 		vldr.32	s11, .L201+20
 1014 0078 C3F30803 		ubfx	r3, r3, #0, #9
 1015 007c 07EE903A 		vmov	s15, r3	@ int
 1016 0080 B7EE006A 		vmov.f32	s12, #1.0e+0
 1017 0084 F8EEE77A 		vcvt.f32.s32	s15, s15
 1018 0088 E7EE257A 		vfma.f32	s15, s14, s11
 1019 008c 77EE867A 		vadd.f32	s15, s15, s12
 1020 0090 66EEA76A 		vmul.f32	s13, s13, s15
 1021              	.L188:
 1022 0094 224B     		ldr	r3, .L201
 1023 0096 1B6B     		ldr	r3, [r3, #48]
 1024 0098 C3F34623 		ubfx	r3, r3, #9, #7
 1025 009c 0133     		adds	r3, r3, #1
 1026 009e 07EE903A 		vmov	s15, r3	@ int
 1027 00a2 B8EEE77A 		vcvt.f32.s32	s14, s15
 1028 00a6 C6EE877A 		vdiv.f32	s15, s13, s14
 1029 00aa FCEEE77A 		vcvt.u32.f32	s15, s15
 1030 00ae 17EE900A 		vmov	r0, s15	@ int
 1031              	.L181:
 1032 00b2 30BC     		pop	{r4, r5}
 1033 00b4 7047     		bx	lr
 1034              	.L191:
 1035 00b6 1D48     		ldr	r0, .L201+12
 1036 00b8 7047     		bx	lr
 1037              	.L185:
ARM GAS  C:\Users\Brandon\AppData\Local\Temp\ccpsOax0.s 			page 19


 1038 00ba 07EE900A 		vmov	s15, r0	@ int
 1039 00be 9FED1E5A 		vldr.32	s10, .L201+24
 1040 00c2 F8EEE77A 		vcvt.f32.s32	s15, s15
 1041 00c6 D2E7     		b	.L198
 1042              	.L200:
 1043 00c8 1368     		ldr	r3, [r2]
 1044 00ca 9B06     		lsls	r3, r3, #26
 1045 00cc 20D5     		bpl	.L187
 1046 00ce 1368     		ldr	r3, [r2]
 1047 00d0 07EE900A 		vmov	s15, r0	@ int
 1048 00d4 1549     		ldr	r1, .L201+12
 1049 00d6 B7EE005A 		vmov.f32	s10, #1.0e+0
 1050 00da C3F3C100 		ubfx	r0, r3, #3, #2
 1051 00de F8EEE77A 		vcvt.f32.s32	s15, s15
 1052 00e2 136B     		ldr	r3, [r2, #48]
 1053 00e4 C140     		lsrs	r1, r1, r0
 1054 00e6 DFED134A 		vldr.32	s9, .L201+20
 1055 00ea C3F30803 		ubfx	r3, r3, #0, #9
 1056 00ee 06EE101A 		vmov	s12, r1	@ int
 1057 00f2 06EE903A 		vmov	s13, r3	@ int
 1058 00f6 B8EEC66A 		vcvt.f32.s32	s12, s12
 1059 00fa F8EEE66A 		vcvt.f32.s32	s13, s13
 1060 00fe C6EE275A 		vdiv.f32	s11, s12, s15
 1061 0102 E7EE246A 		vfma.f32	s13, s14, s9
 1062 0106 76EE856A 		vadd.f32	s13, s13, s10
 1063 010a 66EEA56A 		vmul.f32	s13, s13, s11
 1064 010e C1E7     		b	.L188
 1065              	.L187:
 1066 0110 07EE900A 		vmov	s15, r0	@ int
 1067 0114 9FED095A 		vldr.32	s10, .L201+28
 1068 0118 F8EEE77A 		vcvt.f32.s32	s15, s15
 1069 011c A7E7     		b	.L198
 1070              	.L202:
 1071 011e 00BF     		.align	2
 1072              	.L201:
 1073 0120 00440258 		.word	1476543488
 1074 0124 00093D00 		.word	4000000
 1075 0128 002D3101 		.word	20000000
 1076 012c 0090D003 		.word	64000000
 1077 0130 0024744A 		.word	1249125376
 1078 0134 00000039 		.word	956301312
 1079 0138 8096984B 		.word	1268291200
 1080 013c 0024744C 		.word	1282679808
 1082              		.section	.text.HAL_RCC_ClockConfig,"ax",%progbits
 1083              		.align	1
 1084              		.p2align 2,,3
 1085              		.global	HAL_RCC_ClockConfig
 1086              		.syntax unified
 1087              		.thumb
 1088              		.thumb_func
 1089              		.fpu fpv5-d16
 1091              	HAL_RCC_ClockConfig:
 1092              		@ args = 0, pretend = 0, frame = 0
 1093              		@ frame_needed = 0, uses_anonymous_args = 0
 1094 0000 0028     		cmp	r0, #0
 1095 0002 00F00E81 		beq	.L270
 1096 0006 8D4A     		ldr	r2, .L275
ARM GAS  C:\Users\Brandon\AppData\Local\Temp\ccpsOax0.s 			page 20


 1097 0008 1368     		ldr	r3, [r2]
 1098 000a 03F00F03 		and	r3, r3, #15
 1099 000e 8B42     		cmp	r3, r1
 1100 0010 2DE9F041 		push	{r4, r5, r6, r7, r8, lr}
 1101 0014 0446     		mov	r4, r0
 1102 0016 0D46     		mov	r5, r1
 1103 0018 0CD2     		bcs	.L210
 1104 001a 1368     		ldr	r3, [r2]
 1105 001c 23F00F03 		bic	r3, r3, #15
 1106 0020 0B43     		orrs	r3, r3, r1
 1107 0022 1360     		str	r3, [r2]
 1108 0024 1368     		ldr	r3, [r2]
 1109 0026 03F00F03 		and	r3, r3, #15
 1110 002a 8B42     		cmp	r3, r1
 1111 002c 02D0     		beq	.L210
 1112              	.L209:
 1113 002e 0120     		movs	r0, #1
 1114              	.L266:
 1115 0030 BDE8F081 		pop	{r4, r5, r6, r7, r8, pc}
 1116              	.L210:
 1117 0034 2368     		ldr	r3, [r4]
 1118 0036 5F07     		lsls	r7, r3, #29
 1119 0038 0BD5     		bpl	.L208
 1120 003a 8149     		ldr	r1, .L275+4
 1121 003c 2069     		ldr	r0, [r4, #16]
 1122 003e 8A69     		ldr	r2, [r1, #24]
 1123 0040 02F07002 		and	r2, r2, #112
 1124 0044 9042     		cmp	r0, r2
 1125 0046 04D9     		bls	.L208
 1126 0048 8A69     		ldr	r2, [r1, #24]
 1127 004a 22F07002 		bic	r2, r2, #112
 1128 004e 0243     		orrs	r2, r2, r0
 1129 0050 8A61     		str	r2, [r1, #24]
 1130              	.L208:
 1131 0052 1E07     		lsls	r6, r3, #28
 1132 0054 0BD5     		bpl	.L211
 1133 0056 7A49     		ldr	r1, .L275+4
 1134 0058 6069     		ldr	r0, [r4, #20]
 1135 005a CA69     		ldr	r2, [r1, #28]
 1136 005c 02F07002 		and	r2, r2, #112
 1137 0060 9042     		cmp	r0, r2
 1138 0062 04D9     		bls	.L211
 1139 0064 CA69     		ldr	r2, [r1, #28]
 1140 0066 22F07002 		bic	r2, r2, #112
 1141 006a 0243     		orrs	r2, r2, r0
 1142 006c CA61     		str	r2, [r1, #28]
 1143              	.L211:
 1144 006e D806     		lsls	r0, r3, #27
 1145 0070 0BD5     		bpl	.L212
 1146 0072 7349     		ldr	r1, .L275+4
 1147 0074 A069     		ldr	r0, [r4, #24]
 1148 0076 CA69     		ldr	r2, [r1, #28]
 1149 0078 02F4E062 		and	r2, r2, #1792
 1150 007c 9042     		cmp	r0, r2
 1151 007e 04D9     		bls	.L212
 1152 0080 CA69     		ldr	r2, [r1, #28]
 1153 0082 22F4E062 		bic	r2, r2, #1792
ARM GAS  C:\Users\Brandon\AppData\Local\Temp\ccpsOax0.s 			page 21


 1154 0086 0243     		orrs	r2, r2, r0
 1155 0088 CA61     		str	r2, [r1, #28]
 1156              	.L212:
 1157 008a 9906     		lsls	r1, r3, #26
 1158 008c 0BD5     		bpl	.L213
 1159 008e 6C49     		ldr	r1, .L275+4
 1160 0090 E069     		ldr	r0, [r4, #28]
 1161 0092 0A6A     		ldr	r2, [r1, #32]
 1162 0094 02F07002 		and	r2, r2, #112
 1163 0098 9042     		cmp	r0, r2
 1164 009a 04D9     		bls	.L213
 1165 009c 0A6A     		ldr	r2, [r1, #32]
 1166 009e 22F07002 		bic	r2, r2, #112
 1167 00a2 0243     		orrs	r2, r2, r0
 1168 00a4 0A62     		str	r2, [r1, #32]
 1169              	.L213:
 1170 00a6 9A07     		lsls	r2, r3, #30
 1171 00a8 40F1AD80 		bpl	.L214
 1172 00ac 6448     		ldr	r0, .L275+4
 1173 00ae E168     		ldr	r1, [r4, #12]
 1174 00b0 8269     		ldr	r2, [r0, #24]
 1175 00b2 02F00F02 		and	r2, r2, #15
 1176 00b6 9142     		cmp	r1, r2
 1177 00b8 04D9     		bls	.L215
 1178 00ba 8269     		ldr	r2, [r0, #24]
 1179 00bc 22F00F02 		bic	r2, r2, #15
 1180 00c0 0A43     		orrs	r2, r2, r1
 1181 00c2 8261     		str	r2, [r0, #24]
 1182              	.L215:
 1183 00c4 D807     		lsls	r0, r3, #31
 1184 00c6 31D5     		bpl	.L231
 1185              	.L230:
 1186 00c8 5D4A     		ldr	r2, .L275+4
 1187 00ca A168     		ldr	r1, [r4, #8]
 1188 00cc 9369     		ldr	r3, [r2, #24]
 1189 00ce 23F47063 		bic	r3, r3, #3840
 1190 00d2 0B43     		orrs	r3, r3, r1
 1191 00d4 9361     		str	r3, [r2, #24]
 1192 00d6 6168     		ldr	r1, [r4, #4]
 1193 00d8 1368     		ldr	r3, [r2]
 1194 00da 0229     		cmp	r1, #2
 1195 00dc 00F0A380 		beq	.L271
 1196 00e0 0329     		cmp	r1, #3
 1197 00e2 00F09A80 		beq	.L272
 1198 00e6 0129     		cmp	r1, #1
 1199 00e8 00F0A380 		beq	.L273
 1200 00ec 5807     		lsls	r0, r3, #29
 1201 00ee 9ED5     		bpl	.L209
 1202              	.L217:
 1203 00f0 534A     		ldr	r2, .L275+4
 1204 00f2 41F28838 		movw	r8, #5000
 1205 00f6 1369     		ldr	r3, [r2, #16]
 1206 00f8 1746     		mov	r7, r2
 1207 00fa 23F00703 		bic	r3, r3, #7
 1208 00fe 0B43     		orrs	r3, r3, r1
 1209 0100 1361     		str	r3, [r2, #16]
 1210 0102 FFF7FEFF 		bl	HAL_GetTick
ARM GAS  C:\Users\Brandon\AppData\Local\Temp\ccpsOax0.s 			page 22


 1211 0106 0646     		mov	r6, r0
 1212 0108 05E0     		b	.L220
 1213              	.L221:
 1214 010a FFF7FEFF 		bl	HAL_GetTick
 1215 010e 801B     		subs	r0, r0, r6
 1216 0110 4045     		cmp	r0, r8
 1217 0112 00F28C80 		bhi	.L232
 1218              	.L220:
 1219 0116 3B69     		ldr	r3, [r7, #16]
 1220 0118 6268     		ldr	r2, [r4, #4]
 1221 011a 03F03803 		and	r3, r3, #56
 1222 011e B3EBC20F 		cmp	r3, r2, lsl #3
 1223 0122 F2D1     		bne	.L221
 1224 0124 2368     		ldr	r3, [r4]
 1225 0126 9907     		lsls	r1, r3, #30
 1226 0128 06D5     		bpl	.L222
 1227 012a E168     		ldr	r1, [r4, #12]
 1228              	.L231:
 1229 012c 4448     		ldr	r0, .L275+4
 1230 012e 8269     		ldr	r2, [r0, #24]
 1231 0130 02F00F02 		and	r2, r2, #15
 1232 0134 8A42     		cmp	r2, r1
 1233 0136 6AD8     		bhi	.L274
 1234              	.L222:
 1235 0138 4049     		ldr	r1, .L275
 1236 013a 0A68     		ldr	r2, [r1]
 1237 013c 02F00F02 		and	r2, r2, #15
 1238 0140 AA42     		cmp	r2, r5
 1239 0142 0AD9     		bls	.L226
 1240 0144 0A68     		ldr	r2, [r1]
 1241 0146 22F00F02 		bic	r2, r2, #15
 1242 014a 2A43     		orrs	r2, r2, r5
 1243 014c 0A60     		str	r2, [r1]
 1244 014e 0A68     		ldr	r2, [r1]
 1245 0150 02F00F02 		and	r2, r2, #15
 1246 0154 AA42     		cmp	r2, r5
 1247 0156 7FF46AAF 		bne	.L209
 1248              	.L226:
 1249 015a 5A07     		lsls	r2, r3, #29
 1250 015c 0BD5     		bpl	.L225
 1251 015e 3849     		ldr	r1, .L275+4
 1252 0160 2069     		ldr	r0, [r4, #16]
 1253 0162 8A69     		ldr	r2, [r1, #24]
 1254 0164 02F07002 		and	r2, r2, #112
 1255 0168 9042     		cmp	r0, r2
 1256 016a 04D2     		bcs	.L225
 1257 016c 8A69     		ldr	r2, [r1, #24]
 1258 016e 22F07002 		bic	r2, r2, #112
 1259 0172 0243     		orrs	r2, r2, r0
 1260 0174 8A61     		str	r2, [r1, #24]
 1261              	.L225:
 1262 0176 1F07     		lsls	r7, r3, #28
 1263 0178 0BD5     		bpl	.L227
 1264 017a 3149     		ldr	r1, .L275+4
 1265 017c 6069     		ldr	r0, [r4, #20]
 1266 017e CA69     		ldr	r2, [r1, #28]
 1267 0180 02F07002 		and	r2, r2, #112
ARM GAS  C:\Users\Brandon\AppData\Local\Temp\ccpsOax0.s 			page 23


 1268 0184 9042     		cmp	r0, r2
 1269 0186 04D2     		bcs	.L227
 1270 0188 CA69     		ldr	r2, [r1, #28]
 1271 018a 22F07002 		bic	r2, r2, #112
 1272 018e 0243     		orrs	r2, r2, r0
 1273 0190 CA61     		str	r2, [r1, #28]
 1274              	.L227:
 1275 0192 DE06     		lsls	r6, r3, #27
 1276 0194 0BD5     		bpl	.L228
 1277 0196 2A49     		ldr	r1, .L275+4
 1278 0198 A069     		ldr	r0, [r4, #24]
 1279 019a CA69     		ldr	r2, [r1, #28]
 1280 019c 02F4E062 		and	r2, r2, #1792
 1281 01a0 9042     		cmp	r0, r2
 1282 01a2 04D2     		bcs	.L228
 1283 01a4 CA69     		ldr	r2, [r1, #28]
 1284 01a6 22F4E062 		bic	r2, r2, #1792
 1285 01aa 0243     		orrs	r2, r2, r0
 1286 01ac CA61     		str	r2, [r1, #28]
 1287              	.L228:
 1288 01ae 9D06     		lsls	r5, r3, #26
 1289 01b0 0BD5     		bpl	.L229
 1290 01b2 234A     		ldr	r2, .L275+4
 1291 01b4 E169     		ldr	r1, [r4, #28]
 1292 01b6 136A     		ldr	r3, [r2, #32]
 1293 01b8 03F07003 		and	r3, r3, #112
 1294 01bc 9942     		cmp	r1, r3
 1295 01be 04D2     		bcs	.L229
 1296 01c0 136A     		ldr	r3, [r2, #32]
 1297 01c2 23F07003 		bic	r3, r3, #112
 1298 01c6 0B43     		orrs	r3, r3, r1
 1299 01c8 1362     		str	r3, [r2, #32]
 1300              	.L229:
 1301 01ca FFF7FEFF 		bl	HAL_RCC_GetSysClockFreq
 1302 01ce 1C4B     		ldr	r3, .L275+4
 1303 01d0 0246     		mov	r2, r0
 1304 01d2 1C48     		ldr	r0, .L275+8
 1305 01d4 9969     		ldr	r1, [r3, #24]
 1306 01d6 9B69     		ldr	r3, [r3, #24]
 1307 01d8 C1F30321 		ubfx	r1, r1, #8, #4
 1308 01dc 1A4D     		ldr	r5, .L275+12
 1309 01de 03F00F03 		and	r3, r3, #15
 1310 01e2 1A4C     		ldr	r4, .L275+16
 1311 01e4 415C     		ldrb	r1, [r0, r1]	@ zero_extendqisi2
 1312 01e6 C35C     		ldrb	r3, [r0, r3]	@ zero_extendqisi2
 1313 01e8 01F01F01 		and	r1, r1, #31
 1314 01ec 2868     		ldr	r0, [r5]
 1315 01ee 03F01F03 		and	r3, r3, #31
 1316 01f2 174D     		ldr	r5, .L275+20
 1317 01f4 CA40     		lsrs	r2, r2, r1
 1318 01f6 22FA03F3 		lsr	r3, r2, r3
 1319 01fa 2A60     		str	r2, [r5]
 1320 01fc 2360     		str	r3, [r4]
 1321 01fe BDE8F041 		pop	{r4, r5, r6, r7, r8, lr}
 1322 0202 FFF7FEBF 		b	HAL_InitTick
 1323              	.L214:
 1324 0206 DA07     		lsls	r2, r3, #31
ARM GAS  C:\Users\Brandon\AppData\Local\Temp\ccpsOax0.s 			page 24


 1325 0208 3FF55EAF 		bmi	.L230
 1326 020c 94E7     		b	.L222
 1327              	.L274:
 1328 020e 8269     		ldr	r2, [r0, #24]
 1329 0210 22F00F02 		bic	r2, r2, #15
 1330 0214 1143     		orrs	r1, r1, r2
 1331 0216 8161     		str	r1, [r0, #24]
 1332 0218 8EE7     		b	.L222
 1333              	.L272:
 1334 021a 9F01     		lsls	r7, r3, #6
 1335 021c 3FF568AF 		bmi	.L217
 1336 0220 05E7     		b	.L209
 1337              	.L270:
 1338 0222 0120     		movs	r0, #1
 1339 0224 7047     		bx	lr
 1340              	.L271:
 1341 0226 9B03     		lsls	r3, r3, #14
 1342 0228 3FF562AF 		bmi	.L217
 1343 022c FFE6     		b	.L209
 1344              	.L232:
 1345 022e 0320     		movs	r0, #3
 1346 0230 FEE6     		b	.L266
 1347              	.L273:
 1348 0232 DE05     		lsls	r6, r3, #23
 1349 0234 3FF55CAF 		bmi	.L217
 1350 0238 F9E6     		b	.L209
 1351              	.L276:
 1352 023a 00BF     		.align	2
 1353              	.L275:
 1354 023c 00200052 		.word	1375739904
 1355 0240 00440258 		.word	1476543488
 1356 0244 00000000 		.word	D1CorePrescTable
 1357 0248 00000000 		.word	uwTickPrio
 1358 024c 00000000 		.word	SystemD2Clock
 1359 0250 00000000 		.word	SystemCoreClock
 1361              		.section	.text.HAL_RCC_GetHCLKFreq,"ax",%progbits
 1362              		.align	1
 1363              		.p2align 2,,3
 1364              		.global	HAL_RCC_GetHCLKFreq
 1365              		.syntax unified
 1366              		.thumb
 1367              		.thumb_func
 1368              		.fpu fpv5-d16
 1370              	HAL_RCC_GetHCLKFreq:
 1371              		@ args = 0, pretend = 0, frame = 0
 1372              		@ frame_needed = 0, uses_anonymous_args = 0
 1373 0000 38B5     		push	{r3, r4, r5, lr}
 1374 0002 FFF7FEFF 		bl	HAL_RCC_GetSysClockFreq
 1375 0006 0B4B     		ldr	r3, .L279
 1376 0008 0B49     		ldr	r1, .L279+4
 1377 000a 9A69     		ldr	r2, [r3, #24]
 1378 000c 9B69     		ldr	r3, [r3, #24]
 1379 000e C2F30322 		ubfx	r2, r2, #8, #4
 1380 0012 0A4C     		ldr	r4, .L279+8
 1381 0014 03F00F03 		and	r3, r3, #15
 1382 0018 094D     		ldr	r5, .L279+12
 1383 001a 8A5C     		ldrb	r2, [r1, r2]	@ zero_extendqisi2
ARM GAS  C:\Users\Brandon\AppData\Local\Temp\ccpsOax0.s 			page 25


 1384 001c CB5C     		ldrb	r3, [r1, r3]	@ zero_extendqisi2
 1385 001e 02F01F02 		and	r2, r2, #31
 1386 0022 03F01F03 		and	r3, r3, #31
 1387 0026 20FA02F2 		lsr	r2, r0, r2
 1388 002a 22FA03F0 		lsr	r0, r2, r3
 1389 002e 2A60     		str	r2, [r5]
 1390 0030 2060     		str	r0, [r4]
 1391 0032 38BD     		pop	{r3, r4, r5, pc}
 1392              	.L280:
 1393              		.align	2
 1394              	.L279:
 1395 0034 00440258 		.word	1476543488
 1396 0038 00000000 		.word	D1CorePrescTable
 1397 003c 00000000 		.word	SystemD2Clock
 1398 0040 00000000 		.word	SystemCoreClock
 1400              		.section	.text.HAL_RCC_GetPCLK1Freq,"ax",%progbits
 1401              		.align	1
 1402              		.p2align 2,,3
 1403              		.global	HAL_RCC_GetPCLK1Freq
 1404              		.syntax unified
 1405              		.thumb
 1406              		.thumb_func
 1407              		.fpu fpv5-d16
 1409              	HAL_RCC_GetPCLK1Freq:
 1410              		@ args = 0, pretend = 0, frame = 0
 1411              		@ frame_needed = 0, uses_anonymous_args = 0
 1412 0000 08B5     		push	{r3, lr}
 1413 0002 FFF7FEFF 		bl	HAL_RCC_GetHCLKFreq
 1414 0006 054B     		ldr	r3, .L283
 1415 0008 054A     		ldr	r2, .L283+4
 1416 000a DB69     		ldr	r3, [r3, #28]
 1417 000c C3F30213 		ubfx	r3, r3, #4, #3
 1418 0010 D35C     		ldrb	r3, [r2, r3]	@ zero_extendqisi2
 1419 0012 03F01F03 		and	r3, r3, #31
 1420 0016 D840     		lsrs	r0, r0, r3
 1421 0018 08BD     		pop	{r3, pc}
 1422              	.L284:
 1423 001a 00BF     		.align	2
 1424              	.L283:
 1425 001c 00440258 		.word	1476543488
 1426 0020 00000000 		.word	D1CorePrescTable
 1428              		.section	.text.HAL_RCC_GetPCLK2Freq,"ax",%progbits
 1429              		.align	1
 1430              		.p2align 2,,3
 1431              		.global	HAL_RCC_GetPCLK2Freq
 1432              		.syntax unified
 1433              		.thumb
 1434              		.thumb_func
 1435              		.fpu fpv5-d16
 1437              	HAL_RCC_GetPCLK2Freq:
 1438              		@ args = 0, pretend = 0, frame = 0
 1439              		@ frame_needed = 0, uses_anonymous_args = 0
 1440 0000 08B5     		push	{r3, lr}
 1441 0002 FFF7FEFF 		bl	HAL_RCC_GetHCLKFreq
 1442 0006 054B     		ldr	r3, .L287
 1443 0008 054A     		ldr	r2, .L287+4
 1444 000a DB69     		ldr	r3, [r3, #28]
ARM GAS  C:\Users\Brandon\AppData\Local\Temp\ccpsOax0.s 			page 26


 1445 000c C3F30223 		ubfx	r3, r3, #8, #3
 1446 0010 D35C     		ldrb	r3, [r2, r3]	@ zero_extendqisi2
 1447 0012 03F01F03 		and	r3, r3, #31
 1448 0016 D840     		lsrs	r0, r0, r3
 1449 0018 08BD     		pop	{r3, pc}
 1450              	.L288:
 1451 001a 00BF     		.align	2
 1452              	.L287:
 1453 001c 00440258 		.word	1476543488
 1454 0020 00000000 		.word	D1CorePrescTable
 1456              		.section	.text.HAL_RCC_GetOscConfig,"ax",%progbits
 1457              		.align	1
 1458              		.p2align 2,,3
 1459              		.global	HAL_RCC_GetOscConfig
 1460              		.syntax unified
 1461              		.thumb
 1462              		.thumb_func
 1463              		.fpu fpv5-d16
 1465              	HAL_RCC_GetOscConfig:
 1466              		@ args = 0, pretend = 0, frame = 0
 1467              		@ frame_needed = 0, uses_anonymous_args = 0
 1468              		@ link register save eliminated.
 1469 0000 3F22     		movs	r2, #63
 1470 0002 334B     		ldr	r3, .L300
 1471 0004 0260     		str	r2, [r0]
 1472 0006 1A68     		ldr	r2, [r3]
 1473 0008 5103     		lsls	r1, r2, #13
 1474 000a 51D5     		bpl	.L290
 1475 000c 4FF4A023 		mov	r3, #327680
 1476 0010 4360     		str	r3, [r0, #4]
 1477              	.L291:
 1478 0012 2F4B     		ldr	r3, .L300
 1479 0014 1A68     		ldr	r2, [r3]
 1480 0016 02F08002 		and	r2, r2, #128
 1481 001a C261     		str	r2, [r0, #28]
 1482 001c DA68     		ldr	r2, [r3, #12]
 1483 001e C2F30562 		ubfx	r2, r2, #24, #6
 1484 0022 0262     		str	r2, [r0, #32]
 1485 0024 1A68     		ldr	r2, [r3]
 1486 0026 02F00102 		and	r2, r2, #1
 1487 002a C260     		str	r2, [r0, #12]
 1488 002c 5A68     		ldr	r2, [r3, #4]
 1489 002e C2F30662 		ubfx	r2, r2, #24, #7
 1490 0032 0261     		str	r2, [r0, #16]
 1491 0034 1A6F     		ldr	r2, [r3, #112]
 1492 0036 5207     		lsls	r2, r2, #29
 1493 0038 42D5     		bpl	.L294
 1494 003a 0523     		movs	r3, #5
 1495 003c 8360     		str	r3, [r0, #8]
 1496              	.L295:
 1497 003e 244B     		ldr	r3, .L300
 1498 0040 5A6F     		ldr	r2, [r3, #116]
 1499 0042 02F00102 		and	r2, r2, #1
 1500 0046 4261     		str	r2, [r0, #20]
 1501 0048 1A68     		ldr	r2, [r3]
 1502 004a C2F30032 		ubfx	r2, r2, #12, #1
 1503 004e 8261     		str	r2, [r0, #24]
ARM GAS  C:\Users\Brandon\AppData\Local\Temp\ccpsOax0.s 			page 27


 1504 0050 1A68     		ldr	r2, [r3]
 1505 0052 12F0807F 		tst	r2, #16777216
 1506 0056 14BF     		ite	ne
 1507 0058 0222     		movne	r2, #2
 1508 005a 0122     		moveq	r2, #1
 1509 005c 4262     		str	r2, [r0, #36]
 1510 005e 9A6A     		ldr	r2, [r3, #40]
 1511 0060 02F00302 		and	r2, r2, #3
 1512 0064 8262     		str	r2, [r0, #40]
 1513 0066 9A6A     		ldr	r2, [r3, #40]
 1514 0068 C2F30512 		ubfx	r2, r2, #4, #6
 1515 006c C262     		str	r2, [r0, #44]
 1516 006e 1A6B     		ldr	r2, [r3, #48]
 1517 0070 C2F30802 		ubfx	r2, r2, #0, #9
 1518 0074 0132     		adds	r2, r2, #1
 1519 0076 0263     		str	r2, [r0, #48]
 1520 0078 1A6B     		ldr	r2, [r3, #48]
 1521 007a C2F30662 		ubfx	r2, r2, #24, #7
 1522 007e 0132     		adds	r2, r2, #1
 1523 0080 C263     		str	r2, [r0, #60]
 1524 0082 1A6B     		ldr	r2, [r3, #48]
 1525 0084 C2F34622 		ubfx	r2, r2, #9, #7
 1526 0088 0132     		adds	r2, r2, #1
 1527 008a 4263     		str	r2, [r0, #52]
 1528 008c 1A6B     		ldr	r2, [r3, #48]
 1529 008e C2F30642 		ubfx	r2, r2, #16, #7
 1530 0092 0132     		adds	r2, r2, #1
 1531 0094 8263     		str	r2, [r0, #56]
 1532 0096 DA6A     		ldr	r2, [r3, #44]
 1533 0098 02F00C02 		and	r2, r2, #12
 1534 009c 0264     		str	r2, [r0, #64]
 1535 009e DA6A     		ldr	r2, [r3, #44]
 1536 00a0 C2F34002 		ubfx	r2, r2, #1, #1
 1537 00a4 4264     		str	r2, [r0, #68]
 1538 00a6 5B6B     		ldr	r3, [r3, #52]
 1539 00a8 C3F3CC03 		ubfx	r3, r3, #3, #13
 1540 00ac 8364     		str	r3, [r0, #72]
 1541 00ae 7047     		bx	lr
 1542              	.L290:
 1543 00b0 1B68     		ldr	r3, [r3]
 1544 00b2 13F48033 		ands	r3, r3, #65536
 1545 00b6 18BF     		it	ne
 1546 00b8 4FF48033 		movne	r3, #65536
 1547 00bc 4360     		str	r3, [r0, #4]
 1548 00be A8E7     		b	.L291
 1549              	.L294:
 1550 00c0 1B6F     		ldr	r3, [r3, #112]
 1551 00c2 13F00103 		ands	r3, r3, #1
 1552 00c6 18BF     		it	ne
 1553 00c8 0123     		movne	r3, #1
 1554 00ca 8360     		str	r3, [r0, #8]
 1555 00cc B7E7     		b	.L295
 1556              	.L301:
 1557 00ce 00BF     		.align	2
 1558              	.L300:
 1559 00d0 00440258 		.word	1476543488
 1561              		.section	.text.HAL_RCC_GetClockConfig,"ax",%progbits
ARM GAS  C:\Users\Brandon\AppData\Local\Temp\ccpsOax0.s 			page 28


 1562              		.align	1
 1563              		.p2align 2,,3
 1564              		.global	HAL_RCC_GetClockConfig
 1565              		.syntax unified
 1566              		.thumb
 1567              		.thumb_func
 1568              		.fpu fpv5-d16
 1570              	HAL_RCC_GetClockConfig:
 1571              		@ args = 0, pretend = 0, frame = 0
 1572              		@ frame_needed = 0, uses_anonymous_args = 0
 1573              		@ link register save eliminated.
 1574 0000 134B     		ldr	r3, .L304
 1575 0002 3F22     		movs	r2, #63
 1576 0004 0260     		str	r2, [r0]
 1577 0006 1A69     		ldr	r2, [r3, #16]
 1578 0008 02F00702 		and	r2, r2, #7
 1579 000c 4260     		str	r2, [r0, #4]
 1580 000e 9A69     		ldr	r2, [r3, #24]
 1581 0010 02F47062 		and	r2, r2, #3840
 1582 0014 8260     		str	r2, [r0, #8]
 1583 0016 9A69     		ldr	r2, [r3, #24]
 1584 0018 02F00F02 		and	r2, r2, #15
 1585 001c C260     		str	r2, [r0, #12]
 1586 001e 9A69     		ldr	r2, [r3, #24]
 1587 0020 02F07002 		and	r2, r2, #112
 1588 0024 0261     		str	r2, [r0, #16]
 1589 0026 DA69     		ldr	r2, [r3, #28]
 1590 0028 02F07002 		and	r2, r2, #112
 1591 002c 4261     		str	r2, [r0, #20]
 1592 002e DA69     		ldr	r2, [r3, #28]
 1593 0030 02F4E062 		and	r2, r2, #1792
 1594 0034 8261     		str	r2, [r0, #24]
 1595 0036 1B6A     		ldr	r3, [r3, #32]
 1596 0038 10B4     		push	{r4}
 1597 003a 03F07003 		and	r3, r3, #112
 1598 003e 054C     		ldr	r4, .L304+4
 1599 0040 C361     		str	r3, [r0, #28]
 1600 0042 2368     		ldr	r3, [r4]
 1601 0044 5DF8044B 		ldr	r4, [sp], #4
 1602 0048 03F00F03 		and	r3, r3, #15
 1603 004c 0B60     		str	r3, [r1]
 1604 004e 7047     		bx	lr
 1605              	.L305:
 1606              		.align	2
 1607              	.L304:
 1608 0050 00440258 		.word	1476543488
 1609 0054 00200052 		.word	1375739904
 1611              		.section	.text.HAL_RCC_CSSCallback,"ax",%progbits
 1612              		.align	1
 1613              		.p2align 2,,3
 1614              		.weak	HAL_RCC_CSSCallback
 1615              		.syntax unified
 1616              		.thumb
 1617              		.thumb_func
 1618              		.fpu fpv5-d16
 1620              	HAL_RCC_CSSCallback:
 1621              		@ args = 0, pretend = 0, frame = 0
ARM GAS  C:\Users\Brandon\AppData\Local\Temp\ccpsOax0.s 			page 29


 1622              		@ frame_needed = 0, uses_anonymous_args = 0
 1623              		@ link register save eliminated.
 1624 0000 7047     		bx	lr
 1626 0002 00BF     		.section	.text.HAL_RCC_NMI_IRQHandler,"ax",%progbits
 1627              		.align	1
 1628              		.p2align 2,,3
 1629              		.global	HAL_RCC_NMI_IRQHandler
 1630              		.syntax unified
 1631              		.thumb
 1632              		.thumb_func
 1633              		.fpu fpv5-d16
 1635              	HAL_RCC_NMI_IRQHandler:
 1636              		@ args = 0, pretend = 0, frame = 0
 1637              		@ frame_needed = 0, uses_anonymous_args = 0
 1638 0000 10B5     		push	{r4, lr}
 1639 0002 054C     		ldr	r4, .L314
 1640 0004 636E     		ldr	r3, [r4, #100]
 1641 0006 5B05     		lsls	r3, r3, #21
 1642 0008 00D4     		bmi	.L313
 1643 000a 10BD     		pop	{r4, pc}
 1644              	.L313:
 1645 000c FFF7FEFF 		bl	HAL_RCC_CSSCallback
 1646 0010 4FF48063 		mov	r3, #1024
 1647 0014 A366     		str	r3, [r4, #104]
 1648 0016 10BD     		pop	{r4, pc}
 1649              	.L315:
 1650              		.align	2
 1651              	.L314:
 1652 0018 00440258 		.word	1476543488
 1654              		.ident	"GCC: (GNU Arm Embedded Toolchain 9-2020-q2-update) 9.3.1 20200408 (release)"
ARM GAS  C:\Users\Brandon\AppData\Local\Temp\ccpsOax0.s 			page 30

