ARM GAS  C:\Users\Brandon\AppData\Local\Temp\ccI59QTV.s 			page 1


   1              		.cpu cortex-m7
   2              		.eabi_attribute 28, 1
   3              		.eabi_attribute 20, 1
   4              		.eabi_attribute 21, 1
   5              		.eabi_attribute 23, 3
   6              		.eabi_attribute 24, 1
   7              		.eabi_attribute 25, 1
   8              		.eabi_attribute 26, 1
   9              		.eabi_attribute 30, 2
  10              		.eabi_attribute 34, 1
  11              		.eabi_attribute 18, 4
  12              		.file	"stm32h7xx_hal_dma.c"
  13              		.text
  14              		.section	.text.DMA_SetConfig,"ax",%progbits
  15              		.align	1
  16              		.p2align 2,,3
  17              		.arch armv7e-m
  18              		.syntax unified
  19              		.thumb
  20              		.thumb_func
  21              		.fpu fpv5-d16
  23              	DMA_SetConfig:
  24              		@ args = 0, pretend = 0, frame = 0
  25              		@ frame_needed = 0, uses_anonymous_args = 0
  26 0000 F0B5     		push	{r4, r5, r6, r7, lr}
  27 0002 5E4D     		ldr	r5, .L23
  28 0004 0468     		ldr	r4, [r0]
  29 0006 D0F858C0 		ldr	ip, [r0, #88]
  30 000a AC42     		cmp	r4, r5
  31 000c 00F09A80 		beq	.L2
  32 0010 1835     		adds	r5, r5, #24
  33 0012 AC42     		cmp	r4, r5
  34 0014 00F09680 		beq	.L2
  35 0018 1835     		adds	r5, r5, #24
  36 001a 594E     		ldr	r6, .L23+4
  37 001c DFF86CE1 		ldr	lr, .L23+16
  38 0020 B442     		cmp	r4, r6
  39 0022 18BF     		it	ne
  40 0024 AC42     		cmpne	r4, r5
  41 0026 574F     		ldr	r7, .L23+8
  42 0028 06F14806 		add	r6, r6, #72
  43 002c 0CBF     		ite	eq
  44 002e 0125     		moveq	r5, #1
  45 0030 0025     		movne	r5, #0
  46 0032 7445     		cmp	r4, lr
  47 0034 08BF     		it	eq
  48 0036 45F00105 		orreq	r5, r5, #1
  49 003a 0EF1480E 		add	lr, lr, #72
  50 003e BC42     		cmp	r4, r7
  51 0040 08BF     		it	eq
  52 0042 45F00105 		orreq	r5, r5, #1
  53 0046 07F56277 		add	r7, r7, #904
  54 004a B442     		cmp	r4, r6
  55 004c 08BF     		it	eq
  56 004e 45F00105 		orreq	r5, r5, #1
  57 0052 4D4E     		ldr	r6, .L23+12
  58 0054 7445     		cmp	r4, lr
ARM GAS  C:\Users\Brandon\AppData\Local\Temp\ccI59QTV.s 			page 2


  59 0056 08BF     		it	eq
  60 0058 45F00105 		orreq	r5, r5, #1
  61 005c DFF830E1 		ldr	lr, .L23+20
  62 0060 BC42     		cmp	r4, r7
  63 0062 08BF     		it	eq
  64 0064 45F00105 		orreq	r5, r5, #1
  65 0068 7445     		cmp	r4, lr
  66 006a 18BF     		it	ne
  67 006c B442     		cmpne	r4, r6
  68 006e 07F11807 		add	r7, r7, #24
  69 0072 0EF1280E 		add	lr, lr, #40
  70 0076 0CBF     		ite	eq
  71 0078 0126     		moveq	r6, #1
  72 007a 0026     		movne	r6, #0
  73 007c BC42     		cmp	r4, r7
  74 007e 08BF     		it	eq
  75 0080 45F00105 		orreq	r5, r5, #1
  76 0084 1837     		adds	r7, r7, #24
  77 0086 7445     		cmp	r4, lr
  78 0088 08BF     		it	eq
  79 008a 46F00106 		orreq	r6, r6, #1
  80 008e 0EF1140E 		add	lr, lr, #20
  81 0092 BC42     		cmp	r4, r7
  82 0094 08BF     		it	eq
  83 0096 45F00105 		orreq	r5, r5, #1
  84 009a 1837     		adds	r7, r7, #24
  85 009c 7445     		cmp	r4, lr
  86 009e 08BF     		it	eq
  87 00a0 46F00106 		orreq	r6, r6, #1
  88 00a4 0EF1140E 		add	lr, lr, #20
  89 00a8 BC42     		cmp	r4, r7
  90 00aa 08BF     		it	eq
  91 00ac 45F00105 		orreq	r5, r5, #1
  92 00b0 1837     		adds	r7, r7, #24
  93 00b2 7445     		cmp	r4, lr
  94 00b4 08BF     		it	eq
  95 00b6 46F00106 		orreq	r6, r6, #1
  96 00ba 0EF1140E 		add	lr, lr, #20
  97 00be BC42     		cmp	r4, r7
  98 00c0 08BF     		it	eq
  99 00c2 45F00105 		orreq	r5, r5, #1
 100 00c6 1837     		adds	r7, r7, #24
 101 00c8 7445     		cmp	r4, lr
 102 00ca 08BF     		it	eq
 103 00cc 46F00106 		orreq	r6, r6, #1
 104 00d0 0EF1140E 		add	lr, lr, #20
 105 00d4 BC42     		cmp	r4, r7
 106 00d6 08BF     		it	eq
 107 00d8 45F00105 		orreq	r5, r5, #1
 108 00dc 1837     		adds	r7, r7, #24
 109 00de 7445     		cmp	r4, lr
 110 00e0 08BF     		it	eq
 111 00e2 46F00106 		orreq	r6, r6, #1
 112 00e6 0EF1140E 		add	lr, lr, #20
 113 00ea BC42     		cmp	r4, r7
 114 00ec 08BF     		it	eq
 115 00ee 45F00105 		orreq	r5, r5, #1
ARM GAS  C:\Users\Brandon\AppData\Local\Temp\ccI59QTV.s 			page 3


 116 00f2 1837     		adds	r7, r7, #24
 117 00f4 7445     		cmp	r4, lr
 118 00f6 08BF     		it	eq
 119 00f8 46F00106 		orreq	r6, r6, #1
 120 00fc BC42     		cmp	r4, r7
 121 00fe 08BF     		it	eq
 122 0100 45F00105 		orreq	r5, r5, #1
 123 0104 06B9     		cbnz	r6, .L3
 124 0106 E5B1     		cbz	r5, .L1
 125              	.L3:
 126 0108 476E     		ldr	r7, [r0, #100]
 127 010a D0E91A6E 		ldrd	r6, lr, [r0, #104]
 128 010e 7E60     		str	r6, [r7, #4]
 129 0110 BEF1000F 		cmp	lr, #0
 130 0114 20D0     		beq	.L22
 131 0116 D0E91C67 		ldrd	r6, r7, [r0, #112]
 132 011a 7760     		str	r7, [r6, #4]
 133 011c F5B1     		cbz	r5, .L5
 134              	.L11:
 135 011e C66D     		ldr	r6, [r0, #92]
 136 0120 3F25     		movs	r5, #63
 137 0122 8768     		ldr	r7, [r0, #8]
 138 0124 06F01F00 		and	r0, r6, #31
 139 0128 402F     		cmp	r7, #64
 140 012a 05FA00F0 		lsl	r0, r5, r0
 141 012e CCF80800 		str	r0, [ip, #8]
 142 0132 2068     		ldr	r0, [r4]
 143 0134 20F48020 		bic	r0, r0, #262144
 144 0138 2060     		str	r0, [r4]
 145 013a 6360     		str	r3, [r4, #4]
 146 013c 1AD0     		beq	.L20
 147              	.L7:
 148 013e A160     		str	r1, [r4, #8]
 149 0140 E260     		str	r2, [r4, #12]
 150              	.L1:
 151 0142 F0BD     		pop	{r4, r5, r6, r7, pc}
 152              	.L2:
 153 0144 D0E91956 		ldrd	r5, r6, [r0, #100]
 154 0148 C76E     		ldr	r7, [r0, #108]
 155 014a 6E60     		str	r6, [r5, #4]
 156 014c 002F     		cmp	r7, #0
 157 014e E6D0     		beq	.L11
 158 0150 D0E91C56 		ldrd	r5, r6, [r0, #112]
 159 0154 6E60     		str	r6, [r5, #4]
 160 0156 E2E7     		b	.L11
 161              	.L22:
 162 0158 002D     		cmp	r5, #0
 163 015a E0D1     		bne	.L11
 164              	.L5:
 165 015c C66D     		ldr	r6, [r0, #92]
 166 015e 0125     		movs	r5, #1
 167 0160 8768     		ldr	r7, [r0, #8]
 168 0162 06F01F00 		and	r0, r6, #31
 169 0166 402F     		cmp	r7, #64
 170 0168 05FA00F0 		lsl	r0, r5, r0
 171 016c CCF80400 		str	r0, [ip, #4]
 172 0170 6360     		str	r3, [r4, #4]
ARM GAS  C:\Users\Brandon\AppData\Local\Temp\ccI59QTV.s 			page 4


 173 0172 E4D1     		bne	.L7
 174              	.L20:
 175 0174 A260     		str	r2, [r4, #8]
 176 0176 E160     		str	r1, [r4, #12]
 177 0178 F0BD     		pop	{r4, r5, r6, r7, pc}
 178              	.L24:
 179 017a 00BF     		.align	2
 180              	.L23:
 181 017c 10000240 		.word	1073872912
 182 0180 58000240 		.word	1073872984
 183 0184 88000240 		.word	1073873032
 184 0188 1C540258 		.word	1476547612
 185 018c 70000240 		.word	1073873008
 186 0190 08540258 		.word	1476547592
 188              		.section	.text.DMA_CalcBaseAndBitshift,"ax",%progbits
 189              		.align	1
 190              		.p2align 2,,3
 191              		.syntax unified
 192              		.thumb
 193              		.thumb_func
 194              		.fpu fpv5-d16
 196              	DMA_CalcBaseAndBitshift:
 197              		@ args = 0, pretend = 0, frame = 0
 198              		@ frame_needed = 0, uses_anonymous_args = 0
 199              		@ link register save eliminated.
 200 0000 0268     		ldr	r2, [r0]
 201 0002 354B     		ldr	r3, .L31
 202 0004 3549     		ldr	r1, .L31+4
 203 0006 30B4     		push	{r4, r5}
 204 0008 354C     		ldr	r4, .L31+8
 205 000a 364D     		ldr	r5, .L31+12
 206 000c A242     		cmp	r2, r4
 207 000e 18BF     		it	ne
 208 0010 9A42     		cmpne	r2, r3
 209 0012 04F14804 		add	r4, r4, #72
 210 0016 0CBF     		ite	eq
 211 0018 0123     		moveq	r3, #1
 212 001a 0023     		movne	r3, #0
 213 001c 8A42     		cmp	r2, r1
 214 001e 08BF     		it	eq
 215 0020 43F00103 		orreq	r3, r3, #1
 216 0024 4831     		adds	r1, r1, #72
 217 0026 AA42     		cmp	r2, r5
 218 0028 08BF     		it	eq
 219 002a 43F00103 		orreq	r3, r3, #1
 220 002e 4835     		adds	r5, r5, #72
 221 0030 A242     		cmp	r2, r4
 222 0032 08BF     		it	eq
 223 0034 43F00103 		orreq	r3, r3, #1
 224 0038 4834     		adds	r4, r4, #72
 225 003a 8A42     		cmp	r2, r1
 226 003c 08BF     		it	eq
 227 003e 43F00103 		orreq	r3, r3, #1
 228 0042 01F56271 		add	r1, r1, #904
 229 0046 AA42     		cmp	r2, r5
 230 0048 08BF     		it	eq
 231 004a 43F00103 		orreq	r3, r3, #1
ARM GAS  C:\Users\Brandon\AppData\Local\Temp\ccI59QTV.s 			page 5


 232 004e 05F56275 		add	r5, r5, #904
 233 0052 A242     		cmp	r2, r4
 234 0054 08BF     		it	eq
 235 0056 43F00103 		orreq	r3, r3, #1
 236 005a 04F56274 		add	r4, r4, #904
 237 005e 8A42     		cmp	r2, r1
 238 0060 08BF     		it	eq
 239 0062 43F00103 		orreq	r3, r3, #1
 240 0066 4831     		adds	r1, r1, #72
 241 0068 AA42     		cmp	r2, r5
 242 006a 08BF     		it	eq
 243 006c 43F00103 		orreq	r3, r3, #1
 244 0070 4835     		adds	r5, r5, #72
 245 0072 A242     		cmp	r2, r4
 246 0074 08BF     		it	eq
 247 0076 43F00103 		orreq	r3, r3, #1
 248 007a 4834     		adds	r4, r4, #72
 249 007c 8A42     		cmp	r2, r1
 250 007e 08BF     		it	eq
 251 0080 43F00103 		orreq	r3, r3, #1
 252 0084 4831     		adds	r1, r1, #72
 253 0086 AA42     		cmp	r2, r5
 254 0088 08BF     		it	eq
 255 008a 43F00103 		orreq	r3, r3, #1
 256 008e A242     		cmp	r2, r4
 257 0090 08BF     		it	eq
 258 0092 43F00103 		orreq	r3, r3, #1
 259 0096 8A42     		cmp	r2, r1
 260 0098 08BF     		it	eq
 261 009a 43F00103 		orreq	r3, r3, #1
 262 009e 13B9     		cbnz	r3, .L26
 263 00a0 114B     		ldr	r3, .L31+16
 264 00a2 9A42     		cmp	r2, r3
 265 00a4 13D1     		bne	.L30
 266              	.L26:
 267 00a6 D3B2     		uxtb	r3, r2
 268 00a8 1049     		ldr	r1, .L31+20
 269 00aa 114C     		ldr	r4, .L31+24
 270 00ac 103B     		subs	r3, r3, #16
 271 00ae A1FB0351 		umull	r5, r1, r1, r3
 272 00b2 5F2B     		cmp	r3, #95
 273 00b4 0F4B     		ldr	r3, .L31+28
 274 00b6 C1F30211 		ubfx	r1, r1, #4, #3
 275 00ba 03EA0203 		and	r3, r3, r2
 276 00be 615C     		ldrb	r1, [r4, r1]	@ zero_extendqisi2
 277 00c0 88BF     		it	hi
 278 00c2 0433     		addhi	r3, r3, #4
 279 00c4 C165     		str	r1, [r0, #92]
 280 00c6 8365     		str	r3, [r0, #88]
 281              	.L25:
 282 00c8 1846     		mov	r0, r3
 283 00ca 30BC     		pop	{r4, r5}
 284 00cc 7047     		bx	lr
 285              	.L30:
 286 00ce 22F0FF03 		bic	r3, r2, #255
 287 00d2 8365     		str	r3, [r0, #88]
 288 00d4 F8E7     		b	.L25
ARM GAS  C:\Users\Brandon\AppData\Local\Temp\ccI59QTV.s 			page 6


 289              	.L32:
 290 00d6 00BF     		.align	2
 291              	.L31:
 292 00d8 10000240 		.word	1073872912
 293 00dc 40000240 		.word	1073872960
 294 00e0 28000240 		.word	1073872936
 295 00e4 58000240 		.word	1073872984
 296 00e8 B8040240 		.word	1073874104
 297 00ec ABAAAAAA 		.word	-1431655765
 298 00f0 00000000 		.word	.LANCHOR0
 299 00f4 00FCFFFF 		.word	-1024
 301              		.section	.text.DMA_CalcDMAMUXChannelBaseAndMask,"ax",%progbits
 302              		.align	1
 303              		.p2align 2,,3
 304              		.syntax unified
 305              		.thumb
 306              		.thumb_func
 307              		.fpu fpv5-d16
 309              	DMA_CalcDMAMUXChannelBaseAndMask:
 310              		@ args = 0, pretend = 0, frame = 0
 311              		@ frame_needed = 0, uses_anonymous_args = 0
 312              		@ link register save eliminated.
 313 0000 0368     		ldr	r3, [r0]
 314 0002 294A     		ldr	r2, .L40
 315 0004 2949     		ldr	r1, .L40+4
 316 0006 30B4     		push	{r4, r5}
 317 0008 294D     		ldr	r5, .L40+8
 318 000a 2A4C     		ldr	r4, .L40+12
 319 000c AB42     		cmp	r3, r5
 320 000e 18BF     		it	ne
 321 0010 9342     		cmpne	r3, r2
 322 0012 05F13C05 		add	r5, r5, #60
 323 0016 0CBF     		ite	eq
 324 0018 0122     		moveq	r2, #1
 325 001a 0022     		movne	r2, #0
 326 001c A342     		cmp	r3, r4
 327 001e 08BF     		it	eq
 328 0020 42F00102 		orreq	r2, r2, #1
 329 0024 3C34     		adds	r4, r4, #60
 330 0026 8B42     		cmp	r3, r1
 331 0028 08BF     		it	eq
 332 002a 42F00102 		orreq	r2, r2, #1
 333 002e 3C31     		adds	r1, r1, #60
 334 0030 AB42     		cmp	r3, r5
 335 0032 08BF     		it	eq
 336 0034 42F00102 		orreq	r2, r2, #1
 337 0038 A342     		cmp	r3, r4
 338 003a 08BF     		it	eq
 339 003c 42F00102 		orreq	r2, r2, #1
 340 0040 8B42     		cmp	r3, r1
 341 0042 08BF     		it	eq
 342 0044 42F00102 		orreq	r2, r2, #1
 343 0048 12B9     		cbnz	r2, .L34
 344 004a 1B4A     		ldr	r2, .L40+16
 345 004c 9342     		cmp	r3, r2
 346 004e 13D1     		bne	.L39
 347              	.L34:
ARM GAS  C:\Users\Brandon\AppData\Local\Temp\ccI59QTV.s 			page 7


 348 0050 DBB2     		uxtb	r3, r3
 349 0052 1A4D     		ldr	r5, .L40+20
 350 0054 1A4A     		ldr	r2, .L40+24
 351 0056 0121     		movs	r1, #1
 352 0058 083B     		subs	r3, r3, #8
 353 005a 1A4C     		ldr	r4, .L40+28
 354 005c A5FB0353 		umull	r5, r3, r5, r3
 355 0060 4466     		str	r4, [r0, #100]
 356 0062 02EB1312 		add	r2, r2, r3, lsr #4
 357 0066 C3F30413 		ubfx	r3, r3, #4, #5
 358 006a 9200     		lsls	r2, r2, #2
 359 006c 01FA03F3 		lsl	r3, r1, r3
 360 0070 0266     		str	r2, [r0, #96]
 361 0072 8366     		str	r3, [r0, #104]
 362              	.L33:
 363 0074 30BC     		pop	{r4, r5}
 364 0076 7047     		bx	lr
 365              	.L39:
 366 0078 DAB2     		uxtb	r2, r3
 367 007a 1349     		ldr	r1, .L40+32
 368 007c 134C     		ldr	r4, .L40+36
 369 007e 1944     		add	r1, r1, r3
 370 0080 103A     		subs	r2, r2, #16
 371 0082 A829     		cmp	r1, #168
 372 0084 A4FB0223 		umull	r2, r3, r4, r2
 373 0088 4FEA1313 		lsr	r3, r3, #4
 374 008c 00D8     		bhi	.L36
 375 008e 0833     		adds	r3, r3, #8
 376              	.L36:
 377 0090 0F4A     		ldr	r2, .L40+40
 378 0092 03F01F05 		and	r5, r3, #31
 379 0096 0121     		movs	r1, #1
 380 0098 0E4C     		ldr	r4, .L40+44
 381 009a 1A44     		add	r2, r2, r3
 382 009c A940     		lsls	r1, r1, r5
 383 009e 4466     		str	r4, [r0, #100]
 384 00a0 9200     		lsls	r2, r2, #2
 385 00a2 8166     		str	r1, [r0, #104]
 386 00a4 0266     		str	r2, [r0, #96]
 387 00a6 E5E7     		b	.L33
 388              	.L41:
 389              		.align	2
 390              	.L40:
 391 00a8 08540258 		.word	1476547592
 392 00ac 44540258 		.word	1476547652
 393 00b0 1C540258 		.word	1476547612
 394 00b4 30540258 		.word	1476547632
 395 00b8 94540258 		.word	1476547732
 396 00bc CDCCCCCC 		.word	-858993459
 397 00c0 00960016 		.word	369137152
 398 00c4 80580258 		.word	1476548736
 399 00c8 F0FBFDBF 		.word	-1073873936
 400 00cc ABAAAAAA 		.word	-1431655765
 401 00d0 00820010 		.word	268468736
 402 00d4 80080240 		.word	1073875072
 404              		.section	.text.DMA_CalcDMAMUXRequestGenBaseAndMask,"ax",%progbits
 405              		.align	1
ARM GAS  C:\Users\Brandon\AppData\Local\Temp\ccI59QTV.s 			page 8


 406              		.p2align 2,,3
 407              		.syntax unified
 408              		.thumb
 409              		.thumb_func
 410              		.fpu fpv5-d16
 412              	DMA_CalcDMAMUXRequestGenBaseAndMask:
 413              		@ args = 0, pretend = 0, frame = 0
 414              		@ frame_needed = 0, uses_anonymous_args = 0
 415              		@ link register save eliminated.
 416 0000 70B4     		push	{r4, r5, r6}
 417 0002 0479     		ldrb	r4, [r0, #4]	@ zero_extendqisi2
 418 0004 611E     		subs	r1, r4, #1
 419 0006 0729     		cmp	r1, #7
 420 0008 30D8     		bhi	.L42
 421 000a 0268     		ldr	r2, [r0]
 422 000c 1C4B     		ldr	r3, .L48
 423 000e 1D4E     		ldr	r6, .L48+4
 424 0010 1D4D     		ldr	r5, .L48+8
 425 0012 B242     		cmp	r2, r6
 426 0014 18BF     		it	ne
 427 0016 9A42     		cmpne	r2, r3
 428 0018 06F12806 		add	r6, r6, #40
 429 001c 0CBF     		ite	eq
 430 001e 0123     		moveq	r3, #1
 431 0020 0023     		movne	r3, #0
 432 0022 AA42     		cmp	r2, r5
 433 0024 08BF     		it	eq
 434 0026 43F00103 		orreq	r3, r3, #1
 435 002a 2835     		adds	r5, r5, #40
 436 002c B242     		cmp	r2, r6
 437 002e 08BF     		it	eq
 438 0030 43F00103 		orreq	r3, r3, #1
 439 0034 2836     		adds	r6, r6, #40
 440 0036 AA42     		cmp	r2, r5
 441 0038 08BF     		it	eq
 442 003a 43F00103 		orreq	r3, r3, #1
 443 003e 2835     		adds	r5, r5, #40
 444 0040 B242     		cmp	r2, r6
 445 0042 08BF     		it	eq
 446 0044 43F00103 		orreq	r3, r3, #1
 447 0048 AA42     		cmp	r2, r5
 448 004a 08BF     		it	eq
 449 004c 43F00103 		orreq	r3, r3, #1
 450 0050 13B9     		cbnz	r3, .L44
 451 0052 0E4B     		ldr	r3, .L48+12
 452 0054 9A42     		cmp	r2, r3
 453 0056 0BD1     		bne	.L47
 454              	.L44:
 455 0058 0D4B     		ldr	r3, .L48+16
 456 005a 0E4A     		ldr	r2, .L48+20
 457 005c 2344     		add	r3, r3, r4
 458 005e 0267     		str	r2, [r0, #112]
 459 0060 9B00     		lsls	r3, r3, #2
 460 0062 C366     		str	r3, [r0, #108]
 461              	.L45:
 462 0064 0123     		movs	r3, #1
 463 0066 03FA01F1 		lsl	r1, r3, r1
ARM GAS  C:\Users\Brandon\AppData\Local\Temp\ccI59QTV.s 			page 9


 464 006a 4167     		str	r1, [r0, #116]
 465              	.L42:
 466 006c 70BC     		pop	{r4, r5, r6}
 467 006e 7047     		bx	lr
 468              	.L47:
 469 0070 094B     		ldr	r3, .L48+24
 470 0072 0A4A     		ldr	r2, .L48+28
 471 0074 2344     		add	r3, r3, r4
 472 0076 0267     		str	r2, [r0, #112]
 473 0078 9B00     		lsls	r3, r3, #2
 474 007a C366     		str	r3, [r0, #108]
 475 007c F2E7     		b	.L45
 476              	.L49:
 477 007e 00BF     		.align	2
 478              	.L48:
 479 0080 08540258 		.word	1476547592
 480 0084 1C540258 		.word	1476547612
 481 0088 30540258 		.word	1476547632
 482 008c 94540258 		.word	1476547732
 483 0090 3F960016 		.word	369137215
 484 0094 40590258 		.word	1476548928
 485 0098 3F820010 		.word	268468799
 486 009c 40090240 		.word	1073875264
 488              		.section	.text.HAL_DMA_Init,"ax",%progbits
 489              		.align	1
 490              		.p2align 2,,3
 491              		.global	HAL_DMA_Init
 492              		.syntax unified
 493              		.thumb
 494              		.thumb_func
 495              		.fpu fpv5-d16
 497              	HAL_DMA_Init:
 498              		@ args = 0, pretend = 0, frame = 0
 499              		@ frame_needed = 0, uses_anonymous_args = 0
 500 0000 F8B5     		push	{r3, r4, r5, r6, r7, lr}
 501 0002 0446     		mov	r4, r0
 502 0004 FFF7FEFF 		bl	HAL_GetTick
 503 0008 002C     		cmp	r4, #0
 504 000a 00F07381 		beq	.L79
 505 000e 2368     		ldr	r3, [r4]
 506 0010 0546     		mov	r5, r0
 507 0012 A84A     		ldr	r2, .L112
 508 0014 9342     		cmp	r3, r2
 509 0016 49D0     		beq	.L53
 510 0018 1832     		adds	r2, r2, #24
 511 001a 9342     		cmp	r3, r2
 512 001c 46D0     		beq	.L53
 513 001e 1832     		adds	r2, r2, #24
 514 0020 A548     		ldr	r0, .L112+4
 515 0022 A649     		ldr	r1, .L112+8
 516 0024 8342     		cmp	r3, r0
 517 0026 18BF     		it	ne
 518 0028 9342     		cmpne	r3, r2
 519 002a 00F13000 		add	r0, r0, #48
 520 002e 0CBF     		ite	eq
 521 0030 0122     		moveq	r2, #1
 522 0032 0022     		movne	r2, #0
ARM GAS  C:\Users\Brandon\AppData\Local\Temp\ccI59QTV.s 			page 10


 523 0034 8B42     		cmp	r3, r1
 524 0036 08BF     		it	eq
 525 0038 42F00102 		orreq	r2, r2, #1
 526 003c 3031     		adds	r1, r1, #48
 527 003e 8342     		cmp	r3, r0
 528 0040 08BF     		it	eq
 529 0042 42F00102 		orreq	r2, r2, #1
 530 0046 3030     		adds	r0, r0, #48
 531 0048 8B42     		cmp	r3, r1
 532 004a 08BF     		it	eq
 533 004c 42F00102 		orreq	r2, r2, #1
 534 0050 01F55C71 		add	r1, r1, #880
 535 0054 8342     		cmp	r3, r0
 536 0056 08BF     		it	eq
 537 0058 42F00102 		orreq	r2, r2, #1
 538 005c 00F55C70 		add	r0, r0, #880
 539 0060 8B42     		cmp	r3, r1
 540 0062 08BF     		it	eq
 541 0064 42F00102 		orreq	r2, r2, #1
 542 0068 3031     		adds	r1, r1, #48
 543 006a 8342     		cmp	r3, r0
 544 006c 08BF     		it	eq
 545 006e 42F00102 		orreq	r2, r2, #1
 546 0072 3030     		adds	r0, r0, #48
 547 0074 8B42     		cmp	r3, r1
 548 0076 08BF     		it	eq
 549 0078 42F00102 		orreq	r2, r2, #1
 550 007c 3031     		adds	r1, r1, #48
 551 007e 8342     		cmp	r3, r0
 552 0080 08BF     		it	eq
 553 0082 42F00102 		orreq	r2, r2, #1
 554 0086 3030     		adds	r0, r0, #48
 555 0088 8B42     		cmp	r3, r1
 556 008a 08BF     		it	eq
 557 008c 42F00102 		orreq	r2, r2, #1
 558 0090 3031     		adds	r1, r1, #48
 559 0092 8342     		cmp	r3, r0
 560 0094 08BF     		it	eq
 561 0096 42F00102 		orreq	r2, r2, #1
 562 009a 8B42     		cmp	r3, r1
 563 009c 08BF     		it	eq
 564 009e 42F00102 		orreq	r2, r2, #1
 565 00a2 1AB9     		cbnz	r2, .L53
 566 00a4 864A     		ldr	r2, .L112+12
 567 00a6 9342     		cmp	r3, r2
 568 00a8 40F05381 		bne	.L106
 569              	.L53:
 570 00ac 0222     		movs	r2, #2
 571 00ae 0021     		movs	r1, #0
 572 00b0 84F83520 		strb	r2, [r4, #53]
 573 00b4 84F83410 		strb	r1, [r4, #52]
 574 00b8 1A68     		ldr	r2, [r3]
 575 00ba 22F00102 		bic	r2, r2, #1
 576 00be 1A60     		str	r2, [r3]
 577 00c0 06E0     		b	.L56
 578              	.L58:
 579 00c2 FFF7FEFF 		bl	HAL_GetTick
ARM GAS  C:\Users\Brandon\AppData\Local\Temp\ccI59QTV.s 			page 11


 580 00c6 431B     		subs	r3, r0, r5
 581 00c8 052B     		cmp	r3, #5
 582 00ca 00F2E180 		bhi	.L107
 583 00ce 2368     		ldr	r3, [r4]
 584              	.L56:
 585 00d0 1A68     		ldr	r2, [r3]
 586 00d2 D707     		lsls	r7, r2, #31
 587 00d4 F5D4     		bmi	.L58
 588 00d6 D4E90220 		ldrd	r2, r0, [r4, #8]
 589 00da 2169     		ldr	r1, [r4, #16]
 590 00dc 0243     		orrs	r2, r2, r0
 591 00de 1F68     		ldr	r7, [r3]
 592 00e0 D4E90560 		ldrd	r6, r0, [r4, #20]
 593 00e4 0A43     		orrs	r2, r2, r1
 594 00e6 3243     		orrs	r2, r2, r6
 595 00e8 764E     		ldr	r6, .L112+16
 596 00ea D4E90751 		ldrd	r5, r1, [r4, #28]
 597 00ee 0243     		orrs	r2, r2, r0
 598 00f0 3E40     		ands	r6, r6, r7
 599 00f2 2A43     		orrs	r2, r2, r5
 600 00f4 656A     		ldr	r5, [r4, #36]
 601 00f6 0A43     		orrs	r2, r2, r1
 602 00f8 042D     		cmp	r5, #4
 603 00fa 42EA0602 		orr	r2, r2, r6
 604 00fe 03D1     		bne	.L59
 605 0100 D4E90B16 		ldrd	r1, r6, [r4, #44]
 606 0104 3143     		orrs	r1, r1, r6
 607 0106 0A43     		orrs	r2, r2, r1
 608              	.L59:
 609 0108 6168     		ldr	r1, [r4, #4]
 610 010a A1F12906 		sub	r6, r1, #41
 611 010e 1F2E     		cmp	r6, #31
 612 0110 40F2C580 		bls	.L60
 613 0114 A1F14F06 		sub	r6, r1, #79
 614 0118 032E     		cmp	r6, #3
 615 011a 00F2C680 		bhi	.L62
 616              	.L61:
 617 011e 42F48012 		orr	r2, r2, #1048576
 618              	.L63:
 619 0122 1A60     		str	r2, [r3]
 620 0124 042D     		cmp	r5, #4
 621 0126 5969     		ldr	r1, [r3, #20]
 622 0128 21F00701 		bic	r1, r1, #7
 623 012c 41EA0501 		orr	r1, r1, r5
 624 0130 0DD1     		bne	.L64
 625 0132 D4E90A25 		ldrd	r2, r5, [r4, #40]
 626 0136 1143     		orrs	r1, r1, r2
 627 0138 4DB1     		cbz	r5, .L64
 628 013a 0028     		cmp	r0, #0
 629 013c 40F0E480 		bne	.L65
 630 0140 012A     		cmp	r2, #1
 631 0142 00F00181 		beq	.L69
 632 0146 32F00202 		bics	r2, r2, #2
 633 014a 00F0E580 		beq	.L104
 634              	.L64:
 635 014e 5961     		str	r1, [r3, #20]
 636 0150 2046     		mov	r0, r4
ARM GAS  C:\Users\Brandon\AppData\Local\Temp\ccI59QTV.s 			page 12


 637 0152 FFF7FEFF 		bl	DMA_CalcBaseAndBitshift
 638 0156 E26D     		ldr	r2, [r4, #92]
 639 0158 3F23     		movs	r3, #63
 640 015a 02F01F02 		and	r2, r2, #31
 641 015e 9340     		lsls	r3, r3, r2
 642 0160 8360     		str	r3, [r0, #8]
 643              	.L72:
 644 0162 2268     		ldr	r2, [r4]
 645 0164 534B     		ldr	r3, .L112
 646 0166 5849     		ldr	r1, .L112+20
 647 0168 584D     		ldr	r5, .L112+24
 648 016a 8A42     		cmp	r2, r1
 649 016c 18BF     		it	ne
 650 016e 9A42     		cmpne	r2, r3
 651 0170 5148     		ldr	r0, .L112+4
 652 0172 01F14801 		add	r1, r1, #72
 653 0176 0CBF     		ite	eq
 654 0178 0123     		moveq	r3, #1
 655 017a 0023     		movne	r3, #0
 656 017c AA42     		cmp	r2, r5
 657 017e 08BF     		it	eq
 658 0180 43F00103 		orreq	r3, r3, #1
 659 0184 4835     		adds	r5, r5, #72
 660 0186 8242     		cmp	r2, r0
 661 0188 08BF     		it	eq
 662 018a 43F00103 		orreq	r3, r3, #1
 663 018e 4830     		adds	r0, r0, #72
 664 0190 8A42     		cmp	r2, r1
 665 0192 08BF     		it	eq
 666 0194 43F00103 		orreq	r3, r3, #1
 667 0198 4831     		adds	r1, r1, #72
 668 019a AA42     		cmp	r2, r5
 669 019c 08BF     		it	eq
 670 019e 43F00103 		orreq	r3, r3, #1
 671 01a2 05F56275 		add	r5, r5, #904
 672 01a6 8242     		cmp	r2, r0
 673 01a8 08BF     		it	eq
 674 01aa 43F00103 		orreq	r3, r3, #1
 675 01ae 00F56270 		add	r0, r0, #904
 676 01b2 8A42     		cmp	r2, r1
 677 01b4 08BF     		it	eq
 678 01b6 43F00103 		orreq	r3, r3, #1
 679 01ba 01F56271 		add	r1, r1, #904
 680 01be AA42     		cmp	r2, r5
 681 01c0 08BF     		it	eq
 682 01c2 43F00103 		orreq	r3, r3, #1
 683 01c6 4835     		adds	r5, r5, #72
 684 01c8 8242     		cmp	r2, r0
 685 01ca 08BF     		it	eq
 686 01cc 43F00103 		orreq	r3, r3, #1
 687 01d0 4830     		adds	r0, r0, #72
 688 01d2 8A42     		cmp	r2, r1
 689 01d4 08BF     		it	eq
 690 01d6 43F00103 		orreq	r3, r3, #1
 691 01da 4831     		adds	r1, r1, #72
 692 01dc AA42     		cmp	r2, r5
 693 01de 08BF     		it	eq
ARM GAS  C:\Users\Brandon\AppData\Local\Temp\ccI59QTV.s 			page 13


 694 01e0 43F00103 		orreq	r3, r3, #1
 695 01e4 4835     		adds	r5, r5, #72
 696 01e6 8242     		cmp	r2, r0
 697 01e8 08BF     		it	eq
 698 01ea 43F00103 		orreq	r3, r3, #1
 699 01ee 4830     		adds	r0, r0, #72
 700 01f0 8A42     		cmp	r2, r1
 701 01f2 08BF     		it	eq
 702 01f4 43F00103 		orreq	r3, r3, #1
 703 01f8 01F1C051 		add	r1, r1, #402653184
 704 01fc AA42     		cmp	r2, r5
 705 01fe 08BF     		it	eq
 706 0200 43F00103 		orreq	r3, r3, #1
 707 0204 01F59F41 		add	r1, r1, #20352
 708 0208 314D     		ldr	r5, .L112+28
 709 020a 8242     		cmp	r2, r0
 710 020c 08BF     		it	eq
 711 020e 43F00103 		orreq	r3, r3, #1
 712 0212 3048     		ldr	r0, .L112+32
 713 0214 8A42     		cmp	r2, r1
 714 0216 08BF     		it	eq
 715 0218 43F00103 		orreq	r3, r3, #1
 716 021c 3C31     		adds	r1, r1, #60
 717 021e AA42     		cmp	r2, r5
 718 0220 08BF     		it	eq
 719 0222 43F00103 		orreq	r3, r3, #1
 720 0226 3C35     		adds	r5, r5, #60
 721 0228 8242     		cmp	r2, r0
 722 022a 08BF     		it	eq
 723 022c 43F00103 		orreq	r3, r3, #1
 724 0230 3C30     		adds	r0, r0, #60
 725 0232 8A42     		cmp	r2, r1
 726 0234 08BF     		it	eq
 727 0236 43F00103 		orreq	r3, r3, #1
 728 023a 3C31     		adds	r1, r1, #60
 729 023c AA42     		cmp	r2, r5
 730 023e 08BF     		it	eq
 731 0240 43F00103 		orreq	r3, r3, #1
 732 0244 8242     		cmp	r2, r0
 733 0246 08BF     		it	eq
 734 0248 43F00103 		orreq	r3, r3, #1
 735 024c 8A42     		cmp	r2, r1
 736 024e 08BF     		it	eq
 737 0250 43F00103 		orreq	r3, r3, #1
 738 0254 13B9     		cbnz	r3, .L82
 739 0256 204B     		ldr	r3, .L112+36
 740 0258 9A42     		cmp	r2, r3
 741 025a 13D1     		bne	.L74
 742              	.L82:
 743 025c 2046     		mov	r0, r4
 744 025e FFF7FEFF 		bl	DMA_CalcDMAMUXChannelBaseAndMask
 745 0262 A368     		ldr	r3, [r4, #8]
 746 0264 802B     		cmp	r3, #128
 747 0266 47D0     		beq	.L108
 748 0268 6368     		ldr	r3, [r4, #4]
 749 026a 206E     		ldr	r0, [r4, #96]
 750 026c DDB2     		uxtb	r5, r3
ARM GAS  C:\Users\Brandon\AppData\Local\Temp\ccI59QTV.s 			page 14


 751 026e 013B     		subs	r3, r3, #1
 752 0270 D4E91921 		ldrd	r2, r1, [r4, #100]
 753 0274 072B     		cmp	r3, #7
 754 0276 0560     		str	r5, [r0]
 755 0278 5160     		str	r1, [r2, #4]
 756 027a 31D9     		bls	.L109
 757              	.L77:
 758 027c 0023     		movs	r3, #0
 759 027e C4E91B33 		strd	r3, r3, [r4, #108]
 760 0282 6367     		str	r3, [r4, #116]
 761              	.L74:
 762 0284 0020     		movs	r0, #0
 763 0286 0123     		movs	r3, #1
 764 0288 6065     		str	r0, [r4, #84]
 765 028a 84F83530 		strb	r3, [r4, #53]
 766 028e F8BD     		pop	{r3, r4, r5, r6, r7, pc}
 767              	.L107:
 768 0290 2022     		movs	r2, #32
 769 0292 0323     		movs	r3, #3
 770 0294 0120     		movs	r0, #1
 771 0296 6265     		str	r2, [r4, #84]
 772 0298 84F83530 		strb	r3, [r4, #53]
 773 029c F8BD     		pop	{r3, r4, r5, r6, r7, pc}
 774              	.L60:
 775 029e 0F4F     		ldr	r7, .L112+40
 776 02a0 27FA06F6 		lsr	r6, r7, r6
 777 02a4 F607     		lsls	r6, r6, #31
 778 02a6 3FF53AAF 		bmi	.L61
 779              	.L62:
 780 02aa 7439     		subs	r1, r1, #116
 781 02ac 0329     		cmp	r1, #3
 782 02ae 3FF638AF 		bhi	.L63
 783 02b2 34E7     		b	.L61
 784              	.L113:
 785              		.align	2
 786              	.L112:
 787 02b4 10000240 		.word	1073872912
 788 02b8 58000240 		.word	1073872984
 789 02bc 70000240 		.word	1073873008
 790 02c0 B8040240 		.word	1073874104
 791 02c4 3F8010FE 		.word	-32473025
 792 02c8 28000240 		.word	1073872936
 793 02cc 40000240 		.word	1073872960
 794 02d0 1C540258 		.word	1476547612
 795 02d4 30540258 		.word	1476547632
 796 02d8 94540258 		.word	1476547732
 797 02dc 3F00C0C3 		.word	-1010827201
 798              	.L109:
 799 02e0 2046     		mov	r0, r4
 800 02e2 FFF7FEFF 		bl	DMA_CalcDMAMUXRequestGenBaseAndMask
 801 02e6 E16E     		ldr	r1, [r4, #108]
 802 02e8 0020     		movs	r0, #0
 803 02ea D4E91C32 		ldrd	r3, r2, [r4, #112]
 804 02ee 0860     		str	r0, [r1]
 805 02f0 5A60     		str	r2, [r3, #4]
 806 02f2 C7E7     		b	.L74
 807              	.L79:
ARM GAS  C:\Users\Brandon\AppData\Local\Temp\ccI59QTV.s 			page 15


 808 02f4 0120     		movs	r0, #1
 809 02f6 F8BD     		pop	{r3, r4, r5, r6, r7, pc}
 810              	.L108:
 811 02f8 0023     		movs	r3, #0
 812 02fa A16E     		ldr	r1, [r4, #104]
 813 02fc D4E91802 		ldrd	r0, r2, [r4, #96]
 814 0300 6360     		str	r3, [r4, #4]
 815 0302 0360     		str	r3, [r0]
 816 0304 5160     		str	r1, [r2, #4]
 817 0306 B9E7     		b	.L77
 818              	.L65:
 819 0308 B0F5005F 		cmp	r0, #8192
 820 030c 0ED0     		beq	.L110
 821 030e 022A     		cmp	r2, #2
 822 0310 05D9     		bls	.L67
 823 0312 032A     		cmp	r2, #3
 824 0314 7FF41BAF 		bne	.L64
 825              	.L104:
 826 0318 EA01     		lsls	r2, r5, #7
 827 031a 7FF518AF 		bpl	.L64
 828              	.L67:
 829 031e 0123     		movs	r3, #1
 830 0320 4022     		movs	r2, #64
 831 0322 1846     		mov	r0, r3
 832 0324 6265     		str	r2, [r4, #84]
 833 0326 84F83530 		strb	r3, [r4, #53]
 834 032a F8BD     		pop	{r3, r4, r5, r6, r7, pc}
 835              	.L110:
 836 032c 032A     		cmp	r2, #3
 837 032e 3FF60EAF 		bhi	.L64
 838 0332 01A0     		adr	r0, .L70
 839 0334 50F822F0 		ldr	pc, [r0, r2, lsl #2]
 840              		.p2align 2
 841              	.L70:
 842 0338 1F030000 		.word	.L67+1
 843 033c 19030000 		.word	.L104+1
 844 0340 1F030000 		.word	.L67+1
 845 0344 49030000 		.word	.L69+1
 846              		.p2align 1
 847              	.L69:
 848 0348 B5F1C07F 		cmp	r5, #25165824
 849 034c 7FF4FFAE 		bne	.L64
 850 0350 E5E7     		b	.L67
 851              	.L106:
 852 0352 344A     		ldr	r2, .L114
 853 0354 3449     		ldr	r1, .L114+4
 854 0356 3548     		ldr	r0, .L114+8
 855 0358 8B42     		cmp	r3, r1
 856 035a 18BF     		it	ne
 857 035c 9342     		cmpne	r3, r2
 858 035e 01F12801 		add	r1, r1, #40
 859 0362 334D     		ldr	r5, .L114+12
 860 0364 0CBF     		ite	eq
 861 0366 0122     		moveq	r2, #1
 862 0368 0022     		movne	r2, #0
 863 036a 8342     		cmp	r3, r0
 864 036c 08BF     		it	eq
ARM GAS  C:\Users\Brandon\AppData\Local\Temp\ccI59QTV.s 			page 16


 865 036e 42F00102 		orreq	r2, r2, #1
 866 0372 3C30     		adds	r0, r0, #60
 867 0374 8B42     		cmp	r3, r1
 868 0376 08BF     		it	eq
 869 0378 42F00102 		orreq	r2, r2, #1
 870 037c 3C31     		adds	r1, r1, #60
 871 037e AB42     		cmp	r3, r5
 872 0380 08BF     		it	eq
 873 0382 42F00102 		orreq	r2, r2, #1
 874 0386 8342     		cmp	r3, r0
 875 0388 08BF     		it	eq
 876 038a 42F00102 		orreq	r2, r2, #1
 877 038e 8B42     		cmp	r3, r1
 878 0390 08BF     		it	eq
 879 0392 42F00102 		orreq	r2, r2, #1
 880 0396 12B9     		cbnz	r2, .L54
 881 0398 264A     		ldr	r2, .L114+16
 882 039a 9342     		cmp	r3, r2
 883 039c 3AD1     		bne	.L111
 884              	.L54:
 885 039e 0222     		movs	r2, #2
 886 03a0 0021     		movs	r1, #0
 887 03a2 254F     		ldr	r7, .L114+20
 888 03a4 84F83520 		strb	r2, [r4, #53]
 889 03a8 A268     		ldr	r2, [r4, #8]
 890 03aa 84F83410 		strb	r1, [r4, #52]
 891 03ae 402A     		cmp	r2, #64
 892 03b0 1968     		ldr	r1, [r3]
 893 03b2 07EA0107 		and	r7, r7, r1
 894 03b6 2BD0     		beq	.L80
 895 03b8 802A     		cmp	r2, #128
 896 03ba 0CBF     		ite	eq
 897 03bc 4FF48041 		moveq	r1, #16384
 898 03c0 0021     		movne	r1, #0
 899              	.L73:
 900 03c2 2269     		ldr	r2, [r4, #16]
 901 03c4 2046     		mov	r0, r4
 902 03c6 E668     		ldr	r6, [r4, #12]
 903 03c8 D208     		lsrs	r2, r2, #3
 904 03ca 6569     		ldr	r5, [r4, #20]
 905 03cc DFF870C0 		ldr	ip, .L114+28
 906 03d0 42EAD602 		orr	r2, r2, r6, lsr #3
 907 03d4 A669     		ldr	r6, [r4, #24]
 908 03d6 42EAD502 		orr	r2, r2, r5, lsr #3
 909 03da E569     		ldr	r5, [r4, #28]
 910 03dc 42EAD602 		orr	r2, r2, r6, lsr #3
 911 03e0 164E     		ldr	r6, .L114+24
 912 03e2 42EAD502 		orr	r2, r2, r5, lsr #3
 913 03e6 1E44     		add	r6, r6, r3
 914 03e8 256A     		ldr	r5, [r4, #32]
 915 03ea 42EA1512 		orr	r2, r2, r5, lsr #4
 916 03ee ACFB0665 		umull	r6, r5, ip, r6
 917 03f2 3A43     		orrs	r2, r2, r7
 918 03f4 2D09     		lsrs	r5, r5, #4
 919 03f6 1143     		orrs	r1, r1, r2
 920 03f8 AD00     		lsls	r5, r5, #2
 921 03fa 1960     		str	r1, [r3]
ARM GAS  C:\Users\Brandon\AppData\Local\Temp\ccI59QTV.s 			page 17


 922 03fc E565     		str	r5, [r4, #92]
 923 03fe FFF7FEFF 		bl	DMA_CalcBaseAndBitshift
 924 0402 E26D     		ldr	r2, [r4, #92]
 925 0404 0123     		movs	r3, #1
 926 0406 02F01F02 		and	r2, r2, #31
 927 040a 9340     		lsls	r3, r3, r2
 928 040c 4360     		str	r3, [r0, #4]
 929 040e A8E6     		b	.L72
 930              	.L80:
 931 0410 1021     		movs	r1, #16
 932 0412 D6E7     		b	.L73
 933              	.L111:
 934 0414 4022     		movs	r2, #64
 935 0416 0323     		movs	r3, #3
 936 0418 0120     		movs	r0, #1
 937 041a 6265     		str	r2, [r4, #84]
 938 041c 84F83530 		strb	r3, [r4, #53]
 939 0420 F8BD     		pop	{r3, r4, r5, r6, r7, pc}
 940              	.L115:
 941 0422 00BF     		.align	2
 942              	.L114:
 943 0424 08540258 		.word	1476547592
 944 0428 1C540258 		.word	1476547612
 945 042c 30540258 		.word	1476547632
 946 0430 58540258 		.word	1476547672
 947 0434 94540258 		.word	1476547732
 948 0438 0F00FEFF 		.word	-131057
 949 043c F8ABFDA7 		.word	-1476547592
 950 0440 CDCCCCCC 		.word	-858993459
 952              		.section	.text.HAL_DMA_DeInit,"ax",%progbits
 953              		.align	1
 954              		.p2align 2,,3
 955              		.global	HAL_DMA_DeInit
 956              		.syntax unified
 957              		.thumb
 958              		.thumb_func
 959              		.fpu fpv5-d16
 961              	HAL_DMA_DeInit:
 962              		@ args = 0, pretend = 0, frame = 0
 963              		@ frame_needed = 0, uses_anonymous_args = 0
 964 0000 0028     		cmp	r0, #0
 965 0002 00F0CD80 		beq	.L137
 966 0006 0268     		ldr	r2, [r0]
 967 0008 6649     		ldr	r1, .L139
 968 000a 38B5     		push	{r3, r4, r5, lr}
 969 000c 664B     		ldr	r3, .L139+4
 970 000e 0446     		mov	r4, r0
 971 0010 664D     		ldr	r5, .L139+8
 972 0012 8A42     		cmp	r2, r1
 973 0014 18BF     		it	ne
 974 0016 9A42     		cmpne	r2, r3
 975 0018 6548     		ldr	r0, .L139+12
 976 001a 01F16001 		add	r1, r1, #96
 977 001e 0CBF     		ite	eq
 978 0020 0123     		moveq	r3, #1
 979 0022 0023     		movne	r3, #0
 980 0024 AA42     		cmp	r2, r5
ARM GAS  C:\Users\Brandon\AppData\Local\Temp\ccI59QTV.s 			page 18


 981 0026 08BF     		it	eq
 982 0028 43F00103 		orreq	r3, r3, #1
 983 002c 4835     		adds	r5, r5, #72
 984 002e 8242     		cmp	r2, r0
 985 0030 08BF     		it	eq
 986 0032 43F00103 		orreq	r3, r3, #1
 987 0036 00F56270 		add	r0, r0, #904
 988 003a 8A42     		cmp	r2, r1
 989 003c 08BF     		it	eq
 990 003e 43F00103 		orreq	r3, r3, #1
 991 0042 01F56271 		add	r1, r1, #904
 992 0046 AA42     		cmp	r2, r5
 993 0048 08BF     		it	eq
 994 004a 43F00103 		orreq	r3, r3, #1
 995 004e 05F56275 		add	r5, r5, #904
 996 0052 8242     		cmp	r2, r0
 997 0054 08BF     		it	eq
 998 0056 43F00103 		orreq	r3, r3, #1
 999 005a 4830     		adds	r0, r0, #72
 1000 005c 8A42     		cmp	r2, r1
 1001 005e 08BF     		it	eq
 1002 0060 43F00103 		orreq	r3, r3, #1
 1003 0064 4831     		adds	r1, r1, #72
 1004 0066 AA42     		cmp	r2, r5
 1005 0068 08BF     		it	eq
 1006 006a 43F00103 		orreq	r3, r3, #1
 1007 006e 4835     		adds	r5, r5, #72
 1008 0070 8242     		cmp	r2, r0
 1009 0072 08BF     		it	eq
 1010 0074 43F00103 		orreq	r3, r3, #1
 1011 0078 4830     		adds	r0, r0, #72
 1012 007a 8A42     		cmp	r2, r1
 1013 007c 08BF     		it	eq
 1014 007e 43F00103 		orreq	r3, r3, #1
 1015 0082 4831     		adds	r1, r1, #72
 1016 0084 AA42     		cmp	r2, r5
 1017 0086 08BF     		it	eq
 1018 0088 43F00103 		orreq	r3, r3, #1
 1019 008c 8242     		cmp	r2, r0
 1020 008e 08BF     		it	eq
 1021 0090 43F00103 		orreq	r3, r3, #1
 1022 0094 8A42     		cmp	r2, r1
 1023 0096 08BF     		it	eq
 1024 0098 43F00103 		orreq	r3, r3, #1
 1025 009c 33B9     		cbnz	r3, .L126
 1026 009e A1F59561 		sub	r1, r1, #1192
 1027 00a2 444B     		ldr	r3, .L139+16
 1028 00a4 9A42     		cmp	r2, r3
 1029 00a6 18BF     		it	ne
 1030 00a8 8A42     		cmpne	r2, r1
 1031 00aa 3DD1     		bne	.L119
 1032              	.L126:
 1033 00ac 1168     		ldr	r1, [r2]
 1034 00ae 0023     		movs	r3, #0
 1035 00b0 2125     		movs	r5, #33
 1036 00b2 2046     		mov	r0, r4
 1037 00b4 21F00101 		bic	r1, r1, #1
ARM GAS  C:\Users\Brandon\AppData\Local\Temp\ccI59QTV.s 			page 19


 1038 00b8 1160     		str	r1, [r2]
 1039 00ba 1360     		str	r3, [r2]
 1040 00bc 5360     		str	r3, [r2, #4]
 1041 00be 9360     		str	r3, [r2, #8]
 1042 00c0 D360     		str	r3, [r2, #12]
 1043 00c2 1361     		str	r3, [r2, #16]
 1044 00c4 5561     		str	r5, [r2, #20]
 1045 00c6 FFF7FEFF 		bl	DMA_CalcBaseAndBitshift
 1046 00ca E26D     		ldr	r2, [r4, #92]
 1047 00cc 3F23     		movs	r3, #63
 1048 00ce 02F01F02 		and	r2, r2, #31
 1049 00d2 9340     		lsls	r3, r3, r2
 1050 00d4 8360     		str	r3, [r0, #8]
 1051              	.L121:
 1052 00d6 2046     		mov	r0, r4
 1053 00d8 FFF7FEFF 		bl	DMA_CalcDMAMUXChannelBaseAndMask
 1054 00dc 236E     		ldr	r3, [r4, #96]
 1055 00de 23B1     		cbz	r3, .L124
 1056 00e0 0020     		movs	r0, #0
 1057 00e2 D4E91921 		ldrd	r2, r1, [r4, #100]
 1058 00e6 1860     		str	r0, [r3]
 1059 00e8 5160     		str	r1, [r2, #4]
 1060              	.L124:
 1061 00ea 6368     		ldr	r3, [r4, #4]
 1062 00ec 013B     		subs	r3, r3, #1
 1063 00ee 072B     		cmp	r3, #7
 1064 00f0 10D9     		bls	.L138
 1065              	.L125:
 1066 00f2 0023     		movs	r3, #0
 1067 00f4 6365     		str	r3, [r4, #84]
 1068 00f6 1846     		mov	r0, r3
 1069 00f8 6367     		str	r3, [r4, #116]
 1070 00fa 84F83530 		strb	r3, [r4, #53]
 1071 00fe 84F83430 		strb	r3, [r4, #52]
 1072 0102 C4E91B33 		strd	r3, r3, [r4, #108]
 1073 0106 C4E90F33 		strd	r3, r3, [r4, #60]
 1074 010a C4E91133 		strd	r3, r3, [r4, #68]
 1075 010e C4E91333 		strd	r3, r3, [r4, #76]
 1076 0112 38BD     		pop	{r3, r4, r5, pc}
 1077              	.L138:
 1078 0114 2046     		mov	r0, r4
 1079 0116 FFF7FEFF 		bl	DMA_CalcDMAMUXRequestGenBaseAndMask
 1080 011a E16E     		ldr	r1, [r4, #108]
 1081 011c 0020     		movs	r0, #0
 1082 011e D4E91C32 		ldrd	r3, r2, [r4, #112]
 1083 0122 0860     		str	r0, [r1]
 1084 0124 5A60     		str	r2, [r3, #4]
 1085 0126 E4E7     		b	.L125
 1086              	.L119:
 1087 0128 234B     		ldr	r3, .L139+20
 1088 012a 2449     		ldr	r1, .L139+24
 1089 012c 244D     		ldr	r5, .L139+28
 1090 012e 8A42     		cmp	r2, r1
 1091 0130 18BF     		it	ne
 1092 0132 9A42     		cmpne	r2, r3
 1093 0134 2348     		ldr	r0, .L139+32
 1094 0136 01F13C01 		add	r1, r1, #60
ARM GAS  C:\Users\Brandon\AppData\Local\Temp\ccI59QTV.s 			page 20


 1095 013a 0CBF     		ite	eq
 1096 013c 0123     		moveq	r3, #1
 1097 013e 0023     		movne	r3, #0
 1098 0140 AA42     		cmp	r2, r5
 1099 0142 08BF     		it	eq
 1100 0144 43F00103 		orreq	r3, r3, #1
 1101 0148 3C35     		adds	r5, r5, #60
 1102 014a 8242     		cmp	r2, r0
 1103 014c 08BF     		it	eq
 1104 014e 43F00103 		orreq	r3, r3, #1
 1105 0152 3C30     		adds	r0, r0, #60
 1106 0154 8A42     		cmp	r2, r1
 1107 0156 08BF     		it	eq
 1108 0158 43F00103 		orreq	r3, r3, #1
 1109 015c 1168     		ldr	r1, [r2]
 1110 015e AA42     		cmp	r2, r5
 1111 0160 08BF     		it	eq
 1112 0162 43F00103 		orreq	r3, r3, #1
 1113 0166 21F00101 		bic	r1, r1, #1
 1114 016a 8242     		cmp	r2, r0
 1115 016c 08BF     		it	eq
 1116 016e 43F00103 		orreq	r3, r3, #1
 1117 0172 1160     		str	r1, [r2]
 1118 0174 13B9     		cbnz	r3, .L127
 1119 0176 144B     		ldr	r3, .L139+36
 1120 0178 9A42     		cmp	r2, r3
 1121 017a 0FD1     		bne	.L122
 1122              	.L127:
 1123 017c 0023     		movs	r3, #0
 1124 017e 2046     		mov	r0, r4
 1125 0180 1360     		str	r3, [r2]
 1126 0182 5360     		str	r3, [r2, #4]
 1127 0184 9360     		str	r3, [r2, #8]
 1128 0186 D360     		str	r3, [r2, #12]
 1129 0188 1361     		str	r3, [r2, #16]
 1130 018a FFF7FEFF 		bl	DMA_CalcBaseAndBitshift
 1131 018e E26D     		ldr	r2, [r4, #92]
 1132 0190 0123     		movs	r3, #1
 1133 0192 02F01F02 		and	r2, r2, #31
 1134 0196 9340     		lsls	r3, r3, r2
 1135 0198 4360     		str	r3, [r0, #4]
 1136 019a 9CE7     		b	.L121
 1137              	.L122:
 1138 019c 0120     		movs	r0, #1
 1139 019e 38BD     		pop	{r3, r4, r5, pc}
 1140              	.L137:
 1141 01a0 0120     		movs	r0, #1
 1142 01a2 7047     		bx	lr
 1143              	.L140:
 1144              		.align	2
 1145              	.L139:
 1146 01a4 40000240 		.word	1073872960
 1147 01a8 58000240 		.word	1073872984
 1148 01ac 70000240 		.word	1073873008
 1149 01b0 88000240 		.word	1073873032
 1150 01b4 28000240 		.word	1073872936
 1151 01b8 08540258 		.word	1476547592
ARM GAS  C:\Users\Brandon\AppData\Local\Temp\ccI59QTV.s 			page 21


 1152 01bc 1C540258 		.word	1476547612
 1153 01c0 30540258 		.word	1476547632
 1154 01c4 44540258 		.word	1476547652
 1155 01c8 94540258 		.word	1476547732
 1157              		.section	.text.HAL_DMA_Start,"ax",%progbits
 1158              		.align	1
 1159              		.p2align 2,,3
 1160              		.global	HAL_DMA_Start
 1161              		.syntax unified
 1162              		.thumb
 1163              		.thumb_func
 1164              		.fpu fpv5-d16
 1166              	HAL_DMA_Start:
 1167              		@ args = 0, pretend = 0, frame = 0
 1168              		@ frame_needed = 0, uses_anonymous_args = 0
 1169 0000 0028     		cmp	r0, #0
 1170 0002 7CD0     		beq	.L149
 1171 0004 F8B5     		push	{r3, r4, r5, r6, r7, lr}
 1172 0006 0446     		mov	r4, r0
 1173 0008 90F83400 		ldrb	r0, [r0, #52]	@ zero_extendqisi2
 1174 000c 0128     		cmp	r0, #1
 1175 000e 78D0     		beq	.L150
 1176 0010 0120     		movs	r0, #1
 1177 0012 94F83550 		ldrb	r5, [r4, #53]	@ zero_extendqisi2
 1178 0016 8542     		cmp	r5, r0
 1179 0018 84F83400 		strb	r0, [r4, #52]
 1180 001c 06D0     		beq	.L157
 1181 001e 0022     		movs	r2, #0
 1182 0020 4FF40063 		mov	r3, #2048
 1183 0024 84F83420 		strb	r2, [r4, #52]
 1184 0028 6365     		str	r3, [r4, #84]
 1185 002a F8BD     		pop	{r3, r4, r5, r6, r7, pc}
 1186              	.L157:
 1187 002c 0227     		movs	r7, #2
 1188 002e 2568     		ldr	r5, [r4]
 1189 0030 84F83570 		strb	r7, [r4, #53]
 1190 0034 0027     		movs	r7, #0
 1191 0036 6765     		str	r7, [r4, #84]
 1192 0038 2868     		ldr	r0, [r5]
 1193 003a 20F00100 		bic	r0, r0, #1
 1194 003e 2860     		str	r0, [r5]
 1195 0040 2046     		mov	r0, r4
 1196 0042 FFF7FEFF 		bl	DMA_SetConfig
 1197 0046 2268     		ldr	r2, [r4]
 1198 0048 314B     		ldr	r3, .L158
 1199 004a 3248     		ldr	r0, .L158+4
 1200 004c 3249     		ldr	r1, .L158+8
 1201 004e 8242     		cmp	r2, r0
 1202 0050 18BF     		it	ne
 1203 0052 9A42     		cmpne	r2, r3
 1204 0054 314D     		ldr	r5, .L158+12
 1205 0056 324C     		ldr	r4, .L158+16
 1206 0058 00F16000 		add	r0, r0, #96
 1207 005c 0CBF     		ite	eq
 1208 005e 0123     		moveq	r3, #1
 1209 0060 0023     		movne	r3, #0
 1210 0062 8A42     		cmp	r2, r1
ARM GAS  C:\Users\Brandon\AppData\Local\Temp\ccI59QTV.s 			page 22


 1211 0064 08BF     		it	eq
 1212 0066 43F00103 		orreq	r3, r3, #1
 1213 006a 6031     		adds	r1, r1, #96
 1214 006c AA42     		cmp	r2, r5
 1215 006e 08BF     		it	eq
 1216 0070 43F00103 		orreq	r3, r3, #1
 1217 0074 6035     		adds	r5, r5, #96
 1218 0076 A242     		cmp	r2, r4
 1219 0078 08BF     		it	eq
 1220 007a 43F00103 		orreq	r3, r3, #1
 1221 007e 04F56874 		add	r4, r4, #928
 1222 0082 8242     		cmp	r2, r0
 1223 0084 08BF     		it	eq
 1224 0086 43F00103 		orreq	r3, r3, #1
 1225 008a 00F56870 		add	r0, r0, #928
 1226 008e 8A42     		cmp	r2, r1
 1227 0090 08BF     		it	eq
 1228 0092 43F00103 		orreq	r3, r3, #1
 1229 0096 01F56871 		add	r1, r1, #928
 1230 009a AA42     		cmp	r2, r5
 1231 009c 08BF     		it	eq
 1232 009e 43F00103 		orreq	r3, r3, #1
 1233 00a2 05F56875 		add	r5, r5, #928
 1234 00a6 A242     		cmp	r2, r4
 1235 00a8 08BF     		it	eq
 1236 00aa 43F00103 		orreq	r3, r3, #1
 1237 00ae 6034     		adds	r4, r4, #96
 1238 00b0 8242     		cmp	r2, r0
 1239 00b2 08BF     		it	eq
 1240 00b4 43F00103 		orreq	r3, r3, #1
 1241 00b8 6030     		adds	r0, r0, #96
 1242 00ba 8A42     		cmp	r2, r1
 1243 00bc 08BF     		it	eq
 1244 00be 43F00103 		orreq	r3, r3, #1
 1245 00c2 6031     		adds	r1, r1, #96
 1246 00c4 AA42     		cmp	r2, r5
 1247 00c6 08BF     		it	eq
 1248 00c8 43F00103 		orreq	r3, r3, #1
 1249 00cc A242     		cmp	r2, r4
 1250 00ce 08BF     		it	eq
 1251 00d0 43F00103 		orreq	r3, r3, #1
 1252 00d4 8242     		cmp	r2, r0
 1253 00d6 08BF     		it	eq
 1254 00d8 43F00103 		orreq	r3, r3, #1
 1255 00dc 8A42     		cmp	r2, r1
 1256 00de 08BF     		it	eq
 1257 00e0 43F00103 		orreq	r3, r3, #1
 1258 00e4 2BB9     		cbnz	r3, .L152
 1259 00e6 3030     		adds	r0, r0, #48
 1260 00e8 101A     		subs	r0, r2, r0
 1261 00ea B0FA80F0 		clz	r0, r0
 1262 00ee 4009     		lsrs	r0, r0, #5
 1263 00f0 48B1     		cbz	r0, .L147
 1264              	.L152:
 1265 00f2 1368     		ldr	r3, [r2]
 1266 00f4 0020     		movs	r0, #0
 1267 00f6 43F00103 		orr	r3, r3, #1
ARM GAS  C:\Users\Brandon\AppData\Local\Temp\ccI59QTV.s 			page 23


 1268 00fa 1360     		str	r3, [r2]
 1269 00fc F8BD     		pop	{r3, r4, r5, r6, r7, pc}
 1270              	.L149:
 1271 00fe 0120     		movs	r0, #1
 1272 0100 7047     		bx	lr
 1273              	.L150:
 1274 0102 0220     		movs	r0, #2
 1275 0104 F8BD     		pop	{r3, r4, r5, r6, r7, pc}
 1276              	.L147:
 1277 0106 1368     		ldr	r3, [r2]
 1278 0108 43F00103 		orr	r3, r3, #1
 1279 010c 1360     		str	r3, [r2]
 1280 010e F8BD     		pop	{r3, r4, r5, r6, r7, pc}
 1281              	.L159:
 1282              		.align	2
 1283              	.L158:
 1284 0110 10000240 		.word	1073872912
 1285 0114 28000240 		.word	1073872936
 1286 0118 40000240 		.word	1073872960
 1287 011c 58000240 		.word	1073872984
 1288 0120 70000240 		.word	1073873008
 1290              		.section	.text.HAL_DMA_Start_IT,"ax",%progbits
 1291              		.align	1
 1292              		.p2align 2,,3
 1293              		.global	HAL_DMA_Start_IT
 1294              		.syntax unified
 1295              		.thumb
 1296              		.thumb_func
 1297              		.fpu fpv5-d16
 1299              	HAL_DMA_Start_IT:
 1300              		@ args = 0, pretend = 0, frame = 0
 1301              		@ frame_needed = 0, uses_anonymous_args = 0
 1302 0000 0028     		cmp	r0, #0
 1303 0002 00F08F80 		beq	.L178
 1304 0006 F8B5     		push	{r3, r4, r5, r6, r7, lr}
 1305 0008 0446     		mov	r4, r0
 1306 000a 90F83400 		ldrb	r0, [r0, #52]	@ zero_extendqisi2
 1307 000e 0128     		cmp	r0, #1
 1308 0010 00F08A80 		beq	.L179
 1309 0014 0120     		movs	r0, #1
 1310 0016 94F83550 		ldrb	r5, [r4, #53]	@ zero_extendqisi2
 1311 001a 8542     		cmp	r5, r0
 1312 001c 84F83400 		strb	r0, [r4, #52]
 1313 0020 06D0     		beq	.L195
 1314 0022 0022     		movs	r2, #0
 1315 0024 4FF40063 		mov	r3, #2048
 1316 0028 84F83420 		strb	r2, [r4, #52]
 1317 002c 6365     		str	r3, [r4, #84]
 1318 002e F8BD     		pop	{r3, r4, r5, r6, r7, pc}
 1319              	.L195:
 1320 0030 0227     		movs	r7, #2
 1321 0032 2568     		ldr	r5, [r4]
 1322 0034 84F83570 		strb	r7, [r4, #53]
 1323 0038 0027     		movs	r7, #0
 1324 003a 6765     		str	r7, [r4, #84]
 1325 003c 2868     		ldr	r0, [r5]
 1326 003e 20F00100 		bic	r0, r0, #1
ARM GAS  C:\Users\Brandon\AppData\Local\Temp\ccI59QTV.s 			page 24


 1327 0042 2860     		str	r0, [r5]
 1328 0044 2046     		mov	r0, r4
 1329 0046 FFF7FEFF 		bl	DMA_SetConfig
 1330 004a 2368     		ldr	r3, [r4]
 1331 004c 5149     		ldr	r1, .L197
 1332 004e 524A     		ldr	r2, .L197+4
 1333 0050 9342     		cmp	r3, r2
 1334 0052 18BF     		it	ne
 1335 0054 8B42     		cmpne	r3, r1
 1336 0056 45D0     		beq	.L166
 1337 0058 3032     		adds	r2, r2, #48
 1338 005a 504D     		ldr	r5, .L197+8
 1339 005c 5048     		ldr	r0, .L197+12
 1340 005e AB42     		cmp	r3, r5
 1341 0060 18BF     		it	ne
 1342 0062 9342     		cmpne	r3, r2
 1343 0064 05F14805 		add	r5, r5, #72
 1344 0068 0CBF     		ite	eq
 1345 006a 0122     		moveq	r2, #1
 1346 006c 0022     		movne	r2, #0
 1347 006e 8342     		cmp	r3, r0
 1348 0070 08BF     		it	eq
 1349 0072 42F00102 		orreq	r2, r2, #1
 1350 0076 3030     		adds	r0, r0, #48
 1351 0078 AB42     		cmp	r3, r5
 1352 007a 08BF     		it	eq
 1353 007c 42F00102 		orreq	r2, r2, #1
 1354 0080 3035     		adds	r5, r5, #48
 1355 0082 8342     		cmp	r3, r0
 1356 0084 08BF     		it	eq
 1357 0086 42F00102 		orreq	r2, r2, #1
 1358 008a 00F55C70 		add	r0, r0, #880
 1359 008e AB42     		cmp	r3, r5
 1360 0090 08BF     		it	eq
 1361 0092 42F00102 		orreq	r2, r2, #1
 1362 0096 05F55C75 		add	r5, r5, #880
 1363 009a 8342     		cmp	r3, r0
 1364 009c 08BF     		it	eq
 1365 009e 42F00102 		orreq	r2, r2, #1
 1366 00a2 3030     		adds	r0, r0, #48
 1367 00a4 AB42     		cmp	r3, r5
 1368 00a6 08BF     		it	eq
 1369 00a8 42F00102 		orreq	r2, r2, #1
 1370 00ac 3035     		adds	r5, r5, #48
 1371 00ae 8342     		cmp	r3, r0
 1372 00b0 08BF     		it	eq
 1373 00b2 42F00102 		orreq	r2, r2, #1
 1374 00b6 3030     		adds	r0, r0, #48
 1375 00b8 AB42     		cmp	r3, r5
 1376 00ba 08BF     		it	eq
 1377 00bc 42F00102 		orreq	r2, r2, #1
 1378 00c0 3035     		adds	r5, r5, #48
 1379 00c2 8342     		cmp	r3, r0
 1380 00c4 08BF     		it	eq
 1381 00c6 42F00102 		orreq	r2, r2, #1
 1382 00ca 3030     		adds	r0, r0, #48
 1383 00cc AB42     		cmp	r3, r5
ARM GAS  C:\Users\Brandon\AppData\Local\Temp\ccI59QTV.s 			page 25


 1384 00ce 08BF     		it	eq
 1385 00d0 42F00102 		orreq	r2, r2, #1
 1386 00d4 8342     		cmp	r3, r0
 1387 00d6 08BF     		it	eq
 1388 00d8 42F00102 		orreq	r2, r2, #1
 1389 00dc 12B9     		cbnz	r2, .L166
 1390 00de 314A     		ldr	r2, .L197+16
 1391 00e0 9342     		cmp	r3, r2
 1392 00e2 23D1     		bne	.L196
 1393              	.L166:
 1394 00e4 1A68     		ldr	r2, [r3]
 1395 00e6 206C     		ldr	r0, [r4, #64]
 1396 00e8 22F01E02 		bic	r2, r2, #30
 1397 00ec 42F01602 		orr	r2, r2, #22
 1398 00f0 1A60     		str	r2, [r3]
 1399 00f2 18B1     		cbz	r0, .L177
 1400 00f4 1A68     		ldr	r2, [r3]
 1401 00f6 42F00802 		orr	r2, r2, #8
 1402 00fa 1A60     		str	r2, [r3]
 1403              	.L177:
 1404 00fc 226E     		ldr	r2, [r4, #96]
 1405 00fe 1068     		ldr	r0, [r2]
 1406 0100 C003     		lsls	r0, r0, #15
 1407 0102 03D5     		bpl	.L172
 1408 0104 1068     		ldr	r0, [r2]
 1409 0106 40F48070 		orr	r0, r0, #256
 1410 010a 1060     		str	r0, [r2]
 1411              	.L172:
 1412 010c E26E     		ldr	r2, [r4, #108]
 1413 010e 1AB1     		cbz	r2, .L170
 1414 0110 1068     		ldr	r0, [r2]
 1415 0112 40F48070 		orr	r0, r0, #256
 1416 0116 1060     		str	r0, [r2]
 1417              	.L170:
 1418 0118 1A68     		ldr	r2, [r3]
 1419 011a 0020     		movs	r0, #0
 1420 011c 42F00102 		orr	r2, r2, #1
 1421 0120 1A60     		str	r2, [r3]
 1422 0122 F8BD     		pop	{r3, r4, r5, r6, r7, pc}
 1423              	.L178:
 1424 0124 0120     		movs	r0, #1
 1425 0126 7047     		bx	lr
 1426              	.L179:
 1427 0128 0220     		movs	r0, #2
 1428 012a F8BD     		pop	{r3, r4, r5, r6, r7, pc}
 1429              	.L196:
 1430 012c 1A68     		ldr	r2, [r3]
 1431 012e 206C     		ldr	r0, [r4, #64]
 1432 0130 22F00E02 		bic	r2, r2, #14
 1433 0134 42F00A02 		orr	r2, r2, #10
 1434 0138 1A60     		str	r2, [r3]
 1435 013a 18B1     		cbz	r0, .L168
 1436 013c 1A68     		ldr	r2, [r3]
 1437 013e 42F00402 		orr	r2, r2, #4
 1438 0142 1A60     		str	r2, [r3]
 1439              	.L168:
 1440 0144 184A     		ldr	r2, .L197+20
ARM GAS  C:\Users\Brandon\AppData\Local\Temp\ccI59QTV.s 			page 26


 1441 0146 194D     		ldr	r5, .L197+24
 1442 0148 1948     		ldr	r0, .L197+28
 1443 014a AB42     		cmp	r3, r5
 1444 014c 18BF     		it	ne
 1445 014e 9342     		cmpne	r3, r2
 1446 0150 05F13C05 		add	r5, r5, #60
 1447 0154 0CBF     		ite	eq
 1448 0156 0122     		moveq	r2, #1
 1449 0158 0022     		movne	r2, #0
 1450 015a 8342     		cmp	r3, r0
 1451 015c 08BF     		it	eq
 1452 015e 42F00102 		orreq	r2, r2, #1
 1453 0162 2830     		adds	r0, r0, #40
 1454 0164 AB42     		cmp	r3, r5
 1455 0166 08BF     		it	eq
 1456 0168 42F00102 		orreq	r2, r2, #1
 1457 016c 2835     		adds	r5, r5, #40
 1458 016e 8342     		cmp	r3, r0
 1459 0170 08BF     		it	eq
 1460 0172 42F00102 		orreq	r2, r2, #1
 1461 0176 2830     		adds	r0, r0, #40
 1462 0178 AB42     		cmp	r3, r5
 1463 017a 08BF     		it	eq
 1464 017c 42F00102 		orreq	r2, r2, #1
 1465 0180 8342     		cmp	r3, r0
 1466 0182 08BF     		it	eq
 1467 0184 42F00102 		orreq	r2, r2, #1
 1468 0188 002A     		cmp	r2, #0
 1469 018a B7D1     		bne	.L177
 1470 018c 094A     		ldr	r2, .L197+32
 1471 018e 9342     		cmp	r3, r2
 1472 0190 B4D0     		beq	.L177
 1473 0192 C1E7     		b	.L170
 1474              	.L198:
 1475              		.align	2
 1476              	.L197:
 1477 0194 10000240 		.word	1073872912
 1478 0198 28000240 		.word	1073872936
 1479 019c 40000240 		.word	1073872960
 1480 01a0 70000240 		.word	1073873008
 1481 01a4 B8040240 		.word	1073874104
 1482 01a8 1C540258 		.word	1476547612
 1483 01ac 08540258 		.word	1476547592
 1484 01b0 30540258 		.word	1476547632
 1485 01b4 94540258 		.word	1476547732
 1487              		.section	.text.HAL_DMA_Abort,"ax",%progbits
 1488              		.align	1
 1489              		.p2align 2,,3
 1490              		.global	HAL_DMA_Abort
 1491              		.syntax unified
 1492              		.thumb
 1493              		.thumb_func
 1494              		.fpu fpv5-d16
 1496              	HAL_DMA_Abort:
 1497              		@ args = 0, pretend = 0, frame = 0
 1498              		@ frame_needed = 0, uses_anonymous_args = 0
 1499 0000 70B5     		push	{r4, r5, r6, lr}
ARM GAS  C:\Users\Brandon\AppData\Local\Temp\ccI59QTV.s 			page 27


 1500 0002 0546     		mov	r5, r0
 1501 0004 FFF7FEFF 		bl	HAL_GetTick
 1502 0008 002D     		cmp	r5, #0
 1503 000a 00F02881 		beq	.L215
 1504 000e 95F83530 		ldrb	r3, [r5, #53]	@ zero_extendqisi2
 1505 0012 022B     		cmp	r3, #2
 1506 0014 40F0E180 		bne	.L219
 1507 0018 2C68     		ldr	r4, [r5]
 1508 001a 0646     		mov	r6, r0
 1509 001c 914B     		ldr	r3, .L223
 1510 001e 9249     		ldr	r1, .L223+4
 1511 0020 924A     		ldr	r2, .L223+8
 1512 0022 8C42     		cmp	r4, r1
 1513 0024 18BF     		it	ne
 1514 0026 9C42     		cmpne	r4, r3
 1515 0028 01F14801 		add	r1, r1, #72
 1516 002c 9048     		ldr	r0, .L223+12
 1517 002e 0CBF     		ite	eq
 1518 0030 0123     		moveq	r3, #1
 1519 0032 0023     		movne	r3, #0
 1520 0034 9442     		cmp	r4, r2
 1521 0036 08BF     		it	eq
 1522 0038 43F00103 		orreq	r3, r3, #1
 1523 003c 4832     		adds	r2, r2, #72
 1524 003e 8C42     		cmp	r4, r1
 1525 0040 08BF     		it	eq
 1526 0042 43F00103 		orreq	r3, r3, #1
 1527 0046 01F56271 		add	r1, r1, #904
 1528 004a 8442     		cmp	r4, r0
 1529 004c 08BF     		it	eq
 1530 004e 43F00103 		orreq	r3, r3, #1
 1531 0052 00F56270 		add	r0, r0, #904
 1532 0056 9442     		cmp	r4, r2
 1533 0058 08BF     		it	eq
 1534 005a 43F00103 		orreq	r3, r3, #1
 1535 005e 02F56272 		add	r2, r2, #904
 1536 0062 8C42     		cmp	r4, r1
 1537 0064 08BF     		it	eq
 1538 0066 43F00103 		orreq	r3, r3, #1
 1539 006a 4831     		adds	r1, r1, #72
 1540 006c 8442     		cmp	r4, r0
 1541 006e 08BF     		it	eq
 1542 0070 43F00103 		orreq	r3, r3, #1
 1543 0074 4830     		adds	r0, r0, #72
 1544 0076 9442     		cmp	r4, r2
 1545 0078 08BF     		it	eq
 1546 007a 43F00103 		orreq	r3, r3, #1
 1547 007e 4832     		adds	r2, r2, #72
 1548 0080 8C42     		cmp	r4, r1
 1549 0082 08BF     		it	eq
 1550 0084 43F00103 		orreq	r3, r3, #1
 1551 0088 4831     		adds	r1, r1, #72
 1552 008a 8442     		cmp	r4, r0
 1553 008c 08BF     		it	eq
 1554 008e 43F00103 		orreq	r3, r3, #1
 1555 0092 4830     		adds	r0, r0, #72
 1556 0094 9442     		cmp	r4, r2
ARM GAS  C:\Users\Brandon\AppData\Local\Temp\ccI59QTV.s 			page 28


 1557 0096 08BF     		it	eq
 1558 0098 43F00103 		orreq	r3, r3, #1
 1559 009c A2F58F62 		sub	r2, r2, #1144
 1560 00a0 8C42     		cmp	r4, r1
 1561 00a2 08BF     		it	eq
 1562 00a4 43F00103 		orreq	r3, r3, #1
 1563 00a8 A1F58F61 		sub	r1, r1, #1144
 1564 00ac 8442     		cmp	r4, r0
 1565 00ae 08BF     		it	eq
 1566 00b0 43F00103 		orreq	r3, r3, #1
 1567 00b4 8C42     		cmp	r4, r1
 1568 00b6 18BF     		it	ne
 1569 00b8 9442     		cmpne	r4, r2
 1570 00ba 0CBF     		ite	eq
 1571 00bc 0122     		moveq	r2, #1
 1572 00be 0022     		movne	r2, #0
 1573 00c0 02D0     		beq	.L202
 1574 00c2 002B     		cmp	r3, #0
 1575 00c4 00F09080 		beq	.L220
 1576              	.L202:
 1577 00c8 2168     		ldr	r1, [r4]
 1578 00ca 21F01E01 		bic	r1, r1, #30
 1579 00ce 2160     		str	r1, [r4]
 1580 00d0 6169     		ldr	r1, [r4, #20]
 1581 00d2 21F08001 		bic	r1, r1, #128
 1582 00d6 6161     		str	r1, [r4, #20]
 1583 00d8 002A     		cmp	r2, #0
 1584 00da 00F0B080 		beq	.L203
 1585 00de 2A6E     		ldr	r2, [r5, #96]
 1586 00e0 1368     		ldr	r3, [r2]
 1587 00e2 23F48073 		bic	r3, r3, #256
 1588 00e6 1360     		str	r3, [r2]
 1589              	.L204:
 1590 00e8 2368     		ldr	r3, [r4]
 1591 00ea 23F00103 		bic	r3, r3, #1
 1592 00ee 2360     		str	r3, [r4]
 1593 00f0 05E0     		b	.L206
 1594              	.L208:
 1595 00f2 FFF7FEFF 		bl	HAL_GetTick
 1596 00f6 831B     		subs	r3, r0, r6
 1597 00f8 052B     		cmp	r3, #5
 1598 00fa 00F2A680 		bhi	.L221
 1599              	.L206:
 1600 00fe 2368     		ldr	r3, [r4]
 1601 0100 DB07     		lsls	r3, r3, #31
 1602 0102 F6D4     		bmi	.L208
 1603 0104 2A68     		ldr	r2, [r5]
 1604 0106 574B     		ldr	r3, .L223
 1605 0108 5749     		ldr	r1, .L223+4
 1606 010a 584C     		ldr	r4, .L223+8
 1607 010c 8A42     		cmp	r2, r1
 1608 010e 18BF     		it	ne
 1609 0110 9A42     		cmpne	r2, r3
 1610 0112 5848     		ldr	r0, .L223+16
 1611 0114 01F16001 		add	r1, r1, #96
 1612 0118 0CBF     		ite	eq
 1613 011a 0123     		moveq	r3, #1
ARM GAS  C:\Users\Brandon\AppData\Local\Temp\ccI59QTV.s 			page 29


 1614 011c 0023     		movne	r3, #0
 1615 011e A242     		cmp	r2, r4
 1616 0120 08BF     		it	eq
 1617 0122 43F00103 		orreq	r3, r3, #1
 1618 0126 4834     		adds	r4, r4, #72
 1619 0128 8242     		cmp	r2, r0
 1620 012a 08BF     		it	eq
 1621 012c 43F00103 		orreq	r3, r3, #1
 1622 0130 00F56270 		add	r0, r0, #904
 1623 0134 8A42     		cmp	r2, r1
 1624 0136 08BF     		it	eq
 1625 0138 43F00103 		orreq	r3, r3, #1
 1626 013c 01F56271 		add	r1, r1, #904
 1627 0140 A242     		cmp	r2, r4
 1628 0142 08BF     		it	eq
 1629 0144 43F00103 		orreq	r3, r3, #1
 1630 0148 04F56274 		add	r4, r4, #904
 1631 014c 8242     		cmp	r2, r0
 1632 014e 08BF     		it	eq
 1633 0150 43F00103 		orreq	r3, r3, #1
 1634 0154 4830     		adds	r0, r0, #72
 1635 0156 8A42     		cmp	r2, r1
 1636 0158 08BF     		it	eq
 1637 015a 43F00103 		orreq	r3, r3, #1
 1638 015e 4831     		adds	r1, r1, #72
 1639 0160 A242     		cmp	r2, r4
 1640 0162 08BF     		it	eq
 1641 0164 43F00103 		orreq	r3, r3, #1
 1642 0168 4834     		adds	r4, r4, #72
 1643 016a 8242     		cmp	r2, r0
 1644 016c 08BF     		it	eq
 1645 016e 43F00103 		orreq	r3, r3, #1
 1646 0172 4830     		adds	r0, r0, #72
 1647 0174 8A42     		cmp	r2, r1
 1648 0176 08BF     		it	eq
 1649 0178 43F00103 		orreq	r3, r3, #1
 1650 017c 4831     		adds	r1, r1, #72
 1651 017e A242     		cmp	r2, r4
 1652 0180 08BF     		it	eq
 1653 0182 43F00103 		orreq	r3, r3, #1
 1654 0186 8242     		cmp	r2, r0
 1655 0188 08BF     		it	eq
 1656 018a 43F00103 		orreq	r3, r3, #1
 1657 018e 8A42     		cmp	r2, r1
 1658 0190 08BF     		it	eq
 1659 0192 43F00103 		orreq	r3, r3, #1
 1660 0196 33B9     		cbnz	r3, .L209
 1661 0198 A1F59561 		sub	r1, r1, #1192
 1662 019c 364B     		ldr	r3, .L223+20
 1663 019e 9A42     		cmp	r2, r3
 1664 01a0 18BF     		it	ne
 1665 01a2 8A42     		cmpne	r2, r1
 1666 01a4 72D1     		bne	.L222
 1667              	.L209:
 1668 01a6 EA6D     		ldr	r2, [r5, #92]
 1669 01a8 3F23     		movs	r3, #63
 1670 01aa A96D     		ldr	r1, [r5, #88]
ARM GAS  C:\Users\Brandon\AppData\Local\Temp\ccI59QTV.s 			page 30


 1671 01ac 02F01F02 		and	r2, r2, #31
 1672 01b0 9340     		lsls	r3, r3, r2
 1673 01b2 8B60     		str	r3, [r1, #8]
 1674              	.L210:
 1675 01b4 EB6E     		ldr	r3, [r5, #108]
 1676 01b6 D5E91921 		ldrd	r2, r1, [r5, #100]
 1677 01ba 5160     		str	r1, [r2, #4]
 1678 01bc 33B1     		cbz	r3, .L213
 1679 01be 1A68     		ldr	r2, [r3]
 1680 01c0 296F     		ldr	r1, [r5, #112]
 1681 01c2 686F     		ldr	r0, [r5, #116]
 1682 01c4 22F48072 		bic	r2, r2, #256
 1683 01c8 1A60     		str	r2, [r3]
 1684 01ca 4860     		str	r0, [r1, #4]
 1685              	.L213:
 1686 01cc 0020     		movs	r0, #0
 1687 01ce 0123     		movs	r3, #1
 1688 01d0 85F83400 		strb	r0, [r5, #52]
 1689 01d4 85F83530 		strb	r3, [r5, #53]
 1690 01d8 70BD     		pop	{r4, r5, r6, pc}
 1691              	.L219:
 1692 01da 8022     		movs	r2, #128
 1693 01dc 0023     		movs	r3, #0
 1694 01de 0120     		movs	r0, #1
 1695 01e0 6A65     		str	r2, [r5, #84]
 1696 01e2 85F83430 		strb	r3, [r5, #52]
 1697 01e6 70BD     		pop	{r4, r5, r6, pc}
 1698              	.L220:
 1699 01e8 244A     		ldr	r2, .L223+24
 1700 01ea 2549     		ldr	r1, .L223+28
 1701 01ec 2548     		ldr	r0, .L223+32
 1702 01ee 8C42     		cmp	r4, r1
 1703 01f0 18BF     		it	ne
 1704 01f2 9442     		cmpne	r4, r2
 1705 01f4 01F13C01 		add	r1, r1, #60
 1706 01f8 0CBF     		ite	eq
 1707 01fa 0122     		moveq	r2, #1
 1708 01fc 0022     		movne	r2, #0
 1709 01fe 8442     		cmp	r4, r0
 1710 0200 08BF     		it	eq
 1711 0202 42F00102 		orreq	r2, r2, #1
 1712 0206 2830     		adds	r0, r0, #40
 1713 0208 8C42     		cmp	r4, r1
 1714 020a 08BF     		it	eq
 1715 020c 42F00102 		orreq	r2, r2, #1
 1716 0210 2831     		adds	r1, r1, #40
 1717 0212 8442     		cmp	r4, r0
 1718 0214 08BF     		it	eq
 1719 0216 42F00102 		orreq	r2, r2, #1
 1720 021a 2830     		adds	r0, r0, #40
 1721 021c 8C42     		cmp	r4, r1
 1722 021e 08BF     		it	eq
 1723 0220 42F00102 		orreq	r2, r2, #1
 1724 0224 2168     		ldr	r1, [r4]
 1725 0226 8442     		cmp	r4, r0
 1726 0228 08BF     		it	eq
 1727 022a 42F00102 		orreq	r2, r2, #1
ARM GAS  C:\Users\Brandon\AppData\Local\Temp\ccI59QTV.s 			page 31


 1728 022e 21F00E01 		bic	r1, r1, #14
 1729 0232 2160     		str	r1, [r4]
 1730 0234 1AB9     		cbnz	r2, .L203
 1731 0236 144A     		ldr	r2, .L223+36
 1732 0238 9442     		cmp	r4, r2
 1733 023a 7FF455AF 		bne	.L204
 1734              	.L203:
 1735 023e 296E     		ldr	r1, [r5, #96]
 1736 0240 0A68     		ldr	r2, [r1]
 1737 0242 22F48072 		bic	r2, r2, #256
 1738 0246 0A60     		str	r2, [r1]
 1739 0248 4EE7     		b	.L204
 1740              	.L221:
 1741 024a 2021     		movs	r1, #32
 1742 024c 0022     		movs	r2, #0
 1743 024e 0323     		movs	r3, #3
 1744 0250 0120     		movs	r0, #1
 1745 0252 6965     		str	r1, [r5, #84]
 1746 0254 85F83420 		strb	r2, [r5, #52]
 1747 0258 85F83530 		strb	r3, [r5, #53]
 1748 025c 70BD     		pop	{r4, r5, r6, pc}
 1749              	.L215:
 1750 025e 0120     		movs	r0, #1
 1751 0260 70BD     		pop	{r4, r5, r6, pc}
 1752              	.L224:
 1753 0262 00BF     		.align	2
 1754              	.L223:
 1755 0264 58000240 		.word	1073872984
 1756 0268 40000240 		.word	1073872960
 1757 026c 70000240 		.word	1073873008
 1758 0270 A0000240 		.word	1073873056
 1759 0274 88000240 		.word	1073873032
 1760 0278 28000240 		.word	1073872936
 1761 027c 1C540258 		.word	1476547612
 1762 0280 08540258 		.word	1476547592
 1763 0284 30540258 		.word	1476547632
 1764 0288 94540258 		.word	1476547732
 1765              	.L222:
 1766 028c 04F1C054 		add	r4, r4, #402653184
 1767 0290 184B     		ldr	r3, .L225
 1768 0292 1948     		ldr	r0, .L225+4
 1769 0294 0121     		movs	r1, #1
 1770 0296 04F59F44 		add	r4, r4, #20352
 1771 029a A242     		cmp	r2, r4
 1772 029c 18BF     		it	ne
 1773 029e 9A42     		cmpne	r2, r3
 1774 02a0 04F13C04 		add	r4, r4, #60
 1775 02a4 0CBF     		ite	eq
 1776 02a6 0123     		moveq	r3, #1
 1777 02a8 0023     		movne	r3, #0
 1778 02aa 8242     		cmp	r2, r0
 1779 02ac 08BF     		it	eq
 1780 02ae 43F00103 		orreq	r3, r3, #1
 1781 02b2 2830     		adds	r0, r0, #40
 1782 02b4 A242     		cmp	r2, r4
 1783 02b6 08BF     		it	eq
 1784 02b8 43F00103 		orreq	r3, r3, #1
ARM GAS  C:\Users\Brandon\AppData\Local\Temp\ccI59QTV.s 			page 32


 1785 02bc 2834     		adds	r4, r4, #40
 1786 02be 8242     		cmp	r2, r0
 1787 02c0 08BF     		it	eq
 1788 02c2 43F00103 		orreq	r3, r3, #1
 1789 02c6 E86D     		ldr	r0, [r5, #92]
 1790 02c8 A242     		cmp	r2, r4
 1791 02ca 08BF     		it	eq
 1792 02cc 43F00103 		orreq	r3, r3, #1
 1793 02d0 00F01F00 		and	r0, r0, #31
 1794 02d4 1434     		adds	r4, r4, #20
 1795 02d6 8140     		lsls	r1, r1, r0
 1796 02d8 A242     		cmp	r2, r4
 1797 02da 08BF     		it	eq
 1798 02dc 43F00103 		orreq	r3, r3, #1
 1799 02e0 AC6D     		ldr	r4, [r5, #88]
 1800 02e2 6160     		str	r1, [r4, #4]
 1801 02e4 002B     		cmp	r3, #0
 1802 02e6 7FF465AF 		bne	.L210
 1803 02ea 044B     		ldr	r3, .L225+8
 1804 02ec 9A42     		cmp	r2, r3
 1805 02ee 3FF461AF 		beq	.L210
 1806 02f2 6BE7     		b	.L213
 1807              	.L226:
 1808              		.align	2
 1809              	.L225:
 1810 02f4 1C540258 		.word	1476547612
 1811 02f8 30540258 		.word	1476547632
 1812 02fc 94540258 		.word	1476547732
 1814              		.section	.text.HAL_DMA_Abort_IT,"ax",%progbits
 1815              		.align	1
 1816              		.p2align 2,,3
 1817              		.global	HAL_DMA_Abort_IT
 1818              		.syntax unified
 1819              		.thumb
 1820              		.thumb_func
 1821              		.fpu fpv5-d16
 1823              	HAL_DMA_Abort_IT:
 1824              		@ args = 0, pretend = 0, frame = 0
 1825              		@ frame_needed = 0, uses_anonymous_args = 0
 1826 0000 0028     		cmp	r0, #0
 1827 0002 60D0     		beq	.L236
 1828 0004 38B5     		push	{r3, r4, r5, lr}
 1829 0006 90F83520 		ldrb	r2, [r0, #53]	@ zero_extendqisi2
 1830 000a 0346     		mov	r3, r0
 1831 000c 022A     		cmp	r2, #2
 1832 000e 56D1     		bne	.L246
 1833 0010 0168     		ldr	r1, [r0]
 1834 0012 594A     		ldr	r2, .L248
 1835 0014 9142     		cmp	r1, r2
 1836 0016 49D0     		beq	.L230
 1837 0018 1832     		adds	r2, r2, #24
 1838 001a 9142     		cmp	r1, r2
 1839 001c 46D0     		beq	.L230
 1840 001e 3032     		adds	r2, r2, #48
 1841 0020 5648     		ldr	r0, .L248+4
 1842 0022 574C     		ldr	r4, .L248+8
 1843 0024 8142     		cmp	r1, r0
ARM GAS  C:\Users\Brandon\AppData\Local\Temp\ccI59QTV.s 			page 33


 1844 0026 18BF     		it	ne
 1845 0028 9142     		cmpne	r1, r2
 1846 002a 00F14800 		add	r0, r0, #72
 1847 002e 554D     		ldr	r5, .L248+12
 1848 0030 0CBF     		ite	eq
 1849 0032 0122     		moveq	r2, #1
 1850 0034 0022     		movne	r2, #0
 1851 0036 A142     		cmp	r1, r4
 1852 0038 08BF     		it	eq
 1853 003a 42F00102 		orreq	r2, r2, #1
 1854 003e 4834     		adds	r4, r4, #72
 1855 0040 8142     		cmp	r1, r0
 1856 0042 08BF     		it	eq
 1857 0044 42F00102 		orreq	r2, r2, #1
 1858 0048 00F56270 		add	r0, r0, #904
 1859 004c A942     		cmp	r1, r5
 1860 004e 08BF     		it	eq
 1861 0050 42F00102 		orreq	r2, r2, #1
 1862 0054 05F56275 		add	r5, r5, #904
 1863 0058 A142     		cmp	r1, r4
 1864 005a 08BF     		it	eq
 1865 005c 42F00102 		orreq	r2, r2, #1
 1866 0060 04F56274 		add	r4, r4, #904
 1867 0064 8142     		cmp	r1, r0
 1868 0066 08BF     		it	eq
 1869 0068 42F00102 		orreq	r2, r2, #1
 1870 006c 4830     		adds	r0, r0, #72
 1871 006e A942     		cmp	r1, r5
 1872 0070 08BF     		it	eq
 1873 0072 42F00102 		orreq	r2, r2, #1
 1874 0076 4835     		adds	r5, r5, #72
 1875 0078 A142     		cmp	r1, r4
 1876 007a 08BF     		it	eq
 1877 007c 42F00102 		orreq	r2, r2, #1
 1878 0080 4834     		adds	r4, r4, #72
 1879 0082 8142     		cmp	r1, r0
 1880 0084 08BF     		it	eq
 1881 0086 42F00102 		orreq	r2, r2, #1
 1882 008a 4830     		adds	r0, r0, #72
 1883 008c A942     		cmp	r1, r5
 1884 008e 08BF     		it	eq
 1885 0090 42F00102 		orreq	r2, r2, #1
 1886 0094 A142     		cmp	r1, r4
 1887 0096 08BF     		it	eq
 1888 0098 42F00102 		orreq	r2, r2, #1
 1889 009c 8142     		cmp	r1, r0
 1890 009e 08BF     		it	eq
 1891 00a0 42F00102 		orreq	r2, r2, #1
 1892 00a4 12B9     		cbnz	r2, .L230
 1893 00a6 384A     		ldr	r2, .L248+16
 1894 00a8 9142     		cmp	r1, r2
 1895 00aa 0ED1     		bne	.L247
 1896              	.L230:
 1897 00ac 0422     		movs	r2, #4
 1898 00ae 0020     		movs	r0, #0
 1899 00b0 83F83520 		strb	r2, [r3, #53]
 1900 00b4 0B68     		ldr	r3, [r1]
ARM GAS  C:\Users\Brandon\AppData\Local\Temp\ccI59QTV.s 			page 34


 1901 00b6 23F00103 		bic	r3, r3, #1
 1902 00ba 0B60     		str	r3, [r1]
 1903 00bc 38BD     		pop	{r3, r4, r5, pc}
 1904              	.L246:
 1905 00be 8022     		movs	r2, #128
 1906 00c0 0120     		movs	r0, #1
 1907 00c2 5A65     		str	r2, [r3, #84]
 1908 00c4 38BD     		pop	{r3, r4, r5, pc}
 1909              	.L236:
 1910 00c6 0120     		movs	r0, #1
 1911 00c8 7047     		bx	lr
 1912              	.L247:
 1913 00ca 04F1C054 		add	r4, r4, #402653184
 1914 00ce 2F4A     		ldr	r2, .L248+20
 1915 00d0 2F48     		ldr	r0, .L248+24
 1916 00d2 04F59F44 		add	r4, r4, #20352
 1917 00d6 2F4D     		ldr	r5, .L248+28
 1918 00d8 A142     		cmp	r1, r4
 1919 00da 18BF     		it	ne
 1920 00dc 9142     		cmpne	r1, r2
 1921 00de 04F15004 		add	r4, r4, #80
 1922 00e2 0CBF     		ite	eq
 1923 00e4 0122     		moveq	r2, #1
 1924 00e6 0022     		movne	r2, #0
 1925 00e8 8142     		cmp	r1, r0
 1926 00ea 08BF     		it	eq
 1927 00ec 42F00102 		orreq	r2, r2, #1
 1928 00f0 0868     		ldr	r0, [r1]
 1929 00f2 A942     		cmp	r1, r5
 1930 00f4 08BF     		it	eq
 1931 00f6 42F00102 		orreq	r2, r2, #1
 1932 00fa 20F00E00 		bic	r0, r0, #14
 1933 00fe 2835     		adds	r5, r5, #40
 1934 0100 A142     		cmp	r1, r4
 1935 0102 08BF     		it	eq
 1936 0104 42F00102 		orreq	r2, r2, #1
 1937 0108 0860     		str	r0, [r1]
 1938 010a 2834     		adds	r4, r4, #40
 1939 010c 0868     		ldr	r0, [r1]
 1940 010e A942     		cmp	r1, r5
 1941 0110 08BF     		it	eq
 1942 0112 42F00102 		orreq	r2, r2, #1
 1943 0116 20F00100 		bic	r0, r0, #1
 1944 011a A142     		cmp	r1, r4
 1945 011c 08BF     		it	eq
 1946 011e 42F00102 		orreq	r2, r2, #1
 1947 0122 0860     		str	r0, [r1]
 1948 0124 12B9     		cbnz	r2, .L232
 1949 0126 1C4A     		ldr	r2, .L248+32
 1950 0128 9142     		cmp	r1, r2
 1951 012a 17D1     		bne	.L233
 1952              	.L232:
 1953 012c 1C6E     		ldr	r4, [r3, #96]
 1954 012e 0121     		movs	r1, #1
 1955 0130 D86D     		ldr	r0, [r3, #92]
 1956 0132 2268     		ldr	r2, [r4]
 1957 0134 00F01F00 		and	r0, r0, #31
ARM GAS  C:\Users\Brandon\AppData\Local\Temp\ccI59QTV.s 			page 35


 1958 0138 9D6D     		ldr	r5, [r3, #88]
 1959 013a 22F48072 		bic	r2, r2, #256
 1960 013e 8140     		lsls	r1, r1, r0
 1961 0140 586E     		ldr	r0, [r3, #100]
 1962 0142 2260     		str	r2, [r4]
 1963 0144 D3E91A42 		ldrd	r4, r2, [r3, #104]
 1964 0148 6960     		str	r1, [r5, #4]
 1965 014a 4460     		str	r4, [r0, #4]
 1966 014c 32B1     		cbz	r2, .L233
 1967 014e 1168     		ldr	r1, [r2]
 1968 0150 186F     		ldr	r0, [r3, #112]
 1969 0152 5C6F     		ldr	r4, [r3, #116]
 1970 0154 21F48071 		bic	r1, r1, #256
 1971 0158 1160     		str	r1, [r2]
 1972 015a 4460     		str	r4, [r0, #4]
 1973              	.L233:
 1974 015c 0024     		movs	r4, #0
 1975 015e 0121     		movs	r1, #1
 1976 0160 1A6D     		ldr	r2, [r3, #80]
 1977 0162 83F83440 		strb	r4, [r3, #52]
 1978 0166 83F83510 		strb	r1, [r3, #53]
 1979 016a 1AB1     		cbz	r2, .L237
 1980 016c 1846     		mov	r0, r3
 1981 016e 9047     		blx	r2
 1982 0170 2046     		mov	r0, r4
 1983 0172 38BD     		pop	{r3, r4, r5, pc}
 1984              	.L237:
 1985 0174 1046     		mov	r0, r2
 1986 0176 38BD     		pop	{r3, r4, r5, pc}
 1987              	.L249:
 1988              		.align	2
 1989              	.L248:
 1990 0178 10000240 		.word	1073872912
 1991 017c 40000240 		.word	1073872960
 1992 0180 70000240 		.word	1073873008
 1993 0184 A0000240 		.word	1073873056
 1994 0188 B8040240 		.word	1073874104
 1995 018c 1C540258 		.word	1476547612
 1996 0190 30540258 		.word	1476547632
 1997 0194 44540258 		.word	1476547652
 1998 0198 94540258 		.word	1476547732
 2000              		.section	.text.HAL_DMA_PollForTransfer,"ax",%progbits
 2001              		.align	1
 2002              		.p2align 2,,3
 2003              		.global	HAL_DMA_PollForTransfer
 2004              		.syntax unified
 2005              		.thumb
 2006              		.thumb_func
 2007              		.fpu fpv5-d16
 2009              	HAL_DMA_PollForTransfer:
 2010              		@ args = 0, pretend = 0, frame = 16
 2011              		@ frame_needed = 0, uses_anonymous_args = 0
 2012 0000 2DE9F04F 		push	{r4, r5, r6, r7, r8, r9, r10, fp, lr}
 2013 0004 0446     		mov	r4, r0
 2014 0006 85B0     		sub	sp, sp, #20
 2015 0008 1646     		mov	r6, r2
 2016 000a 0391     		str	r1, [sp, #12]
ARM GAS  C:\Users\Brandon\AppData\Local\Temp\ccI59QTV.s 			page 36


 2017 000c FFF7FEFF 		bl	HAL_GetTick
 2018 0010 0290     		str	r0, [sp, #8]
 2019 0012 002C     		cmp	r4, #0
 2020 0014 00F03682 		beq	.L282
 2021 0018 94F83530 		ldrb	r3, [r4, #53]	@ zero_extendqisi2
 2022 001c 022B     		cmp	r3, #2
 2023 001e D9B2     		uxtb	r1, r3
 2024 0020 40F01F82 		bne	.L306
 2025 0024 2268     		ldr	r2, [r4]
 2026 0026 344B     		ldr	r3, .L314
 2027 0028 344D     		ldr	r5, .L314+4
 2028 002a 3548     		ldr	r0, .L314+8
 2029 002c AA42     		cmp	r2, r5
 2030 002e 18BF     		it	ne
 2031 0030 9A42     		cmpne	r2, r3
 2032 0032 05F13005 		add	r5, r5, #48
 2033 0036 0CBF     		ite	eq
 2034 0038 0123     		moveq	r3, #1
 2035 003a 0023     		movne	r3, #0
 2036 003c 8242     		cmp	r2, r0
 2037 003e 08BF     		it	eq
 2038 0040 43F00103 		orreq	r3, r3, #1
 2039 0044 3030     		adds	r0, r0, #48
 2040 0046 AA42     		cmp	r2, r5
 2041 0048 08BF     		it	eq
 2042 004a 43F00103 		orreq	r3, r3, #1
 2043 004e 3035     		adds	r5, r5, #48
 2044 0050 8242     		cmp	r2, r0
 2045 0052 08BF     		it	eq
 2046 0054 43F00103 		orreq	r3, r3, #1
 2047 0058 3030     		adds	r0, r0, #48
 2048 005a AA42     		cmp	r2, r5
 2049 005c 08BF     		it	eq
 2050 005e 43F00103 		orreq	r3, r3, #1
 2051 0062 3035     		adds	r5, r5, #48
 2052 0064 8242     		cmp	r2, r0
 2053 0066 08BF     		it	eq
 2054 0068 43F00103 		orreq	r3, r3, #1
 2055 006c 00F55C70 		add	r0, r0, #880
 2056 0070 AA42     		cmp	r2, r5
 2057 0072 08BF     		it	eq
 2058 0074 43F00103 		orreq	r3, r3, #1
 2059 0078 05F55C75 		add	r5, r5, #880
 2060 007c 8242     		cmp	r2, r0
 2061 007e 08BF     		it	eq
 2062 0080 43F00103 		orreq	r3, r3, #1
 2063 0084 3030     		adds	r0, r0, #48
 2064 0086 AA42     		cmp	r2, r5
 2065 0088 08BF     		it	eq
 2066 008a 43F00103 		orreq	r3, r3, #1
 2067 008e 3035     		adds	r5, r5, #48
 2068 0090 8242     		cmp	r2, r0
 2069 0092 08BF     		it	eq
 2070 0094 43F00103 		orreq	r3, r3, #1
 2071 0098 3030     		adds	r0, r0, #48
 2072 009a AA42     		cmp	r2, r5
 2073 009c 08BF     		it	eq
ARM GAS  C:\Users\Brandon\AppData\Local\Temp\ccI59QTV.s 			page 37


 2074 009e 43F00103 		orreq	r3, r3, #1
 2075 00a2 3035     		adds	r5, r5, #48
 2076 00a4 8242     		cmp	r2, r0
 2077 00a6 08BF     		it	eq
 2078 00a8 43F00103 		orreq	r3, r3, #1
 2079 00ac 3030     		adds	r0, r0, #48
 2080 00ae AA42     		cmp	r2, r5
 2081 00b0 08BF     		it	eq
 2082 00b2 43F00103 		orreq	r3, r3, #1
 2083 00b6 8242     		cmp	r2, r0
 2084 00b8 08BF     		it	eq
 2085 00ba 43F00103 		orreq	r3, r3, #1
 2086 00be 1BB9     		cbnz	r3, .L253
 2087 00c0 104B     		ldr	r3, .L314+12
 2088 00c2 9A42     		cmp	r2, r3
 2089 00c4 40F06382 		bne	.L307
 2090              	.L253:
 2091 00c8 1368     		ldr	r3, [r2]
 2092 00ca D905     		lsls	r1, r3, #23
 2093 00cc 00F1DE81 		bmi	.L254
 2094 00d0 039B     		ldr	r3, [sp, #12]
 2095 00d2 002B     		cmp	r3, #0
 2096 00d4 00F0CE81 		beq	.L308
 2097 00d8 E36D     		ldr	r3, [r4, #92]
 2098 00da 1021     		movs	r1, #16
 2099 00dc 03F01F0C 		and	ip, r3, #31
 2100 00e0 01FA0CF3 		lsl	r3, r1, ip
 2101 00e4 0193     		str	r3, [sp, #4]
 2102              	.L258:
 2103 00e6 A56D     		ldr	r5, [r4, #88]
 2104 00e8 05F10803 		add	r3, r5, #8
 2105 00ec 0093     		str	r3, [sp]
 2106              	.L259:
 2107 00ee DFF808B0 		ldr	fp, .L314
 2108 00f2 B246     		mov	r10, r6
 2109 00f4 27E1     		b	.L274
 2110              	.L315:
 2111 00f6 00BF     		.align	2
 2112              	.L314:
 2113 00f8 10000240 		.word	1073872912
 2114 00fc 28000240 		.word	1073872936
 2115 0100 40000240 		.word	1073872960
 2116 0104 B8040240 		.word	1073874104
 2117              	.L275:
 2118 0108 4A45     		cmp	r2, r9
 2119 010a 18BF     		it	ne
 2120 010c 5A45     		cmpne	r2, fp
 2121 010e A548     		ldr	r0, .L316
 2122 0110 A549     		ldr	r1, .L316+4
 2123 0112 0CBF     		ite	eq
 2124 0114 0123     		moveq	r3, #1
 2125 0116 0023     		movne	r3, #0
 2126 0118 DFF894E2 		ldr	lr, .L316+12
 2127 011c 8242     		cmp	r2, r0
 2128 011e 08BF     		it	eq
 2129 0120 43F00103 		orreq	r3, r3, #1
 2130 0124 00F57470 		add	r0, r0, #976
ARM GAS  C:\Users\Brandon\AppData\Local\Temp\ccI59QTV.s 			page 38


 2131 0128 4245     		cmp	r2, r8
 2132 012a 08BF     		it	eq
 2133 012c 43F00103 		orreq	r3, r3, #1
 2134 0130 BA42     		cmp	r2, r7
 2135 0132 08BF     		it	eq
 2136 0134 43F00103 		orreq	r3, r3, #1
 2137 0138 B242     		cmp	r2, r6
 2138 013a 08BF     		it	eq
 2139 013c 43F00103 		orreq	r3, r3, #1
 2140 0140 8A42     		cmp	r2, r1
 2141 0142 08BF     		it	eq
 2142 0144 43F00103 		orreq	r3, r3, #1
 2143 0148 01F56271 		add	r1, r1, #904
 2144 014c 7245     		cmp	r2, lr
 2145 014e 08BF     		it	eq
 2146 0150 43F00103 		orreq	r3, r3, #1
 2147 0154 0EF5627E 		add	lr, lr, #904
 2148 0158 8242     		cmp	r2, r0
 2149 015a 08BF     		it	eq
 2150 015c 43F00103 		orreq	r3, r3, #1
 2151 0160 4830     		adds	r0, r0, #72
 2152 0162 8A42     		cmp	r2, r1
 2153 0164 08BF     		it	eq
 2154 0166 43F00103 		orreq	r3, r3, #1
 2155 016a 4831     		adds	r1, r1, #72
 2156 016c 7245     		cmp	r2, lr
 2157 016e 08BF     		it	eq
 2158 0170 43F00103 		orreq	r3, r3, #1
 2159 0174 0EF1480E 		add	lr, lr, #72
 2160 0178 8242     		cmp	r2, r0
 2161 017a 08BF     		it	eq
 2162 017c 43F00103 		orreq	r3, r3, #1
 2163 0180 4830     		adds	r0, r0, #72
 2164 0182 8A42     		cmp	r2, r1
 2165 0184 08BF     		it	eq
 2166 0186 43F00103 		orreq	r3, r3, #1
 2167 018a 4831     		adds	r1, r1, #72
 2168 018c 7245     		cmp	r2, lr
 2169 018e 08BF     		it	eq
 2170 0190 43F00103 		orreq	r3, r3, #1
 2171 0194 8242     		cmp	r2, r0
 2172 0196 08BF     		it	eq
 2173 0198 43F00103 		orreq	r3, r3, #1
 2174 019c 8A42     		cmp	r2, r1
 2175 019e 08BF     		it	eq
 2176 01a0 43F00103 		orreq	r3, r3, #1
 2177 01a4 002B     		cmp	r3, #0
 2178 01a6 00F0E781 		beq	.L309
 2179 01aa 2B68     		ldr	r3, [r5]
 2180 01ac 23FA0CF3 		lsr	r3, r3, ip
 2181 01b0 DB07     		lsls	r3, r3, #31
 2182 01b2 0CD5     		bpl	.L265
 2183 01b4 616D     		ldr	r1, [r4, #84]
 2184 01b6 0123     		movs	r3, #1
 2185 01b8 41F00201 		orr	r1, r1, #2
 2186 01bc 03FA0CF3 		lsl	r3, r3, ip
 2187 01c0 6165     		str	r1, [r4, #84]
ARM GAS  C:\Users\Brandon\AppData\Local\Temp\ccI59QTV.s 			page 39


 2188 01c2 0099     		ldr	r1, [sp]
 2189 01c4 0B60     		str	r3, [r1]
 2190 01c6 D4F85CC0 		ldr	ip, [r4, #92]
 2191 01ca 0CF01F0C 		and	ip, ip, #31
 2192              	.L265:
 2193 01ce 0423     		movs	r3, #4
 2194 01d0 2968     		ldr	r1, [r5]
 2195 01d2 03FA0CF3 		lsl	r3, r3, ip
 2196 01d6 1942     		tst	r1, r3
 2197 01d8 09D0     		beq	.L266
 2198 01da 616D     		ldr	r1, [r4, #84]
 2199 01dc 41F00401 		orr	r1, r1, #4
 2200 01e0 6165     		str	r1, [r4, #84]
 2201 01e2 0099     		ldr	r1, [sp]
 2202 01e4 0B60     		str	r3, [r1]
 2203 01e6 D4F85CC0 		ldr	ip, [r4, #92]
 2204 01ea 0CF01F0C 		and	ip, ip, #31
 2205              	.L266:
 2206 01ee 0823     		movs	r3, #8
 2207 01f0 2968     		ldr	r1, [r5]
 2208 01f2 03FA0CF3 		lsl	r3, r3, ip
 2209 01f6 1942     		tst	r1, r3
 2210 01f8 40F04F81 		bne	.L310
 2211 01fc BAF1FF3F 		cmp	r10, #-1
 2212 0200 00F08B80 		beq	.L281
 2213              	.L280:
 2214 0204 FFF7FEFF 		bl	HAL_GetTick
 2215 0208 029B     		ldr	r3, [sp, #8]
 2216 020a C01A     		subs	r0, r0, r3
 2217 020c 5045     		cmp	r0, r10
 2218 020e 00F25181 		bhi	.L269
 2219 0212 BAF1000F 		cmp	r10, #0
 2220 0216 00F04D81 		beq	.L269
 2221 021a 2268     		ldr	r2, [r4]
 2222 021c 634B     		ldr	r3, .L316+8
 2223 021e 6449     		ldr	r1, .L316+12
 2224 0220 6148     		ldr	r0, .L316+4
 2225 0222 8A42     		cmp	r2, r1
 2226 0224 18BF     		it	ne
 2227 0226 9A42     		cmpne	r2, r3
 2228 0228 A1F17801 		sub	r1, r1, #120
 2229 022c DFF8A0E1 		ldr	lr, .L316+44
 2230 0230 0CBF     		ite	eq
 2231 0232 0123     		moveq	r3, #1
 2232 0234 0023     		movne	r3, #0
 2233 0236 DFF89CC1 		ldr	ip, .L316+48
 2234 023a B242     		cmp	r2, r6
 2235 023c 08BF     		it	eq
 2236 023e 43F00103 		orreq	r3, r3, #1
 2237 0242 BA42     		cmp	r2, r7
 2238 0244 08BF     		it	eq
 2239 0246 43F00103 		orreq	r3, r3, #1
 2240 024a 4245     		cmp	r2, r8
 2241 024c 08BF     		it	eq
 2242 024e 43F00103 		orreq	r3, r3, #1
 2243 0252 5A45     		cmp	r2, fp
 2244 0254 08BF     		it	eq
ARM GAS  C:\Users\Brandon\AppData\Local\Temp\ccI59QTV.s 			page 40


 2245 0256 43F00103 		orreq	r3, r3, #1
 2246 025a 4A45     		cmp	r2, r9
 2247 025c 08BF     		it	eq
 2248 025e 43F00103 		orreq	r3, r3, #1
 2249 0262 8A42     		cmp	r2, r1
 2250 0264 08BF     		it	eq
 2251 0266 43F00103 		orreq	r3, r3, #1
 2252 026a 01F58C61 		add	r1, r1, #1120
 2253 026e 8242     		cmp	r2, r0
 2254 0270 08BF     		it	eq
 2255 0272 43F00103 		orreq	r3, r3, #1
 2256 0276 00F58360 		add	r0, r0, #1048
 2257 027a 7245     		cmp	r2, lr
 2258 027c 08BF     		it	eq
 2259 027e 43F00103 		orreq	r3, r3, #1
 2260 0282 6245     		cmp	r2, ip
 2261 0284 08BF     		it	eq
 2262 0286 43F00103 		orreq	r3, r3, #1
 2263 028a 0CF1600C 		add	ip, ip, #96
 2264 028e 8242     		cmp	r2, r0
 2265 0290 08BF     		it	eq
 2266 0292 43F00103 		orreq	r3, r3, #1
 2267 0296 4838     		subs	r0, r0, #72
 2268 0298 8A42     		cmp	r2, r1
 2269 029a 08BF     		it	eq
 2270 029c 43F00103 		orreq	r3, r3, #1
 2271 02a0 4839     		subs	r1, r1, #72
 2272 02a2 6245     		cmp	r2, ip
 2273 02a4 08BF     		it	eq
 2274 02a6 43F00103 		orreq	r3, r3, #1
 2275 02aa D4F85CC0 		ldr	ip, [r4, #92]
 2276 02ae 8242     		cmp	r2, r0
 2277 02b0 08BF     		it	eq
 2278 02b2 43F00103 		orreq	r3, r3, #1
 2279 02b6 0CF01F0C 		and	ip, ip, #31
 2280 02ba 8A42     		cmp	r2, r1
 2281 02bc 08BF     		it	eq
 2282 02be 43F00103 		orreq	r3, r3, #1
 2283              	.L268:
 2284 02c2 DFF814E1 		ldr	lr, .L316+52
 2285 02c6 3B49     		ldr	r1, .L316+16
 2286 02c8 3B48     		ldr	r0, .L316+20
 2287 02ca 7245     		cmp	r2, lr
 2288 02cc 18BF     		it	ne
 2289 02ce 8A42     		cmpne	r2, r1
 2290 02d0 01F12801 		add	r1, r1, #40
 2291 02d4 0CBF     		ite	eq
 2292 02d6 4FF0010E 		moveq	lr, #1
 2293 02da 4FF0000E 		movne	lr, #0
 2294 02de 43EA0E03 		orr	r3, r3, lr
 2295 02e2 DFF8F8E0 		ldr	lr, .L316+56
 2296 02e6 8242     		cmp	r2, r0
 2297 02e8 08BF     		it	eq
 2298 02ea 43F00103 		orreq	r3, r3, #1
 2299 02ee 3C30     		adds	r0, r0, #60
 2300 02f0 8A42     		cmp	r2, r1
 2301 02f2 08BF     		it	eq
ARM GAS  C:\Users\Brandon\AppData\Local\Temp\ccI59QTV.s 			page 41


 2302 02f4 43F00103 		orreq	r3, r3, #1
 2303 02f8 3C31     		adds	r1, r1, #60
 2304 02fa 7245     		cmp	r2, lr
 2305 02fc 08BF     		it	eq
 2306 02fe 43F00103 		orreq	r3, r3, #1
 2307 0302 8242     		cmp	r2, r0
 2308 0304 08BF     		it	eq
 2309 0306 43F00103 		orreq	r3, r3, #1
 2310 030a 8A42     		cmp	r2, r1
 2311 030c 08BF     		it	eq
 2312 030e 43F00103 		orreq	r3, r3, #1
 2313 0312 13B9     		cbnz	r3, .L281
 2314 0314 294B     		ldr	r3, .L316+24
 2315 0316 9A42     		cmp	r2, r3
 2316 0318 1BD1     		bne	.L270
 2317              	.L281:
 2318 031a E36E     		ldr	r3, [r4, #108]
 2319 031c 4BB1     		cbz	r3, .L272
 2320 031e D4E91C31 		ldrd	r3, r1, [r4, #112]
 2321 0322 1868     		ldr	r0, [r3]
 2322 0324 0842     		tst	r0, r1
 2323 0326 04D0     		beq	.L272
 2324 0328 5960     		str	r1, [r3, #4]
 2325 032a 636D     		ldr	r3, [r4, #84]
 2326 032c 43F48063 		orr	r3, r3, #1024
 2327 0330 6365     		str	r3, [r4, #84]
 2328              	.L272:
 2329 0332 D4E91931 		ldrd	r3, r1, [r4, #100]
 2330 0336 1868     		ldr	r0, [r3]
 2331 0338 0842     		tst	r0, r1
 2332 033a 08D0     		beq	.L273
 2333 033c 5960     		str	r1, [r3, #4]
 2334 033e 636D     		ldr	r3, [r4, #84]
 2335 0340 43F40073 		orr	r3, r3, #512
 2336 0344 6365     		str	r3, [r4, #84]
 2337              	.L274:
 2338 0346 DFF88490 		ldr	r9, .L316+40
 2339 034a DFF89480 		ldr	r8, .L316+60
 2340              	.L273:
 2341 034e 1C4F     		ldr	r7, .L316+28
 2342 0350 1C4E     		ldr	r6, .L316+32
 2343              	.L270:
 2344 0352 2B68     		ldr	r3, [r5]
 2345 0354 0199     		ldr	r1, [sp, #4]
 2346 0356 0B42     		tst	r3, r1
 2347 0358 3FF4D6AE 		beq	.L275
 2348 035c 039B     		ldr	r3, [sp, #12]
 2349 035e 002B     		cmp	r3, #0
 2350 0360 40F0AF80 		bne	.L276
 2351 0364 184B     		ldr	r3, .L316+36
 2352 0366 1948     		ldr	r0, .L316+40
 2353 0368 0E49     		ldr	r1, .L316
 2354 036a 8242     		cmp	r2, r0
 2355 036c 18BF     		it	ne
 2356 036e 9A42     		cmpne	r2, r3
 2357 0370 00F13000 		add	r0, r0, #48
 2358 0374 0CBF     		ite	eq
ARM GAS  C:\Users\Brandon\AppData\Local\Temp\ccI59QTV.s 			page 42


 2359 0376 0123     		moveq	r3, #1
 2360 0378 0023     		movne	r3, #0
 2361 037a 8A42     		cmp	r2, r1
 2362 037c 08BF     		it	eq
 2363 037e 43F00103 		orreq	r3, r3, #1
 2364 0382 3031     		adds	r1, r1, #48
 2365 0384 8242     		cmp	r2, r0
 2366 0386 08BF     		it	eq
 2367 0388 43F00103 		orreq	r3, r3, #1
 2368 038c 3030     		adds	r0, r0, #48
 2369 038e 8A42     		cmp	r2, r1
 2370 0390 08BF     		it	eq
 2371 0392 43F00103 		orreq	r3, r3, #1
 2372 0396 3031     		adds	r1, r1, #48
 2373 0398 8242     		cmp	r2, r0
 2374 039a 08BF     		it	eq
 2375 039c 43F00103 		orreq	r3, r3, #1
 2376 03a0 20E0     		b	.L317
 2377              	.L318:
 2378 03a2 00BF     		.align	2
 2379              	.L316:
 2380 03a4 40000240 		.word	1073872960
 2381 03a8 A0000240 		.word	1073873056
 2382 03ac 10040240 		.word	1073873936
 2383 03b0 B8000240 		.word	1073873080
 2384 03b4 1C540258 		.word	1476547612
 2385 03b8 30540258 		.word	1476547632
 2386 03bc 94540258 		.word	1476547732
 2387 03c0 70000240 		.word	1073873008
 2388 03c4 88000240 		.word	1073873032
 2389 03c8 10000240 		.word	1073872912
 2390 03cc 28000240 		.word	1073872936
 2391 03d0 40040240 		.word	1073873984
 2392 03d4 28040240 		.word	1073873960
 2393 03d8 08540258 		.word	1476547592
 2394 03dc 58540258 		.word	1476547672
 2395 03e0 58000240 		.word	1073872984
 2396              	.L317:
 2397 03e4 3030     		adds	r0, r0, #48
 2398 03e6 8A42     		cmp	r2, r1
 2399 03e8 08BF     		it	eq
 2400 03ea 43F00103 		orreq	r3, r3, #1
 2401 03ee 01F55C71 		add	r1, r1, #880
 2402 03f2 8242     		cmp	r2, r0
 2403 03f4 08BF     		it	eq
 2404 03f6 43F00103 		orreq	r3, r3, #1
 2405 03fa 00F55C70 		add	r0, r0, #880
 2406 03fe 8A42     		cmp	r2, r1
 2407 0400 08BF     		it	eq
 2408 0402 43F00103 		orreq	r3, r3, #1
 2409 0406 3031     		adds	r1, r1, #48
 2410 0408 8242     		cmp	r2, r0
 2411 040a 08BF     		it	eq
 2412 040c 43F00103 		orreq	r3, r3, #1
 2413 0410 3030     		adds	r0, r0, #48
 2414 0412 8A42     		cmp	r2, r1
 2415 0414 08BF     		it	eq
ARM GAS  C:\Users\Brandon\AppData\Local\Temp\ccI59QTV.s 			page 43


 2416 0416 43F00103 		orreq	r3, r3, #1
 2417 041a 3031     		adds	r1, r1, #48
 2418 041c 8242     		cmp	r2, r0
 2419 041e 08BF     		it	eq
 2420 0420 43F00103 		orreq	r3, r3, #1
 2421 0424 3030     		adds	r0, r0, #48
 2422 0426 8A42     		cmp	r2, r1
 2423 0428 08BF     		it	eq
 2424 042a 43F00103 		orreq	r3, r3, #1
 2425 042e 3031     		adds	r1, r1, #48
 2426 0430 8242     		cmp	r2, r0
 2427 0432 08BF     		it	eq
 2428 0434 43F00103 		orreq	r3, r3, #1
 2429 0438 8A42     		cmp	r2, r1
 2430 043a 08BF     		it	eq
 2431 043c 43F00103 		orreq	r3, r3, #1
 2432 0440 1BB9     		cbnz	r3, .L277
 2433 0442 6B4B     		ldr	r3, .L319
 2434 0444 9A42     		cmp	r2, r3
 2435 0446 40F0CC80 		bne	.L311
 2436              	.L277:
 2437 044a 3023     		movs	r3, #48
 2438 044c 009A     		ldr	r2, [sp]
 2439 044e 03FA0CF3 		lsl	r3, r3, ip
 2440 0452 1360     		str	r3, [r2]
 2441              	.L278:
 2442 0454 0020     		movs	r0, #0
 2443 0456 0123     		movs	r3, #1
 2444 0458 84F83400 		strb	r0, [r4, #52]
 2445 045c 84F83530 		strb	r3, [r4, #53]
 2446 0460 05E0     		b	.L302
 2447              	.L306:
 2448 0462 8022     		movs	r2, #128
 2449 0464 0023     		movs	r3, #0
 2450 0466 0120     		movs	r0, #1
 2451 0468 6265     		str	r2, [r4, #84]
 2452 046a 84F83430 		strb	r3, [r4, #52]
 2453              	.L302:
 2454 046e 05B0     		add	sp, sp, #20
 2455              		@ sp needed
 2456 0470 BDE8F08F 		pop	{r4, r5, r6, r7, r8, r9, r10, fp, pc}
 2457              	.L308:
 2458 0474 E36D     		ldr	r3, [r4, #92]
 2459 0476 2021     		movs	r1, #32
 2460 0478 03F01F0C 		and	ip, r3, #31
 2461 047c 01FA0CF3 		lsl	r3, r1, ip
 2462 0480 0193     		str	r3, [sp, #4]
 2463 0482 30E6     		b	.L258
 2464              	.L282:
 2465 0484 0120     		movs	r0, #1
 2466 0486 05B0     		add	sp, sp, #20
 2467              		@ sp needed
 2468 0488 BDE8F08F 		pop	{r4, r5, r6, r7, r8, r9, r10, fp, pc}
 2469              	.L254:
 2470 048c 4FF48073 		mov	r3, #256
 2471 0490 0120     		movs	r0, #1
 2472 0492 6365     		str	r3, [r4, #84]
ARM GAS  C:\Users\Brandon\AppData\Local\Temp\ccI59QTV.s 			page 44


 2473 0494 05B0     		add	sp, sp, #20
 2474              		@ sp needed
 2475 0496 BDE8F08F 		pop	{r4, r5, r6, r7, r8, r9, r10, fp, pc}
 2476              	.L310:
 2477 049a 626D     		ldr	r2, [r4, #84]
 2478 049c 0121     		movs	r1, #1
 2479 049e 0025     		movs	r5, #0
 2480 04a0 0A43     		orrs	r2, r2, r1
 2481 04a2 0846     		mov	r0, r1
 2482 04a4 6265     		str	r2, [r4, #84]
 2483 04a6 009A     		ldr	r2, [sp]
 2484 04a8 1360     		str	r3, [r2]
 2485 04aa 84F83510 		strb	r1, [r4, #53]
 2486 04ae 84F83450 		strb	r5, [r4, #52]
 2487 04b2 DCE7     		b	.L302
 2488              	.L269:
 2489 04b4 2023     		movs	r3, #32
 2490 04b6 2046     		mov	r0, r4
 2491 04b8 6365     		str	r3, [r4, #84]
 2492 04ba FFF7FEFF 		bl	HAL_DMA_Abort
 2493 04be 0120     		movs	r0, #1
 2494 04c0 D5E7     		b	.L302
 2495              	.L276:
 2496 04c2 4C4B     		ldr	r3, .L319+4
 2497 04c4 4C48     		ldr	r0, .L319+8
 2498 04c6 4D49     		ldr	r1, .L319+12
 2499 04c8 8242     		cmp	r2, r0
 2500 04ca 18BF     		it	ne
 2501 04cc 9A42     		cmpne	r2, r3
 2502 04ce 00F13000 		add	r0, r0, #48
 2503 04d2 0CBF     		ite	eq
 2504 04d4 0123     		moveq	r3, #1
 2505 04d6 0023     		movne	r3, #0
 2506 04d8 8A42     		cmp	r2, r1
 2507 04da 08BF     		it	eq
 2508 04dc 43F00103 		orreq	r3, r3, #1
 2509 04e0 3031     		adds	r1, r1, #48
 2510 04e2 8242     		cmp	r2, r0
 2511 04e4 08BF     		it	eq
 2512 04e6 43F00103 		orreq	r3, r3, #1
 2513 04ea 3030     		adds	r0, r0, #48
 2514 04ec 8A42     		cmp	r2, r1
 2515 04ee 08BF     		it	eq
 2516 04f0 43F00103 		orreq	r3, r3, #1
 2517 04f4 3031     		adds	r1, r1, #48
 2518 04f6 8242     		cmp	r2, r0
 2519 04f8 08BF     		it	eq
 2520 04fa 43F00103 		orreq	r3, r3, #1
 2521 04fe 3030     		adds	r0, r0, #48
 2522 0500 8A42     		cmp	r2, r1
 2523 0502 08BF     		it	eq
 2524 0504 43F00103 		orreq	r3, r3, #1
 2525 0508 01F55C71 		add	r1, r1, #880
 2526 050c 8242     		cmp	r2, r0
 2527 050e 08BF     		it	eq
 2528 0510 43F00103 		orreq	r3, r3, #1
 2529 0514 00F55C70 		add	r0, r0, #880
ARM GAS  C:\Users\Brandon\AppData\Local\Temp\ccI59QTV.s 			page 45


 2530 0518 8A42     		cmp	r2, r1
 2531 051a 08BF     		it	eq
 2532 051c 43F00103 		orreq	r3, r3, #1
 2533 0520 3031     		adds	r1, r1, #48
 2534 0522 8242     		cmp	r2, r0
 2535 0524 08BF     		it	eq
 2536 0526 43F00103 		orreq	r3, r3, #1
 2537 052a 3030     		adds	r0, r0, #48
 2538 052c 8A42     		cmp	r2, r1
 2539 052e 08BF     		it	eq
 2540 0530 43F00103 		orreq	r3, r3, #1
 2541 0534 3031     		adds	r1, r1, #48
 2542 0536 8242     		cmp	r2, r0
 2543 0538 08BF     		it	eq
 2544 053a 43F00103 		orreq	r3, r3, #1
 2545 053e 3030     		adds	r0, r0, #48
 2546 0540 8A42     		cmp	r2, r1
 2547 0542 08BF     		it	eq
 2548 0544 43F00103 		orreq	r3, r3, #1
 2549 0548 3031     		adds	r1, r1, #48
 2550 054a 8242     		cmp	r2, r0
 2551 054c 08BF     		it	eq
 2552 054e 43F00103 		orreq	r3, r3, #1
 2553 0552 8A42     		cmp	r2, r1
 2554 0554 08BF     		it	eq
 2555 0556 43F00103 		orreq	r3, r3, #1
 2556 055a 33B9     		cbnz	r3, .L279
 2557 055c 3030     		adds	r0, r0, #48
 2558 055e 101A     		subs	r0, r2, r0
 2559 0560 B0FA80F0 		clz	r0, r0
 2560 0564 4009     		lsrs	r0, r0, #5
 2561 0566 0028     		cmp	r0, #0
 2562 0568 35D0     		beq	.L312
 2563              	.L279:
 2564 056a 1023     		movs	r3, #16
 2565 056c 009A     		ldr	r2, [sp]
 2566 056e 0020     		movs	r0, #0
 2567 0570 03FA0CF3 		lsl	r3, r3, ip
 2568 0574 1360     		str	r3, [r2]
 2569 0576 7AE7     		b	.L302
 2570              	.L309:
 2571 0578 0821     		movs	r1, #8
 2572 057a 2868     		ldr	r0, [r5]
 2573 057c 01FA0CF1 		lsl	r1, r1, ip
 2574 0580 0142     		tst	r1, r0
 2575 0582 15D1     		bne	.L313
 2576 0584 BAF1FF3F 		cmp	r10, #-1
 2577 0588 3FF49BAE 		beq	.L268
 2578 058c 3AE6     		b	.L280
 2579              	.L307:
 2580 058e 1368     		ldr	r3, [r2]
 2581 0590 9806     		lsls	r0, r3, #26
 2582 0592 3FF57BAF 		bmi	.L254
 2583 0596 039B     		ldr	r3, [sp, #12]
 2584 0598 ABB9     		cbnz	r3, .L260
 2585 059a E36D     		ldr	r3, [r4, #92]
 2586 059c 03F01F00 		and	r0, r3, #31
ARM GAS  C:\Users\Brandon\AppData\Local\Temp\ccI59QTV.s 			page 46


 2587 05a0 8140     		lsls	r1, r1, r0
 2588 05a2 0191     		str	r1, [sp, #4]
 2589              	.L261:
 2590 05a4 A56D     		ldr	r5, [r4, #88]
 2591 05a6 03F01F0C 		and	ip, r3, #31
 2592 05aa 2B1D     		adds	r3, r5, #4
 2593 05ac 0093     		str	r3, [sp]
 2594 05ae 9EE5     		b	.L259
 2595              	.L313:
 2596 05b0 0122     		movs	r2, #1
 2597 05b2 02FA0CF1 		lsl	r1, r2, ip
 2598 05b6 1046     		mov	r0, r2
 2599 05b8 2960     		str	r1, [r5]
 2600 05ba 6265     		str	r2, [r4, #84]
 2601 05bc 84F83430 		strb	r3, [r4, #52]
 2602 05c0 84F83520 		strb	r2, [r4, #53]
 2603 05c4 53E7     		b	.L302
 2604              	.L260:
 2605 05c6 E36D     		ldr	r3, [r4, #92]
 2606 05c8 0420     		movs	r0, #4
 2607 05ca 03F01F01 		and	r1, r3, #31
 2608 05ce 00FA01F1 		lsl	r1, r0, r1
 2609 05d2 0191     		str	r1, [sp, #4]
 2610 05d4 E6E7     		b	.L261
 2611              	.L312:
 2612 05d6 0423     		movs	r3, #4
 2613 05d8 009A     		ldr	r2, [sp]
 2614 05da 03FA0CF3 		lsl	r3, r3, ip
 2615 05de 1360     		str	r3, [r2]
 2616 05e0 45E7     		b	.L302
 2617              	.L311:
 2618 05e2 0223     		movs	r3, #2
 2619 05e4 009A     		ldr	r2, [sp]
 2620 05e6 03FA0CF3 		lsl	r3, r3, ip
 2621 05ea 1360     		str	r3, [r2]
 2622 05ec 32E7     		b	.L278
 2623              	.L320:
 2624 05ee 00BF     		.align	2
 2625              	.L319:
 2626 05f0 B8040240 		.word	1073874104
 2627 05f4 10000240 		.word	1073872912
 2628 05f8 28000240 		.word	1073872936
 2629 05fc 40000240 		.word	1073872960
 2631              		.section	.text.HAL_DMA_IRQHandler,"ax",%progbits
 2632              		.align	1
 2633              		.p2align 2,,3
 2634              		.global	HAL_DMA_IRQHandler
 2635              		.syntax unified
 2636              		.thumb
 2637              		.thumb_func
 2638              		.fpu fpv5-d16
 2640              	HAL_DMA_IRQHandler:
 2641              		@ args = 0, pretend = 0, frame = 8
 2642              		@ frame_needed = 0, uses_anonymous_args = 0
 2643 0000 2DE9F047 		push	{r4, r5, r6, r7, r8, r9, r10, lr}
 2644 0004 9F4A     		ldr	r2, .L493
 2645 0006 0025     		movs	r5, #0
ARM GAS  C:\Users\Brandon\AppData\Local\Temp\ccI59QTV.s 			page 47


 2646 0008 9F4E     		ldr	r6, .L493+4
 2647 000a 82B0     		sub	sp, sp, #8
 2648 000c 0368     		ldr	r3, [r0]
 2649 000e 8246     		mov	r10, r0
 2650 0010 9E49     		ldr	r1, .L493+8
 2651 0012 846D     		ldr	r4, [r0, #88]
 2652 0014 9342     		cmp	r3, r2
 2653 0016 18BF     		it	ne
 2654 0018 B342     		cmpne	r3, r6
 2655 001a 0195     		str	r5, [sp, #4]
 2656 001c 08BF     		it	eq
 2657 001e 0126     		moveq	r6, #1
 2658 0020 0D68     		ldr	r5, [r1]
 2659 0022 2768     		ldr	r7, [r4]
 2660 0024 18BF     		it	ne
 2661 0026 0026     		movne	r6, #0
 2662 0028 2168     		ldr	r1, [r4]
 2663 002a 4AD0     		beq	.L323
 2664 002c 3032     		adds	r2, r2, #48
 2665 002e DFF86CE2 		ldr	lr, .L493+24
 2666 0032 9748     		ldr	r0, .L493+12
 2667 0034 7345     		cmp	r3, lr
 2668 0036 18BF     		it	ne
 2669 0038 9342     		cmpne	r3, r2
 2670 003a 0EF1480E 		add	lr, lr, #72
 2671 003e 0CBF     		ite	eq
 2672 0040 0122     		moveq	r2, #1
 2673 0042 0022     		movne	r2, #0
 2674 0044 8342     		cmp	r3, r0
 2675 0046 08BF     		it	eq
 2676 0048 42F00102 		orreq	r2, r2, #1
 2677 004c 3030     		adds	r0, r0, #48
 2678 004e 7345     		cmp	r3, lr
 2679 0050 08BF     		it	eq
 2680 0052 42F00102 		orreq	r2, r2, #1
 2681 0056 0EF1300E 		add	lr, lr, #48
 2682 005a 8342     		cmp	r3, r0
 2683 005c 08BF     		it	eq
 2684 005e 42F00102 		orreq	r2, r2, #1
 2685 0062 00F55C70 		add	r0, r0, #880
 2686 0066 7345     		cmp	r3, lr
 2687 0068 08BF     		it	eq
 2688 006a 42F00102 		orreq	r2, r2, #1
 2689 006e 0EF55C7E 		add	lr, lr, #880
 2690 0072 8342     		cmp	r3, r0
 2691 0074 08BF     		it	eq
 2692 0076 42F00102 		orreq	r2, r2, #1
 2693 007a 3030     		adds	r0, r0, #48
 2694 007c 7345     		cmp	r3, lr
 2695 007e 08BF     		it	eq
 2696 0080 42F00102 		orreq	r2, r2, #1
 2697 0084 0EF1300E 		add	lr, lr, #48
 2698 0088 8342     		cmp	r3, r0
 2699 008a 08BF     		it	eq
 2700 008c 42F00102 		orreq	r2, r2, #1
 2701 0090 3030     		adds	r0, r0, #48
 2702 0092 7345     		cmp	r3, lr
ARM GAS  C:\Users\Brandon\AppData\Local\Temp\ccI59QTV.s 			page 48


 2703 0094 08BF     		it	eq
 2704 0096 42F00102 		orreq	r2, r2, #1
 2705 009a 0EF1300E 		add	lr, lr, #48
 2706 009e 8342     		cmp	r3, r0
 2707 00a0 08BF     		it	eq
 2708 00a2 42F00102 		orreq	r2, r2, #1
 2709 00a6 3030     		adds	r0, r0, #48
 2710 00a8 7345     		cmp	r3, lr
 2711 00aa 08BF     		it	eq
 2712 00ac 42F00102 		orreq	r2, r2, #1
 2713 00b0 8342     		cmp	r3, r0
 2714 00b2 08BF     		it	eq
 2715 00b4 42F00102 		orreq	r2, r2, #1
 2716 00b8 1AB9     		cbnz	r2, .L323
 2717 00ba 764A     		ldr	r2, .L493+16
 2718 00bc 9342     		cmp	r3, r2
 2719 00be 40F00B82 		bne	.L487
 2720              	.L323:
 2721 00c2 DAF85C10 		ldr	r1, [r10, #92]
 2722 00c6 0822     		movs	r2, #8
 2723 00c8 01F01F0C 		and	ip, r1, #31
 2724 00cc 02FA0CF2 		lsl	r2, r2, ip
 2725 00d0 1742     		tst	r7, r2
 2726 00d2 40F08D81 		bne	.L374
 2727 00d6 27FA0CF2 		lsr	r2, r7, ip
 2728 00da D207     		lsls	r2, r2, #31
 2729 00dc 0CD5     		bpl	.L327
 2730              	.L376:
 2731 00de 5A69     		ldr	r2, [r3, #20]
 2732 00e0 1006     		lsls	r0, r2, #24
 2733 00e2 09D5     		bpl	.L327
 2734 00e4 0122     		movs	r2, #1
 2735 00e6 02FA0CF2 		lsl	r2, r2, ip
 2736 00ea A260     		str	r2, [r4, #8]
 2737 00ec DAF85420 		ldr	r2, [r10, #84]
 2738 00f0 42F00202 		orr	r2, r2, #2
 2739 00f4 CAF85420 		str	r2, [r10, #84]
 2740              	.L327:
 2741 00f8 4FF0040E 		mov	lr, #4
 2742 00fc 0EFA0CF0 		lsl	r0, lr, ip
 2743 0100 3842     		tst	r0, r7
 2744 0102 5BD0     		beq	.L333
 2745 0104 002E     		cmp	r6, #0
 2746 0106 4FD1     		bne	.L334
 2747 0108 634A     		ldr	r2, .L493+20
 2748 010a DFF89091 		ldr	r9, .L493+24
 2749 010e DFF88081 		ldr	r8, .L493+12
 2750 0112 4B45     		cmp	r3, r9
 2751 0114 18BF     		it	ne
 2752 0116 9342     		cmpne	r3, r2
 2753 0118 09F14809 		add	r9, r9, #72
 2754 011c 0CBF     		ite	eq
 2755 011e 0122     		moveq	r2, #1
 2756 0120 0022     		movne	r2, #0
 2757 0122 4345     		cmp	r3, r8
 2758 0124 08BF     		it	eq
 2759 0126 42F00102 		orreq	r2, r2, #1
ARM GAS  C:\Users\Brandon\AppData\Local\Temp\ccI59QTV.s 			page 49


 2760 012a 08F13008 		add	r8, r8, #48
 2761 012e 4B45     		cmp	r3, r9
 2762 0130 08BF     		it	eq
 2763 0132 42F00102 		orreq	r2, r2, #1
 2764 0136 09F13009 		add	r9, r9, #48
 2765 013a 4345     		cmp	r3, r8
 2766 013c 08BF     		it	eq
 2767 013e 42F00102 		orreq	r2, r2, #1
 2768 0142 08F55C78 		add	r8, r8, #880
 2769 0146 4B45     		cmp	r3, r9
 2770 0148 08BF     		it	eq
 2771 014a 42F00102 		orreq	r2, r2, #1
 2772 014e 09F55C79 		add	r9, r9, #880
 2773 0152 4345     		cmp	r3, r8
 2774 0154 08BF     		it	eq
 2775 0156 42F00102 		orreq	r2, r2, #1
 2776 015a 08F13008 		add	r8, r8, #48
 2777 015e 4B45     		cmp	r3, r9
 2778 0160 08BF     		it	eq
 2779 0162 42F00102 		orreq	r2, r2, #1
 2780 0166 09F13009 		add	r9, r9, #48
 2781 016a 4345     		cmp	r3, r8
 2782 016c 08BF     		it	eq
 2783 016e 42F00102 		orreq	r2, r2, #1
 2784 0172 08F13008 		add	r8, r8, #48
 2785 0176 4B45     		cmp	r3, r9
 2786 0178 08BF     		it	eq
 2787 017a 42F00102 		orreq	r2, r2, #1
 2788 017e 09F13009 		add	r9, r9, #48
 2789 0182 4345     		cmp	r3, r8
 2790 0184 08BF     		it	eq
 2791 0186 42F00102 		orreq	r2, r2, #1
 2792 018a 08F13008 		add	r8, r8, #48
 2793 018e 4B45     		cmp	r3, r9
 2794 0190 08BF     		it	eq
 2795 0192 42F00102 		orreq	r2, r2, #1
 2796 0196 4345     		cmp	r3, r8
 2797 0198 08BF     		it	eq
 2798 019a 42F00102 		orreq	r2, r2, #1
 2799 019e 1AB9     		cbnz	r2, .L334
 2800 01a0 3C4A     		ldr	r2, .L493+16
 2801 01a2 9342     		cmp	r3, r2
 2802 01a4 40F02F82 		bne	.L331
 2803              	.L334:
 2804 01a8 1A68     		ldr	r2, [r3]
 2805 01aa 9207     		lsls	r2, r2, #30
 2806 01ac 06D5     		bpl	.L333
 2807 01ae A060     		str	r0, [r4, #8]
 2808 01b0 DAF85420 		ldr	r2, [r10, #84]
 2809 01b4 42F00402 		orr	r2, r2, #4
 2810 01b8 CAF85420 		str	r2, [r10, #84]
 2811              	.L333:
 2812 01bc 1022     		movs	r2, #16
 2813 01be 02FA0CFC 		lsl	ip, r2, ip
 2814 01c2 1CEA070F 		tst	ip, r7
 2815 01c6 6FD0     		beq	.L338
 2816 01c8 002E     		cmp	r6, #0
ARM GAS  C:\Users\Brandon\AppData\Local\Temp\ccI59QTV.s 			page 50


 2817 01ca 46D1     		bne	.L340
 2818              	.L377:
 2819 01cc 324A     		ldr	r2, .L493+20
 2820 01ce 3348     		ldr	r0, .L493+24
 2821 01d0 2F4E     		ldr	r6, .L493+12
 2822 01d2 8342     		cmp	r3, r0
 2823 01d4 18BF     		it	ne
 2824 01d6 9342     		cmpne	r3, r2
 2825 01d8 00F14800 		add	r0, r0, #72
 2826 01dc 0CBF     		ite	eq
 2827 01de 0122     		moveq	r2, #1
 2828 01e0 0022     		movne	r2, #0
 2829 01e2 B342     		cmp	r3, r6
 2830 01e4 08BF     		it	eq
 2831 01e6 42F00102 		orreq	r2, r2, #1
 2832 01ea 3036     		adds	r6, r6, #48
 2833 01ec 8342     		cmp	r3, r0
 2834 01ee 08BF     		it	eq
 2835 01f0 42F00102 		orreq	r2, r2, #1
 2836 01f4 3030     		adds	r0, r0, #48
 2837 01f6 B342     		cmp	r3, r6
 2838 01f8 08BF     		it	eq
 2839 01fa 42F00102 		orreq	r2, r2, #1
 2840 01fe 06F55C76 		add	r6, r6, #880
 2841 0202 8342     		cmp	r3, r0
 2842 0204 08BF     		it	eq
 2843 0206 42F00102 		orreq	r2, r2, #1
 2844 020a 00F55C70 		add	r0, r0, #880
 2845 020e B342     		cmp	r3, r6
 2846 0210 08BF     		it	eq
 2847 0212 42F00102 		orreq	r2, r2, #1
 2848 0216 3036     		adds	r6, r6, #48
 2849 0218 8342     		cmp	r3, r0
 2850 021a 08BF     		it	eq
 2851 021c 42F00102 		orreq	r2, r2, #1
 2852 0220 3030     		adds	r0, r0, #48
 2853 0222 B342     		cmp	r3, r6
 2854 0224 08BF     		it	eq
 2855 0226 42F00102 		orreq	r2, r2, #1
 2856 022a 3036     		adds	r6, r6, #48
 2857 022c 8342     		cmp	r3, r0
 2858 022e 08BF     		it	eq
 2859 0230 42F00102 		orreq	r2, r2, #1
 2860 0234 3030     		adds	r0, r0, #48
 2861 0236 B342     		cmp	r3, r6
 2862 0238 08BF     		it	eq
 2863 023a 42F00102 		orreq	r2, r2, #1
 2864 023e 3036     		adds	r6, r6, #48
 2865 0240 8342     		cmp	r3, r0
 2866 0242 08BF     		it	eq
 2867 0244 42F00102 		orreq	r2, r2, #1
 2868 0248 B342     		cmp	r3, r6
 2869 024a 08BF     		it	eq
 2870 024c 42F00102 		orreq	r2, r2, #1
 2871 0250 1AB9     		cbnz	r2, .L340
 2872 0252 104A     		ldr	r2, .L493+16
 2873 0254 9342     		cmp	r3, r2
ARM GAS  C:\Users\Brandon\AppData\Local\Temp\ccI59QTV.s 			page 51


 2874 0256 40F0DE81 		bne	.L337
 2875              	.L340:
 2876 025a 1A68     		ldr	r2, [r3]
 2877 025c C2F3C002 		ubfx	r2, r2, #3, #1
 2878              	.L342:
 2879 0260 12B3     		cbz	r2, .L338
 2880 0262 C4F808C0 		str	ip, [r4, #8]
 2881 0266 1A68     		ldr	r2, [r3]
 2882 0268 5203     		lsls	r2, r2, #13
 2883 026a 00F18B81 		bmi	.L488
 2884 026e 1A68     		ldr	r2, [r3]
 2885 0270 D605     		lsls	r6, r2, #23
 2886 0272 03D4     		bmi	.L345
 2887 0274 1A68     		ldr	r2, [r3]
 2888 0276 22F00802 		bic	r2, r2, #8
 2889 027a 1A60     		str	r2, [r3]
 2890              	.L345:
 2891 027c DAF84030 		ldr	r3, [r10, #64]
 2892 0280 93B1     		cbz	r3, .L338
 2893 0282 0DE0     		b	.L494
 2894              	.L495:
 2895              		.align	2
 2896              	.L493:
 2897 0284 28000240 		.word	1073872936
 2898 0288 10000240 		.word	1073872912
 2899 028c 00000000 		.word	SystemCoreClock
 2900 0290 70000240 		.word	1073873008
 2901 0294 B8040240 		.word	1073874104
 2902 0298 58000240 		.word	1073872984
 2903 029c 40000240 		.word	1073872960
 2904              	.L494:
 2905              	.L480:
 2906 02a0 5046     		mov	r0, r10
 2907 02a2 9847     		blx	r3
 2908 02a4 DAF85C10 		ldr	r1, [r10, #92]
 2909              	.L338:
 2910 02a8 01F01F01 		and	r1, r1, #31
 2911 02ac 2026     		movs	r6, #32
 2912 02ae 8E40     		lsls	r6, r6, r1
 2913 02b0 3E42     		tst	r6, r7
 2914 02b2 6AD0     		beq	.L347
 2915 02b4 DAF80020 		ldr	r2, [r10]
 2916 02b8 A74B     		ldr	r3, .L496
 2917 02ba A848     		ldr	r0, .L496+4
 2918 02bc A84F     		ldr	r7, .L496+8
 2919 02be 8242     		cmp	r2, r0
 2920 02c0 18BF     		it	ne
 2921 02c2 9A42     		cmpne	r2, r3
 2922 02c4 00F13000 		add	r0, r0, #48
 2923 02c8 0CBF     		ite	eq
 2924 02ca 0123     		moveq	r3, #1
 2925 02cc 0023     		movne	r3, #0
 2926 02ce BA42     		cmp	r2, r7
 2927 02d0 08BF     		it	eq
 2928 02d2 43F00103 		orreq	r3, r3, #1
 2929 02d6 3037     		adds	r7, r7, #48
 2930 02d8 8242     		cmp	r2, r0
ARM GAS  C:\Users\Brandon\AppData\Local\Temp\ccI59QTV.s 			page 52


 2931 02da 08BF     		it	eq
 2932 02dc 43F00103 		orreq	r3, r3, #1
 2933 02e0 3030     		adds	r0, r0, #48
 2934 02e2 BA42     		cmp	r2, r7
 2935 02e4 08BF     		it	eq
 2936 02e6 43F00103 		orreq	r3, r3, #1
 2937 02ea 3037     		adds	r7, r7, #48
 2938 02ec 8242     		cmp	r2, r0
 2939 02ee 08BF     		it	eq
 2940 02f0 43F00103 		orreq	r3, r3, #1
 2941 02f4 3030     		adds	r0, r0, #48
 2942 02f6 BA42     		cmp	r2, r7
 2943 02f8 08BF     		it	eq
 2944 02fa 43F00103 		orreq	r3, r3, #1
 2945 02fe 07F55C77 		add	r7, r7, #880
 2946 0302 8242     		cmp	r2, r0
 2947 0304 08BF     		it	eq
 2948 0306 43F00103 		orreq	r3, r3, #1
 2949 030a 00F55C70 		add	r0, r0, #880
 2950 030e BA42     		cmp	r2, r7
 2951 0310 08BF     		it	eq
 2952 0312 43F00103 		orreq	r3, r3, #1
 2953 0316 3037     		adds	r7, r7, #48
 2954 0318 8242     		cmp	r2, r0
 2955 031a 08BF     		it	eq
 2956 031c 43F00103 		orreq	r3, r3, #1
 2957 0320 3030     		adds	r0, r0, #48
 2958 0322 BA42     		cmp	r2, r7
 2959 0324 08BF     		it	eq
 2960 0326 43F00103 		orreq	r3, r3, #1
 2961 032a 3037     		adds	r7, r7, #48
 2962 032c 8242     		cmp	r2, r0
 2963 032e 08BF     		it	eq
 2964 0330 43F00103 		orreq	r3, r3, #1
 2965 0334 3030     		adds	r0, r0, #48
 2966 0336 BA42     		cmp	r2, r7
 2967 0338 08BF     		it	eq
 2968 033a 43F00103 		orreq	r3, r3, #1
 2969 033e 3037     		adds	r7, r7, #48
 2970 0340 8242     		cmp	r2, r0
 2971 0342 08BF     		it	eq
 2972 0344 43F00103 		orreq	r3, r3, #1
 2973 0348 BA42     		cmp	r2, r7
 2974 034a 08BF     		it	eq
 2975 034c 43F00103 		orreq	r3, r3, #1
 2976 0350 1BB9     		cbnz	r3, .L378
 2977 0352 844B     		ldr	r3, .L496+12
 2978 0354 9A42     		cmp	r2, r3
 2979 0356 40F07381 		bne	.L348
 2980              	.L378:
 2981 035a 1368     		ldr	r3, [r2]
 2982 035c C3F30013 		ubfx	r3, r3, #4, #1
 2983              	.L350:
 2984 0360 9BB1     		cbz	r3, .L347
 2985 0362 A660     		str	r6, [r4, #8]
 2986 0364 9AF83530 		ldrb	r3, [r10, #53]	@ zero_extendqisi2
 2987 0368 042B     		cmp	r3, #4
ARM GAS  C:\Users\Brandon\AppData\Local\Temp\ccI59QTV.s 			page 53


 2988 036a 1368     		ldr	r3, [r2]
 2989 036c 00F01481 		beq	.L489
 2990 0370 13F4802F 		tst	r3, #262144
 2991 0374 1368     		ldr	r3, [r2]
 2992 0376 00F02D81 		beq	.L356
 2993 037a 1C03     		lsls	r4, r3, #12
 2994 037c 40F13881 		bpl	.L490
 2995              	.L358:
 2996 0380 DAF83C30 		ldr	r3, [r10, #60]
 2997 0384 0BB1     		cbz	r3, .L347
 2998              	.L481:
 2999 0386 5046     		mov	r0, r10
 3000 0388 9847     		blx	r3
 3001              	.L347:
 3002 038a DAF85430 		ldr	r3, [r10, #84]
 3003 038e 002B     		cmp	r3, #0
 3004 0390 00F0DF80 		beq	.L321
 3005 0394 DAF85430 		ldr	r3, [r10, #84]
 3006 0398 D807     		lsls	r0, r3, #31
 3007 039a 1FD5     		bpl	.L359
 3008 039c DAF80020 		ldr	r2, [r10]
 3009 03a0 0424     		movs	r4, #4
 3010 03a2 8AF83540 		strb	r4, [r10, #53]
 3011 03a6 1368     		ldr	r3, [r2]
 3012 03a8 23F00103 		bic	r3, r3, #1
 3013 03ac 1360     		str	r3, [r2]
 3014 03ae 6E4B     		ldr	r3, .L496+16
 3015 03b0 A3FB0535 		umull	r3, r5, r3, r5
 3016 03b4 AD0A     		lsrs	r5, r5, #10
 3017 03b6 02E0     		b	.L364
 3018              	.L491:
 3019 03b8 1368     		ldr	r3, [r2]
 3020 03ba D907     		lsls	r1, r3, #31
 3021 03bc 04D5     		bpl	.L363
 3022              	.L364:
 3023 03be 019B     		ldr	r3, [sp, #4]
 3024 03c0 0133     		adds	r3, r3, #1
 3025 03c2 AB42     		cmp	r3, r5
 3026 03c4 0193     		str	r3, [sp, #4]
 3027 03c6 F7D9     		bls	.L491
 3028              	.L363:
 3029 03c8 0023     		movs	r3, #0
 3030 03ca 8AF83430 		strb	r3, [r10, #52]
 3031 03ce 1368     		ldr	r3, [r2]
 3032 03d0 DB07     		lsls	r3, r3, #31
 3033 03d2 4CBF     		ite	mi
 3034 03d4 0323     		movmi	r3, #3
 3035 03d6 0123     		movpl	r3, #1
 3036 03d8 8AF83530 		strb	r3, [r10, #53]
 3037              	.L359:
 3038 03dc DAF84C30 		ldr	r3, [r10, #76]
 3039 03e0 002B     		cmp	r3, #0
 3040 03e2 00F0B680 		beq	.L321
 3041              	.L482:
 3042 03e6 5046     		mov	r0, r10
 3043 03e8 02B0     		add	sp, sp, #8
 3044              		@ sp needed
ARM GAS  C:\Users\Brandon\AppData\Local\Temp\ccI59QTV.s 			page 54


 3045 03ea BDE8F047 		pop	{r4, r5, r6, r7, r8, r9, r10, lr}
 3046 03ee 1847     		bx	r3	@ indirect register sibling call
 3047              	.L374:
 3048 03f0 1868     		ldr	r0, [r3]
 3049 03f2 4007     		lsls	r0, r0, #29
 3050 03f4 0AD5     		bpl	.L326
 3051 03f6 1868     		ldr	r0, [r3]
 3052 03f8 20F00400 		bic	r0, r0, #4
 3053 03fc 1860     		str	r0, [r3]
 3054 03fe A260     		str	r2, [r4, #8]
 3055 0400 DAF85420 		ldr	r2, [r10, #84]
 3056 0404 42F00102 		orr	r2, r2, #1
 3057 0408 CAF85420 		str	r2, [r10, #84]
 3058              	.L326:
 3059 040c 27FA0CF2 		lsr	r2, r7, ip
 3060 0410 D207     		lsls	r2, r2, #31
 3061 0412 7FF571AE 		bpl	.L327
 3062 0416 554A     		ldr	r2, .L496+20
 3063 0418 5148     		ldr	r0, .L496+8
 3064 041a DFF86481 		ldr	r8, .L496+40
 3065 041e 8342     		cmp	r3, r0
 3066 0420 18BF     		it	ne
 3067 0422 9342     		cmpne	r3, r2
 3068 0424 00F14800 		add	r0, r0, #72
 3069 0428 0CBF     		ite	eq
 3070 042a 0122     		moveq	r2, #1
 3071 042c 0022     		movne	r2, #0
 3072 042e 4345     		cmp	r3, r8
 3073 0430 08BF     		it	eq
 3074 0432 42F00102 		orreq	r2, r2, #1
 3075 0436 08F13008 		add	r8, r8, #48
 3076 043a 8342     		cmp	r3, r0
 3077 043c 08BF     		it	eq
 3078 043e 42F00102 		orreq	r2, r2, #1
 3079 0442 3030     		adds	r0, r0, #48
 3080 0444 4345     		cmp	r3, r8
 3081 0446 08BF     		it	eq
 3082 0448 42F00102 		orreq	r2, r2, #1
 3083 044c 08F55C78 		add	r8, r8, #880
 3084 0450 8342     		cmp	r3, r0
 3085 0452 08BF     		it	eq
 3086 0454 42F00102 		orreq	r2, r2, #1
 3087 0458 00F55C70 		add	r0, r0, #880
 3088 045c 4345     		cmp	r3, r8
 3089 045e 08BF     		it	eq
 3090 0460 42F00102 		orreq	r2, r2, #1
 3091 0464 08F13008 		add	r8, r8, #48
 3092 0468 8342     		cmp	r3, r0
 3093 046a 08BF     		it	eq
 3094 046c 42F00102 		orreq	r2, r2, #1
 3095 0470 3030     		adds	r0, r0, #48
 3096 0472 4345     		cmp	r3, r8
 3097 0474 08BF     		it	eq
 3098 0476 42F00102 		orreq	r2, r2, #1
 3099 047a 08F13008 		add	r8, r8, #48
 3100 047e 8342     		cmp	r3, r0
 3101 0480 08BF     		it	eq
ARM GAS  C:\Users\Brandon\AppData\Local\Temp\ccI59QTV.s 			page 55


 3102 0482 42F00102 		orreq	r2, r2, #1
 3103 0486 3030     		adds	r0, r0, #48
 3104 0488 4345     		cmp	r3, r8
 3105 048a 08BF     		it	eq
 3106 048c 42F00102 		orreq	r2, r2, #1
 3107 0490 08F13008 		add	r8, r8, #48
 3108 0494 8342     		cmp	r3, r0
 3109 0496 08BF     		it	eq
 3110 0498 42F00102 		orreq	r2, r2, #1
 3111 049c 3030     		adds	r0, r0, #48
 3112 049e 4345     		cmp	r3, r8
 3113 04a0 08BF     		it	eq
 3114 04a2 42F00102 		orreq	r2, r2, #1
 3115 04a6 8342     		cmp	r3, r0
 3116 04a8 08BF     		it	eq
 3117 04aa 42F00102 		orreq	r2, r2, #1
 3118 04ae 002A     		cmp	r2, #0
 3119 04b0 7FF415AE 		bne	.L376
 3120 04b4 002E     		cmp	r6, #0
 3121 04b6 7FF412AE 		bne	.L376
 3122 04ba 0422     		movs	r2, #4
 3123 04bc 1E68     		ldr	r6, [r3]
 3124 04be 02FA0CF2 		lsl	r2, r2, ip
 3125 04c2 3A42     		tst	r2, r7
 3126 04c4 40F09F80 		bne	.L331
 3127 04c8 1022     		movs	r2, #16
 3128 04ca 02FA0CFC 		lsl	ip, r2, ip
 3129 04ce 17EA0C0F 		tst	r7, ip
 3130 04d2 3FF4E9AE 		beq	.L338
 3131 04d6 79E6     		b	.L377
 3132              	.L487:
 3133 04d8 254A     		ldr	r2, .L496+24
 3134 04da 264E     		ldr	r6, .L496+28
 3135 04dc 264D     		ldr	r5, .L496+32
 3136 04de B342     		cmp	r3, r6
 3137 04e0 18BF     		it	ne
 3138 04e2 9342     		cmpne	r3, r2
 3139 04e4 06F12806 		add	r6, r6, #40
 3140 04e8 0CBF     		ite	eq
 3141 04ea 0122     		moveq	r2, #1
 3142 04ec 0022     		movne	r2, #0
 3143 04ee AB42     		cmp	r3, r5
 3144 04f0 08BF     		it	eq
 3145 04f2 42F00102 		orreq	r2, r2, #1
 3146 04f6 2835     		adds	r5, r5, #40
 3147 04f8 B342     		cmp	r3, r6
 3148 04fa 08BF     		it	eq
 3149 04fc 42F00102 		orreq	r2, r2, #1
 3150 0500 2836     		adds	r6, r6, #40
 3151 0502 AB42     		cmp	r3, r5
 3152 0504 08BF     		it	eq
 3153 0506 42F00102 		orreq	r2, r2, #1
 3154 050a 2835     		adds	r5, r5, #40
 3155 050c B342     		cmp	r3, r6
 3156 050e 08BF     		it	eq
 3157 0510 42F00102 		orreq	r2, r2, #1
 3158 0514 AB42     		cmp	r3, r5
ARM GAS  C:\Users\Brandon\AppData\Local\Temp\ccI59QTV.s 			page 56


 3159 0516 08BF     		it	eq
 3160 0518 42F00102 		orreq	r2, r2, #1
 3161 051c 12B9     		cbnz	r2, .L324
 3162 051e 174A     		ldr	r2, .L496+36
 3163 0520 9342     		cmp	r3, r2
 3164 0522 16D1     		bne	.L321
 3165              	.L324:
 3166 0524 DAF85C50 		ldr	r5, [r10, #92]
 3167 0528 0426     		movs	r6, #4
 3168 052a 1A68     		ldr	r2, [r3]
 3169 052c 05F01F05 		and	r5, r5, #31
 3170 0530 AE40     		lsls	r6, r6, r5
 3171 0532 0E42     		tst	r6, r1
 3172 0534 73D0     		beq	.L366
 3173 0536 5707     		lsls	r7, r2, #29
 3174 0538 71D5     		bpl	.L366
 3175 053a 1004     		lsls	r0, r2, #16
 3176 053c 6660     		str	r6, [r4, #4]
 3177 053e 40F19F80 		bpl	.L367
 3178 0542 D103     		lsls	r1, r2, #15
 3179 0544 00F1A280 		bmi	.L369
 3180 0548 DAF84830 		ldr	r3, [r10, #72]
 3181 054c 002B     		cmp	r3, #0
 3182 054e 7FF44AAF 		bne	.L482
 3183              	.L321:
 3184 0552 02B0     		add	sp, sp, #8
 3185              		@ sp needed
 3186 0554 BDE8F087 		pop	{r4, r5, r6, r7, r8, r9, r10, pc}
 3187              	.L497:
 3188              		.align	2
 3189              	.L496:
 3190 0558 10000240 		.word	1073872912
 3191 055c 28000240 		.word	1073872936
 3192 0560 40000240 		.word	1073872960
 3193 0564 B8040240 		.word	1073874104
 3194 0568 B5814E1B 		.word	458129845
 3195 056c 58000240 		.word	1073872984
 3196 0570 08540258 		.word	1476547592
 3197 0574 1C540258 		.word	1476547612
 3198 0578 30540258 		.word	1476547632
 3199 057c 94540258 		.word	1476547732
 3200 0580 70000240 		.word	1073873008
 3201              	.L488:
 3202 0584 1B68     		ldr	r3, [r3]
 3203 0586 1B03     		lsls	r3, r3, #12
 3204 0588 7FF578AE 		bpl	.L345
 3205 058c DAF84830 		ldr	r3, [r10, #72]
 3206 0590 002B     		cmp	r3, #0
 3207 0592 7FF485AE 		bne	.L480
 3208 0596 87E6     		b	.L338
 3209              	.L489:
 3210 0598 23F01603 		bic	r3, r3, #22
 3211 059c DAF84050 		ldr	r5, [r10, #64]
 3212 05a0 1360     		str	r3, [r2]
 3213 05a2 5369     		ldr	r3, [r2, #20]
 3214 05a4 23F08003 		bic	r3, r3, #128
 3215 05a8 5361     		str	r3, [r2, #20]
ARM GAS  C:\Users\Brandon\AppData\Local\Temp\ccI59QTV.s 			page 57


 3216 05aa 3DB3     		cbz	r5, .L492
 3217              	.L353:
 3218 05ac 1368     		ldr	r3, [r2]
 3219 05ae 23F00803 		bic	r3, r3, #8
 3220 05b2 1360     		str	r3, [r2]
 3221              	.L354:
 3222 05b4 3F23     		movs	r3, #63
 3223 05b6 0025     		movs	r5, #0
 3224 05b8 0122     		movs	r2, #1
 3225 05ba 03FA01F1 		lsl	r1, r3, r1
 3226 05be DAF85030 		ldr	r3, [r10, #80]
 3227 05c2 A160     		str	r1, [r4, #8]
 3228 05c4 8AF83450 		strb	r5, [r10, #52]
 3229 05c8 8AF83520 		strb	r2, [r10, #53]
 3230 05cc 002B     		cmp	r3, #0
 3231 05ce 7FF40AAF 		bne	.L482
 3232 05d2 BEE7     		b	.L321
 3233              	.L356:
 3234 05d4 13F48073 		ands	r3, r3, #256
 3235 05d8 7FF4D2AE 		bne	.L358
 3236 05dc 1168     		ldr	r1, [r2]
 3237 05de 0124     		movs	r4, #1
 3238 05e0 21F01001 		bic	r1, r1, #16
 3239 05e4 1160     		str	r1, [r2]
 3240 05e6 8AF83430 		strb	r3, [r10, #52]
 3241 05ea 8AF83540 		strb	r4, [r10, #53]
 3242 05ee C7E6     		b	.L358
 3243              	.L490:
 3244 05f0 DAF84430 		ldr	r3, [r10, #68]
 3245 05f4 002B     		cmp	r3, #0
 3246 05f6 7FF4C6AE 		bne	.L481
 3247 05fa C6E6     		b	.L347
 3248              	.L492:
 3249 05fc DAF84830 		ldr	r3, [r10, #72]
 3250 0600 002B     		cmp	r3, #0
 3251 0602 D3D1     		bne	.L353
 3252 0604 D6E7     		b	.L354
 3253              	.L331:
 3254 0606 1022     		movs	r2, #16
 3255 0608 1E68     		ldr	r6, [r3]
 3256 060a 02FA0CFC 		lsl	ip, r2, ip
 3257 060e 17EA0C0F 		tst	r7, ip
 3258 0612 3FF449AE 		beq	.L338
 3259              	.L337:
 3260 0616 1A68     		ldr	r2, [r3]
 3261 0618 C2F38002 		ubfx	r2, r2, #2, #1
 3262 061c 20E6     		b	.L342
 3263              	.L366:
 3264 061e 0226     		movs	r6, #2
 3265 0620 AE40     		lsls	r6, r6, r5
 3266 0622 0E42     		tst	r6, r1
 3267 0624 10D0     		beq	.L370
 3268 0626 9707     		lsls	r7, r2, #30
 3269 0628 0ED5     		bpl	.L370
 3270 062a 6660     		str	r6, [r4, #4]
 3271 062c 1404     		lsls	r4, r2, #16
 3272 062e 33D5     		bpl	.L371
ARM GAS  C:\Users\Brandon\AppData\Local\Temp\ccI59QTV.s 			page 58


 3273 0630 D003     		lsls	r0, r2, #15
 3274 0632 3DD4     		bmi	.L373
 3275 0634 DAF84430 		ldr	r3, [r10, #68]
 3276 0638 002B     		cmp	r3, #0
 3277 063a 7FF4D4AE 		bne	.L482
 3278 063e 88E7     		b	.L321
 3279              	.L348:
 3280 0640 1368     		ldr	r3, [r2]
 3281 0642 C3F34003 		ubfx	r3, r3, #1, #1
 3282 0646 8BE6     		b	.L350
 3283              	.L370:
 3284 0648 0826     		movs	r6, #8
 3285 064a AE40     		lsls	r6, r6, r5
 3286 064c 0E42     		tst	r6, r1
 3287 064e 80D0     		beq	.L321
 3288 0650 1107     		lsls	r1, r2, #28
 3289 0652 7FF57EAF 		bpl	.L321
 3290 0656 1968     		ldr	r1, [r3]
 3291 0658 0122     		movs	r2, #1
 3292 065a 0026     		movs	r6, #0
 3293 065c 21F00E01 		bic	r1, r1, #14
 3294 0660 02FA05F5 		lsl	r5, r2, r5
 3295 0664 1960     		str	r1, [r3]
 3296 0666 DAF84C30 		ldr	r3, [r10, #76]
 3297 066a 6560     		str	r5, [r4, #4]
 3298 066c CAF85420 		str	r2, [r10, #84]
 3299 0670 8AF83460 		strb	r6, [r10, #52]
 3300 0674 8AF83520 		strb	r2, [r10, #53]
 3301 0678 002B     		cmp	r3, #0
 3302 067a 7FF4B4AE 		bne	.L482
 3303 067e 68E7     		b	.L321
 3304              	.L367:
 3305 0680 9206     		lsls	r2, r2, #26
 3306 0682 03D4     		bmi	.L369
 3307 0684 1A68     		ldr	r2, [r3]
 3308 0686 22F00402 		bic	r2, r2, #4
 3309 068a 1A60     		str	r2, [r3]
 3310              	.L369:
 3311 068c DAF84030 		ldr	r3, [r10, #64]
 3312 0690 002B     		cmp	r3, #0
 3313 0692 7FF4A8AE 		bne	.L482
 3314 0696 5CE7     		b	.L321
 3315              	.L371:
 3316 0698 12F02002 		ands	r2, r2, #32
 3317 069c 08D1     		bne	.L373
 3318 069e 1968     		ldr	r1, [r3]
 3319 06a0 0124     		movs	r4, #1
 3320 06a2 21F00A01 		bic	r1, r1, #10
 3321 06a6 1960     		str	r1, [r3]
 3322 06a8 8AF83420 		strb	r2, [r10, #52]
 3323 06ac 8AF83540 		strb	r4, [r10, #53]
 3324              	.L373:
 3325 06b0 DAF83C30 		ldr	r3, [r10, #60]
 3326 06b4 002B     		cmp	r3, #0
 3327 06b6 7FF496AE 		bne	.L482
 3328 06ba 4AE7     		b	.L321
 3330              		.section	.text.HAL_DMA_RegisterCallback,"ax",%progbits
ARM GAS  C:\Users\Brandon\AppData\Local\Temp\ccI59QTV.s 			page 59


 3331              		.align	1
 3332              		.p2align 2,,3
 3333              		.global	HAL_DMA_RegisterCallback
 3334              		.syntax unified
 3335              		.thumb
 3336              		.thumb_func
 3337              		.fpu fpv5-d16
 3339              	HAL_DMA_RegisterCallback:
 3340              		@ args = 0, pretend = 0, frame = 0
 3341              		@ frame_needed = 0, uses_anonymous_args = 0
 3342              		@ link register save eliminated.
 3343 0000 0346     		mov	r3, r0
 3344 0002 98B1     		cbz	r0, .L508
 3345 0004 90F83400 		ldrb	r0, [r0, #52]	@ zero_extendqisi2
 3346 0008 0128     		cmp	r0, #1
 3347 000a 11D0     		beq	.L509
 3348 000c 93F83500 		ldrb	r0, [r3, #53]	@ zero_extendqisi2
 3349 0010 0128     		cmp	r0, #1
 3350 0012 04D0     		beq	.L512
 3351 0014 0120     		movs	r0, #1
 3352              	.L500:
 3353 0016 0022     		movs	r2, #0
 3354 0018 83F83420 		strb	r2, [r3, #52]
 3355 001c 7047     		bx	lr
 3356              	.L512:
 3357 001e 0529     		cmp	r1, #5
 3358 0020 1AD8     		bhi	.L511
 3359 0022 DFE801F0 		tbb	[pc, r1]
 3360              	.L502:
 3361 0026 16       		.byte	(.L507-.L502)/2
 3362 0027 13       		.byte	(.L506-.L502)/2
 3363 0028 10       		.byte	(.L505-.L502)/2
 3364 0029 0D       		.byte	(.L504-.L502)/2
 3365 002a 0A       		.byte	(.L503-.L502)/2
 3366 002b 07       		.byte	(.L501-.L502)/2
 3367              		.p2align 1
 3368              	.L508:
 3369 002c 0120     		movs	r0, #1
 3370 002e 7047     		bx	lr
 3371              	.L509:
 3372 0030 0220     		movs	r0, #2
 3373 0032 7047     		bx	lr
 3374              	.L501:
 3375 0034 0020     		movs	r0, #0
 3376 0036 1A65     		str	r2, [r3, #80]
 3377 0038 EDE7     		b	.L500
 3378              	.L503:
 3379 003a 0020     		movs	r0, #0
 3380 003c DA64     		str	r2, [r3, #76]
 3381 003e EAE7     		b	.L500
 3382              	.L504:
 3383 0040 0020     		movs	r0, #0
 3384 0042 9A64     		str	r2, [r3, #72]
 3385 0044 E7E7     		b	.L500
 3386              	.L505:
 3387 0046 0020     		movs	r0, #0
 3388 0048 5A64     		str	r2, [r3, #68]
ARM GAS  C:\Users\Brandon\AppData\Local\Temp\ccI59QTV.s 			page 60


 3389 004a E4E7     		b	.L500
 3390              	.L506:
 3391 004c 0020     		movs	r0, #0
 3392 004e 1A64     		str	r2, [r3, #64]
 3393 0050 E1E7     		b	.L500
 3394              	.L507:
 3395 0052 0846     		mov	r0, r1
 3396 0054 DA63     		str	r2, [r3, #60]
 3397 0056 DEE7     		b	.L500
 3398              	.L511:
 3399 0058 0020     		movs	r0, #0
 3400 005a DCE7     		b	.L500
 3402              		.section	.text.HAL_DMA_UnRegisterCallback,"ax",%progbits
 3403              		.align	1
 3404              		.p2align 2,,3
 3405              		.global	HAL_DMA_UnRegisterCallback
 3406              		.syntax unified
 3407              		.thumb
 3408              		.thumb_func
 3409              		.fpu fpv5-d16
 3411              	HAL_DMA_UnRegisterCallback:
 3412              		@ args = 0, pretend = 0, frame = 0
 3413              		@ frame_needed = 0, uses_anonymous_args = 0
 3414              		@ link register save eliminated.
 3415 0000 E0B1     		cbz	r0, .L524
 3416 0002 90F83430 		ldrb	r3, [r0, #52]	@ zero_extendqisi2
 3417 0006 012B     		cmp	r3, #1
 3418 0008 1BD0     		beq	.L525
 3419 000a 10B4     		push	{r4}
 3420 000c 0124     		movs	r4, #1
 3421 000e 90F83520 		ldrb	r2, [r0, #53]	@ zero_extendqisi2
 3422 0012 A242     		cmp	r2, r4
 3423 0014 D3B2     		uxtb	r3, r2
 3424 0016 80F83440 		strb	r4, [r0, #52]
 3425 001a 07D0     		beq	.L531
 3426 001c 2346     		mov	r3, r4
 3427              	.L515:
 3428 001e 0022     		movs	r2, #0
 3429 0020 80F83420 		strb	r2, [r0, #52]
 3430 0024 1846     		mov	r0, r3
 3431 0026 5DF8044B 		ldr	r4, [sp], #4
 3432 002a 7047     		bx	lr
 3433              	.L531:
 3434 002c 0629     		cmp	r1, #6
 3435 002e F6D8     		bhi	.L515
 3436 0030 DFE801F0 		tbb	[pc, r1]
 3437              	.L517:
 3438 0034 22       		.byte	(.L523-.L517)/2
 3439 0035 1F       		.byte	(.L522-.L517)/2
 3440 0036 1C       		.byte	(.L521-.L517)/2
 3441 0037 19       		.byte	(.L520-.L517)/2
 3442 0038 16       		.byte	(.L519-.L517)/2
 3443 0039 13       		.byte	(.L518-.L517)/2
 3444 003a 0A       		.byte	(.L516-.L517)/2
 3445 003b 00       		.p2align 1
 3446              	.L524:
 3447 003c 0123     		movs	r3, #1
ARM GAS  C:\Users\Brandon\AppData\Local\Temp\ccI59QTV.s 			page 61


 3448 003e 1846     		mov	r0, r3
 3449 0040 7047     		bx	lr
 3450              	.L525:
 3451 0042 0223     		movs	r3, #2
 3452 0044 1846     		mov	r0, r3
 3453 0046 7047     		bx	lr
 3454              	.L516:
 3455 0048 0022     		movs	r2, #0
 3456 004a 1346     		mov	r3, r2
 3457 004c C263     		str	r2, [r0, #60]
 3458 004e 0265     		str	r2, [r0, #80]
 3459 0050 C0E91022 		strd	r2, r2, [r0, #64]
 3460 0054 C0E91222 		strd	r2, r2, [r0, #72]
 3461 0058 E1E7     		b	.L515
 3462              	.L518:
 3463 005a 0023     		movs	r3, #0
 3464 005c 0365     		str	r3, [r0, #80]
 3465 005e DEE7     		b	.L515
 3466              	.L519:
 3467 0060 0023     		movs	r3, #0
 3468 0062 C364     		str	r3, [r0, #76]
 3469 0064 DBE7     		b	.L515
 3470              	.L520:
 3471 0066 0023     		movs	r3, #0
 3472 0068 8364     		str	r3, [r0, #72]
 3473 006a D8E7     		b	.L515
 3474              	.L521:
 3475 006c 0023     		movs	r3, #0
 3476 006e 4364     		str	r3, [r0, #68]
 3477 0070 D5E7     		b	.L515
 3478              	.L522:
 3479 0072 0023     		movs	r3, #0
 3480 0074 0364     		str	r3, [r0, #64]
 3481 0076 D2E7     		b	.L515
 3482              	.L523:
 3483 0078 0022     		movs	r2, #0
 3484 007a 0B46     		mov	r3, r1
 3485 007c C263     		str	r2, [r0, #60]
 3486 007e CEE7     		b	.L515
 3488              		.section	.text.HAL_DMA_GetState,"ax",%progbits
 3489              		.align	1
 3490              		.p2align 2,,3
 3491              		.global	HAL_DMA_GetState
 3492              		.syntax unified
 3493              		.thumb
 3494              		.thumb_func
 3495              		.fpu fpv5-d16
 3497              	HAL_DMA_GetState:
 3498              		@ args = 0, pretend = 0, frame = 0
 3499              		@ frame_needed = 0, uses_anonymous_args = 0
 3500              		@ link register save eliminated.
 3501 0000 90F83500 		ldrb	r0, [r0, #53]	@ zero_extendqisi2
 3502 0004 7047     		bx	lr
 3504 0006 00BF     		.section	.text.HAL_DMA_GetError,"ax",%progbits
 3505              		.align	1
 3506              		.p2align 2,,3
 3507              		.global	HAL_DMA_GetError
ARM GAS  C:\Users\Brandon\AppData\Local\Temp\ccI59QTV.s 			page 62


 3508              		.syntax unified
 3509              		.thumb
 3510              		.thumb_func
 3511              		.fpu fpv5-d16
 3513              	HAL_DMA_GetError:
 3514              		@ args = 0, pretend = 0, frame = 0
 3515              		@ frame_needed = 0, uses_anonymous_args = 0
 3516              		@ link register save eliminated.
 3517 0000 406D     		ldr	r0, [r0, #84]
 3518 0002 7047     		bx	lr
 3520              		.section	.rodata.flagBitshiftOffset.10145,"a"
 3521              		.align	2
 3522              		.set	.LANCHOR0,. + 0
 3525              	flagBitshiftOffset.10145:
 3526 0000 00061016 		.ascii	"\000\006\020\026\000\006\020\026"
 3526      00061016 
 3527              		.ident	"GCC: (GNU Arm Embedded Toolchain 9-2020-q2-update) 9.3.1 20200408 (release)"
ARM GAS  C:\Users\Brandon\AppData\Local\Temp\ccI59QTV.s 			page 63

