ARM GAS  C:\Users\Brandon\AppData\Local\Temp\ccWQxMnh.s 			page 1


   1              		.cpu cortex-m7
   2              		.eabi_attribute 28, 1
   3              		.eabi_attribute 20, 1
   4              		.eabi_attribute 21, 1
   5              		.eabi_attribute 23, 3
   6              		.eabi_attribute 24, 1
   7              		.eabi_attribute 25, 1
   8              		.eabi_attribute 26, 1
   9              		.eabi_attribute 30, 2
  10              		.eabi_attribute 34, 1
  11              		.eabi_attribute 18, 4
  12              		.file	"stm32h7xx_hal_pwr.c"
  13              		.text
  14              		.section	.text.HAL_PWR_DeInit,"ax",%progbits
  15              		.align	1
  16              		.p2align 2,,3
  17              		.global	HAL_PWR_DeInit
  18              		.arch armv7e-m
  19              		.syntax unified
  20              		.thumb
  21              		.thumb_func
  22              		.fpu fpv5-d16
  24              	HAL_PWR_DeInit:
  25              		@ args = 0, pretend = 0, frame = 0
  26              		@ frame_needed = 0, uses_anonymous_args = 0
  27              		@ link register save eliminated.
  28 0000 7047     		bx	lr
  30 0002 00BF     		.section	.text.HAL_PWR_EnableBkUpAccess,"ax",%progbits
  31              		.align	1
  32              		.p2align 2,,3
  33              		.global	HAL_PWR_EnableBkUpAccess
  34              		.syntax unified
  35              		.thumb
  36              		.thumb_func
  37              		.fpu fpv5-d16
  39              	HAL_PWR_EnableBkUpAccess:
  40              		@ args = 0, pretend = 0, frame = 0
  41              		@ frame_needed = 0, uses_anonymous_args = 0
  42              		@ link register save eliminated.
  43 0000 024A     		ldr	r2, .L4
  44 0002 1368     		ldr	r3, [r2]
  45 0004 43F48073 		orr	r3, r3, #256
  46 0008 1360     		str	r3, [r2]
  47 000a 7047     		bx	lr
  48              	.L5:
  49              		.align	2
  50              	.L4:
  51 000c 00480258 		.word	1476544512
  53              		.section	.text.HAL_PWR_DisableBkUpAccess,"ax",%progbits
  54              		.align	1
  55              		.p2align 2,,3
  56              		.global	HAL_PWR_DisableBkUpAccess
  57              		.syntax unified
  58              		.thumb
  59              		.thumb_func
  60              		.fpu fpv5-d16
  62              	HAL_PWR_DisableBkUpAccess:
ARM GAS  C:\Users\Brandon\AppData\Local\Temp\ccWQxMnh.s 			page 2


  63              		@ args = 0, pretend = 0, frame = 0
  64              		@ frame_needed = 0, uses_anonymous_args = 0
  65              		@ link register save eliminated.
  66 0000 024A     		ldr	r2, .L7
  67 0002 1368     		ldr	r3, [r2]
  68 0004 23F48073 		bic	r3, r3, #256
  69 0008 1360     		str	r3, [r2]
  70 000a 7047     		bx	lr
  71              	.L8:
  72              		.align	2
  73              	.L7:
  74 000c 00480258 		.word	1476544512
  76              		.section	.text.HAL_PWR_ConfigPVD,"ax",%progbits
  77              		.align	1
  78              		.p2align 2,,3
  79              		.global	HAL_PWR_ConfigPVD
  80              		.syntax unified
  81              		.thumb
  82              		.thumb_func
  83              		.fpu fpv5-d16
  85              	HAL_PWR_ConfigPVD:
  86              		@ args = 0, pretend = 0, frame = 0
  87              		@ frame_needed = 0, uses_anonymous_args = 0
  88              		@ link register save eliminated.
  89 0000 0028     		cmp	r0, #0
  90 0002 43D0     		beq	.L29
  91 0004 2249     		ldr	r1, .L32
  92 0006 4FF0B043 		mov	r3, #1476395008
  93 000a 0A68     		ldr	r2, [r1]
  94 000c 10B4     		push	{r4}
  95 000e 22F0E002 		bic	r2, r2, #224
  96 0012 0468     		ldr	r4, [r0]
  97 0014 2243     		orrs	r2, r2, r4
  98 0016 0A60     		str	r2, [r1]
  99 0018 D3F88420 		ldr	r2, [r3, #132]
 100 001c 22F48032 		bic	r2, r2, #65536
 101 0020 C3F88420 		str	r2, [r3, #132]
 102 0024 D3F88020 		ldr	r2, [r3, #128]
 103 0028 22F48032 		bic	r2, r2, #65536
 104 002c C3F88020 		str	r2, [r3, #128]
 105 0030 1A68     		ldr	r2, [r3]
 106 0032 22F48032 		bic	r2, r2, #65536
 107 0036 1A60     		str	r2, [r3]
 108 0038 5A68     		ldr	r2, [r3, #4]
 109 003a 22F48032 		bic	r2, r2, #65536
 110 003e 5A60     		str	r2, [r3, #4]
 111 0040 4268     		ldr	r2, [r0, #4]
 112 0042 D403     		lsls	r4, r2, #15
 113 0044 05D5     		bpl	.L12
 114 0046 D3F88010 		ldr	r1, [r3, #128]
 115 004a 41F48031 		orr	r1, r1, #65536
 116 004e C3F88010 		str	r1, [r3, #128]
 117              	.L12:
 118 0052 9003     		lsls	r0, r2, #14
 119 0054 07D5     		bpl	.L13
 120 0056 4FF0B041 		mov	r1, #1476395008
 121 005a D1F88430 		ldr	r3, [r1, #132]
ARM GAS  C:\Users\Brandon\AppData\Local\Temp\ccWQxMnh.s 			page 3


 122 005e 43F48033 		orr	r3, r3, #65536
 123 0062 C1F88430 		str	r3, [r1, #132]
 124              	.L13:
 125 0066 D107     		lsls	r1, r2, #31
 126 0068 05D5     		bpl	.L14
 127 006a 4FF0B041 		mov	r1, #1476395008
 128 006e 0B68     		ldr	r3, [r1]
 129 0070 43F48033 		orr	r3, r3, #65536
 130 0074 0B60     		str	r3, [r1]
 131              	.L14:
 132 0076 9307     		lsls	r3, r2, #30
 133 0078 05D5     		bpl	.L9
 134 007a 4FF0B042 		mov	r2, #1476395008
 135 007e 5368     		ldr	r3, [r2, #4]
 136 0080 43F48033 		orr	r3, r3, #65536
 137 0084 5360     		str	r3, [r2, #4]
 138              	.L9:
 139 0086 5DF8044B 		ldr	r4, [sp], #4
 140 008a 7047     		bx	lr
 141              	.L29:
 142 008c 7047     		bx	lr
 143              	.L33:
 144 008e 00BF     		.align	2
 145              	.L32:
 146 0090 00480258 		.word	1476544512
 148              		.section	.text.HAL_PWR_EnablePVD,"ax",%progbits
 149              		.align	1
 150              		.p2align 2,,3
 151              		.global	HAL_PWR_EnablePVD
 152              		.syntax unified
 153              		.thumb
 154              		.thumb_func
 155              		.fpu fpv5-d16
 157              	HAL_PWR_EnablePVD:
 158              		@ args = 0, pretend = 0, frame = 0
 159              		@ frame_needed = 0, uses_anonymous_args = 0
 160              		@ link register save eliminated.
 161 0000 024A     		ldr	r2, .L35
 162 0002 1368     		ldr	r3, [r2]
 163 0004 43F01003 		orr	r3, r3, #16
 164 0008 1360     		str	r3, [r2]
 165 000a 7047     		bx	lr
 166              	.L36:
 167              		.align	2
 168              	.L35:
 169 000c 00480258 		.word	1476544512
 171              		.section	.text.HAL_PWR_DisablePVD,"ax",%progbits
 172              		.align	1
 173              		.p2align 2,,3
 174              		.global	HAL_PWR_DisablePVD
 175              		.syntax unified
 176              		.thumb
 177              		.thumb_func
 178              		.fpu fpv5-d16
 180              	HAL_PWR_DisablePVD:
 181              		@ args = 0, pretend = 0, frame = 0
 182              		@ frame_needed = 0, uses_anonymous_args = 0
ARM GAS  C:\Users\Brandon\AppData\Local\Temp\ccWQxMnh.s 			page 4


 183              		@ link register save eliminated.
 184 0000 024A     		ldr	r2, .L38
 185 0002 1368     		ldr	r3, [r2]
 186 0004 23F01003 		bic	r3, r3, #16
 187 0008 1360     		str	r3, [r2]
 188 000a 7047     		bx	lr
 189              	.L39:
 190              		.align	2
 191              	.L38:
 192 000c 00480258 		.word	1476544512
 194              		.section	.text.HAL_PWR_EnableWakeUpPin,"ax",%progbits
 195              		.align	1
 196              		.p2align 2,,3
 197              		.global	HAL_PWR_EnableWakeUpPin
 198              		.syntax unified
 199              		.thumb
 200              		.thumb_func
 201              		.fpu fpv5-d16
 203              	HAL_PWR_EnableWakeUpPin:
 204              		@ args = 0, pretend = 0, frame = 0
 205              		@ frame_needed = 0, uses_anonymous_args = 0
 206              		@ link register save eliminated.
 207 0000 034A     		ldr	r2, .L41
 208 0002 044B     		ldr	r3, .L41+4
 209 0004 916A     		ldr	r1, [r2, #40]
 210 0006 0B40     		ands	r3, r3, r1
 211 0008 1843     		orrs	r0, r0, r3
 212 000a 9062     		str	r0, [r2, #40]
 213 000c 7047     		bx	lr
 214              	.L42:
 215 000e 00BF     		.align	2
 216              	.L41:
 217 0010 00480258 		.word	1476544512
 218 0014 C0C000F0 		.word	-268386112
 220              		.section	.text.HAL_PWR_DisableWakeUpPin,"ax",%progbits
 221              		.align	1
 222              		.p2align 2,,3
 223              		.global	HAL_PWR_DisableWakeUpPin
 224              		.syntax unified
 225              		.thumb
 226              		.thumb_func
 227              		.fpu fpv5-d16
 229              	HAL_PWR_DisableWakeUpPin:
 230              		@ args = 0, pretend = 0, frame = 0
 231              		@ frame_needed = 0, uses_anonymous_args = 0
 232              		@ link register save eliminated.
 233 0000 034A     		ldr	r2, .L44
 234 0002 00F03F00 		and	r0, r0, #63
 235 0006 936A     		ldr	r3, [r2, #40]
 236 0008 23EA0000 		bic	r0, r3, r0
 237 000c 9062     		str	r0, [r2, #40]
 238 000e 7047     		bx	lr
 239              	.L45:
 240              		.align	2
 241              	.L44:
 242 0010 00480258 		.word	1476544512
 244              		.section	.text.HAL_PWR_EnterSLEEPMode,"ax",%progbits
ARM GAS  C:\Users\Brandon\AppData\Local\Temp\ccWQxMnh.s 			page 5


 245              		.align	1
 246              		.p2align 2,,3
 247              		.global	HAL_PWR_EnterSLEEPMode
 248              		.syntax unified
 249              		.thumb
 250              		.thumb_func
 251              		.fpu fpv5-d16
 253              	HAL_PWR_EnterSLEEPMode:
 254              		@ args = 0, pretend = 0, frame = 0
 255              		@ frame_needed = 0, uses_anonymous_args = 0
 256              		@ link register save eliminated.
 257 0000 054A     		ldr	r2, .L50
 258 0002 0129     		cmp	r1, #1
 259 0004 1369     		ldr	r3, [r2, #16]
 260 0006 23F00403 		bic	r3, r3, #4
 261 000a 1361     		str	r3, [r2, #16]
 262 000c 01D0     		beq	.L49
 263              		.syntax unified
 264              	@ 583 "Drivers/STM32H7xx_HAL_Driver/Src/stm32h7xx_hal_pwr.c" 1
 265 000e 20BF     		wfe
 266              	@ 0 "" 2
 267              		.thumb
 268              		.syntax unified
 269 0010 7047     		bx	lr
 270              	.L49:
 271              		.syntax unified
 272              	@ 578 "Drivers/STM32H7xx_HAL_Driver/Src/stm32h7xx_hal_pwr.c" 1
 273 0012 30BF     		wfi
 274              	@ 0 "" 2
 275              		.thumb
 276              		.syntax unified
 277 0014 7047     		bx	lr
 278              	.L51:
 279 0016 00BF     		.align	2
 280              	.L50:
 281 0018 00ED00E0 		.word	-536810240
 283              		.section	.text.HAL_PWR_EnterSTOPMode,"ax",%progbits
 284              		.align	1
 285              		.p2align 2,,3
 286              		.global	HAL_PWR_EnterSTOPMode
 287              		.syntax unified
 288              		.thumb
 289              		.thumb_func
 290              		.fpu fpv5-d16
 292              	HAL_PWR_EnterSTOPMode:
 293              		@ args = 0, pretend = 0, frame = 0
 294              		@ frame_needed = 0, uses_anonymous_args = 0
 295              		@ link register save eliminated.
 296 0000 124B     		ldr	r3, .L57
 297 0002 1A68     		ldr	r2, [r3]
 298 0004 22F00102 		bic	r2, r2, #1
 299 0008 0243     		orrs	r2, r2, r0
 300 000a 10B4     		push	{r4}
 301 000c 1A60     		str	r2, [r3]
 302 000e 1A69     		ldr	r2, [r3, #16]
 303 0010 0F4C     		ldr	r4, .L57+4
 304 0012 22F00502 		bic	r2, r2, #5
ARM GAS  C:\Users\Brandon\AppData\Local\Temp\ccWQxMnh.s 			page 6


 305 0016 1A61     		str	r2, [r3, #16]
 306 0018 1A69     		ldr	r2, [r3, #16]
 307 001a 22F00202 		bic	r2, r2, #2
 308 001e 1A61     		str	r2, [r3, #16]
 309 0020 2369     		ldr	r3, [r4, #16]
 310 0022 43F00403 		orr	r3, r3, #4
 311 0026 2361     		str	r3, [r4, #16]
 312              		.syntax unified
 313              	@ 879 "Drivers/CMSIS/Include/cmsis_gcc.h" 1
 314 0028 BFF34F8F 		dsb 0xF
 315              	@ 0 "" 2
 316              	@ 868 "Drivers/CMSIS/Include/cmsis_gcc.h" 1
 317 002c BFF36F8F 		isb 0xF
 318              	@ 0 "" 2
 319              		.thumb
 320              		.syntax unified
 321 0030 0129     		cmp	r1, #1
 322 0032 08D0     		beq	.L56
 323              		.syntax unified
 324              	@ 664 "Drivers/STM32H7xx_HAL_Driver/Src/stm32h7xx_hal_pwr.c" 1
 325 0034 20BF     		wfe
 326              	@ 0 "" 2
 327              		.thumb
 328              		.syntax unified
 329              	.L54:
 330 0036 064A     		ldr	r2, .L57+4
 331 0038 5DF8044B 		ldr	r4, [sp], #4
 332 003c 1369     		ldr	r3, [r2, #16]
 333 003e 23F00403 		bic	r3, r3, #4
 334 0042 1361     		str	r3, [r2, #16]
 335 0044 7047     		bx	lr
 336              	.L56:
 337              		.syntax unified
 338              	@ 659 "Drivers/STM32H7xx_HAL_Driver/Src/stm32h7xx_hal_pwr.c" 1
 339 0046 30BF     		wfi
 340              	@ 0 "" 2
 341              		.thumb
 342              		.syntax unified
 343 0048 F5E7     		b	.L54
 344              	.L58:
 345 004a 00BF     		.align	2
 346              	.L57:
 347 004c 00480258 		.word	1476544512
 348 0050 00ED00E0 		.word	-536810240
 350              		.section	.text.HAL_PWR_EnterSTANDBYMode,"ax",%progbits
 351              		.align	1
 352              		.p2align 2,,3
 353              		.global	HAL_PWR_EnterSTANDBYMode
 354              		.syntax unified
 355              		.thumb
 356              		.thumb_func
 357              		.fpu fpv5-d16
 359              	HAL_PWR_EnterSTANDBYMode:
 360              		@ args = 0, pretend = 0, frame = 0
 361              		@ frame_needed = 0, uses_anonymous_args = 0
 362              		@ link register save eliminated.
 363 0000 094B     		ldr	r3, .L60
ARM GAS  C:\Users\Brandon\AppData\Local\Temp\ccWQxMnh.s 			page 7


 364 0002 0A49     		ldr	r1, .L60+4
 365 0004 1A69     		ldr	r2, [r3, #16]
 366 0006 42F00502 		orr	r2, r2, #5
 367 000a 1A61     		str	r2, [r3, #16]
 368 000c 1A69     		ldr	r2, [r3, #16]
 369 000e 42F00202 		orr	r2, r2, #2
 370 0012 1A61     		str	r2, [r3, #16]
 371 0014 0B69     		ldr	r3, [r1, #16]
 372 0016 43F00403 		orr	r3, r3, #4
 373 001a 0B61     		str	r3, [r1, #16]
 374              		.syntax unified
 375              	@ 879 "Drivers/CMSIS/Include/cmsis_gcc.h" 1
 376 001c BFF34F8F 		dsb 0xF
 377              	@ 0 "" 2
 378              	@ 868 "Drivers/CMSIS/Include/cmsis_gcc.h" 1
 379 0020 BFF36F8F 		isb 0xF
 380              	@ 0 "" 2
 381              	@ 727 "Drivers/STM32H7xx_HAL_Driver/Src/stm32h7xx_hal_pwr.c" 1
 382 0024 30BF     		wfi
 383              	@ 0 "" 2
 384              		.thumb
 385              		.syntax unified
 386 0026 7047     		bx	lr
 387              	.L61:
 388              		.align	2
 389              	.L60:
 390 0028 00480258 		.word	1476544512
 391 002c 00ED00E0 		.word	-536810240
 393              		.section	.text.HAL_PWR_EnableSleepOnExit,"ax",%progbits
 394              		.align	1
 395              		.p2align 2,,3
 396              		.global	HAL_PWR_EnableSleepOnExit
 397              		.syntax unified
 398              		.thumb
 399              		.thumb_func
 400              		.fpu fpv5-d16
 402              	HAL_PWR_EnableSleepOnExit:
 403              		@ args = 0, pretend = 0, frame = 0
 404              		@ frame_needed = 0, uses_anonymous_args = 0
 405              		@ link register save eliminated.
 406 0000 024A     		ldr	r2, .L63
 407 0002 1369     		ldr	r3, [r2, #16]
 408 0004 43F00203 		orr	r3, r3, #2
 409 0008 1361     		str	r3, [r2, #16]
 410 000a 7047     		bx	lr
 411              	.L64:
 412              		.align	2
 413              	.L63:
 414 000c 00ED00E0 		.word	-536810240
 416              		.section	.text.HAL_PWR_DisableSleepOnExit,"ax",%progbits
 417              		.align	1
 418              		.p2align 2,,3
 419              		.global	HAL_PWR_DisableSleepOnExit
 420              		.syntax unified
 421              		.thumb
 422              		.thumb_func
 423              		.fpu fpv5-d16
ARM GAS  C:\Users\Brandon\AppData\Local\Temp\ccWQxMnh.s 			page 8


 425              	HAL_PWR_DisableSleepOnExit:
 426              		@ args = 0, pretend = 0, frame = 0
 427              		@ frame_needed = 0, uses_anonymous_args = 0
 428              		@ link register save eliminated.
 429 0000 024A     		ldr	r2, .L66
 430 0002 1369     		ldr	r3, [r2, #16]
 431 0004 23F00203 		bic	r3, r3, #2
 432 0008 1361     		str	r3, [r2, #16]
 433 000a 7047     		bx	lr
 434              	.L67:
 435              		.align	2
 436              	.L66:
 437 000c 00ED00E0 		.word	-536810240
 439              		.section	.text.HAL_PWR_EnableSEVOnPend,"ax",%progbits
 440              		.align	1
 441              		.p2align 2,,3
 442              		.global	HAL_PWR_EnableSEVOnPend
 443              		.syntax unified
 444              		.thumb
 445              		.thumb_func
 446              		.fpu fpv5-d16
 448              	HAL_PWR_EnableSEVOnPend:
 449              		@ args = 0, pretend = 0, frame = 0
 450              		@ frame_needed = 0, uses_anonymous_args = 0
 451              		@ link register save eliminated.
 452 0000 024A     		ldr	r2, .L69
 453 0002 1369     		ldr	r3, [r2, #16]
 454 0004 43F01003 		orr	r3, r3, #16
 455 0008 1361     		str	r3, [r2, #16]
 456 000a 7047     		bx	lr
 457              	.L70:
 458              		.align	2
 459              	.L69:
 460 000c 00ED00E0 		.word	-536810240
 462              		.section	.text.HAL_PWR_DisableSEVOnPend,"ax",%progbits
 463              		.align	1
 464              		.p2align 2,,3
 465              		.global	HAL_PWR_DisableSEVOnPend
 466              		.syntax unified
 467              		.thumb
 468              		.thumb_func
 469              		.fpu fpv5-d16
 471              	HAL_PWR_DisableSEVOnPend:
 472              		@ args = 0, pretend = 0, frame = 0
 473              		@ frame_needed = 0, uses_anonymous_args = 0
 474              		@ link register save eliminated.
 475 0000 024A     		ldr	r2, .L72
 476 0002 1369     		ldr	r3, [r2, #16]
 477 0004 23F01003 		bic	r3, r3, #16
 478 0008 1361     		str	r3, [r2, #16]
 479 000a 7047     		bx	lr
 480              	.L73:
 481              		.align	2
 482              	.L72:
 483 000c 00ED00E0 		.word	-536810240
 485              		.section	.text.HAL_PWR_PVDCallback,"ax",%progbits
 486              		.align	1
ARM GAS  C:\Users\Brandon\AppData\Local\Temp\ccWQxMnh.s 			page 9


 487              		.p2align 2,,3
 488              		.weak	HAL_PWR_PVDCallback
 489              		.syntax unified
 490              		.thumb
 491              		.thumb_func
 492              		.fpu fpv5-d16
 494              	HAL_PWR_PVDCallback:
 495              		@ args = 0, pretend = 0, frame = 0
 496              		@ frame_needed = 0, uses_anonymous_args = 0
 497              		@ link register save eliminated.
 498 0000 7047     		bx	lr
 500 0002 00BF     		.section	.text.HAL_PWR_PVD_IRQHandler,"ax",%progbits
 501              		.align	1
 502              		.p2align 2,,3
 503              		.global	HAL_PWR_PVD_IRQHandler
 504              		.syntax unified
 505              		.thumb
 506              		.thumb_func
 507              		.fpu fpv5-d16
 509              	HAL_PWR_PVD_IRQHandler:
 510              		@ args = 0, pretend = 0, frame = 0
 511              		@ frame_needed = 0, uses_anonymous_args = 0
 512 0000 08B5     		push	{r3, lr}
 513 0002 4FF0B043 		mov	r3, #1476395008
 514 0006 D3F88820 		ldr	r2, [r3, #136]
 515 000a D203     		lsls	r2, r2, #15
 516 000c 00D4     		bmi	.L81
 517 000e 08BD     		pop	{r3, pc}
 518              	.L81:
 519 0010 D3F88820 		ldr	r2, [r3, #136]
 520 0014 42F48032 		orr	r2, r2, #65536
 521 0018 C3F88820 		str	r2, [r3, #136]
 522 001c FFF7FEFF 		bl	HAL_PWR_PVDCallback
 523 0020 08BD     		pop	{r3, pc}
 525 0022 00BF     		.ident	"GCC: (GNU Arm Embedded Toolchain 9-2020-q2-update) 9.3.1 20200408 (release)"
ARM GAS  C:\Users\Brandon\AppData\Local\Temp\ccWQxMnh.s 			page 10

