ARM GAS  C:\Users\Brandon\AppData\Local\Temp\cc6vWOKa.s 			page 1


   1              		.cpu cortex-m7
   2              		.eabi_attribute 28, 1
   3              		.eabi_attribute 20, 1
   4              		.eabi_attribute 21, 1
   5              		.eabi_attribute 23, 3
   6              		.eabi_attribute 24, 1
   7              		.eabi_attribute 25, 1
   8              		.eabi_attribute 26, 1
   9              		.eabi_attribute 30, 2
  10              		.eabi_attribute 34, 1
  11              		.eabi_attribute 18, 4
  12              		.file	"stm32h7xx_hal_flash_ex.c"
  13              		.text
  14              		.section	.text.FLASH_MassErase.part.0,"ax",%progbits
  15              		.align	1
  16              		.p2align 2,,3
  17              		.arch armv7e-m
  18              		.syntax unified
  19              		.thumb
  20              		.thumb_func
  21              		.fpu fpv5-d16
  23              	FLASH_MassErase.part.0:
  24              		@ args = 0, pretend = 0, frame = 0
  25              		@ frame_needed = 0, uses_anonymous_args = 0
  26              		@ link register save eliminated.
  27 0000 064B     		ldr	r3, .L3
  28 0002 D968     		ldr	r1, [r3, #12]
  29 0004 21F03001 		bic	r1, r1, #48
  30 0008 D960     		str	r1, [r3, #12]
  31 000a DA68     		ldr	r2, [r3, #12]
  32 000c 1043     		orrs	r0, r0, r2
  33 000e D860     		str	r0, [r3, #12]
  34 0010 DA68     		ldr	r2, [r3, #12]
  35 0012 42F08802 		orr	r2, r2, #136
  36 0016 DA60     		str	r2, [r3, #12]
  37 0018 7047     		bx	lr
  38              	.L4:
  39 001a 00BF     		.align	2
  40              	.L3:
  41 001c 00200052 		.word	1375739904
  43              		.section	.text.FLASH_Erase_Sector.part.0,"ax",%progbits
  44              		.align	1
  45              		.p2align 2,,3
  46              		.syntax unified
  47              		.thumb
  48              		.thumb_func
  49              		.fpu fpv5-d16
  51              	FLASH_Erase_Sector.part.0:
  52              		@ args = 0, pretend = 0, frame = 0
  53              		@ frame_needed = 0, uses_anonymous_args = 0
  54              		@ link register save eliminated.
  55 0000 074A     		ldr	r2, .L7
  56 0002 10B4     		push	{r4}
  57 0004 D468     		ldr	r4, [r2, #12]
  58 0006 24F4E664 		bic	r4, r4, #1840
  59 000a D460     		str	r4, [r2, #12]
  60 000c D368     		ldr	r3, [r2, #12]
ARM GAS  C:\Users\Brandon\AppData\Local\Temp\cc6vWOKa.s 			page 2


  61 000e 5DF8044B 		ldr	r4, [sp], #4
  62 0012 43EA0020 		orr	r0, r3, r0, lsl #8
  63 0016 0143     		orrs	r1, r1, r0
  64 0018 41F08401 		orr	r1, r1, #132
  65 001c D160     		str	r1, [r2, #12]
  66 001e 7047     		bx	lr
  67              	.L8:
  68              		.align	2
  69              	.L7:
  70 0020 00200052 		.word	1375739904
  72              		.section	.text.HAL_FLASHEx_Erase,"ax",%progbits
  73              		.align	1
  74              		.p2align 2,,3
  75              		.global	HAL_FLASHEx_Erase
  76              		.syntax unified
  77              		.thumb
  78              		.thumb_func
  79              		.fpu fpv5-d16
  81              	HAL_FLASHEx_Erase:
  82              		@ args = 0, pretend = 0, frame = 0
  83              		@ frame_needed = 0, uses_anonymous_args = 0
  84 0000 2DE9F843 		push	{r3, r4, r5, r6, r7, r8, r9, lr}
  85 0004 334E     		ldr	r6, .L45
  86 0006 337D     		ldrb	r3, [r6, #20]	@ zero_extendqisi2
  87 0008 012B     		cmp	r3, #1
  88 000a 5FD0     		beq	.L21
  89 000c 0125     		movs	r5, #1
  90 000e 0446     		mov	r4, r0
  91 0010 0022     		movs	r2, #0
  92 0012 0F46     		mov	r7, r1
  93 0014 3575     		strb	r5, [r6, #20]
  94 0016 4368     		ldr	r3, [r0, #4]
  95 0018 B261     		str	r2, [r6, #24]
  96 001a D807     		lsls	r0, r3, #31
  97 001c 34D4     		bmi	.L44
  98 001e 2368     		ldr	r3, [r4]
  99 0020 012B     		cmp	r3, #1
 100 0022 2FD0     		beq	.L18
 101              	.L14:
 102 0024 4FF0FF33 		mov	r3, #-1
 103 0028 3B60     		str	r3, [r7]
 104 002a D4E90221 		ldrd	r2, r1, [r4, #8]
 105 002e 5318     		adds	r3, r2, r1
 106 0030 1546     		mov	r5, r2
 107 0032 9A42     		cmp	r2, r3
 108 0034 26D2     		bcs	.L18
 109 0036 DFF8A080 		ldr	r8, .L45+4
 110 003a DFF8A090 		ldr	r9, .L45+8
 111 003e 05E0     		b	.L20
 112              	.L43:
 113 0040 D4E90221 		ldrd	r2, r1, [r4, #8]
 114              	.L19:
 115 0044 0135     		adds	r5, r5, #1
 116 0046 8B18     		adds	r3, r1, r2
 117 0048 AB42     		cmp	r3, r5
 118 004a 1BD9     		bls	.L18
 119              	.L20:
ARM GAS  C:\Users\Brandon\AppData\Local\Temp\cc6vWOKa.s 			page 3


 120 004c 6368     		ldr	r3, [r4, #4]
 121 004e 2846     		mov	r0, r5
 122 0050 DB07     		lsls	r3, r3, #31
 123 0052 F7D5     		bpl	.L19
 124 0054 2169     		ldr	r1, [r4, #16]
 125 0056 FFF7FEFF 		bl	FLASH_Erase_Sector.part.0
 126 005a 6368     		ldr	r3, [r4, #4]
 127 005c 0121     		movs	r1, #1
 128 005e 4CF25030 		movw	r0, #50000
 129 0062 DB07     		lsls	r3, r3, #31
 130 0064 ECD5     		bpl	.L43
 131 0066 FFF7FEFF 		bl	FLASH_WaitForLastOperation
 132 006a D8F80C30 		ldr	r3, [r8, #12]
 133 006e 03EA0903 		and	r3, r3, r9
 134 0072 C8F80C30 		str	r3, [r8, #12]
 135 0076 0028     		cmp	r0, #0
 136 0078 E2D0     		beq	.L43
 137 007a 3D60     		str	r5, [r7]
 138              	.L15:
 139 007c 0023     		movs	r3, #0
 140 007e 3375     		strb	r3, [r6, #20]
 141 0080 BDE8F883 		pop	{r3, r4, r5, r6, r7, r8, r9, pc}
 142              	.L18:
 143 0084 0020     		movs	r0, #0
 144 0086 F9E7     		b	.L15
 145              	.L44:
 146 0088 2946     		mov	r1, r5
 147 008a 4CF25030 		movw	r0, #50000
 148 008e FFF7FEFF 		bl	FLASH_WaitForLastOperation
 149 0092 C8B9     		cbnz	r0, .L22
 150 0094 2568     		ldr	r5, [r4]
 151 0096 012D     		cmp	r5, #1
 152 0098 C4D1     		bne	.L14
 153 009a 6368     		ldr	r3, [r4, #4]
 154 009c D907     		lsls	r1, r3, #31
 155 009e F1D5     		bpl	.L18
 156 00a0 2069     		ldr	r0, [r4, #16]
 157 00a2 FFF7FEFF 		bl	FLASH_MassErase.part.0
 158 00a6 6368     		ldr	r3, [r4, #4]
 159 00a8 DA07     		lsls	r2, r3, #31
 160 00aa EBD5     		bpl	.L18
 161 00ac 2946     		mov	r1, r5
 162 00ae 4CF25030 		movw	r0, #50000
 163 00b2 FFF7FEFF 		bl	FLASH_WaitForLastOperation
 164 00b6 084A     		ldr	r2, .L45+4
 165 00b8 0038     		subs	r0, r0, #0
 166 00ba D368     		ldr	r3, [r2, #12]
 167 00bc 18BF     		it	ne
 168 00be 0120     		movne	r0, #1
 169 00c0 23F00803 		bic	r3, r3, #8
 170 00c4 D360     		str	r3, [r2, #12]
 171 00c6 D9E7     		b	.L15
 172              	.L22:
 173 00c8 2846     		mov	r0, r5
 174 00ca D7E7     		b	.L15
 175              	.L21:
 176 00cc 0220     		movs	r0, #2
ARM GAS  C:\Users\Brandon\AppData\Local\Temp\cc6vWOKa.s 			page 4


 177 00ce BDE8F883 		pop	{r3, r4, r5, r6, r7, r8, r9, pc}
 178              	.L46:
 179 00d2 00BF     		.align	2
 180              	.L45:
 181 00d4 00000000 		.word	pFlash
 182 00d8 00200052 		.word	1375739904
 183 00dc FBF8FFFF 		.word	-1797
 185              		.section	.text.HAL_FLASHEx_Erase_IT,"ax",%progbits
 186              		.align	1
 187              		.p2align 2,,3
 188              		.global	HAL_FLASHEx_Erase_IT
 189              		.syntax unified
 190              		.thumb
 191              		.thumb_func
 192              		.fpu fpv5-d16
 194              	HAL_FLASHEx_Erase_IT:
 195              		@ args = 0, pretend = 0, frame = 0
 196              		@ frame_needed = 0, uses_anonymous_args = 0
 197 0000 2DE9F041 		push	{r4, r5, r6, r7, r8, lr}
 198 0004 2D4F     		ldr	r7, .L83
 199 0006 3B7D     		ldrb	r3, [r7, #20]	@ zero_extendqisi2
 200 0008 012B     		cmp	r3, #1
 201 000a 44D0     		beq	.L59
 202 000c 0126     		movs	r6, #1
 203 000e 4FF00008 		mov	r8, #0
 204 0012 0446     		mov	r4, r0
 205 0014 3E75     		strb	r6, [r7, #20]
 206 0016 4368     		ldr	r3, [r0, #4]
 207 0018 C7F81880 		str	r8, [r7, #24]
 208 001c D907     		lsls	r1, r3, #31
 209 001e 0ED4     		bmi	.L78
 210              	.L49:
 211 0020 2268     		ldr	r2, [r4]
 212 0022 012A     		cmp	r2, #1
 213 0024 2FD0     		beq	.L79
 214 0026 0120     		movs	r0, #1
 215 0028 0025     		movs	r5, #0
 216 002a 2369     		ldr	r3, [r4, #16]
 217 002c 3870     		strb	r0, [r7]
 218 002e 2846     		mov	r0, r5
 219 0030 D4E90221 		ldrd	r2, r1, [r4, #8]
 220 0034 7960     		str	r1, [r7, #4]
 221 0036 FA60     		str	r2, [r7, #12]
 222 0038 BB60     		str	r3, [r7, #8]
 223 003a BDE8F081 		pop	{r4, r5, r6, r7, r8, pc}
 224              	.L78:
 225 003e 3146     		mov	r1, r6
 226 0040 4CF25030 		movw	r0, #50000
 227 0044 FFF7FEFF 		bl	FLASH_WaitForLastOperation
 228 0048 0546     		mov	r5, r0
 229 004a B0B9     		cbnz	r0, .L80
 230 004c 6368     		ldr	r3, [r4, #4]
 231 004e DA07     		lsls	r2, r3, #31
 232 0050 E6D5     		bpl	.L49
 233 0052 1B49     		ldr	r1, .L83+4
 234 0054 CA68     		ldr	r2, [r1, #12]
 235 0056 42F4DE02 		orr	r2, r2, #7274496
ARM GAS  C:\Users\Brandon\AppData\Local\Temp\cc6vWOKa.s 			page 5


 236 005a CA60     		str	r2, [r1, #12]
 237 005c 2268     		ldr	r2, [r4]
 238 005e 012A     		cmp	r2, #1
 239 0060 1DD0     		beq	.L81
 240 0062 A068     		ldr	r0, [r4, #8]
 241 0064 3E70     		strb	r6, [r7]
 242 0066 D4E90331 		ldrd	r3, r1, [r4, #12]
 243 006a 7B60     		str	r3, [r7, #4]
 244 006c F860     		str	r0, [r7, #12]
 245 006e B960     		str	r1, [r7, #8]
 246 0070 FFF7FEFF 		bl	FLASH_Erase_Sector.part.0
 247 0074 2846     		mov	r0, r5
 248 0076 BDE8F081 		pop	{r4, r5, r6, r7, r8, pc}
 249              	.L80:
 250 007a 3546     		mov	r5, r6
 251 007c 87F81480 		strb	r8, [r7, #20]
 252 0080 2846     		mov	r0, r5
 253 0082 BDE8F081 		pop	{r4, r5, r6, r7, r8, pc}
 254              	.L79:
 255 0086 012B     		cmp	r3, #1
 256 0088 0BD0     		beq	.L56
 257 008a 0723     		movs	r3, #7
 258 008c 0025     		movs	r5, #0
 259 008e 3B70     		strb	r3, [r7]
 260 0090 2846     		mov	r0, r5
 261 0092 BDE8F081 		pop	{r4, r5, r6, r7, r8, pc}
 262              	.L59:
 263 0096 0225     		movs	r5, #2
 264 0098 2846     		mov	r0, r5
 265 009a BDE8F081 		pop	{r4, r5, r6, r7, r8, pc}
 266              	.L81:
 267 009e 012B     		cmp	r3, #1
 268 00a0 08D1     		bne	.L82
 269              	.L56:
 270 00a2 0223     		movs	r3, #2
 271 00a4 2069     		ldr	r0, [r4, #16]
 272 00a6 3B70     		strb	r3, [r7]
 273              	.L55:
 274 00a8 0025     		movs	r5, #0
 275 00aa FFF7FEFF 		bl	FLASH_MassErase.part.0
 276 00ae 2846     		mov	r0, r5
 277 00b0 BDE8F081 		pop	{r4, r5, r6, r7, r8, pc}
 278              	.L82:
 279 00b4 0723     		movs	r3, #7
 280 00b6 2069     		ldr	r0, [r4, #16]
 281 00b8 3B70     		strb	r3, [r7]
 282 00ba F5E7     		b	.L55
 283              	.L84:
 284              		.align	2
 285              	.L83:
 286 00bc 00000000 		.word	pFlash
 287 00c0 00200052 		.word	1375739904
 289              		.section	.text.HAL_FLASHEx_OBProgram,"ax",%progbits
 290              		.align	1
 291              		.p2align 2,,3
 292              		.global	HAL_FLASHEx_OBProgram
 293              		.syntax unified
ARM GAS  C:\Users\Brandon\AppData\Local\Temp\cc6vWOKa.s 			page 6


 294              		.thumb
 295              		.thumb_func
 296              		.fpu fpv5-d16
 298              	HAL_FLASHEx_OBProgram:
 299              		@ args = 0, pretend = 0, frame = 0
 300              		@ frame_needed = 0, uses_anonymous_args = 0
 301 0000 F8B5     		push	{r3, r4, r5, r6, r7, lr}
 302 0002 7A4E     		ldr	r6, .L187
 303 0004 337D     		ldrb	r3, [r6, #20]	@ zero_extendqisi2
 304 0006 012B     		cmp	r3, #1
 305 0008 7BD0     		beq	.L110
 306 000a 0125     		movs	r5, #1
 307 000c 0023     		movs	r3, #0
 308 000e 0446     		mov	r4, r0
 309 0010 4CF25030 		movw	r0, #50000
 310 0014 2946     		mov	r1, r5
 311 0016 3575     		strb	r5, [r6, #20]
 312 0018 B361     		str	r3, [r6, #24]
 313 001a FFF7FEFF 		bl	FLASH_WaitForLastOperation
 314 001e 18B1     		cbz	r0, .L183
 315 0020 2846     		mov	r0, r5
 316              	.L87:
 317 0022 0023     		movs	r3, #0
 318 0024 3375     		strb	r3, [r6, #20]
 319 0026 F8BD     		pop	{r3, r4, r5, r6, r7, pc}
 320              	.L183:
 321 0028 2368     		ldr	r3, [r4]
 322 002a DA07     		lsls	r2, r3, #31
 323 002c 0BD5     		bpl	.L88
 324 002e 6268     		ldr	r2, [r4, #4]
 325 0030 AA42     		cmp	r2, r5
 326 0032 E269     		ldr	r2, [r4, #28]
 327 0034 00F0CE80 		beq	.L184
 328 0038 D507     		lsls	r5, r2, #31
 329 003a 04D5     		bpl	.L88
 330 003c 6C49     		ldr	r1, .L187+4
 331 003e 227A     		ldrb	r2, [r4, #8]	@ zero_extendqisi2
 332 0040 CD6B     		ldr	r5, [r1, #60]
 333 0042 2A43     		orrs	r2, r2, r5
 334 0044 CA63     		str	r2, [r1, #60]
 335              	.L88:
 336 0046 9907     		lsls	r1, r3, #30
 337 0048 5DD4     		bmi	.L185
 338 004a 5A07     		lsls	r2, r3, #29
 339 004c 64D4     		bmi	.L186
 340              	.L91:
 341 004e 1907     		lsls	r1, r3, #28
 342 0050 0FD5     		bpl	.L102
 343 0052 E269     		ldr	r2, [r4, #28]
 344 0054 D207     		lsls	r2, r2, #31
 345 0056 0CD5     		bpl	.L102
 346 0058 D4E90921 		ldrd	r2, r1, [r4, #36]
 347 005c 02F17847 		add	r7, r2, #-134217728
 348 0060 0D02     		lsls	r5, r1, #8
 349 0062 226A     		ldr	r2, [r4, #32]
 350 0064 6349     		ldr	r1, .L187+8
 351 0066 42EA1722 		orr	r2, r2, r7, lsr #8
ARM GAS  C:\Users\Brandon\AppData\Local\Temp\cc6vWOKa.s 			page 7


 352 006a 614F     		ldr	r7, .L187+4
 353 006c 2940     		ands	r1, r1, r5
 354 006e 0A43     		orrs	r2, r2, r1
 355 0070 FA62     		str	r2, [r7, #44]
 356              	.L102:
 357 0072 DF06     		lsls	r7, r3, #27
 358 0074 06D5     		bpl	.L103
 359 0076 5E49     		ldr	r1, .L187+4
 360 0078 2569     		ldr	r5, [r4, #16]
 361 007a 0A6A     		ldr	r2, [r1, #32]
 362 007c 22F00C02 		bic	r2, r2, #12
 363 0080 2A43     		orrs	r2, r2, r5
 364 0082 0A62     		str	r2, [r1, #32]
 365              	.L103:
 366 0084 5D06     		lsls	r5, r3, #25
 367 0086 15D5     		bpl	.L105
 368 0088 E26A     		ldr	r2, [r4, #44]
 369 008a 676B     		ldr	r7, [r4, #52]
 370 008c D107     		lsls	r1, r2, #31
 371 008e 0AD5     		bpl	.L106
 372 0090 DFF85CC1 		ldr	ip, .L187+4
 373 0094 574D     		ldr	r5, .L187+8
 374 0096 DCF844E0 		ldr	lr, [ip, #68]
 375 009a 618E     		ldrh	r1, [r4, #50]
 376 009c 0EEA0505 		and	r5, lr, r5
 377 00a0 2943     		orrs	r1, r1, r5
 378 00a2 CCF84410 		str	r1, [ip, #68]
 379              	.L106:
 380 00a6 9207     		lsls	r2, r2, #30
 381 00a8 04D5     		bpl	.L105
 382 00aa 5149     		ldr	r1, .L187+4
 383 00ac 4A6C     		ldr	r2, [r1, #68]
 384 00ae 92B2     		uxth	r2, r2
 385 00b0 3A43     		orrs	r2, r2, r7
 386 00b2 4A64     		str	r2, [r1, #68]
 387              	.L105:
 388 00b4 9D06     		lsls	r5, r3, #26
 389 00b6 11D5     		bpl	.L108
 390 00b8 E269     		ldr	r2, [r4, #28]
 391 00ba D107     		lsls	r1, r2, #31
 392 00bc 0ED5     		bpl	.L108
 393 00be 256C     		ldr	r5, [r4, #64]
 394 00c0 D4E90E21 		ldrd	r2, r1, [r4, #56]
 395 00c4 2D02     		lsls	r5, r5, #8
 396 00c6 01F17847 		add	r7, r1, #-134217728
 397 00ca 02F00042 		and	r2, r2, #-2147483648
 398 00ce 4949     		ldr	r1, .L187+8
 399 00d0 42EA1722 		orr	r2, r2, r7, lsr #8
 400 00d4 464F     		ldr	r7, .L187+4
 401 00d6 2940     		ands	r1, r1, r5
 402 00d8 0A43     		orrs	r2, r2, r1
 403 00da 7A63     		str	r2, [r7, #52]
 404              	.L108:
 405 00dc DA05     		lsls	r2, r3, #23
 406 00de 06D5     		bpl	.L109
 407 00e0 4349     		ldr	r1, .L187+4
 408 00e2 656C     		ldr	r5, [r4, #68]
ARM GAS  C:\Users\Brandon\AppData\Local\Temp\cc6vWOKa.s 			page 8


 409 00e4 4A6F     		ldr	r2, [r1, #116]
 410 00e6 22F00302 		bic	r2, r2, #3
 411 00ea 2A43     		orrs	r2, r2, r5
 412 00ec 4A67     		str	r2, [r1, #116]
 413              	.L109:
 414 00ee 9B05     		lsls	r3, r3, #22
 415 00f0 97D5     		bpl	.L87
 416 00f2 3F4A     		ldr	r2, .L187+4
 417 00f4 A16C     		ldr	r1, [r4, #72]
 418 00f6 536F     		ldr	r3, [r2, #116]
 419 00f8 23F00403 		bic	r3, r3, #4
 420 00fc 0B43     		orrs	r3, r3, r1
 421 00fe 5367     		str	r3, [r2, #116]
 422 0100 8FE7     		b	.L87
 423              	.L110:
 424 0102 0220     		movs	r0, #2
 425 0104 F8BD     		pop	{r3, r4, r5, r6, r7, pc}
 426              	.L185:
 427 0106 3A49     		ldr	r1, .L187+4
 428 0108 E568     		ldr	r5, [r4, #12]
 429 010a 0A6A     		ldr	r2, [r1, #32]
 430 010c 22F47F42 		bic	r2, r2, #65280
 431 0110 2A43     		orrs	r2, r2, r5
 432 0112 0A62     		str	r2, [r1, #32]
 433 0114 5A07     		lsls	r2, r3, #29
 434 0116 9AD5     		bpl	.L91
 435              	.L186:
 436 0118 D4E90517 		ldrd	r1, r7, [r4, #20]
 437 011c 11F00102 		ands	r2, r1, #1
 438 0120 62D0     		beq	.L112
 439 0122 07F01002 		and	r2, r7, #16
 440 0126 1025     		movs	r5, #16
 441              	.L92:
 442 0128 11F0020F 		tst	r1, #2
 443 012c 05D0     		beq	.L93
 444 012e 07F0400C 		and	ip, r7, #64
 445 0132 45F04005 		orr	r5, r5, #64
 446 0136 42EA0C02 		orr	r2, r2, ip
 447              	.L93:
 448 013a 11F0040F 		tst	r1, #4
 449 013e 05D0     		beq	.L94
 450 0140 07F0800C 		and	ip, r7, #128
 451 0144 45F08005 		orr	r5, r5, #128
 452 0148 42EA0C02 		orr	r2, r2, ip
 453              	.L94:
 454 014c 11F0080F 		tst	r1, #8
 455 0150 05D0     		beq	.L95
 456 0152 07F4003C 		and	ip, r7, #131072
 457 0156 45F40035 		orr	r5, r5, #131072
 458 015a 42EA0C02 		orr	r2, r2, ip
 459              	.L95:
 460 015e 11F0100F 		tst	r1, #16
 461 0162 05D0     		beq	.L96
 462 0164 07F4802C 		and	ip, r7, #262144
 463 0168 45F48025 		orr	r5, r5, #262144
 464 016c 42EA0C02 		orr	r2, r2, ip
 465              	.L96:
ARM GAS  C:\Users\Brandon\AppData\Local\Temp\cc6vWOKa.s 			page 9


 466 0170 11F0200F 		tst	r1, #32
 467 0174 05D0     		beq	.L97
 468 0176 07F4C01C 		and	ip, r7, #1572864
 469 017a 45F4C015 		orr	r5, r5, #1572864
 470 017e 42EA0C02 		orr	r2, r2, ip
 471              	.L97:
 472 0182 11F0400F 		tst	r1, #64
 473 0186 05D0     		beq	.L98
 474 0188 07F4001C 		and	ip, r7, #2097152
 475 018c 45F40015 		orr	r5, r5, #2097152
 476 0190 42EA0C02 		orr	r2, r2, ip
 477              	.L98:
 478 0194 11F4805F 		tst	r1, #4096
 479 0198 05D0     		beq	.L99
 480 019a 07F0807C 		and	ip, r7, #16777216
 481 019e 45F08075 		orr	r5, r5, #16777216
 482 01a2 42EA0C02 		orr	r2, r2, ip
 483              	.L99:
 484 01a6 11F4005F 		tst	r1, #8192
 485 01aa 05D0     		beq	.L100
 486 01ac 07F0007C 		and	ip, r7, #33554432
 487 01b0 45F00075 		orr	r5, r5, #33554432
 488 01b4 42EA0C02 		orr	r2, r2, ip
 489              	.L100:
 490 01b8 0906     		lsls	r1, r1, #24
 491 01ba 04D5     		bpl	.L101
 492 01bc 07F00057 		and	r7, r7, #536870912
 493 01c0 45F00055 		orr	r5, r5, #536870912
 494 01c4 3A43     		orrs	r2, r2, r7
 495              	.L101:
 496 01c6 0A4F     		ldr	r7, .L187+4
 497 01c8 396A     		ldr	r1, [r7, #32]
 498 01ca 21EA0505 		bic	r5, r1, r5
 499 01ce 2A43     		orrs	r2, r2, r5
 500 01d0 3A62     		str	r2, [r7, #32]
 501 01d2 3CE7     		b	.L91
 502              	.L184:
 503 01d4 D707     		lsls	r7, r2, #31
 504 01d6 7FF536AF 		bpl	.L88
 505 01da 0549     		ldr	r1, .L187+4
 506 01dc 257A     		ldrb	r5, [r4, #8]	@ zero_extendqisi2
 507 01de CA6B     		ldr	r2, [r1, #60]
 508 01e0 22EA0502 		bic	r2, r2, r5
 509 01e4 CA63     		str	r2, [r1, #60]
 510 01e6 2EE7     		b	.L88
 511              	.L112:
 512 01e8 1546     		mov	r5, r2
 513 01ea 9DE7     		b	.L92
 514              	.L188:
 515              		.align	2
 516              	.L187:
 517 01ec 00000000 		.word	pFlash
 518 01f0 00200052 		.word	1375739904
 519 01f4 0000FFFF 		.word	-65536
 521              		.section	.text.HAL_FLASHEx_OBGetConfig,"ax",%progbits
 522              		.align	1
 523              		.p2align 2,,3
ARM GAS  C:\Users\Brandon\AppData\Local\Temp\cc6vWOKa.s 			page 10


 524              		.global	HAL_FLASHEx_OBGetConfig
 525              		.syntax unified
 526              		.thumb
 527              		.thumb_func
 528              		.fpu fpv5-d16
 530              	HAL_FLASHEx_OBGetConfig:
 531              		@ args = 0, pretend = 0, frame = 0
 532              		@ frame_needed = 0, uses_anonymous_args = 0
 533              		@ link register save eliminated.
 534 0000 2A4B     		ldr	r3, .L200
 535 0002 DB69     		ldr	r3, [r3, #28]
 536 0004 03F47F43 		and	r3, r3, #65280
 537 0008 B3F52A4F 		cmp	r3, #43520
 538 000c 70B4     		push	{r4, r5, r6}
 539 000e 04D0     		beq	.L190
 540 0010 B3F54C4F 		cmp	r3, #52224
 541 0014 18BF     		it	ne
 542 0016 4FF4AA43 		movne	r3, #21760
 543              	.L190:
 544 001a 244A     		ldr	r2, .L200
 545 001c C360     		str	r3, [r0, #12]
 546 001e 244B     		ldr	r3, .L200+4
 547 0020 D469     		ldr	r4, [r2, #28]
 548 0022 C169     		ldr	r1, [r0, #28]
 549 0024 2340     		ands	r3, r3, r4
 550 0026 0129     		cmp	r1, #1
 551 0028 8361     		str	r3, [r0, #24]
 552 002a D369     		ldr	r3, [r2, #28]
 553 002c 03F00C03 		and	r3, r3, #12
 554 0030 0361     		str	r3, [r0, #16]
 555 0032 13D0     		beq	.L199
 556 0034 40F25634 		movw	r4, #854
 557              	.L192:
 558 0038 1C4B     		ldr	r3, .L200
 559 003a 1E4A     		ldr	r2, .L200+8
 560 003c 196C     		ldr	r1, [r3, #64]
 561 003e 0D04     		lsls	r5, r1, #16
 562 0040 0A40     		ands	r2, r2, r1
 563 0042 C0E90C52 		strd	r5, r2, [r0, #48]
 564 0046 1A6F     		ldr	r2, [r3, #112]
 565 0048 0460     		str	r4, [r0]
 566 004a 02F00302 		and	r2, r2, #3
 567 004e 4264     		str	r2, [r0, #68]
 568 0050 1B6F     		ldr	r3, [r3, #112]
 569 0052 03F00403 		and	r3, r3, #4
 570 0056 70BC     		pop	{r4, r5, r6}
 571 0058 8364     		str	r3, [r0, #72]
 572 005a 7047     		bx	lr
 573              	.L199:
 574 005c 916B     		ldr	r1, [r2, #56]
 575 005e 40F27F34 		movw	r4, #895
 576 0062 154B     		ldr	r3, .L200+12
 577 0064 C943     		mvns	r1, r1
 578 0066 C9B2     		uxtb	r1, r1
 579 0068 0D1E     		subs	r5, r1, #0
 580 006a 18BF     		it	ne
 581 006c 0125     		movne	r5, #1
ARM GAS  C:\Users\Brandon\AppData\Local\Temp\cc6vWOKa.s 			page 11


 582 006e C0E90151 		strd	r5, r1, [r0, #4]
 583 0072 916A     		ldr	r1, [r2, #40]
 584 0074 03EA0125 		and	r5, r3, r1, lsl #8
 585 0078 01F00046 		and	r6, r1, #-2147483648
 586 007c 03EA1121 		and	r1, r3, r1, lsr #8
 587 0080 05F10065 		add	r5, r5, #134217728
 588 0084 0662     		str	r6, [r0, #32]
 589 0086 01F10061 		add	r1, r1, #134217728
 590 008a C0E90951 		strd	r5, r1, [r0, #36]
 591 008e 116B     		ldr	r1, [r2, #48]
 592 0090 03EA0122 		and	r2, r3, r1, lsl #8
 593 0094 01F00045 		and	r5, r1, #-2147483648
 594 0098 03EA1123 		and	r3, r3, r1, lsr #8
 595 009c 02F10062 		add	r2, r2, #134217728
 596 00a0 8563     		str	r5, [r0, #56]
 597 00a2 03F10063 		add	r3, r3, #134217728
 598 00a6 C0E90F23 		strd	r2, r3, [r0, #60]
 599 00aa C5E7     		b	.L192
 600              	.L201:
 601              		.align	2
 602              	.L200:
 603 00ac 00200052 		.word	1375739904
 604 00b0 F300FFFF 		.word	-65293
 605 00b4 0000FFFF 		.word	-65536
 606 00b8 00FF0F00 		.word	1048320
 608              		.section	.text.HAL_FLASHEx_Unlock_Bank1,"ax",%progbits
 609              		.align	1
 610              		.p2align 2,,3
 611              		.global	HAL_FLASHEx_Unlock_Bank1
 612              		.syntax unified
 613              		.thumb
 614              		.thumb_func
 615              		.fpu fpv5-d16
 617              	HAL_FLASHEx_Unlock_Bank1:
 618              		@ args = 0, pretend = 0, frame = 0
 619              		@ frame_needed = 0, uses_anonymous_args = 0
 620              		@ link register save eliminated.
 621 0000 064B     		ldr	r3, .L205
 622 0002 D868     		ldr	r0, [r3, #12]
 623 0004 10F00100 		ands	r0, r0, #1
 624 0008 06D0     		beq	.L203
 625 000a 0549     		ldr	r1, .L205+4
 626 000c 054A     		ldr	r2, .L205+8
 627 000e 5960     		str	r1, [r3, #4]
 628 0010 5A60     		str	r2, [r3, #4]
 629 0012 D868     		ldr	r0, [r3, #12]
 630 0014 00F00100 		and	r0, r0, #1
 631              	.L203:
 632 0018 7047     		bx	lr
 633              	.L206:
 634 001a 00BF     		.align	2
 635              	.L205:
 636 001c 00200052 		.word	1375739904
 637 0020 23016745 		.word	1164378403
 638 0024 AB89EFCD 		.word	-839939669
 640              		.section	.text.HAL_FLASHEx_Lock_Bank1,"ax",%progbits
 641              		.align	1
ARM GAS  C:\Users\Brandon\AppData\Local\Temp\cc6vWOKa.s 			page 12


 642              		.p2align 2,,3
 643              		.global	HAL_FLASHEx_Lock_Bank1
 644              		.syntax unified
 645              		.thumb
 646              		.thumb_func
 647              		.fpu fpv5-d16
 649              	HAL_FLASHEx_Lock_Bank1:
 650              		@ args = 0, pretend = 0, frame = 0
 651              		@ frame_needed = 0, uses_anonymous_args = 0
 652              		@ link register save eliminated.
 653 0000 034A     		ldr	r2, .L208
 654 0002 0020     		movs	r0, #0
 655 0004 D368     		ldr	r3, [r2, #12]
 656 0006 43F00103 		orr	r3, r3, #1
 657 000a D360     		str	r3, [r2, #12]
 658 000c 7047     		bx	lr
 659              	.L209:
 660 000e 00BF     		.align	2
 661              	.L208:
 662 0010 00200052 		.word	1375739904
 664              		.section	.text.HAL_FLASHEx_ComputeCRC,"ax",%progbits
 665              		.align	1
 666              		.p2align 2,,3
 667              		.global	HAL_FLASHEx_ComputeCRC
 668              		.syntax unified
 669              		.thumb
 670              		.thumb_func
 671              		.fpu fpv5-d16
 673              	HAL_FLASHEx_ComputeCRC:
 674              		@ args = 0, pretend = 0, frame = 0
 675              		@ frame_needed = 0, uses_anonymous_args = 0
 676 0000 38B5     		push	{r3, r4, r5, lr}
 677 0002 0446     		mov	r4, r0
 678 0004 4CF25030 		movw	r0, #50000
 679 0008 0D46     		mov	r5, r1
 680 000a FFF7FEFF 		bl	FLASH_OB_WaitForLastOperation
 681 000e 10B9     		cbnz	r0, .L211
 682 0010 A368     		ldr	r3, [r4, #8]
 683 0012 012B     		cmp	r3, #1
 684 0014 00D0     		beq	.L220
 685              	.L211:
 686 0016 38BD     		pop	{r3, r4, r5, pc}
 687              	.L220:
 688 0018 2549     		ldr	r1, .L223
 689 001a CB68     		ldr	r3, [r1, #12]
 690 001c 43F40043 		orr	r3, r3, #32768
 691 0020 CB60     		str	r3, [r1, #12]
 692 0022 4B69     		ldr	r3, [r1, #20]
 693 0024 43F0C053 		orr	r3, r3, #402653184
 694 0028 4B61     		str	r3, [r1, #20]
 695 002a 086D     		ldr	r0, [r1, #80]
 696 002c D4E90023 		ldrd	r2, r3, [r4]
 697 0030 1343     		orrs	r3, r3, r2
 698 0032 B2F5807F 		cmp	r2, #256
 699 0036 43EA0003 		orr	r3, r3, r0
 700 003a 43F40033 		orr	r3, r3, #131072
 701 003e 0B65     		str	r3, [r1, #80]
ARM GAS  C:\Users\Brandon\AppData\Local\Temp\cc6vWOKa.s 			page 13


 702 0040 1AD0     		beq	.L221
 703 0042 1C4B     		ldr	r3, .L223+4
 704 0044 9A42     		cmp	r2, r3
 705 0046 2DD0     		beq	.L222
 706 0048 D4E90523 		ldrd	r2, r3, [r4, #20]
 707 004c 4A65     		str	r2, [r1, #84]
 708 004e 8B65     		str	r3, [r1, #88]
 709              	.L214:
 710 0050 174C     		ldr	r4, .L223
 711 0052 0121     		movs	r1, #1
 712 0054 4CF25030 		movw	r0, #50000
 713 0058 236D     		ldr	r3, [r4, #80]
 714 005a 43F48033 		orr	r3, r3, #65536
 715 005e 2365     		str	r3, [r4, #80]
 716 0060 FFF7FEFF 		bl	FLASH_CRC_WaitForLastOperation
 717 0064 E36D     		ldr	r3, [r4, #92]
 718 0066 4FF0C052 		mov	r2, #402653184
 719 006a 2B60     		str	r3, [r5]
 720 006c E368     		ldr	r3, [r4, #12]
 721 006e 23F40043 		bic	r3, r3, #32768
 722 0072 E360     		str	r3, [r4, #12]
 723 0074 6261     		str	r2, [r4, #20]
 724 0076 38BD     		pop	{r3, r4, r5, pc}
 725              	.L221:
 726 0078 0B6D     		ldr	r3, [r1, #80]
 727 007a 43F48063 		orr	r3, r3, #1024
 728 007e 0B65     		str	r3, [r1, #80]
 729 0080 D4E90320 		ldrd	r2, r0, [r4, #12]
 730 0084 1044     		add	r0, r0, r2
 731 0086 8242     		cmp	r2, r0
 732 0088 E2D2     		bcs	.L214
 733              	.L213:
 734 008a 0B6D     		ldr	r3, [r1, #80]
 735 008c 23F00703 		bic	r3, r3, #7
 736 0090 0B65     		str	r3, [r1, #80]
 737 0092 0B6D     		ldr	r3, [r1, #80]
 738 0094 1343     		orrs	r3, r3, r2
 739 0096 0132     		adds	r2, r2, #1
 740 0098 43F40073 		orr	r3, r3, #512
 741 009c 8242     		cmp	r2, r0
 742 009e 0B65     		str	r3, [r1, #80]
 743 00a0 F3D1     		bne	.L213
 744 00a2 D5E7     		b	.L214
 745              	.L222:
 746 00a4 0B6D     		ldr	r3, [r1, #80]
 747 00a6 43F48003 		orr	r3, r3, #4194304
 748 00aa 0B65     		str	r3, [r1, #80]
 749 00ac D0E7     		b	.L214
 750              	.L224:
 751 00ae 00BF     		.align	2
 752              	.L223:
 753 00b0 00200052 		.word	1375739904
 754 00b4 00014000 		.word	4194560
 756              		.section	.text.FLASH_Erase_Sector,"ax",%progbits
 757              		.align	1
 758              		.p2align 2,,3
 759              		.global	FLASH_Erase_Sector
ARM GAS  C:\Users\Brandon\AppData\Local\Temp\cc6vWOKa.s 			page 14


 760              		.syntax unified
 761              		.thumb
 762              		.thumb_func
 763              		.fpu fpv5-d16
 765              	FLASH_Erase_Sector:
 766              		@ args = 0, pretend = 0, frame = 0
 767              		@ frame_needed = 0, uses_anonymous_args = 0
 768              		@ link register save eliminated.
 769 0000 CB07     		lsls	r3, r1, #31
 770 0002 02D5     		bpl	.L225
 771 0004 1146     		mov	r1, r2
 772 0006 FFF7FEBF 		b	FLASH_Erase_Sector.part.0
 773              	.L225:
 774 000a 7047     		bx	lr
 776              		.ident	"GCC: (GNU Arm Embedded Toolchain 9-2020-q2-update) 9.3.1 20200408 (release)"
ARM GAS  C:\Users\Brandon\AppData\Local\Temp\cc6vWOKa.s 			page 15


DEFINED SYMBOLS
                            *ABS*:00000000 stm32h7xx_hal_flash_ex.c
C:\Users\Brandon\AppData\Local\Temp\cc6vWOKa.s:15     .text.FLASH_MassErase.part.0:00000000 $t
C:\Users\Brandon\AppData\Local\Temp\cc6vWOKa.s:23     .text.FLASH_MassErase.part.0:00000000 FLASH_MassErase.part.0
C:\Users\Brandon\AppData\Local\Temp\cc6vWOKa.s:41     .text.FLASH_MassErase.part.0:0000001c $d
C:\Users\Brandon\AppData\Local\Temp\cc6vWOKa.s:44     .text.FLASH_Erase_Sector.part.0:00000000 $t
C:\Users\Brandon\AppData\Local\Temp\cc6vWOKa.s:51     .text.FLASH_Erase_Sector.part.0:00000000 FLASH_Erase_Sector.part.0
C:\Users\Brandon\AppData\Local\Temp\cc6vWOKa.s:70     .text.FLASH_Erase_Sector.part.0:00000020 $d
C:\Users\Brandon\AppData\Local\Temp\cc6vWOKa.s:73     .text.HAL_FLASHEx_Erase:00000000 $t
C:\Users\Brandon\AppData\Local\Temp\cc6vWOKa.s:81     .text.HAL_FLASHEx_Erase:00000000 HAL_FLASHEx_Erase
C:\Users\Brandon\AppData\Local\Temp\cc6vWOKa.s:181    .text.HAL_FLASHEx_Erase:000000d4 $d
C:\Users\Brandon\AppData\Local\Temp\cc6vWOKa.s:186    .text.HAL_FLASHEx_Erase_IT:00000000 $t
C:\Users\Brandon\AppData\Local\Temp\cc6vWOKa.s:194    .text.HAL_FLASHEx_Erase_IT:00000000 HAL_FLASHEx_Erase_IT
C:\Users\Brandon\AppData\Local\Temp\cc6vWOKa.s:286    .text.HAL_FLASHEx_Erase_IT:000000bc $d
C:\Users\Brandon\AppData\Local\Temp\cc6vWOKa.s:290    .text.HAL_FLASHEx_OBProgram:00000000 $t
C:\Users\Brandon\AppData\Local\Temp\cc6vWOKa.s:298    .text.HAL_FLASHEx_OBProgram:00000000 HAL_FLASHEx_OBProgram
C:\Users\Brandon\AppData\Local\Temp\cc6vWOKa.s:517    .text.HAL_FLASHEx_OBProgram:000001ec $d
C:\Users\Brandon\AppData\Local\Temp\cc6vWOKa.s:522    .text.HAL_FLASHEx_OBGetConfig:00000000 $t
C:\Users\Brandon\AppData\Local\Temp\cc6vWOKa.s:530    .text.HAL_FLASHEx_OBGetConfig:00000000 HAL_FLASHEx_OBGetConfig
C:\Users\Brandon\AppData\Local\Temp\cc6vWOKa.s:603    .text.HAL_FLASHEx_OBGetConfig:000000ac $d
C:\Users\Brandon\AppData\Local\Temp\cc6vWOKa.s:609    .text.HAL_FLASHEx_Unlock_Bank1:00000000 $t
C:\Users\Brandon\AppData\Local\Temp\cc6vWOKa.s:617    .text.HAL_FLASHEx_Unlock_Bank1:00000000 HAL_FLASHEx_Unlock_Bank1
C:\Users\Brandon\AppData\Local\Temp\cc6vWOKa.s:636    .text.HAL_FLASHEx_Unlock_Bank1:0000001c $d
C:\Users\Brandon\AppData\Local\Temp\cc6vWOKa.s:641    .text.HAL_FLASHEx_Lock_Bank1:00000000 $t
C:\Users\Brandon\AppData\Local\Temp\cc6vWOKa.s:649    .text.HAL_FLASHEx_Lock_Bank1:00000000 HAL_FLASHEx_Lock_Bank1
C:\Users\Brandon\AppData\Local\Temp\cc6vWOKa.s:662    .text.HAL_FLASHEx_Lock_Bank1:00000010 $d
C:\Users\Brandon\AppData\Local\Temp\cc6vWOKa.s:665    .text.HAL_FLASHEx_ComputeCRC:00000000 $t
C:\Users\Brandon\AppData\Local\Temp\cc6vWOKa.s:673    .text.HAL_FLASHEx_ComputeCRC:00000000 HAL_FLASHEx_ComputeCRC
C:\Users\Brandon\AppData\Local\Temp\cc6vWOKa.s:753    .text.HAL_FLASHEx_ComputeCRC:000000b0 $d
C:\Users\Brandon\AppData\Local\Temp\cc6vWOKa.s:757    .text.FLASH_Erase_Sector:00000000 $t
C:\Users\Brandon\AppData\Local\Temp\cc6vWOKa.s:765    .text.FLASH_Erase_Sector:00000000 FLASH_Erase_Sector

UNDEFINED SYMBOLS
FLASH_WaitForLastOperation
pFlash
FLASH_OB_WaitForLastOperation
FLASH_CRC_WaitForLastOperation
