ARM GAS  C:\Users\Brandon\AppData\Local\Temp\ccUB7k0p.s 			page 1


   1              		.cpu cortex-m7
   2              		.eabi_attribute 28, 1
   3              		.eabi_attribute 20, 1
   4              		.eabi_attribute 21, 1
   5              		.eabi_attribute 23, 3
   6              		.eabi_attribute 24, 1
   7              		.eabi_attribute 25, 1
   8              		.eabi_attribute 26, 1
   9              		.eabi_attribute 30, 2
  10              		.eabi_attribute 34, 1
  11              		.eabi_attribute 18, 4
  12              		.file	"stm32h7xx_hal_gpio.c"
  13              		.text
  14              		.section	.text.HAL_GPIO_Init,"ax",%progbits
  15              		.align	1
  16              		.p2align 2,,3
  17              		.global	HAL_GPIO_Init
  18              		.arch armv7e-m
  19              		.syntax unified
  20              		.thumb
  21              		.thumb_func
  22              		.fpu fpv5-d16
  24              	HAL_GPIO_Init:
  25              		@ args = 0, pretend = 0, frame = 16
  26              		@ frame_needed = 0, uses_anonymous_args = 0
  27 0000 2DE9F04F 		push	{r4, r5, r6, r7, r8, r9, r10, fp, lr}
  28 0004 0E68     		ldr	r6, [r1]
  29 0006 85B0     		sub	sp, sp, #20
  30 0008 002E     		cmp	r6, #0
  31 000a 00F0D080 		beq	.L1
  32 000e 0023     		movs	r3, #0
  33 0010 DFF80CA2 		ldr	r10, .L43+32
  34 0014 DFF80CB2 		ldr	fp, .L43+36
  35 0018 B146     		mov	r9, r6
  36 001a 20E0     		b	.L2
  37              	.L35:
  38 001c DA08     		lsrs	r2, r3, #3
  39 001e 03F0070C 		and	ip, r3, #7
  40 0022 04F00304 		and	r4, r4, #3
  41 0026 4FF00F0E 		mov	lr, #15
  42 002a 00EB8202 		add	r2, r0, r2, lsl #2
  43 002e 0E69     		ldr	r6, [r1, #16]
  44 0030 4FEA8C0C 		lsl	ip, ip, #2
  45 0034 04FA07F7 		lsl	r7, r4, r7
  46 0038 146A     		ldr	r4, [r2, #32]
  47 003a 0EFA0CFE 		lsl	lr, lr, ip
  48 003e 06FA0CF6 		lsl	r6, r6, ip
  49 0042 24EA0E0C 		bic	ip, r4, lr
  50 0046 46EA0C06 		orr	r6, r6, ip
  51 004a 1662     		str	r6, [r2, #32]
  52 004c 0268     		ldr	r2, [r0]
  53 004e 1540     		ands	r5, r5, r2
  54 0050 3D43     		orrs	r5, r5, r7
  55 0052 0560     		str	r5, [r0]
  56              	.L4:
  57 0054 0133     		adds	r3, r3, #1
  58 0056 39FA03F2 		lsrs	r2, r9, r3
ARM GAS  C:\Users\Brandon\AppData\Local\Temp\ccUB7k0p.s 			page 2


  59 005a 00F0A880 		beq	.L1
  60              	.L2:
  61 005e 0122     		movs	r2, #1
  62 0060 9A40     		lsls	r2, r2, r3
  63 0062 12EA0908 		ands	r8, r2, r9
  64 0066 F5D0     		beq	.L4
  65 0068 4C68     		ldr	r4, [r1, #4]
  66 006a 5F00     		lsls	r7, r3, #1
  67 006c 24F0100C 		bic	ip, r4, #16
  68 0070 0CF1FF35 		add	r5, ip, #-1
  69 0074 012D     		cmp	r5, #1
  70 0076 4FF00305 		mov	r5, #3
  71 007a 00F29B80 		bhi	.L34
  72 007e C4F30016 		ubfx	r6, r4, #4, #1
  73 0082 D0F808E0 		ldr	lr, [r0, #8]
  74 0086 BD40     		lsls	r5, r5, r7
  75 0088 9E40     		lsls	r6, r6, r3
  76 008a 2EEA050E 		bic	lr, lr, r5
  77 008e ED43     		mvns	r5, r5
  78 0090 0196     		str	r6, [sp, #4]
  79 0092 CE68     		ldr	r6, [r1, #12]
  80 0094 BE40     		lsls	r6, r6, r7
  81 0096 46EA0E0E 		orr	lr, r6, lr
  82 009a 019E     		ldr	r6, [sp, #4]
  83 009c C0F808E0 		str	lr, [r0, #8]
  84 00a0 D0F804E0 		ldr	lr, [r0, #4]
  85 00a4 2EEA0202 		bic	r2, lr, r2
  86 00a8 1643     		orrs	r6, r6, r2
  87 00aa 4660     		str	r6, [r0, #4]
  88              	.L6:
  89 00ac C668     		ldr	r6, [r0, #12]
  90 00ae BCF1020F 		cmp	ip, #2
  91 00b2 8A68     		ldr	r2, [r1, #8]
  92 00b4 06EA0506 		and	r6, r6, r5
  93 00b8 02FA07F2 		lsl	r2, r2, r7
  94 00bc 42EA0602 		orr	r2, r2, r6
  95 00c0 C260     		str	r2, [r0, #12]
  96 00c2 ABD0     		beq	.L35
  97 00c4 0668     		ldr	r6, [r0]
  98 00c6 04F00302 		and	r2, r4, #3
  99 00ca 2E40     		ands	r6, r6, r5
 100 00cc 02FA07F7 		lsl	r7, r2, r7
 101 00d0 3E43     		orrs	r6, r6, r7
 102 00d2 0660     		str	r6, [r0]
 103 00d4 E600     		lsls	r6, r4, #3
 104 00d6 BDD5     		bpl	.L4
 105 00d8 DAF8F460 		ldr	r6, [r10, #244]
 106 00dc 23F00307 		bic	r7, r3, #3
 107 00e0 03F00302 		and	r2, r3, #3
 108 00e4 0F25     		movs	r5, #15
 109 00e6 46F00206 		orr	r6, r6, #2
 110 00ea 07F1B047 		add	r7, r7, #1476395008
 111 00ee 9200     		lsls	r2, r2, #2
 112 00f0 CAF8F460 		str	r6, [r10, #244]
 113 00f4 07F58067 		add	r7, r7, #1024
 114 00f8 DAF8F460 		ldr	r6, [r10, #244]
 115 00fc 05FA02FC 		lsl	ip, r5, r2
ARM GAS  C:\Users\Brandon\AppData\Local\Temp\ccUB7k0p.s 			page 3


 116 0100 06F00206 		and	r6, r6, #2
 117 0104 0396     		str	r6, [sp, #12]
 118 0106 3E4E     		ldr	r6, .L43
 119 0108 039D     		ldr	r5, [sp, #12]
 120 010a B042     		cmp	r0, r6
 121 010c BD68     		ldr	r5, [r7, #8]
 122 010e 25EA0C05 		bic	r5, r5, ip
 123 0112 1DD0     		beq	.L9
 124 0114 06F58066 		add	r6, r6, #1024
 125 0118 B042     		cmp	r0, r6
 126 011a 53D0     		beq	.L36
 127 011c 394E     		ldr	r6, .L43+4
 128 011e B042     		cmp	r0, r6
 129 0120 55D0     		beq	.L37
 130 0122 394E     		ldr	r6, .L43+8
 131 0124 B042     		cmp	r0, r6
 132 0126 48D0     		beq	.L38
 133 0128 384E     		ldr	r6, .L43+12
 134 012a B042     		cmp	r0, r6
 135 012c 59D0     		beq	.L39
 136 012e 384E     		ldr	r6, .L43+16
 137 0130 B042     		cmp	r0, r6
 138 0132 5BD0     		beq	.L40
 139 0134 374E     		ldr	r6, .L43+20
 140 0136 B042     		cmp	r0, r6
 141 0138 4ED0     		beq	.L41
 142 013a 374E     		ldr	r6, .L43+24
 143 013c B042     		cmp	r0, r6
 144 013e 5AD0     		beq	.L42
 145 0140 364E     		ldr	r6, .L43+28
 146 0142 B042     		cmp	r0, r6
 147 0144 0CBF     		ite	eq
 148 0146 0926     		moveq	r6, #9
 149 0148 0A26     		movne	r6, #10
 150 014a 06FA02F2 		lsl	r2, r6, r2
 151 014e 1543     		orrs	r5, r5, r2
 152              	.L9:
 153 0150 BD60     		str	r5, [r7, #8]
 154 0152 6FEA0806 		mvn	r6, r8
 155 0156 DBF80020 		ldr	r2, [fp]
 156 015a E503     		lsls	r5, r4, #15
 157 015c 03F10103 		add	r3, r3, #1
 158 0160 54BF     		ite	pl
 159 0162 3240     		andpl	r2, r2, r6
 160 0164 48EA0202 		orrmi	r2, r8, r2
 161 0168 CBF80020 		str	r2, [fp]
 162 016c A203     		lsls	r2, r4, #14
 163 016e DBF80450 		ldr	r5, [fp, #4]
 164 0172 4FF0B042 		mov	r2, #1476395008
 165 0176 54BF     		ite	pl
 166 0178 3540     		andpl	r5, r5, r6
 167 017a 48EA0505 		orrmi	r5, r8, r5
 168 017e E702     		lsls	r7, r4, #11
 169 0180 CBF80450 		str	r5, [fp, #4]
 170 0184 1568     		ldr	r5, [r2]
 171 0186 4FF0B042 		mov	r2, #1476395008
 172 018a 54BF     		ite	pl
ARM GAS  C:\Users\Brandon\AppData\Local\Temp\ccUB7k0p.s 			page 4


 173 018c 3540     		andpl	r5, r5, r6
 174 018e 48EA0505 		orrmi	r5, r8, r5
 175 0192 A402     		lsls	r4, r4, #10
 176 0194 4FF0B044 		mov	r4, #1476395008
 177 0198 1560     		str	r5, [r2]
 178 019a 5268     		ldr	r2, [r2, #4]
 179 019c 54BF     		ite	pl
 180 019e 3240     		andpl	r2, r2, r6
 181 01a0 48EA0202 		orrmi	r2, r8, r2
 182 01a4 6260     		str	r2, [r4, #4]
 183 01a6 39FA03F2 		lsrs	r2, r9, r3
 184 01aa 7FF458AF 		bne	.L2
 185              	.L1:
 186 01ae 05B0     		add	sp, sp, #20
 187              		@ sp needed
 188 01b0 BDE8F08F 		pop	{r4, r5, r6, r7, r8, r9, r10, fp, pc}
 189              	.L34:
 190 01b4 BD40     		lsls	r5, r5, r7
 191 01b6 ED43     		mvns	r5, r5
 192 01b8 78E7     		b	.L6
 193              	.L38:
 194 01ba 0326     		movs	r6, #3
 195 01bc 06FA02F2 		lsl	r2, r6, r2
 196 01c0 1543     		orrs	r5, r5, r2
 197 01c2 C5E7     		b	.L9
 198              	.L36:
 199 01c4 0126     		movs	r6, #1
 200 01c6 06FA02F2 		lsl	r2, r6, r2
 201 01ca 1543     		orrs	r5, r5, r2
 202 01cc C0E7     		b	.L9
 203              	.L37:
 204 01ce 0226     		movs	r6, #2
 205 01d0 06FA02F2 		lsl	r2, r6, r2
 206 01d4 1543     		orrs	r5, r5, r2
 207 01d6 BBE7     		b	.L9
 208              	.L41:
 209 01d8 0626     		movs	r6, #6
 210 01da 06FA02F2 		lsl	r2, r6, r2
 211 01de 1543     		orrs	r5, r5, r2
 212 01e0 B6E7     		b	.L9
 213              	.L39:
 214 01e2 0426     		movs	r6, #4
 215 01e4 06FA02F2 		lsl	r2, r6, r2
 216 01e8 1543     		orrs	r5, r5, r2
 217 01ea B1E7     		b	.L9
 218              	.L40:
 219 01ec 0526     		movs	r6, #5
 220 01ee 06FA02F2 		lsl	r2, r6, r2
 221 01f2 1543     		orrs	r5, r5, r2
 222 01f4 ACE7     		b	.L9
 223              	.L42:
 224 01f6 0726     		movs	r6, #7
 225 01f8 06FA02F2 		lsl	r2, r6, r2
 226 01fc 1543     		orrs	r5, r5, r2
 227 01fe A7E7     		b	.L9
 228              	.L44:
 229              		.align	2
ARM GAS  C:\Users\Brandon\AppData\Local\Temp\ccUB7k0p.s 			page 5


 230              	.L43:
 231 0200 00000258 		.word	1476526080
 232 0204 00080258 		.word	1476528128
 233 0208 000C0258 		.word	1476529152
 234 020c 00100258 		.word	1476530176
 235 0210 00140258 		.word	1476531200
 236 0214 00180258 		.word	1476532224
 237 0218 001C0258 		.word	1476533248
 238 021c 00240258 		.word	1476535296
 239 0220 00440258 		.word	1476543488
 240 0224 80000058 		.word	1476395136
 242              		.section	.text.HAL_GPIO_DeInit,"ax",%progbits
 243              		.align	1
 244              		.p2align 2,,3
 245              		.global	HAL_GPIO_DeInit
 246              		.syntax unified
 247              		.thumb
 248              		.thumb_func
 249              		.fpu fpv5-d16
 251              	HAL_GPIO_DeInit:
 252              		@ args = 0, pretend = 0, frame = 8
 253              		@ frame_needed = 0, uses_anonymous_args = 0
 254 0000 0029     		cmp	r1, #0
 255 0002 00F0A380 		beq	.L66
 256 0006 0023     		movs	r3, #0
 257 0008 2DE9F04F 		push	{r4, r5, r6, r7, r8, r9, r10, fp, lr}
 258 000c DFF85CA1 		ldr	r10, .L76+20
 259 0010 83B0     		sub	sp, sp, #12
 260 0012 DFF85C91 		ldr	r9, .L76+24
 261 0016 DFF85C81 		ldr	r8, .L76+28
 262 001a DFF85CB1 		ldr	fp, .L76+32
 263              	.L46:
 264 001e 4FF0010E 		mov	lr, #1
 265 0022 0EFA03F4 		lsl	r4, lr, r3
 266 0026 14EA010C 		ands	ip, r4, r1
 267 002a 6FD0     		beq	.L47
 268 002c 23F00305 		bic	r5, r3, #3
 269 0030 03F00302 		and	r2, r3, #3
 270 0034 0F26     		movs	r6, #15
 271 0036 4845     		cmp	r0, r9
 272 0038 5544     		add	r5, r5, r10
 273 003a 4FEA8202 		lsl	r2, r2, #2
 274 003e AF68     		ldr	r7, [r5, #8]
 275 0040 06FA02F6 		lsl	r6, r6, r2
 276 0044 07EA0607 		and	r7, r7, r6
 277 0048 0197     		str	r7, [sp, #4]
 278 004a 1FD0     		beq	.L60
 279 004c 5845     		cmp	r0, fp
 280 004e 66D0     		beq	.L69
 281 0050 414F     		ldr	r7, .L76
 282 0052 B842     		cmp	r0, r7
 283 0054 66D0     		beq	.L70
 284 0056 414F     		ldr	r7, .L76+4
 285 0058 B842     		cmp	r0, r7
 286 005a 68D0     		beq	.L71
 287 005c 404F     		ldr	r7, .L76+8
 288 005e B842     		cmp	r0, r7
ARM GAS  C:\Users\Brandon\AppData\Local\Temp\ccUB7k0p.s 			page 6


 289 0060 6AD0     		beq	.L72
 290 0062 404F     		ldr	r7, .L76+12
 291 0064 B842     		cmp	r0, r7
 292 0066 58D0     		beq	.L73
 293 0068 3F4F     		ldr	r7, .L76+16
 294 006a B842     		cmp	r0, r7
 295 006c 69D0     		beq	.L74
 296 006e DFF80CE1 		ldr	lr, .L76+36
 297 0072 7045     		cmp	r0, lr
 298 0074 6BD0     		beq	.L75
 299 0076 DFF808E1 		ldr	lr, .L76+40
 300 007a 7045     		cmp	r0, lr
 301 007c 14BF     		ite	ne
 302 007e 4FF00A0E 		movne	lr, #10
 303 0082 4FF0090E 		moveq	lr, #9
 304 0086 0EFA02F2 		lsl	r2, lr, r2
 305 008a 00E0     		b	.L48
 306              	.L60:
 307 008c 0022     		movs	r2, #0
 308              	.L48:
 309 008e 019F     		ldr	r7, [sp, #4]
 310 0090 9742     		cmp	r7, r2
 311 0092 19D1     		bne	.L57
 312 0094 D8F80070 		ldr	r7, [r8]
 313 0098 4FF0B042 		mov	r2, #1476395008
 314 009c 27EA0C07 		bic	r7, r7, ip
 315 00a0 C8F80070 		str	r7, [r8]
 316 00a4 D8F80470 		ldr	r7, [r8, #4]
 317 00a8 27EA0C07 		bic	r7, r7, ip
 318 00ac C8F80470 		str	r7, [r8, #4]
 319 00b0 1768     		ldr	r7, [r2]
 320 00b2 27EA0C07 		bic	r7, r7, ip
 321 00b6 1760     		str	r7, [r2]
 322 00b8 5768     		ldr	r7, [r2, #4]
 323 00ba 27EA0C07 		bic	r7, r7, ip
 324 00be 5760     		str	r7, [r2, #4]
 325 00c0 AA68     		ldr	r2, [r5, #8]
 326 00c2 22EA0606 		bic	r6, r2, r6
 327 00c6 AE60     		str	r6, [r5, #8]
 328              	.L57:
 329 00c8 5A00     		lsls	r2, r3, #1
 330 00ca 0326     		movs	r6, #3
 331 00cc D0F800C0 		ldr	ip, [r0]
 332 00d0 0F27     		movs	r7, #15
 333 00d2 23FA06F5 		lsr	r5, r3, r6
 334 00d6 9640     		lsls	r6, r6, r2
 335 00d8 03F00702 		and	r2, r3, #7
 336 00dc 00EB8505 		add	r5, r0, r5, lsl #2
 337 00e0 4CEA060C 		orr	ip, ip, r6
 338 00e4 9200     		lsls	r2, r2, #2
 339 00e6 C0F800C0 		str	ip, [r0]
 340 00ea 9740     		lsls	r7, r7, r2
 341 00ec 2A6A     		ldr	r2, [r5, #32]
 342 00ee 22EA0702 		bic	r2, r2, r7
 343 00f2 2A62     		str	r2, [r5, #32]
 344 00f4 C268     		ldr	r2, [r0, #12]
 345 00f6 22EA0602 		bic	r2, r2, r6
ARM GAS  C:\Users\Brandon\AppData\Local\Temp\ccUB7k0p.s 			page 7


 346 00fa C260     		str	r2, [r0, #12]
 347 00fc 4268     		ldr	r2, [r0, #4]
 348 00fe 22EA0404 		bic	r4, r2, r4
 349 0102 4460     		str	r4, [r0, #4]
 350 0104 8268     		ldr	r2, [r0, #8]
 351 0106 22EA0606 		bic	r6, r2, r6
 352 010a 8660     		str	r6, [r0, #8]
 353              	.L47:
 354 010c 0133     		adds	r3, r3, #1
 355 010e 31FA03F2 		lsrs	r2, r1, r3
 356 0112 84D1     		bne	.L46
 357 0114 03B0     		add	sp, sp, #12
 358              		@ sp needed
 359 0116 BDE8F08F 		pop	{r4, r5, r6, r7, r8, r9, r10, fp, pc}
 360              	.L73:
 361 011a 4FF0050E 		mov	lr, #5
 362              	.L69:
 363 011e 0EFA02F2 		lsl	r2, lr, r2
 364 0122 B4E7     		b	.L48
 365              	.L70:
 366 0124 4FF0020E 		mov	lr, #2
 367 0128 0EFA02F2 		lsl	r2, lr, r2
 368 012c AFE7     		b	.L48
 369              	.L71:
 370 012e 4FF0030E 		mov	lr, #3
 371 0132 0EFA02F2 		lsl	r2, lr, r2
 372 0136 AAE7     		b	.L48
 373              	.L72:
 374 0138 4FF0040E 		mov	lr, #4
 375 013c 0EFA02F2 		lsl	r2, lr, r2
 376 0140 A5E7     		b	.L48
 377              	.L74:
 378 0142 4FF0060E 		mov	lr, #6
 379 0146 0EFA02F2 		lsl	r2, lr, r2
 380 014a A0E7     		b	.L48
 381              	.L66:
 382 014c 7047     		bx	lr
 383              	.L75:
 384 014e 4FF0070E 		mov	lr, #7
 385 0152 0EFA02F2 		lsl	r2, lr, r2
 386 0156 9AE7     		b	.L48
 387              	.L77:
 388              		.align	2
 389              	.L76:
 390 0158 00080258 		.word	1476528128
 391 015c 000C0258 		.word	1476529152
 392 0160 00100258 		.word	1476530176
 393 0164 00140258 		.word	1476531200
 394 0168 00180258 		.word	1476532224
 395 016c 00040058 		.word	1476396032
 396 0170 00000258 		.word	1476526080
 397 0174 80000058 		.word	1476395136
 398 0178 00040258 		.word	1476527104
 399 017c 001C0258 		.word	1476533248
 400 0180 00240258 		.word	1476535296
 402              		.section	.text.HAL_GPIO_ReadPin,"ax",%progbits
 403              		.align	1
ARM GAS  C:\Users\Brandon\AppData\Local\Temp\ccUB7k0p.s 			page 8


 404              		.p2align 2,,3
 405              		.global	HAL_GPIO_ReadPin
 406              		.syntax unified
 407              		.thumb
 408              		.thumb_func
 409              		.fpu fpv5-d16
 411              	HAL_GPIO_ReadPin:
 412              		@ args = 0, pretend = 0, frame = 0
 413              		@ frame_needed = 0, uses_anonymous_args = 0
 414              		@ link register save eliminated.
 415 0000 0369     		ldr	r3, [r0, #16]
 416 0002 1942     		tst	r1, r3
 417 0004 14BF     		ite	ne
 418 0006 0120     		movne	r0, #1
 419 0008 0020     		moveq	r0, #0
 420 000a 7047     		bx	lr
 422              		.section	.text.HAL_GPIO_WritePin,"ax",%progbits
 423              		.align	1
 424              		.p2align 2,,3
 425              		.global	HAL_GPIO_WritePin
 426              		.syntax unified
 427              		.thumb
 428              		.thumb_func
 429              		.fpu fpv5-d16
 431              	HAL_GPIO_WritePin:
 432              		@ args = 0, pretend = 0, frame = 0
 433              		@ frame_needed = 0, uses_anonymous_args = 0
 434              		@ link register save eliminated.
 435 0000 02B9     		cbnz	r2, .L82
 436 0002 0904     		lsls	r1, r1, #16
 437              	.L82:
 438 0004 8161     		str	r1, [r0, #24]
 439 0006 7047     		bx	lr
 441              		.section	.text.HAL_GPIO_TogglePin,"ax",%progbits
 442              		.align	1
 443              		.p2align 2,,3
 444              		.global	HAL_GPIO_TogglePin
 445              		.syntax unified
 446              		.thumb
 447              		.thumb_func
 448              		.fpu fpv5-d16
 450              	HAL_GPIO_TogglePin:
 451              		@ args = 0, pretend = 0, frame = 0
 452              		@ frame_needed = 0, uses_anonymous_args = 0
 453              		@ link register save eliminated.
 454 0000 4369     		ldr	r3, [r0, #20]
 455 0002 31EA0303 		bics	r3, r1, r3
 456 0006 08BF     		it	eq
 457 0008 0904     		lsleq	r1, r1, #16
 458 000a 8161     		str	r1, [r0, #24]
 459 000c 7047     		bx	lr
 461 000e 00BF     		.section	.text.HAL_GPIO_LockPin,"ax",%progbits
 462              		.align	1
 463              		.p2align 2,,3
 464              		.global	HAL_GPIO_LockPin
 465              		.syntax unified
 466              		.thumb
ARM GAS  C:\Users\Brandon\AppData\Local\Temp\ccUB7k0p.s 			page 9


 467              		.thumb_func
 468              		.fpu fpv5-d16
 470              	HAL_GPIO_LockPin:
 471              		@ args = 0, pretend = 0, frame = 8
 472              		@ frame_needed = 0, uses_anonymous_args = 0
 473              		@ link register save eliminated.
 474 0000 82B0     		sub	sp, sp, #8
 475 0002 4FF48033 		mov	r3, #65536
 476 0006 0193     		str	r3, [sp, #4]
 477 0008 019B     		ldr	r3, [sp, #4]
 478 000a 0B43     		orrs	r3, r3, r1
 479 000c 0193     		str	r3, [sp, #4]
 480 000e 019B     		ldr	r3, [sp, #4]
 481 0010 C361     		str	r3, [r0, #28]
 482 0012 C161     		str	r1, [r0, #28]
 483 0014 019B     		ldr	r3, [sp, #4]
 484 0016 C361     		str	r3, [r0, #28]
 485 0018 C369     		ldr	r3, [r0, #28]
 486 001a 0193     		str	r3, [sp, #4]
 487 001c C069     		ldr	r0, [r0, #28]
 488 001e 80F48030 		eor	r0, r0, #65536
 489 0022 C0F30040 		ubfx	r0, r0, #16, #1
 490 0026 02B0     		add	sp, sp, #8
 491              		@ sp needed
 492 0028 7047     		bx	lr
 494 002a 00BF     		.section	.text.HAL_GPIO_EXTI_Callback,"ax",%progbits
 495              		.align	1
 496              		.p2align 2,,3
 497              		.weak	HAL_GPIO_EXTI_Callback
 498              		.syntax unified
 499              		.thumb
 500              		.thumb_func
 501              		.fpu fpv5-d16
 503              	HAL_GPIO_EXTI_Callback:
 504              		@ args = 0, pretend = 0, frame = 0
 505              		@ frame_needed = 0, uses_anonymous_args = 0
 506              		@ link register save eliminated.
 507 0000 7047     		bx	lr
 509 0002 00BF     		.section	.text.HAL_GPIO_EXTI_IRQHandler,"ax",%progbits
 510              		.align	1
 511              		.p2align 2,,3
 512              		.global	HAL_GPIO_EXTI_IRQHandler
 513              		.syntax unified
 514              		.thumb
 515              		.thumb_func
 516              		.fpu fpv5-d16
 518              	HAL_GPIO_EXTI_IRQHandler:
 519              		@ args = 0, pretend = 0, frame = 0
 520              		@ frame_needed = 0, uses_anonymous_args = 0
 521 0000 4FF0B042 		mov	r2, #1476395008
 522 0004 D2F88810 		ldr	r1, [r2, #136]
 523 0008 0142     		tst	r1, r0
 524 000a 00D1     		bne	.L98
 525 000c 7047     		bx	lr
 526              	.L98:
 527 000e 08B5     		push	{r3, lr}
 528 0010 C2F88800 		str	r0, [r2, #136]
ARM GAS  C:\Users\Brandon\AppData\Local\Temp\ccUB7k0p.s 			page 10


 529 0014 FFF7FEFF 		bl	HAL_GPIO_EXTI_Callback
 530 0018 08BD     		pop	{r3, pc}
 532 001a 00BF     		.ident	"GCC: (GNU Arm Embedded Toolchain 9-2020-q2-update) 9.3.1 20200408 (release)"
ARM GAS  C:\Users\Brandon\AppData\Local\Temp\ccUB7k0p.s 			page 11

