ARM GAS  C:\Users\Brandon\AppData\Local\Temp\ccg7xZpb.s 			page 1


   1              		.cpu cortex-m7
   2              		.eabi_attribute 28, 1
   3              		.eabi_attribute 20, 1
   4              		.eabi_attribute 21, 1
   5              		.eabi_attribute 23, 3
   6              		.eabi_attribute 24, 1
   7              		.eabi_attribute 25, 1
   8              		.eabi_attribute 26, 1
   9              		.eabi_attribute 30, 1
  10              		.eabi_attribute 34, 1
  11              		.eabi_attribute 18, 4
  12              		.file	"stm32h7xx_hal.c"
  13              		.text
  14              	.Ltext0:
  15              		.cfi_sections	.debug_frame
  16              		.section	.text.HAL_MspInit,"ax",%progbits
  17              		.align	1
  18              		.weak	HAL_MspInit
  19              		.arch armv7e-m
  20              		.syntax unified
  21              		.thumb
  22              		.thumb_func
  23              		.fpu fpv5-d16
  25              	HAL_MspInit:
  26              	.LFB143:
  27              		.file 1 "Drivers/STM32H7xx_HAL_Driver/Src/stm32h7xx_hal.c"
   1:Drivers/STM32H7xx_HAL_Driver/Src/stm32h7xx_hal.c **** /**
   2:Drivers/STM32H7xx_HAL_Driver/Src/stm32h7xx_hal.c ****   ******************************************************************************
   3:Drivers/STM32H7xx_HAL_Driver/Src/stm32h7xx_hal.c ****   * @file    stm32h7xx_hal.c
   4:Drivers/STM32H7xx_HAL_Driver/Src/stm32h7xx_hal.c ****   * @author  MCD Application Team
   5:Drivers/STM32H7xx_HAL_Driver/Src/stm32h7xx_hal.c ****   * @brief   HAL module driver.
   6:Drivers/STM32H7xx_HAL_Driver/Src/stm32h7xx_hal.c ****   *          This is the common part of the HAL initialization
   7:Drivers/STM32H7xx_HAL_Driver/Src/stm32h7xx_hal.c ****   *
   8:Drivers/STM32H7xx_HAL_Driver/Src/stm32h7xx_hal.c ****   @verbatim
   9:Drivers/STM32H7xx_HAL_Driver/Src/stm32h7xx_hal.c ****   ==============================================================================
  10:Drivers/STM32H7xx_HAL_Driver/Src/stm32h7xx_hal.c ****                      ##### How to use this driver #####
  11:Drivers/STM32H7xx_HAL_Driver/Src/stm32h7xx_hal.c ****   ==============================================================================
  12:Drivers/STM32H7xx_HAL_Driver/Src/stm32h7xx_hal.c ****     [..]
  13:Drivers/STM32H7xx_HAL_Driver/Src/stm32h7xx_hal.c ****     The common HAL driver contains a set of generic and common APIs that can be
  14:Drivers/STM32H7xx_HAL_Driver/Src/stm32h7xx_hal.c ****     used by the PPP peripheral drivers and the user to start using the HAL.
  15:Drivers/STM32H7xx_HAL_Driver/Src/stm32h7xx_hal.c ****     [..]
  16:Drivers/STM32H7xx_HAL_Driver/Src/stm32h7xx_hal.c ****     The HAL contains two APIs' categories:
  17:Drivers/STM32H7xx_HAL_Driver/Src/stm32h7xx_hal.c ****          (+) Common HAL APIs
  18:Drivers/STM32H7xx_HAL_Driver/Src/stm32h7xx_hal.c ****          (+) Services HAL APIs
  19:Drivers/STM32H7xx_HAL_Driver/Src/stm32h7xx_hal.c **** 
  20:Drivers/STM32H7xx_HAL_Driver/Src/stm32h7xx_hal.c ****   @endverbatim
  21:Drivers/STM32H7xx_HAL_Driver/Src/stm32h7xx_hal.c ****   ******************************************************************************
  22:Drivers/STM32H7xx_HAL_Driver/Src/stm32h7xx_hal.c ****   * @attention
  23:Drivers/STM32H7xx_HAL_Driver/Src/stm32h7xx_hal.c ****   *
  24:Drivers/STM32H7xx_HAL_Driver/Src/stm32h7xx_hal.c ****   * <h2><center>&copy; Copyright (c) 2017 STMicroelectronics.
  25:Drivers/STM32H7xx_HAL_Driver/Src/stm32h7xx_hal.c ****   * All rights reserved.</center></h2>
  26:Drivers/STM32H7xx_HAL_Driver/Src/stm32h7xx_hal.c ****   *
  27:Drivers/STM32H7xx_HAL_Driver/Src/stm32h7xx_hal.c ****   * This software component is licensed by ST under BSD 3-Clause license,
  28:Drivers/STM32H7xx_HAL_Driver/Src/stm32h7xx_hal.c ****   * the "License"; You may not use this file except in compliance with the
  29:Drivers/STM32H7xx_HAL_Driver/Src/stm32h7xx_hal.c ****   * License. You may obtain a copy of the License at:
  30:Drivers/STM32H7xx_HAL_Driver/Src/stm32h7xx_hal.c ****   *                        opensource.org/licenses/BSD-3-Clause
  31:Drivers/STM32H7xx_HAL_Driver/Src/stm32h7xx_hal.c ****   *
ARM GAS  C:\Users\Brandon\AppData\Local\Temp\ccg7xZpb.s 			page 2


  32:Drivers/STM32H7xx_HAL_Driver/Src/stm32h7xx_hal.c ****   ******************************************************************************
  33:Drivers/STM32H7xx_HAL_Driver/Src/stm32h7xx_hal.c ****   */
  34:Drivers/STM32H7xx_HAL_Driver/Src/stm32h7xx_hal.c **** 
  35:Drivers/STM32H7xx_HAL_Driver/Src/stm32h7xx_hal.c **** /* Includes ------------------------------------------------------------------*/
  36:Drivers/STM32H7xx_HAL_Driver/Src/stm32h7xx_hal.c **** #include "stm32h7xx_hal.h"
  37:Drivers/STM32H7xx_HAL_Driver/Src/stm32h7xx_hal.c **** 
  38:Drivers/STM32H7xx_HAL_Driver/Src/stm32h7xx_hal.c **** /** @addtogroup STM32H7xx_HAL_Driver
  39:Drivers/STM32H7xx_HAL_Driver/Src/stm32h7xx_hal.c ****   * @{
  40:Drivers/STM32H7xx_HAL_Driver/Src/stm32h7xx_hal.c ****   */
  41:Drivers/STM32H7xx_HAL_Driver/Src/stm32h7xx_hal.c **** 
  42:Drivers/STM32H7xx_HAL_Driver/Src/stm32h7xx_hal.c **** /** @defgroup HAL  HAL
  43:Drivers/STM32H7xx_HAL_Driver/Src/stm32h7xx_hal.c ****   * @brief HAL module driver.
  44:Drivers/STM32H7xx_HAL_Driver/Src/stm32h7xx_hal.c ****   * @{
  45:Drivers/STM32H7xx_HAL_Driver/Src/stm32h7xx_hal.c ****   */
  46:Drivers/STM32H7xx_HAL_Driver/Src/stm32h7xx_hal.c **** 
  47:Drivers/STM32H7xx_HAL_Driver/Src/stm32h7xx_hal.c **** /* Private typedef -----------------------------------------------------------*/
  48:Drivers/STM32H7xx_HAL_Driver/Src/stm32h7xx_hal.c **** /* Private define ------------------------------------------------------------*/
  49:Drivers/STM32H7xx_HAL_Driver/Src/stm32h7xx_hal.c **** /**
  50:Drivers/STM32H7xx_HAL_Driver/Src/stm32h7xx_hal.c ****  * @brief STM32H7xx HAL Driver version number V1.9.0
  51:Drivers/STM32H7xx_HAL_Driver/Src/stm32h7xx_hal.c ****    */
  52:Drivers/STM32H7xx_HAL_Driver/Src/stm32h7xx_hal.c **** #define __STM32H7xx_HAL_VERSION_MAIN   (0x01UL) /*!< [31:24] main version */
  53:Drivers/STM32H7xx_HAL_Driver/Src/stm32h7xx_hal.c **** #define __STM32H7xx_HAL_VERSION_SUB1   (0x09UL) /*!< [23:16] sub1 version */
  54:Drivers/STM32H7xx_HAL_Driver/Src/stm32h7xx_hal.c **** #define __STM32H7xx_HAL_VERSION_SUB2   (0x00UL) /*!< [15:8]  sub2 version */
  55:Drivers/STM32H7xx_HAL_Driver/Src/stm32h7xx_hal.c **** #define __STM32H7xx_HAL_VERSION_RC     (0x00UL) /*!< [7:0]  release candidate */
  56:Drivers/STM32H7xx_HAL_Driver/Src/stm32h7xx_hal.c **** #define __STM32H7xx_HAL_VERSION         ((__STM32H7xx_HAL_VERSION_MAIN << 24)\
  57:Drivers/STM32H7xx_HAL_Driver/Src/stm32h7xx_hal.c ****                                         |(__STM32H7xx_HAL_VERSION_SUB1 << 16)\
  58:Drivers/STM32H7xx_HAL_Driver/Src/stm32h7xx_hal.c ****                                         |(__STM32H7xx_HAL_VERSION_SUB2 << 8 )\
  59:Drivers/STM32H7xx_HAL_Driver/Src/stm32h7xx_hal.c ****                                         |(__STM32H7xx_HAL_VERSION_RC))
  60:Drivers/STM32H7xx_HAL_Driver/Src/stm32h7xx_hal.c **** 
  61:Drivers/STM32H7xx_HAL_Driver/Src/stm32h7xx_hal.c **** #define IDCODE_DEVID_MASK    ((uint32_t)0x00000FFF)
  62:Drivers/STM32H7xx_HAL_Driver/Src/stm32h7xx_hal.c **** #define VREFBUF_TIMEOUT_VALUE     (uint32_t)10   /* 10 ms  */
  63:Drivers/STM32H7xx_HAL_Driver/Src/stm32h7xx_hal.c **** 
  64:Drivers/STM32H7xx_HAL_Driver/Src/stm32h7xx_hal.c **** /* Private macro -------------------------------------------------------------*/
  65:Drivers/STM32H7xx_HAL_Driver/Src/stm32h7xx_hal.c **** /* Private variables ---------------------------------------------------------*/
  66:Drivers/STM32H7xx_HAL_Driver/Src/stm32h7xx_hal.c **** /* Exported variables --------------------------------------------------------*/
  67:Drivers/STM32H7xx_HAL_Driver/Src/stm32h7xx_hal.c **** 
  68:Drivers/STM32H7xx_HAL_Driver/Src/stm32h7xx_hal.c **** /** @defgroup HAL_Exported_Variables HAL Exported Variables
  69:Drivers/STM32H7xx_HAL_Driver/Src/stm32h7xx_hal.c ****   * @{
  70:Drivers/STM32H7xx_HAL_Driver/Src/stm32h7xx_hal.c ****   */
  71:Drivers/STM32H7xx_HAL_Driver/Src/stm32h7xx_hal.c **** __IO uint32_t uwTick;
  72:Drivers/STM32H7xx_HAL_Driver/Src/stm32h7xx_hal.c **** uint32_t uwTickPrio   = (1UL << __NVIC_PRIO_BITS); /* Invalid PRIO */
  73:Drivers/STM32H7xx_HAL_Driver/Src/stm32h7xx_hal.c **** HAL_TickFreqTypeDef uwTickFreq = HAL_TICK_FREQ_DEFAULT;  /* 1KHz */
  74:Drivers/STM32H7xx_HAL_Driver/Src/stm32h7xx_hal.c **** /**
  75:Drivers/STM32H7xx_HAL_Driver/Src/stm32h7xx_hal.c ****   * @}
  76:Drivers/STM32H7xx_HAL_Driver/Src/stm32h7xx_hal.c ****   */
  77:Drivers/STM32H7xx_HAL_Driver/Src/stm32h7xx_hal.c **** 
  78:Drivers/STM32H7xx_HAL_Driver/Src/stm32h7xx_hal.c **** /* Private function prototypes -----------------------------------------------*/
  79:Drivers/STM32H7xx_HAL_Driver/Src/stm32h7xx_hal.c **** /* Private functions ---------------------------------------------------------*/
  80:Drivers/STM32H7xx_HAL_Driver/Src/stm32h7xx_hal.c **** 
  81:Drivers/STM32H7xx_HAL_Driver/Src/stm32h7xx_hal.c **** /** @defgroup HAL_Private_Functions  HAL Private Functions
  82:Drivers/STM32H7xx_HAL_Driver/Src/stm32h7xx_hal.c ****   * @{
  83:Drivers/STM32H7xx_HAL_Driver/Src/stm32h7xx_hal.c ****   */
  84:Drivers/STM32H7xx_HAL_Driver/Src/stm32h7xx_hal.c **** 
  85:Drivers/STM32H7xx_HAL_Driver/Src/stm32h7xx_hal.c **** /** @defgroup HAL_Group1 Initialization and de-initialization Functions
  86:Drivers/STM32H7xx_HAL_Driver/Src/stm32h7xx_hal.c ****  *  @brief    Initialization and de-initialization functions
  87:Drivers/STM32H7xx_HAL_Driver/Src/stm32h7xx_hal.c ****  *
  88:Drivers/STM32H7xx_HAL_Driver/Src/stm32h7xx_hal.c **** @verbatim
ARM GAS  C:\Users\Brandon\AppData\Local\Temp\ccg7xZpb.s 			page 3


  89:Drivers/STM32H7xx_HAL_Driver/Src/stm32h7xx_hal.c ****  ===============================================================================
  90:Drivers/STM32H7xx_HAL_Driver/Src/stm32h7xx_hal.c ****               ##### Initialization and de-initialization functions #####
  91:Drivers/STM32H7xx_HAL_Driver/Src/stm32h7xx_hal.c ****  ===============================================================================
  92:Drivers/STM32H7xx_HAL_Driver/Src/stm32h7xx_hal.c ****     [..]  This section provides functions allowing to:
  93:Drivers/STM32H7xx_HAL_Driver/Src/stm32h7xx_hal.c ****       (+) Initializes the Flash interface the NVIC allocation and initial clock
  94:Drivers/STM32H7xx_HAL_Driver/Src/stm32h7xx_hal.c ****           configuration. It initializes the systick also when timeout is needed
  95:Drivers/STM32H7xx_HAL_Driver/Src/stm32h7xx_hal.c ****           and the backup domain when enabled.
  96:Drivers/STM32H7xx_HAL_Driver/Src/stm32h7xx_hal.c ****       (+) De-Initializes common part of the HAL.
  97:Drivers/STM32H7xx_HAL_Driver/Src/stm32h7xx_hal.c ****       (+) Configure The time base source to have 1ms time base with a dedicated
  98:Drivers/STM32H7xx_HAL_Driver/Src/stm32h7xx_hal.c ****           Tick interrupt priority.
  99:Drivers/STM32H7xx_HAL_Driver/Src/stm32h7xx_hal.c ****         (++) SysTick timer is used by default as source of time base, but user
 100:Drivers/STM32H7xx_HAL_Driver/Src/stm32h7xx_hal.c ****              can eventually implement his proper time base source (a general purpose
 101:Drivers/STM32H7xx_HAL_Driver/Src/stm32h7xx_hal.c ****              timer for example or other time source), keeping in mind that Time base
 102:Drivers/STM32H7xx_HAL_Driver/Src/stm32h7xx_hal.c ****              duration should be kept 1ms since PPP_TIMEOUT_VALUEs are defined and
 103:Drivers/STM32H7xx_HAL_Driver/Src/stm32h7xx_hal.c ****              handled in milliseconds basis.
 104:Drivers/STM32H7xx_HAL_Driver/Src/stm32h7xx_hal.c ****         (++) Time base configuration function (HAL_InitTick ()) is called automatically
 105:Drivers/STM32H7xx_HAL_Driver/Src/stm32h7xx_hal.c ****              at the beginning of the program after reset by HAL_Init() or at any time
 106:Drivers/STM32H7xx_HAL_Driver/Src/stm32h7xx_hal.c ****              when clock is configured, by HAL_RCC_ClockConfig().
 107:Drivers/STM32H7xx_HAL_Driver/Src/stm32h7xx_hal.c ****         (++) Source of time base is configured  to generate interrupts at regular
 108:Drivers/STM32H7xx_HAL_Driver/Src/stm32h7xx_hal.c ****              time intervals. Care must be taken if HAL_Delay() is called from a
 109:Drivers/STM32H7xx_HAL_Driver/Src/stm32h7xx_hal.c ****              peripheral ISR process, the Tick interrupt line must have higher priority
 110:Drivers/STM32H7xx_HAL_Driver/Src/stm32h7xx_hal.c ****             (numerically lower) than the peripheral interrupt. Otherwise the caller
 111:Drivers/STM32H7xx_HAL_Driver/Src/stm32h7xx_hal.c ****             ISR process will be blocked.
 112:Drivers/STM32H7xx_HAL_Driver/Src/stm32h7xx_hal.c ****        (++) functions affecting time base configurations are declared as __weak
 113:Drivers/STM32H7xx_HAL_Driver/Src/stm32h7xx_hal.c ****              to make  override possible  in case of other  implementations in user file.
 114:Drivers/STM32H7xx_HAL_Driver/Src/stm32h7xx_hal.c **** @endverbatim
 115:Drivers/STM32H7xx_HAL_Driver/Src/stm32h7xx_hal.c ****   * @{
 116:Drivers/STM32H7xx_HAL_Driver/Src/stm32h7xx_hal.c ****   */
 117:Drivers/STM32H7xx_HAL_Driver/Src/stm32h7xx_hal.c **** 
 118:Drivers/STM32H7xx_HAL_Driver/Src/stm32h7xx_hal.c **** /**
 119:Drivers/STM32H7xx_HAL_Driver/Src/stm32h7xx_hal.c ****   * @brief  This function is used to initialize the HAL Library; it must be the first
 120:Drivers/STM32H7xx_HAL_Driver/Src/stm32h7xx_hal.c ****   *         instruction to be executed in the main program (before to call any other
 121:Drivers/STM32H7xx_HAL_Driver/Src/stm32h7xx_hal.c ****   *         HAL function), it performs the following:
 122:Drivers/STM32H7xx_HAL_Driver/Src/stm32h7xx_hal.c ****   *           Configures the SysTick to generate an interrupt each 1 millisecond,
 123:Drivers/STM32H7xx_HAL_Driver/Src/stm32h7xx_hal.c ****   *           which is clocked by the HSI (at this stage, the clock is not yet
 124:Drivers/STM32H7xx_HAL_Driver/Src/stm32h7xx_hal.c ****   *           configured and thus the system is running from the internal HSI at 16 MHz).
 125:Drivers/STM32H7xx_HAL_Driver/Src/stm32h7xx_hal.c ****   *           Set NVIC Group Priority to 4.
 126:Drivers/STM32H7xx_HAL_Driver/Src/stm32h7xx_hal.c ****   *           Calls the HAL_MspInit() callback function defined in user file
 127:Drivers/STM32H7xx_HAL_Driver/Src/stm32h7xx_hal.c ****   *           "stm32h7xx_hal_msp.c" to do the global low level hardware initialization
 128:Drivers/STM32H7xx_HAL_Driver/Src/stm32h7xx_hal.c ****   *
 129:Drivers/STM32H7xx_HAL_Driver/Src/stm32h7xx_hal.c ****   * @note   SysTick is used as time base for the HAL_Delay() function, the application
 130:Drivers/STM32H7xx_HAL_Driver/Src/stm32h7xx_hal.c ****   *         need to ensure that the SysTick time base is always set to 1 millisecond
 131:Drivers/STM32H7xx_HAL_Driver/Src/stm32h7xx_hal.c ****   *         to have correct HAL operation.
 132:Drivers/STM32H7xx_HAL_Driver/Src/stm32h7xx_hal.c ****   * @retval HAL status
 133:Drivers/STM32H7xx_HAL_Driver/Src/stm32h7xx_hal.c ****   */
 134:Drivers/STM32H7xx_HAL_Driver/Src/stm32h7xx_hal.c **** HAL_StatusTypeDef HAL_Init(void)
 135:Drivers/STM32H7xx_HAL_Driver/Src/stm32h7xx_hal.c **** {
 136:Drivers/STM32H7xx_HAL_Driver/Src/stm32h7xx_hal.c **** 
 137:Drivers/STM32H7xx_HAL_Driver/Src/stm32h7xx_hal.c **** uint32_t common_system_clock;
 138:Drivers/STM32H7xx_HAL_Driver/Src/stm32h7xx_hal.c **** 
 139:Drivers/STM32H7xx_HAL_Driver/Src/stm32h7xx_hal.c **** #if defined(DUAL_CORE) && defined(CORE_CM4)
 140:Drivers/STM32H7xx_HAL_Driver/Src/stm32h7xx_hal.c ****    /* Configure Cortex-M4 Instruction cache through ART accelerator */
 141:Drivers/STM32H7xx_HAL_Driver/Src/stm32h7xx_hal.c ****    __HAL_RCC_ART_CLK_ENABLE();                   /* Enable the Cortex-M4 ART Clock */
 142:Drivers/STM32H7xx_HAL_Driver/Src/stm32h7xx_hal.c ****    __HAL_ART_CONFIG_BASE_ADDRESS(0x08100000UL);  /* Configure the Cortex-M4 ART Base address to the
 143:Drivers/STM32H7xx_HAL_Driver/Src/stm32h7xx_hal.c ****    __HAL_ART_ENABLE();                           /* Enable the Cortex-M4 ART */
 144:Drivers/STM32H7xx_HAL_Driver/Src/stm32h7xx_hal.c **** #endif /* DUAL_CORE &&  CORE_CM4 */
 145:Drivers/STM32H7xx_HAL_Driver/Src/stm32h7xx_hal.c **** 
ARM GAS  C:\Users\Brandon\AppData\Local\Temp\ccg7xZpb.s 			page 4


 146:Drivers/STM32H7xx_HAL_Driver/Src/stm32h7xx_hal.c ****   /* Set Interrupt Group Priority */
 147:Drivers/STM32H7xx_HAL_Driver/Src/stm32h7xx_hal.c ****   HAL_NVIC_SetPriorityGrouping(NVIC_PRIORITYGROUP_4);
 148:Drivers/STM32H7xx_HAL_Driver/Src/stm32h7xx_hal.c **** 
 149:Drivers/STM32H7xx_HAL_Driver/Src/stm32h7xx_hal.c ****   /* Update the SystemCoreClock global variable */
 150:Drivers/STM32H7xx_HAL_Driver/Src/stm32h7xx_hal.c **** #if defined(RCC_D1CFGR_D1CPRE)
 151:Drivers/STM32H7xx_HAL_Driver/Src/stm32h7xx_hal.c ****   common_system_clock = HAL_RCC_GetSysClockFreq() >> ((D1CorePrescTable[(RCC->D1CFGR & RCC_D1CFGR_D
 152:Drivers/STM32H7xx_HAL_Driver/Src/stm32h7xx_hal.c **** #else
 153:Drivers/STM32H7xx_HAL_Driver/Src/stm32h7xx_hal.c ****   common_system_clock = HAL_RCC_GetSysClockFreq() >> ((D1CorePrescTable[(RCC->CDCFGR1 & RCC_CDCFGR1
 154:Drivers/STM32H7xx_HAL_Driver/Src/stm32h7xx_hal.c **** #endif
 155:Drivers/STM32H7xx_HAL_Driver/Src/stm32h7xx_hal.c **** 
 156:Drivers/STM32H7xx_HAL_Driver/Src/stm32h7xx_hal.c ****   /* Update the SystemD2Clock global variable */
 157:Drivers/STM32H7xx_HAL_Driver/Src/stm32h7xx_hal.c **** #if defined(RCC_D1CFGR_HPRE)
 158:Drivers/STM32H7xx_HAL_Driver/Src/stm32h7xx_hal.c ****   SystemD2Clock = (common_system_clock >> ((D1CorePrescTable[(RCC->D1CFGR & RCC_D1CFGR_HPRE)>> RCC_
 159:Drivers/STM32H7xx_HAL_Driver/Src/stm32h7xx_hal.c **** #else
 160:Drivers/STM32H7xx_HAL_Driver/Src/stm32h7xx_hal.c ****   SystemD2Clock = (common_system_clock >> ((D1CorePrescTable[(RCC->CDCFGR1 & RCC_CDCFGR1_HPRE)>> RC
 161:Drivers/STM32H7xx_HAL_Driver/Src/stm32h7xx_hal.c **** #endif
 162:Drivers/STM32H7xx_HAL_Driver/Src/stm32h7xx_hal.c **** 
 163:Drivers/STM32H7xx_HAL_Driver/Src/stm32h7xx_hal.c **** #if defined(DUAL_CORE) && defined(CORE_CM4)
 164:Drivers/STM32H7xx_HAL_Driver/Src/stm32h7xx_hal.c ****   SystemCoreClock = SystemD2Clock;
 165:Drivers/STM32H7xx_HAL_Driver/Src/stm32h7xx_hal.c **** #else
 166:Drivers/STM32H7xx_HAL_Driver/Src/stm32h7xx_hal.c ****   SystemCoreClock = common_system_clock;
 167:Drivers/STM32H7xx_HAL_Driver/Src/stm32h7xx_hal.c **** #endif /* DUAL_CORE && CORE_CM4 */
 168:Drivers/STM32H7xx_HAL_Driver/Src/stm32h7xx_hal.c **** 
 169:Drivers/STM32H7xx_HAL_Driver/Src/stm32h7xx_hal.c ****   /* Use systick as time base source and configure 1ms tick (default clock after Reset is HSI) */
 170:Drivers/STM32H7xx_HAL_Driver/Src/stm32h7xx_hal.c ****   if(HAL_InitTick(TICK_INT_PRIORITY) != HAL_OK)
 171:Drivers/STM32H7xx_HAL_Driver/Src/stm32h7xx_hal.c ****   {
 172:Drivers/STM32H7xx_HAL_Driver/Src/stm32h7xx_hal.c ****     return HAL_ERROR;
 173:Drivers/STM32H7xx_HAL_Driver/Src/stm32h7xx_hal.c ****   }
 174:Drivers/STM32H7xx_HAL_Driver/Src/stm32h7xx_hal.c **** 
 175:Drivers/STM32H7xx_HAL_Driver/Src/stm32h7xx_hal.c ****   /* Init the low level hardware */
 176:Drivers/STM32H7xx_HAL_Driver/Src/stm32h7xx_hal.c ****   HAL_MspInit();
 177:Drivers/STM32H7xx_HAL_Driver/Src/stm32h7xx_hal.c **** 
 178:Drivers/STM32H7xx_HAL_Driver/Src/stm32h7xx_hal.c ****   /* Return function status */
 179:Drivers/STM32H7xx_HAL_Driver/Src/stm32h7xx_hal.c ****   return HAL_OK;
 180:Drivers/STM32H7xx_HAL_Driver/Src/stm32h7xx_hal.c **** }
 181:Drivers/STM32H7xx_HAL_Driver/Src/stm32h7xx_hal.c **** 
 182:Drivers/STM32H7xx_HAL_Driver/Src/stm32h7xx_hal.c **** /**
 183:Drivers/STM32H7xx_HAL_Driver/Src/stm32h7xx_hal.c ****   * @brief  This function de-Initializes common part of the HAL and stops the systick.
 184:Drivers/STM32H7xx_HAL_Driver/Src/stm32h7xx_hal.c ****   *         This function is optional.
 185:Drivers/STM32H7xx_HAL_Driver/Src/stm32h7xx_hal.c ****   * @retval HAL status
 186:Drivers/STM32H7xx_HAL_Driver/Src/stm32h7xx_hal.c ****   */
 187:Drivers/STM32H7xx_HAL_Driver/Src/stm32h7xx_hal.c **** HAL_StatusTypeDef HAL_DeInit(void)
 188:Drivers/STM32H7xx_HAL_Driver/Src/stm32h7xx_hal.c **** {
 189:Drivers/STM32H7xx_HAL_Driver/Src/stm32h7xx_hal.c ****   /* Reset of all peripherals */
 190:Drivers/STM32H7xx_HAL_Driver/Src/stm32h7xx_hal.c ****   __HAL_RCC_AHB3_FORCE_RESET();
 191:Drivers/STM32H7xx_HAL_Driver/Src/stm32h7xx_hal.c ****   __HAL_RCC_AHB3_RELEASE_RESET();
 192:Drivers/STM32H7xx_HAL_Driver/Src/stm32h7xx_hal.c **** 
 193:Drivers/STM32H7xx_HAL_Driver/Src/stm32h7xx_hal.c ****   __HAL_RCC_AHB1_FORCE_RESET();
 194:Drivers/STM32H7xx_HAL_Driver/Src/stm32h7xx_hal.c ****   __HAL_RCC_AHB1_RELEASE_RESET();
 195:Drivers/STM32H7xx_HAL_Driver/Src/stm32h7xx_hal.c **** 
 196:Drivers/STM32H7xx_HAL_Driver/Src/stm32h7xx_hal.c ****   __HAL_RCC_AHB2_FORCE_RESET();
 197:Drivers/STM32H7xx_HAL_Driver/Src/stm32h7xx_hal.c ****   __HAL_RCC_AHB2_RELEASE_RESET();
 198:Drivers/STM32H7xx_HAL_Driver/Src/stm32h7xx_hal.c **** 
 199:Drivers/STM32H7xx_HAL_Driver/Src/stm32h7xx_hal.c ****   __HAL_RCC_AHB4_FORCE_RESET();
 200:Drivers/STM32H7xx_HAL_Driver/Src/stm32h7xx_hal.c ****  __HAL_RCC_AHB4_RELEASE_RESET();
 201:Drivers/STM32H7xx_HAL_Driver/Src/stm32h7xx_hal.c **** 
 202:Drivers/STM32H7xx_HAL_Driver/Src/stm32h7xx_hal.c ****   __HAL_RCC_APB3_FORCE_RESET();
ARM GAS  C:\Users\Brandon\AppData\Local\Temp\ccg7xZpb.s 			page 5


 203:Drivers/STM32H7xx_HAL_Driver/Src/stm32h7xx_hal.c ****   __HAL_RCC_APB3_RELEASE_RESET();
 204:Drivers/STM32H7xx_HAL_Driver/Src/stm32h7xx_hal.c **** 
 205:Drivers/STM32H7xx_HAL_Driver/Src/stm32h7xx_hal.c ****   __HAL_RCC_APB1L_FORCE_RESET();
 206:Drivers/STM32H7xx_HAL_Driver/Src/stm32h7xx_hal.c ****   __HAL_RCC_APB1L_RELEASE_RESET();
 207:Drivers/STM32H7xx_HAL_Driver/Src/stm32h7xx_hal.c **** 
 208:Drivers/STM32H7xx_HAL_Driver/Src/stm32h7xx_hal.c ****   __HAL_RCC_APB1H_FORCE_RESET();
 209:Drivers/STM32H7xx_HAL_Driver/Src/stm32h7xx_hal.c ****   __HAL_RCC_APB1H_RELEASE_RESET();
 210:Drivers/STM32H7xx_HAL_Driver/Src/stm32h7xx_hal.c **** 
 211:Drivers/STM32H7xx_HAL_Driver/Src/stm32h7xx_hal.c ****    __HAL_RCC_APB2_FORCE_RESET();
 212:Drivers/STM32H7xx_HAL_Driver/Src/stm32h7xx_hal.c ****    __HAL_RCC_APB2_RELEASE_RESET();
 213:Drivers/STM32H7xx_HAL_Driver/Src/stm32h7xx_hal.c **** 
 214:Drivers/STM32H7xx_HAL_Driver/Src/stm32h7xx_hal.c ****   __HAL_RCC_APB4_FORCE_RESET();
 215:Drivers/STM32H7xx_HAL_Driver/Src/stm32h7xx_hal.c ****   __HAL_RCC_APB4_RELEASE_RESET();
 216:Drivers/STM32H7xx_HAL_Driver/Src/stm32h7xx_hal.c **** 
 217:Drivers/STM32H7xx_HAL_Driver/Src/stm32h7xx_hal.c ****   /* De-Init the low level hardware */
 218:Drivers/STM32H7xx_HAL_Driver/Src/stm32h7xx_hal.c ****   HAL_MspDeInit();
 219:Drivers/STM32H7xx_HAL_Driver/Src/stm32h7xx_hal.c **** 
 220:Drivers/STM32H7xx_HAL_Driver/Src/stm32h7xx_hal.c ****   /* Return function status */
 221:Drivers/STM32H7xx_HAL_Driver/Src/stm32h7xx_hal.c ****   return HAL_OK;
 222:Drivers/STM32H7xx_HAL_Driver/Src/stm32h7xx_hal.c **** }
 223:Drivers/STM32H7xx_HAL_Driver/Src/stm32h7xx_hal.c **** 
 224:Drivers/STM32H7xx_HAL_Driver/Src/stm32h7xx_hal.c **** /**
 225:Drivers/STM32H7xx_HAL_Driver/Src/stm32h7xx_hal.c ****   * @brief  Initializes the MSP.
 226:Drivers/STM32H7xx_HAL_Driver/Src/stm32h7xx_hal.c ****   * @retval None
 227:Drivers/STM32H7xx_HAL_Driver/Src/stm32h7xx_hal.c ****   */
 228:Drivers/STM32H7xx_HAL_Driver/Src/stm32h7xx_hal.c **** __weak void HAL_MspInit(void)
 229:Drivers/STM32H7xx_HAL_Driver/Src/stm32h7xx_hal.c **** {
  28              		.loc 1 229 1 view -0
  29              		.cfi_startproc
  30              		@ args = 0, pretend = 0, frame = 0
  31              		@ frame_needed = 0, uses_anonymous_args = 0
  32              		@ link register save eliminated.
 230:Drivers/STM32H7xx_HAL_Driver/Src/stm32h7xx_hal.c ****   /* NOTE : This function Should not be modified, when the callback is needed,
 231:Drivers/STM32H7xx_HAL_Driver/Src/stm32h7xx_hal.c ****             the HAL_MspInit could be implemented in the user file
 232:Drivers/STM32H7xx_HAL_Driver/Src/stm32h7xx_hal.c ****    */
 233:Drivers/STM32H7xx_HAL_Driver/Src/stm32h7xx_hal.c **** }
  33              		.loc 1 233 1 view .LVU1
  34 0000 7047     		bx	lr
  35              		.cfi_endproc
  36              	.LFE143:
  38              		.section	.text.HAL_MspDeInit,"ax",%progbits
  39              		.align	1
  40              		.weak	HAL_MspDeInit
  41              		.syntax unified
  42              		.thumb
  43              		.thumb_func
  44              		.fpu fpv5-d16
  46              	HAL_MspDeInit:
  47              	.LFB144:
 234:Drivers/STM32H7xx_HAL_Driver/Src/stm32h7xx_hal.c **** 
 235:Drivers/STM32H7xx_HAL_Driver/Src/stm32h7xx_hal.c **** /**
 236:Drivers/STM32H7xx_HAL_Driver/Src/stm32h7xx_hal.c ****   * @brief  DeInitializes the MSP.
 237:Drivers/STM32H7xx_HAL_Driver/Src/stm32h7xx_hal.c ****   * @retval None
 238:Drivers/STM32H7xx_HAL_Driver/Src/stm32h7xx_hal.c ****   */
 239:Drivers/STM32H7xx_HAL_Driver/Src/stm32h7xx_hal.c **** __weak void HAL_MspDeInit(void)
 240:Drivers/STM32H7xx_HAL_Driver/Src/stm32h7xx_hal.c **** {
  48              		.loc 1 240 1 view -0
ARM GAS  C:\Users\Brandon\AppData\Local\Temp\ccg7xZpb.s 			page 6


  49              		.cfi_startproc
  50              		@ args = 0, pretend = 0, frame = 0
  51              		@ frame_needed = 0, uses_anonymous_args = 0
  52              		@ link register save eliminated.
 241:Drivers/STM32H7xx_HAL_Driver/Src/stm32h7xx_hal.c ****   /* NOTE : This function Should not be modified, when the callback is needed,
 242:Drivers/STM32H7xx_HAL_Driver/Src/stm32h7xx_hal.c ****             the HAL_MspDeInit could be implemented in the user file
 243:Drivers/STM32H7xx_HAL_Driver/Src/stm32h7xx_hal.c ****    */
 244:Drivers/STM32H7xx_HAL_Driver/Src/stm32h7xx_hal.c **** }
  53              		.loc 1 244 1 view .LVU3
  54 0000 7047     		bx	lr
  55              		.cfi_endproc
  56              	.LFE144:
  58              		.section	.text.HAL_DeInit,"ax",%progbits
  59              		.align	1
  60              		.global	HAL_DeInit
  61              		.syntax unified
  62              		.thumb
  63              		.thumb_func
  64              		.fpu fpv5-d16
  66              	HAL_DeInit:
  67              	.LFB142:
 188:Drivers/STM32H7xx_HAL_Driver/Src/stm32h7xx_hal.c ****   /* Reset of all peripherals */
  68              		.loc 1 188 1 view -0
  69              		.cfi_startproc
  70              		@ args = 0, pretend = 0, frame = 0
  71              		@ frame_needed = 0, uses_anonymous_args = 0
  72 0000 10B5     		push	{r4, lr}
  73              	.LCFI0:
  74              		.cfi_def_cfa_offset 8
  75              		.cfi_offset 4, -8
  76              		.cfi_offset 14, -4
 190:Drivers/STM32H7xx_HAL_Driver/Src/stm32h7xx_hal.c ****   __HAL_RCC_AHB3_RELEASE_RESET();
  77              		.loc 1 190 3 view .LVU5
  78 0002 1B4B     		ldr	r3, .L5
  79 0004 1B4A     		ldr	r2, .L5+4
  80 0006 DA67     		str	r2, [r3, #124]
 191:Drivers/STM32H7xx_HAL_Driver/Src/stm32h7xx_hal.c **** 
  81              		.loc 1 191 3 view .LVU6
  82 0008 0024     		movs	r4, #0
  83 000a DC67     		str	r4, [r3, #124]
 193:Drivers/STM32H7xx_HAL_Driver/Src/stm32h7xx_hal.c ****   __HAL_RCC_AHB1_RELEASE_RESET();
  84              		.loc 1 193 3 view .LVU7
  85 000c 1A4A     		ldr	r2, .L5+8
  86 000e C3F88020 		str	r2, [r3, #128]
 194:Drivers/STM32H7xx_HAL_Driver/Src/stm32h7xx_hal.c **** 
  87              		.loc 1 194 3 view .LVU8
  88 0012 C3F88040 		str	r4, [r3, #128]
 196:Drivers/STM32H7xx_HAL_Driver/Src/stm32h7xx_hal.c ****   __HAL_RCC_AHB2_RELEASE_RESET();
  89              		.loc 1 196 3 view .LVU9
  90 0016 194A     		ldr	r2, .L5+12
  91 0018 C3F88420 		str	r2, [r3, #132]
 197:Drivers/STM32H7xx_HAL_Driver/Src/stm32h7xx_hal.c **** 
  92              		.loc 1 197 3 view .LVU10
  93 001c C3F88440 		str	r4, [r3, #132]
 199:Drivers/STM32H7xx_HAL_Driver/Src/stm32h7xx_hal.c ****  __HAL_RCC_AHB4_RELEASE_RESET();
  94              		.loc 1 199 3 view .LVU11
  95 0020 174A     		ldr	r2, .L5+16
ARM GAS  C:\Users\Brandon\AppData\Local\Temp\ccg7xZpb.s 			page 7


  96 0022 C3F88820 		str	r2, [r3, #136]
 200:Drivers/STM32H7xx_HAL_Driver/Src/stm32h7xx_hal.c **** 
  97              		.loc 1 200 2 view .LVU12
  98 0026 C3F88840 		str	r4, [r3, #136]
 202:Drivers/STM32H7xx_HAL_Driver/Src/stm32h7xx_hal.c ****   __HAL_RCC_APB3_RELEASE_RESET();
  99              		.loc 1 202 3 view .LVU13
 100 002a 0822     		movs	r2, #8
 101 002c C3F88C20 		str	r2, [r3, #140]
 203:Drivers/STM32H7xx_HAL_Driver/Src/stm32h7xx_hal.c **** 
 102              		.loc 1 203 3 view .LVU14
 103 0030 C3F88C40 		str	r4, [r3, #140]
 205:Drivers/STM32H7xx_HAL_Driver/Src/stm32h7xx_hal.c ****   __HAL_RCC_APB1L_RELEASE_RESET();
 104              		.loc 1 205 3 view .LVU15
 105 0034 134A     		ldr	r2, .L5+20
 106 0036 C3F89020 		str	r2, [r3, #144]
 206:Drivers/STM32H7xx_HAL_Driver/Src/stm32h7xx_hal.c **** 
 107              		.loc 1 206 3 view .LVU16
 108 003a C3F89040 		str	r4, [r3, #144]
 208:Drivers/STM32H7xx_HAL_Driver/Src/stm32h7xx_hal.c ****   __HAL_RCC_APB1H_RELEASE_RESET();
 109              		.loc 1 208 3 view .LVU17
 110 003e 124A     		ldr	r2, .L5+24
 111 0040 C3F89420 		str	r2, [r3, #148]
 209:Drivers/STM32H7xx_HAL_Driver/Src/stm32h7xx_hal.c **** 
 112              		.loc 1 209 3 view .LVU18
 113 0044 C3F89440 		str	r4, [r3, #148]
 211:Drivers/STM32H7xx_HAL_Driver/Src/stm32h7xx_hal.c ****    __HAL_RCC_APB2_RELEASE_RESET();
 114              		.loc 1 211 4 view .LVU19
 115 0048 02F17552 		add	r2, r2, #1027604480
 116 004c 02F5B912 		add	r2, r2, #1515520
 117 0050 02F6BD72 		addw	r2, r2, #4029
 118 0054 C3F89820 		str	r2, [r3, #152]
 212:Drivers/STM32H7xx_HAL_Driver/Src/stm32h7xx_hal.c **** 
 119              		.loc 1 212 4 view .LVU20
 120 0058 C3F89840 		str	r4, [r3, #152]
 214:Drivers/STM32H7xx_HAL_Driver/Src/stm32h7xx_hal.c ****   __HAL_RCC_APB4_RELEASE_RESET();
 121              		.loc 1 214 3 view .LVU21
 122 005c 0B4A     		ldr	r2, .L5+28
 123 005e C3F89C20 		str	r2, [r3, #156]
 215:Drivers/STM32H7xx_HAL_Driver/Src/stm32h7xx_hal.c **** 
 124              		.loc 1 215 3 view .LVU22
 125 0062 C3F89C40 		str	r4, [r3, #156]
 218:Drivers/STM32H7xx_HAL_Driver/Src/stm32h7xx_hal.c **** 
 126              		.loc 1 218 3 view .LVU23
 127 0066 FFF7FEFF 		bl	HAL_MspDeInit
 128              	.LVL0:
 221:Drivers/STM32H7xx_HAL_Driver/Src/stm32h7xx_hal.c **** }
 129              		.loc 1 221 3 view .LVU24
 222:Drivers/STM32H7xx_HAL_Driver/Src/stm32h7xx_hal.c **** 
 130              		.loc 1 222 1 is_stmt 0 view .LVU25
 131 006a 2046     		mov	r0, r4
 132 006c 10BD     		pop	{r4, pc}
 133              	.L6:
 134 006e 00BF     		.align	2
 135              	.L5:
 136 0070 00440258 		.word	1476543488
 137 0074 1150E900 		.word	15290385
 138 0078 23800002 		.word	33587235
ARM GAS  C:\Users\Brandon\AppData\Local\Temp\ccg7xZpb.s 			page 8


 139 007c 71020300 		.word	197233
 140 0080 FF062803 		.word	52954879
 141 0084 FFC3FFEA 		.word	-352336897
 142 0088 36010003 		.word	50331958
 143 008c AADE2004 		.word	69263018
 144              		.cfi_endproc
 145              	.LFE142:
 147              		.section	.text.HAL_InitTick,"ax",%progbits
 148              		.align	1
 149              		.weak	HAL_InitTick
 150              		.syntax unified
 151              		.thumb
 152              		.thumb_func
 153              		.fpu fpv5-d16
 155              	HAL_InitTick:
 156              	.LVL1:
 157              	.LFB145:
 245:Drivers/STM32H7xx_HAL_Driver/Src/stm32h7xx_hal.c **** 
 246:Drivers/STM32H7xx_HAL_Driver/Src/stm32h7xx_hal.c **** /**
 247:Drivers/STM32H7xx_HAL_Driver/Src/stm32h7xx_hal.c ****   * @brief This function configures the source of the time base.
 248:Drivers/STM32H7xx_HAL_Driver/Src/stm32h7xx_hal.c ****   *        The time source is configured  to have 1ms time base with a dedicated
 249:Drivers/STM32H7xx_HAL_Driver/Src/stm32h7xx_hal.c ****   *        Tick interrupt priority.
 250:Drivers/STM32H7xx_HAL_Driver/Src/stm32h7xx_hal.c ****   * @note This function is called  automatically at the beginning of program after
 251:Drivers/STM32H7xx_HAL_Driver/Src/stm32h7xx_hal.c ****   *       reset by HAL_Init() or at any time when clock is reconfigured  by HAL_RCC_ClockConfig().
 252:Drivers/STM32H7xx_HAL_Driver/Src/stm32h7xx_hal.c ****   * @note In the default implementation, SysTick timer is the source of time base.
 253:Drivers/STM32H7xx_HAL_Driver/Src/stm32h7xx_hal.c ****   *       It is used to generate interrupts at regular time intervals.
 254:Drivers/STM32H7xx_HAL_Driver/Src/stm32h7xx_hal.c ****   *       Care must be taken if HAL_Delay() is called from a peripheral ISR process,
 255:Drivers/STM32H7xx_HAL_Driver/Src/stm32h7xx_hal.c ****   *       The the SysTick interrupt must have higher priority (numerically lower)
 256:Drivers/STM32H7xx_HAL_Driver/Src/stm32h7xx_hal.c ****   *       than the peripheral interrupt. Otherwise the caller ISR process will be blocked.
 257:Drivers/STM32H7xx_HAL_Driver/Src/stm32h7xx_hal.c ****   *       The function is declared as __weak  to be overwritten  in case of other
 258:Drivers/STM32H7xx_HAL_Driver/Src/stm32h7xx_hal.c ****   *       implementation  in user file.
 259:Drivers/STM32H7xx_HAL_Driver/Src/stm32h7xx_hal.c ****   * @param TickPriority: Tick interrupt priority.
 260:Drivers/STM32H7xx_HAL_Driver/Src/stm32h7xx_hal.c ****   * @retval HAL status
 261:Drivers/STM32H7xx_HAL_Driver/Src/stm32h7xx_hal.c ****   */
 262:Drivers/STM32H7xx_HAL_Driver/Src/stm32h7xx_hal.c **** __weak HAL_StatusTypeDef HAL_InitTick(uint32_t TickPriority)
 263:Drivers/STM32H7xx_HAL_Driver/Src/stm32h7xx_hal.c **** {
 158              		.loc 1 263 1 is_stmt 1 view -0
 159              		.cfi_startproc
 160              		@ args = 0, pretend = 0, frame = 0
 161              		@ frame_needed = 0, uses_anonymous_args = 0
 264:Drivers/STM32H7xx_HAL_Driver/Src/stm32h7xx_hal.c ****   /* Check uwTickFreq for MisraC 2012 (even if uwTickFreq is a enum type that don't take the value 
 265:Drivers/STM32H7xx_HAL_Driver/Src/stm32h7xx_hal.c ****   if((uint32_t)uwTickFreq == 0UL)
 162              		.loc 1 265 3 view .LVU27
 163              		.loc 1 265 27 is_stmt 0 view .LVU28
 164 0000 104B     		ldr	r3, .L18
 165 0002 1B78     		ldrb	r3, [r3]	@ zero_extendqisi2
 166              		.loc 1 265 5 view .LVU29
 167 0004 0BB9     		cbnz	r3, .L16
 266:Drivers/STM32H7xx_HAL_Driver/Src/stm32h7xx_hal.c ****   {
 267:Drivers/STM32H7xx_HAL_Driver/Src/stm32h7xx_hal.c ****     return HAL_ERROR;
 168              		.loc 1 267 12 view .LVU30
 169 0006 0120     		movs	r0, #1
 170              	.LVL2:
 268:Drivers/STM32H7xx_HAL_Driver/Src/stm32h7xx_hal.c ****   }
 269:Drivers/STM32H7xx_HAL_Driver/Src/stm32h7xx_hal.c **** 
 270:Drivers/STM32H7xx_HAL_Driver/Src/stm32h7xx_hal.c ****     /* Configure the SysTick to have interrupt in 1ms time basis*/
 271:Drivers/STM32H7xx_HAL_Driver/Src/stm32h7xx_hal.c ****     if (HAL_SYSTICK_Config(SystemCoreClock / (1000UL / (uint32_t)uwTickFreq)) > 0U)
ARM GAS  C:\Users\Brandon\AppData\Local\Temp\ccg7xZpb.s 			page 9


 272:Drivers/STM32H7xx_HAL_Driver/Src/stm32h7xx_hal.c ****     {
 273:Drivers/STM32H7xx_HAL_Driver/Src/stm32h7xx_hal.c ****       return HAL_ERROR;
 274:Drivers/STM32H7xx_HAL_Driver/Src/stm32h7xx_hal.c ****     }
 275:Drivers/STM32H7xx_HAL_Driver/Src/stm32h7xx_hal.c **** 
 276:Drivers/STM32H7xx_HAL_Driver/Src/stm32h7xx_hal.c ****   /* Configure the SysTick IRQ priority */
 277:Drivers/STM32H7xx_HAL_Driver/Src/stm32h7xx_hal.c ****   if (TickPriority < (1UL << __NVIC_PRIO_BITS))
 278:Drivers/STM32H7xx_HAL_Driver/Src/stm32h7xx_hal.c ****   {
 279:Drivers/STM32H7xx_HAL_Driver/Src/stm32h7xx_hal.c ****     HAL_NVIC_SetPriority(SysTick_IRQn, TickPriority, 0U);
 280:Drivers/STM32H7xx_HAL_Driver/Src/stm32h7xx_hal.c ****     uwTickPrio = TickPriority;
 281:Drivers/STM32H7xx_HAL_Driver/Src/stm32h7xx_hal.c ****   }
 282:Drivers/STM32H7xx_HAL_Driver/Src/stm32h7xx_hal.c ****   else
 283:Drivers/STM32H7xx_HAL_Driver/Src/stm32h7xx_hal.c ****   {
 284:Drivers/STM32H7xx_HAL_Driver/Src/stm32h7xx_hal.c ****     return HAL_ERROR;
 285:Drivers/STM32H7xx_HAL_Driver/Src/stm32h7xx_hal.c ****   }
 286:Drivers/STM32H7xx_HAL_Driver/Src/stm32h7xx_hal.c **** 
 287:Drivers/STM32H7xx_HAL_Driver/Src/stm32h7xx_hal.c ****   /* Return function status */
 288:Drivers/STM32H7xx_HAL_Driver/Src/stm32h7xx_hal.c ****   return HAL_OK;
 289:Drivers/STM32H7xx_HAL_Driver/Src/stm32h7xx_hal.c **** }
 171              		.loc 1 289 1 view .LVU31
 172 0008 7047     		bx	lr
 173              	.LVL3:
 174              	.L16:
 263:Drivers/STM32H7xx_HAL_Driver/Src/stm32h7xx_hal.c ****   /* Check uwTickFreq for MisraC 2012 (even if uwTickFreq is a enum type that don't take the value 
 175              		.loc 1 263 1 view .LVU32
 176 000a 10B5     		push	{r4, lr}
 177              	.LCFI1:
 178              		.cfi_def_cfa_offset 8
 179              		.cfi_offset 4, -8
 180              		.cfi_offset 14, -4
 181 000c 0446     		mov	r4, r0
 271:Drivers/STM32H7xx_HAL_Driver/Src/stm32h7xx_hal.c ****     {
 182              		.loc 1 271 5 is_stmt 1 view .LVU33
 271:Drivers/STM32H7xx_HAL_Driver/Src/stm32h7xx_hal.c ****     {
 183              		.loc 1 271 54 is_stmt 0 view .LVU34
 184 000e 4FF47A70 		mov	r0, #1000
 185              	.LVL4:
 271:Drivers/STM32H7xx_HAL_Driver/Src/stm32h7xx_hal.c ****     {
 186              		.loc 1 271 54 view .LVU35
 187 0012 B0FBF3F3 		udiv	r3, r0, r3
 271:Drivers/STM32H7xx_HAL_Driver/Src/stm32h7xx_hal.c ****     {
 188              		.loc 1 271 9 view .LVU36
 189 0016 0C4A     		ldr	r2, .L18+4
 190 0018 1068     		ldr	r0, [r2]
 191 001a B0FBF3F0 		udiv	r0, r0, r3
 192 001e FFF7FEFF 		bl	HAL_SYSTICK_Config
 193              	.LVL5:
 271:Drivers/STM32H7xx_HAL_Driver/Src/stm32h7xx_hal.c ****     {
 194              		.loc 1 271 8 view .LVU37
 195 0022 68B9     		cbnz	r0, .L10
 277:Drivers/STM32H7xx_HAL_Driver/Src/stm32h7xx_hal.c ****   {
 196              		.loc 1 277 3 is_stmt 1 view .LVU38
 277:Drivers/STM32H7xx_HAL_Driver/Src/stm32h7xx_hal.c ****   {
 197              		.loc 1 277 6 is_stmt 0 view .LVU39
 198 0024 0F2C     		cmp	r4, #15
 199 0026 01D9     		bls	.L17
 284:Drivers/STM32H7xx_HAL_Driver/Src/stm32h7xx_hal.c ****   }
 200              		.loc 1 284 12 view .LVU40
ARM GAS  C:\Users\Brandon\AppData\Local\Temp\ccg7xZpb.s 			page 10


 201 0028 0120     		movs	r0, #1
 202 002a 0AE0     		b	.L8
 203              	.L17:
 279:Drivers/STM32H7xx_HAL_Driver/Src/stm32h7xx_hal.c ****     uwTickPrio = TickPriority;
 204              		.loc 1 279 5 is_stmt 1 view .LVU41
 205 002c 0022     		movs	r2, #0
 206 002e 2146     		mov	r1, r4
 207 0030 4FF0FF30 		mov	r0, #-1
 208 0034 FFF7FEFF 		bl	HAL_NVIC_SetPriority
 209              	.LVL6:
 280:Drivers/STM32H7xx_HAL_Driver/Src/stm32h7xx_hal.c ****   }
 210              		.loc 1 280 5 view .LVU42
 280:Drivers/STM32H7xx_HAL_Driver/Src/stm32h7xx_hal.c ****   }
 211              		.loc 1 280 16 is_stmt 0 view .LVU43
 212 0038 044B     		ldr	r3, .L18+8
 213 003a 1C60     		str	r4, [r3]
 288:Drivers/STM32H7xx_HAL_Driver/Src/stm32h7xx_hal.c **** }
 214              		.loc 1 288 3 is_stmt 1 view .LVU44
 288:Drivers/STM32H7xx_HAL_Driver/Src/stm32h7xx_hal.c **** }
 215              		.loc 1 288 10 is_stmt 0 view .LVU45
 216 003c 0020     		movs	r0, #0
 217 003e 00E0     		b	.L8
 218              	.L10:
 273:Drivers/STM32H7xx_HAL_Driver/Src/stm32h7xx_hal.c ****     }
 219              		.loc 1 273 14 view .LVU46
 220 0040 0120     		movs	r0, #1
 221              	.L8:
 222              		.loc 1 289 1 view .LVU47
 223 0042 10BD     		pop	{r4, pc}
 224              	.LVL7:
 225              	.L19:
 226              		.loc 1 289 1 view .LVU48
 227              		.align	2
 228              	.L18:
 229 0044 00000000 		.word	.LANCHOR0
 230 0048 00000000 		.word	SystemCoreClock
 231 004c 00000000 		.word	.LANCHOR1
 232              		.cfi_endproc
 233              	.LFE145:
 235              		.section	.text.HAL_Init,"ax",%progbits
 236              		.align	1
 237              		.global	HAL_Init
 238              		.syntax unified
 239              		.thumb
 240              		.thumb_func
 241              		.fpu fpv5-d16
 243              	HAL_Init:
 244              	.LFB141:
 135:Drivers/STM32H7xx_HAL_Driver/Src/stm32h7xx_hal.c **** 
 245              		.loc 1 135 1 is_stmt 1 view -0
 246              		.cfi_startproc
 247              		@ args = 0, pretend = 0, frame = 0
 248              		@ frame_needed = 0, uses_anonymous_args = 0
 249 0000 10B5     		push	{r4, lr}
 250              	.LCFI2:
 251              		.cfi_def_cfa_offset 8
 252              		.cfi_offset 4, -8
ARM GAS  C:\Users\Brandon\AppData\Local\Temp\ccg7xZpb.s 			page 11


 253              		.cfi_offset 14, -4
 137:Drivers/STM32H7xx_HAL_Driver/Src/stm32h7xx_hal.c **** 
 254              		.loc 1 137 1 view .LVU50
 147:Drivers/STM32H7xx_HAL_Driver/Src/stm32h7xx_hal.c **** 
 255              		.loc 1 147 3 view .LVU51
 256 0002 0320     		movs	r0, #3
 257 0004 FFF7FEFF 		bl	HAL_NVIC_SetPriorityGrouping
 258              	.LVL8:
 151:Drivers/STM32H7xx_HAL_Driver/Src/stm32h7xx_hal.c **** #else
 259              		.loc 1 151 3 view .LVU52
 151:Drivers/STM32H7xx_HAL_Driver/Src/stm32h7xx_hal.c **** #else
 260              		.loc 1 151 25 is_stmt 0 view .LVU53
 261 0008 FFF7FEFF 		bl	HAL_RCC_GetSysClockFreq
 262              	.LVL9:
 151:Drivers/STM32H7xx_HAL_Driver/Src/stm32h7xx_hal.c **** #else
 263              		.loc 1 151 77 view .LVU54
 264 000c 0F49     		ldr	r1, .L25
 265 000e 8B69     		ldr	r3, [r1, #24]
 151:Drivers/STM32H7xx_HAL_Driver/Src/stm32h7xx_hal.c **** #else
 266              		.loc 1 151 106 view .LVU55
 267 0010 C3F30323 		ubfx	r3, r3, #8, #4
 151:Drivers/STM32H7xx_HAL_Driver/Src/stm32h7xx_hal.c **** #else
 268              		.loc 1 151 72 view .LVU56
 269 0014 0E4A     		ldr	r2, .L25+4
 270 0016 D35C     		ldrb	r3, [r2, r3]	@ zero_extendqisi2
 151:Drivers/STM32H7xx_HAL_Driver/Src/stm32h7xx_hal.c **** #else
 271              		.loc 1 151 133 view .LVU57
 272 0018 03F01F03 		and	r3, r3, #31
 151:Drivers/STM32H7xx_HAL_Driver/Src/stm32h7xx_hal.c **** #else
 273              		.loc 1 151 23 view .LVU58
 274 001c D840     		lsrs	r0, r0, r3
 275              	.LVL10:
 158:Drivers/STM32H7xx_HAL_Driver/Src/stm32h7xx_hal.c **** #else
 276              		.loc 1 158 3 is_stmt 1 view .LVU59
 158:Drivers/STM32H7xx_HAL_Driver/Src/stm32h7xx_hal.c **** #else
 277              		.loc 1 158 66 is_stmt 0 view .LVU60
 278 001e 8B69     		ldr	r3, [r1, #24]
 158:Drivers/STM32H7xx_HAL_Driver/Src/stm32h7xx_hal.c **** #else
 279              		.loc 1 158 93 view .LVU61
 280 0020 03F00F03 		and	r3, r3, #15
 158:Drivers/STM32H7xx_HAL_Driver/Src/stm32h7xx_hal.c **** #else
 281              		.loc 1 158 61 view .LVU62
 282 0024 D35C     		ldrb	r3, [r2, r3]	@ zero_extendqisi2
 158:Drivers/STM32H7xx_HAL_Driver/Src/stm32h7xx_hal.c **** #else
 283              		.loc 1 158 118 view .LVU63
 284 0026 03F01F03 		and	r3, r3, #31
 158:Drivers/STM32H7xx_HAL_Driver/Src/stm32h7xx_hal.c **** #else
 285              		.loc 1 158 40 view .LVU64
 286 002a 20FA03F3 		lsr	r3, r0, r3
 158:Drivers/STM32H7xx_HAL_Driver/Src/stm32h7xx_hal.c **** #else
 287              		.loc 1 158 17 view .LVU65
 288 002e 094A     		ldr	r2, .L25+8
 289 0030 1360     		str	r3, [r2]
 166:Drivers/STM32H7xx_HAL_Driver/Src/stm32h7xx_hal.c **** #endif /* DUAL_CORE && CORE_CM4 */
 290              		.loc 1 166 3 is_stmt 1 view .LVU66
 166:Drivers/STM32H7xx_HAL_Driver/Src/stm32h7xx_hal.c **** #endif /* DUAL_CORE && CORE_CM4 */
 291              		.loc 1 166 19 is_stmt 0 view .LVU67
ARM GAS  C:\Users\Brandon\AppData\Local\Temp\ccg7xZpb.s 			page 12


 292 0032 094B     		ldr	r3, .L25+12
 293 0034 1860     		str	r0, [r3]
 170:Drivers/STM32H7xx_HAL_Driver/Src/stm32h7xx_hal.c ****   {
 294              		.loc 1 170 3 is_stmt 1 view .LVU68
 170:Drivers/STM32H7xx_HAL_Driver/Src/stm32h7xx_hal.c ****   {
 295              		.loc 1 170 6 is_stmt 0 view .LVU69
 296 0036 0020     		movs	r0, #0
 297              	.LVL11:
 170:Drivers/STM32H7xx_HAL_Driver/Src/stm32h7xx_hal.c ****   {
 298              		.loc 1 170 6 view .LVU70
 299 0038 FFF7FEFF 		bl	HAL_InitTick
 300              	.LVL12:
 170:Drivers/STM32H7xx_HAL_Driver/Src/stm32h7xx_hal.c ****   {
 301              		.loc 1 170 5 view .LVU71
 302 003c 10B1     		cbz	r0, .L24
 172:Drivers/STM32H7xx_HAL_Driver/Src/stm32h7xx_hal.c ****   }
 303              		.loc 1 172 12 view .LVU72
 304 003e 0124     		movs	r4, #1
 305              	.L21:
 180:Drivers/STM32H7xx_HAL_Driver/Src/stm32h7xx_hal.c **** 
 306              		.loc 1 180 1 view .LVU73
 307 0040 2046     		mov	r0, r4
 308 0042 10BD     		pop	{r4, pc}
 309              	.L24:
 310 0044 0446     		mov	r4, r0
 176:Drivers/STM32H7xx_HAL_Driver/Src/stm32h7xx_hal.c **** 
 311              		.loc 1 176 3 is_stmt 1 view .LVU74
 312 0046 FFF7FEFF 		bl	HAL_MspInit
 313              	.LVL13:
 179:Drivers/STM32H7xx_HAL_Driver/Src/stm32h7xx_hal.c **** }
 314              		.loc 1 179 3 view .LVU75
 179:Drivers/STM32H7xx_HAL_Driver/Src/stm32h7xx_hal.c **** }
 315              		.loc 1 179 10 is_stmt 0 view .LVU76
 316 004a F9E7     		b	.L21
 317              	.L26:
 318              		.align	2
 319              	.L25:
 320 004c 00440258 		.word	1476543488
 321 0050 00000000 		.word	D1CorePrescTable
 322 0054 00000000 		.word	SystemD2Clock
 323 0058 00000000 		.word	SystemCoreClock
 324              		.cfi_endproc
 325              	.LFE141:
 327              		.section	.text.HAL_IncTick,"ax",%progbits
 328              		.align	1
 329              		.weak	HAL_IncTick
 330              		.syntax unified
 331              		.thumb
 332              		.thumb_func
 333              		.fpu fpv5-d16
 335              	HAL_IncTick:
 336              	.LFB146:
 290:Drivers/STM32H7xx_HAL_Driver/Src/stm32h7xx_hal.c **** 
 291:Drivers/STM32H7xx_HAL_Driver/Src/stm32h7xx_hal.c **** /**
 292:Drivers/STM32H7xx_HAL_Driver/Src/stm32h7xx_hal.c ****   * @}
 293:Drivers/STM32H7xx_HAL_Driver/Src/stm32h7xx_hal.c ****   */
 294:Drivers/STM32H7xx_HAL_Driver/Src/stm32h7xx_hal.c **** 
ARM GAS  C:\Users\Brandon\AppData\Local\Temp\ccg7xZpb.s 			page 13


 295:Drivers/STM32H7xx_HAL_Driver/Src/stm32h7xx_hal.c **** /** @defgroup HAL_Group2 HAL Control functions
 296:Drivers/STM32H7xx_HAL_Driver/Src/stm32h7xx_hal.c ****  *  @brief    HAL Control functions
 297:Drivers/STM32H7xx_HAL_Driver/Src/stm32h7xx_hal.c ****  *
 298:Drivers/STM32H7xx_HAL_Driver/Src/stm32h7xx_hal.c **** @verbatim
 299:Drivers/STM32H7xx_HAL_Driver/Src/stm32h7xx_hal.c ****  ===============================================================================
 300:Drivers/STM32H7xx_HAL_Driver/Src/stm32h7xx_hal.c ****                       ##### HAL Control functions #####
 301:Drivers/STM32H7xx_HAL_Driver/Src/stm32h7xx_hal.c ****  ===============================================================================
 302:Drivers/STM32H7xx_HAL_Driver/Src/stm32h7xx_hal.c ****     [..]  This section provides functions allowing to:
 303:Drivers/STM32H7xx_HAL_Driver/Src/stm32h7xx_hal.c ****       (+) Provide a tick value in millisecond
 304:Drivers/STM32H7xx_HAL_Driver/Src/stm32h7xx_hal.c ****       (+) Provide a blocking delay in millisecond
 305:Drivers/STM32H7xx_HAL_Driver/Src/stm32h7xx_hal.c ****       (+) Suspend the time base source interrupt
 306:Drivers/STM32H7xx_HAL_Driver/Src/stm32h7xx_hal.c ****       (+) Resume the time base source interrupt
 307:Drivers/STM32H7xx_HAL_Driver/Src/stm32h7xx_hal.c ****       (+) Get the HAL API driver version
 308:Drivers/STM32H7xx_HAL_Driver/Src/stm32h7xx_hal.c ****       (+) Get the device identifier
 309:Drivers/STM32H7xx_HAL_Driver/Src/stm32h7xx_hal.c ****       (+) Get the device revision identifier
 310:Drivers/STM32H7xx_HAL_Driver/Src/stm32h7xx_hal.c ****       (+) Enable/Disable Debug module during SLEEP mode
 311:Drivers/STM32H7xx_HAL_Driver/Src/stm32h7xx_hal.c ****       (+) Enable/Disable Debug module during STOP mode
 312:Drivers/STM32H7xx_HAL_Driver/Src/stm32h7xx_hal.c ****       (+) Enable/Disable Debug module during STANDBY mode
 313:Drivers/STM32H7xx_HAL_Driver/Src/stm32h7xx_hal.c **** 
 314:Drivers/STM32H7xx_HAL_Driver/Src/stm32h7xx_hal.c **** @endverbatim
 315:Drivers/STM32H7xx_HAL_Driver/Src/stm32h7xx_hal.c ****   * @{
 316:Drivers/STM32H7xx_HAL_Driver/Src/stm32h7xx_hal.c ****   */
 317:Drivers/STM32H7xx_HAL_Driver/Src/stm32h7xx_hal.c **** 
 318:Drivers/STM32H7xx_HAL_Driver/Src/stm32h7xx_hal.c **** /**
 319:Drivers/STM32H7xx_HAL_Driver/Src/stm32h7xx_hal.c ****   * @brief This function is called to increment  a global variable "uwTick"
 320:Drivers/STM32H7xx_HAL_Driver/Src/stm32h7xx_hal.c ****   *        used as application time base.
 321:Drivers/STM32H7xx_HAL_Driver/Src/stm32h7xx_hal.c ****   * @note In the default implementation, this variable is incremented each 1ms
 322:Drivers/STM32H7xx_HAL_Driver/Src/stm32h7xx_hal.c ****   *       in Systick ISR.
 323:Drivers/STM32H7xx_HAL_Driver/Src/stm32h7xx_hal.c ****  * @note This function is declared as __weak to be overwritten in case of other
 324:Drivers/STM32H7xx_HAL_Driver/Src/stm32h7xx_hal.c ****   *      implementations in user file.
 325:Drivers/STM32H7xx_HAL_Driver/Src/stm32h7xx_hal.c ****   * @retval None
 326:Drivers/STM32H7xx_HAL_Driver/Src/stm32h7xx_hal.c ****   */
 327:Drivers/STM32H7xx_HAL_Driver/Src/stm32h7xx_hal.c **** __weak void HAL_IncTick(void)
 328:Drivers/STM32H7xx_HAL_Driver/Src/stm32h7xx_hal.c **** {
 337              		.loc 1 328 1 is_stmt 1 view -0
 338              		.cfi_startproc
 339              		@ args = 0, pretend = 0, frame = 0
 340              		@ frame_needed = 0, uses_anonymous_args = 0
 341              		@ link register save eliminated.
 329:Drivers/STM32H7xx_HAL_Driver/Src/stm32h7xx_hal.c ****   uwTick += (uint32_t)uwTickFreq;
 342              		.loc 1 329 3 view .LVU78
 343              		.loc 1 329 13 is_stmt 0 view .LVU79
 344 0000 034B     		ldr	r3, .L28
 345 0002 1B78     		ldrb	r3, [r3]	@ zero_extendqisi2
 346              		.loc 1 329 10 view .LVU80
 347 0004 034A     		ldr	r2, .L28+4
 348 0006 1168     		ldr	r1, [r2]
 349 0008 0B44     		add	r3, r3, r1
 350 000a 1360     		str	r3, [r2]
 330:Drivers/STM32H7xx_HAL_Driver/Src/stm32h7xx_hal.c **** }
 351              		.loc 1 330 1 view .LVU81
 352 000c 7047     		bx	lr
 353              	.L29:
 354 000e 00BF     		.align	2
 355              	.L28:
 356 0010 00000000 		.word	.LANCHOR0
 357 0014 00000000 		.word	uwTick
ARM GAS  C:\Users\Brandon\AppData\Local\Temp\ccg7xZpb.s 			page 14


 358              		.cfi_endproc
 359              	.LFE146:
 361              		.section	.text.HAL_GetTick,"ax",%progbits
 362              		.align	1
 363              		.weak	HAL_GetTick
 364              		.syntax unified
 365              		.thumb
 366              		.thumb_func
 367              		.fpu fpv5-d16
 369              	HAL_GetTick:
 370              	.LFB147:
 331:Drivers/STM32H7xx_HAL_Driver/Src/stm32h7xx_hal.c **** 
 332:Drivers/STM32H7xx_HAL_Driver/Src/stm32h7xx_hal.c **** /**
 333:Drivers/STM32H7xx_HAL_Driver/Src/stm32h7xx_hal.c ****   * @brief Provides a tick value in millisecond.
 334:Drivers/STM32H7xx_HAL_Driver/Src/stm32h7xx_hal.c ****   * @note This function is declared as __weak to be overwritten in case of other
 335:Drivers/STM32H7xx_HAL_Driver/Src/stm32h7xx_hal.c ****   *       implementations in user file.
 336:Drivers/STM32H7xx_HAL_Driver/Src/stm32h7xx_hal.c ****   * @retval tick value
 337:Drivers/STM32H7xx_HAL_Driver/Src/stm32h7xx_hal.c ****   */
 338:Drivers/STM32H7xx_HAL_Driver/Src/stm32h7xx_hal.c **** __weak uint32_t HAL_GetTick(void)
 339:Drivers/STM32H7xx_HAL_Driver/Src/stm32h7xx_hal.c **** {
 371              		.loc 1 339 1 is_stmt 1 view -0
 372              		.cfi_startproc
 373              		@ args = 0, pretend = 0, frame = 0
 374              		@ frame_needed = 0, uses_anonymous_args = 0
 375              		@ link register save eliminated.
 340:Drivers/STM32H7xx_HAL_Driver/Src/stm32h7xx_hal.c ****   return uwTick;
 376              		.loc 1 340 3 view .LVU83
 377              		.loc 1 340 10 is_stmt 0 view .LVU84
 378 0000 014B     		ldr	r3, .L31
 379 0002 1868     		ldr	r0, [r3]
 341:Drivers/STM32H7xx_HAL_Driver/Src/stm32h7xx_hal.c **** }
 380              		.loc 1 341 1 view .LVU85
 381 0004 7047     		bx	lr
 382              	.L32:
 383 0006 00BF     		.align	2
 384              	.L31:
 385 0008 00000000 		.word	uwTick
 386              		.cfi_endproc
 387              	.LFE147:
 389              		.section	.text.HAL_GetTickPrio,"ax",%progbits
 390              		.align	1
 391              		.global	HAL_GetTickPrio
 392              		.syntax unified
 393              		.thumb
 394              		.thumb_func
 395              		.fpu fpv5-d16
 397              	HAL_GetTickPrio:
 398              	.LFB148:
 342:Drivers/STM32H7xx_HAL_Driver/Src/stm32h7xx_hal.c **** 
 343:Drivers/STM32H7xx_HAL_Driver/Src/stm32h7xx_hal.c **** /**
 344:Drivers/STM32H7xx_HAL_Driver/Src/stm32h7xx_hal.c ****   * @brief This function returns a tick priority.
 345:Drivers/STM32H7xx_HAL_Driver/Src/stm32h7xx_hal.c ****   * @retval tick priority
 346:Drivers/STM32H7xx_HAL_Driver/Src/stm32h7xx_hal.c ****   */
 347:Drivers/STM32H7xx_HAL_Driver/Src/stm32h7xx_hal.c **** uint32_t HAL_GetTickPrio(void)
 348:Drivers/STM32H7xx_HAL_Driver/Src/stm32h7xx_hal.c **** {
 399              		.loc 1 348 1 is_stmt 1 view -0
 400              		.cfi_startproc
ARM GAS  C:\Users\Brandon\AppData\Local\Temp\ccg7xZpb.s 			page 15


 401              		@ args = 0, pretend = 0, frame = 0
 402              		@ frame_needed = 0, uses_anonymous_args = 0
 403              		@ link register save eliminated.
 349:Drivers/STM32H7xx_HAL_Driver/Src/stm32h7xx_hal.c ****   return uwTickPrio;
 404              		.loc 1 349 3 view .LVU87
 350:Drivers/STM32H7xx_HAL_Driver/Src/stm32h7xx_hal.c **** }
 405              		.loc 1 350 1 is_stmt 0 view .LVU88
 406 0000 014B     		ldr	r3, .L34
 407 0002 1868     		ldr	r0, [r3]
 408 0004 7047     		bx	lr
 409              	.L35:
 410 0006 00BF     		.align	2
 411              	.L34:
 412 0008 00000000 		.word	.LANCHOR1
 413              		.cfi_endproc
 414              	.LFE148:
 416              		.section	.text.HAL_SetTickFreq,"ax",%progbits
 417              		.align	1
 418              		.global	HAL_SetTickFreq
 419              		.syntax unified
 420              		.thumb
 421              		.thumb_func
 422              		.fpu fpv5-d16
 424              	HAL_SetTickFreq:
 425              	.LVL14:
 426              	.LFB149:
 351:Drivers/STM32H7xx_HAL_Driver/Src/stm32h7xx_hal.c **** 
 352:Drivers/STM32H7xx_HAL_Driver/Src/stm32h7xx_hal.c **** /**
 353:Drivers/STM32H7xx_HAL_Driver/Src/stm32h7xx_hal.c ****   * @brief Set new tick Freq.
 354:Drivers/STM32H7xx_HAL_Driver/Src/stm32h7xx_hal.c ****   * @retval Status
 355:Drivers/STM32H7xx_HAL_Driver/Src/stm32h7xx_hal.c ****   */
 356:Drivers/STM32H7xx_HAL_Driver/Src/stm32h7xx_hal.c **** HAL_StatusTypeDef HAL_SetTickFreq(HAL_TickFreqTypeDef Freq)
 357:Drivers/STM32H7xx_HAL_Driver/Src/stm32h7xx_hal.c **** {
 427              		.loc 1 357 1 is_stmt 1 view -0
 428              		.cfi_startproc
 429              		@ args = 0, pretend = 0, frame = 0
 430              		@ frame_needed = 0, uses_anonymous_args = 0
 431              		.loc 1 357 1 is_stmt 0 view .LVU90
 432 0000 10B5     		push	{r4, lr}
 433              	.LCFI3:
 434              		.cfi_def_cfa_offset 8
 435              		.cfi_offset 4, -8
 436              		.cfi_offset 14, -4
 358:Drivers/STM32H7xx_HAL_Driver/Src/stm32h7xx_hal.c ****   HAL_StatusTypeDef status  = HAL_OK;
 437              		.loc 1 358 3 is_stmt 1 view .LVU91
 438              	.LVL15:
 359:Drivers/STM32H7xx_HAL_Driver/Src/stm32h7xx_hal.c ****   HAL_TickFreqTypeDef prevTickFreq;
 439              		.loc 1 359 3 view .LVU92
 360:Drivers/STM32H7xx_HAL_Driver/Src/stm32h7xx_hal.c **** 
 361:Drivers/STM32H7xx_HAL_Driver/Src/stm32h7xx_hal.c ****   assert_param(IS_TICKFREQ(Freq));
 440              		.loc 1 361 3 view .LVU93
 362:Drivers/STM32H7xx_HAL_Driver/Src/stm32h7xx_hal.c **** 
 363:Drivers/STM32H7xx_HAL_Driver/Src/stm32h7xx_hal.c ****   if (uwTickFreq != Freq)
 441              		.loc 1 363 3 view .LVU94
 442              		.loc 1 363 18 is_stmt 0 view .LVU95
 443 0002 084B     		ldr	r3, .L41
 444 0004 1C78     		ldrb	r4, [r3]	@ zero_extendqisi2
ARM GAS  C:\Users\Brandon\AppData\Local\Temp\ccg7xZpb.s 			page 16


 445              		.loc 1 363 6 view .LVU96
 446 0006 8442     		cmp	r4, r0
 447 0008 01D1     		bne	.L40
 358:Drivers/STM32H7xx_HAL_Driver/Src/stm32h7xx_hal.c ****   HAL_TickFreqTypeDef prevTickFreq;
 448              		.loc 1 358 21 view .LVU97
 449 000a 0020     		movs	r0, #0
 450              	.LVL16:
 451              	.L37:
 364:Drivers/STM32H7xx_HAL_Driver/Src/stm32h7xx_hal.c ****   {
 365:Drivers/STM32H7xx_HAL_Driver/Src/stm32h7xx_hal.c **** 
 366:Drivers/STM32H7xx_HAL_Driver/Src/stm32h7xx_hal.c ****     /* Back up uwTickFreq frequency */
 367:Drivers/STM32H7xx_HAL_Driver/Src/stm32h7xx_hal.c ****     prevTickFreq = uwTickFreq;
 368:Drivers/STM32H7xx_HAL_Driver/Src/stm32h7xx_hal.c **** 
 369:Drivers/STM32H7xx_HAL_Driver/Src/stm32h7xx_hal.c ****     /* Update uwTickFreq global variable used by HAL_InitTick() */
 370:Drivers/STM32H7xx_HAL_Driver/Src/stm32h7xx_hal.c ****     uwTickFreq = Freq;
 371:Drivers/STM32H7xx_HAL_Driver/Src/stm32h7xx_hal.c **** 
 372:Drivers/STM32H7xx_HAL_Driver/Src/stm32h7xx_hal.c ****     /* Apply the new tick Freq  */
 373:Drivers/STM32H7xx_HAL_Driver/Src/stm32h7xx_hal.c ****     status = HAL_InitTick(uwTickPrio);
 374:Drivers/STM32H7xx_HAL_Driver/Src/stm32h7xx_hal.c ****     if (status != HAL_OK)
 375:Drivers/STM32H7xx_HAL_Driver/Src/stm32h7xx_hal.c ****     {
 376:Drivers/STM32H7xx_HAL_Driver/Src/stm32h7xx_hal.c ****       /* Restore previous tick frequency */
 377:Drivers/STM32H7xx_HAL_Driver/Src/stm32h7xx_hal.c ****       uwTickFreq = prevTickFreq;
 378:Drivers/STM32H7xx_HAL_Driver/Src/stm32h7xx_hal.c ****     }
 379:Drivers/STM32H7xx_HAL_Driver/Src/stm32h7xx_hal.c ****   }
 380:Drivers/STM32H7xx_HAL_Driver/Src/stm32h7xx_hal.c **** 
 381:Drivers/STM32H7xx_HAL_Driver/Src/stm32h7xx_hal.c ****   return status;
 452              		.loc 1 381 3 is_stmt 1 view .LVU98
 382:Drivers/STM32H7xx_HAL_Driver/Src/stm32h7xx_hal.c **** }
 453              		.loc 1 382 1 is_stmt 0 view .LVU99
 454 000c 10BD     		pop	{r4, pc}
 455              	.LVL17:
 456              	.L40:
 367:Drivers/STM32H7xx_HAL_Driver/Src/stm32h7xx_hal.c **** 
 457              		.loc 1 367 5 is_stmt 1 view .LVU100
 370:Drivers/STM32H7xx_HAL_Driver/Src/stm32h7xx_hal.c **** 
 458              		.loc 1 370 5 view .LVU101
 370:Drivers/STM32H7xx_HAL_Driver/Src/stm32h7xx_hal.c **** 
 459              		.loc 1 370 16 is_stmt 0 view .LVU102
 460 000e 1870     		strb	r0, [r3]
 373:Drivers/STM32H7xx_HAL_Driver/Src/stm32h7xx_hal.c ****     if (status != HAL_OK)
 461              		.loc 1 373 5 is_stmt 1 view .LVU103
 373:Drivers/STM32H7xx_HAL_Driver/Src/stm32h7xx_hal.c ****     if (status != HAL_OK)
 462              		.loc 1 373 14 is_stmt 0 view .LVU104
 463 0010 054B     		ldr	r3, .L41+4
 464 0012 1868     		ldr	r0, [r3]
 465              	.LVL18:
 373:Drivers/STM32H7xx_HAL_Driver/Src/stm32h7xx_hal.c ****     if (status != HAL_OK)
 466              		.loc 1 373 14 view .LVU105
 467 0014 FFF7FEFF 		bl	HAL_InitTick
 468              	.LVL19:
 374:Drivers/STM32H7xx_HAL_Driver/Src/stm32h7xx_hal.c ****     {
 469              		.loc 1 374 5 is_stmt 1 view .LVU106
 374:Drivers/STM32H7xx_HAL_Driver/Src/stm32h7xx_hal.c ****     {
 470              		.loc 1 374 8 is_stmt 0 view .LVU107
 471 0018 0028     		cmp	r0, #0
 472 001a F7D0     		beq	.L37
 377:Drivers/STM32H7xx_HAL_Driver/Src/stm32h7xx_hal.c ****     }
ARM GAS  C:\Users\Brandon\AppData\Local\Temp\ccg7xZpb.s 			page 17


 473              		.loc 1 377 7 is_stmt 1 view .LVU108
 377:Drivers/STM32H7xx_HAL_Driver/Src/stm32h7xx_hal.c ****     }
 474              		.loc 1 377 18 is_stmt 0 view .LVU109
 475 001c 014B     		ldr	r3, .L41
 476 001e 1C70     		strb	r4, [r3]
 477 0020 F4E7     		b	.L37
 478              	.L42:
 479 0022 00BF     		.align	2
 480              	.L41:
 481 0024 00000000 		.word	.LANCHOR0
 482 0028 00000000 		.word	.LANCHOR1
 483              		.cfi_endproc
 484              	.LFE149:
 486              		.section	.text.HAL_GetTickFreq,"ax",%progbits
 487              		.align	1
 488              		.global	HAL_GetTickFreq
 489              		.syntax unified
 490              		.thumb
 491              		.thumb_func
 492              		.fpu fpv5-d16
 494              	HAL_GetTickFreq:
 495              	.LFB150:
 383:Drivers/STM32H7xx_HAL_Driver/Src/stm32h7xx_hal.c **** 
 384:Drivers/STM32H7xx_HAL_Driver/Src/stm32h7xx_hal.c **** /**
 385:Drivers/STM32H7xx_HAL_Driver/Src/stm32h7xx_hal.c ****   * @brief Return tick frequency.
 386:Drivers/STM32H7xx_HAL_Driver/Src/stm32h7xx_hal.c ****   * @retval tick period in Hz
 387:Drivers/STM32H7xx_HAL_Driver/Src/stm32h7xx_hal.c ****   */
 388:Drivers/STM32H7xx_HAL_Driver/Src/stm32h7xx_hal.c **** HAL_TickFreqTypeDef HAL_GetTickFreq(void)
 389:Drivers/STM32H7xx_HAL_Driver/Src/stm32h7xx_hal.c **** {
 496              		.loc 1 389 1 is_stmt 1 view -0
 497              		.cfi_startproc
 498              		@ args = 0, pretend = 0, frame = 0
 499              		@ frame_needed = 0, uses_anonymous_args = 0
 500              		@ link register save eliminated.
 390:Drivers/STM32H7xx_HAL_Driver/Src/stm32h7xx_hal.c ****   return uwTickFreq;
 501              		.loc 1 390 3 view .LVU111
 391:Drivers/STM32H7xx_HAL_Driver/Src/stm32h7xx_hal.c **** }
 502              		.loc 1 391 1 is_stmt 0 view .LVU112
 503 0000 014B     		ldr	r3, .L44
 504 0002 1878     		ldrb	r0, [r3]	@ zero_extendqisi2
 505 0004 7047     		bx	lr
 506              	.L45:
 507 0006 00BF     		.align	2
 508              	.L44:
 509 0008 00000000 		.word	.LANCHOR0
 510              		.cfi_endproc
 511              	.LFE150:
 513              		.section	.text.HAL_Delay,"ax",%progbits
 514              		.align	1
 515              		.weak	HAL_Delay
 516              		.syntax unified
 517              		.thumb
 518              		.thumb_func
 519              		.fpu fpv5-d16
 521              	HAL_Delay:
 522              	.LVL20:
 523              	.LFB151:
ARM GAS  C:\Users\Brandon\AppData\Local\Temp\ccg7xZpb.s 			page 18


 392:Drivers/STM32H7xx_HAL_Driver/Src/stm32h7xx_hal.c **** 
 393:Drivers/STM32H7xx_HAL_Driver/Src/stm32h7xx_hal.c **** /**
 394:Drivers/STM32H7xx_HAL_Driver/Src/stm32h7xx_hal.c ****   * @brief This function provides minimum delay (in milliseconds) based
 395:Drivers/STM32H7xx_HAL_Driver/Src/stm32h7xx_hal.c ****   *        on variable incremented.
 396:Drivers/STM32H7xx_HAL_Driver/Src/stm32h7xx_hal.c ****   * @note In the default implementation , SysTick timer is the source of time base.
 397:Drivers/STM32H7xx_HAL_Driver/Src/stm32h7xx_hal.c ****   *       It is used to generate interrupts at regular time intervals where uwTick
 398:Drivers/STM32H7xx_HAL_Driver/Src/stm32h7xx_hal.c ****   *       is incremented.
 399:Drivers/STM32H7xx_HAL_Driver/Src/stm32h7xx_hal.c ****   * @note This function is declared as __weak to be overwritten in case of other
 400:Drivers/STM32H7xx_HAL_Driver/Src/stm32h7xx_hal.c ****   *       implementations in user file.
 401:Drivers/STM32H7xx_HAL_Driver/Src/stm32h7xx_hal.c ****   * @param Delay  specifies the delay time length, in milliseconds.
 402:Drivers/STM32H7xx_HAL_Driver/Src/stm32h7xx_hal.c ****   * @retval None
 403:Drivers/STM32H7xx_HAL_Driver/Src/stm32h7xx_hal.c ****   */
 404:Drivers/STM32H7xx_HAL_Driver/Src/stm32h7xx_hal.c **** __weak void HAL_Delay(uint32_t Delay)
 405:Drivers/STM32H7xx_HAL_Driver/Src/stm32h7xx_hal.c **** {
 524              		.loc 1 405 1 is_stmt 1 view -0
 525              		.cfi_startproc
 526              		@ args = 0, pretend = 0, frame = 0
 527              		@ frame_needed = 0, uses_anonymous_args = 0
 528              		.loc 1 405 1 is_stmt 0 view .LVU114
 529 0000 38B5     		push	{r3, r4, r5, lr}
 530              	.LCFI4:
 531              		.cfi_def_cfa_offset 16
 532              		.cfi_offset 3, -16
 533              		.cfi_offset 4, -12
 534              		.cfi_offset 5, -8
 535              		.cfi_offset 14, -4
 536 0002 0446     		mov	r4, r0
 406:Drivers/STM32H7xx_HAL_Driver/Src/stm32h7xx_hal.c ****   uint32_t tickstart = HAL_GetTick();
 537              		.loc 1 406 3 is_stmt 1 view .LVU115
 538              		.loc 1 406 24 is_stmt 0 view .LVU116
 539 0004 FFF7FEFF 		bl	HAL_GetTick
 540              	.LVL21:
 541              		.loc 1 406 24 view .LVU117
 542 0008 0546     		mov	r5, r0
 543              	.LVL22:
 407:Drivers/STM32H7xx_HAL_Driver/Src/stm32h7xx_hal.c ****   uint32_t wait = Delay;
 544              		.loc 1 407 3 is_stmt 1 view .LVU118
 408:Drivers/STM32H7xx_HAL_Driver/Src/stm32h7xx_hal.c **** 
 409:Drivers/STM32H7xx_HAL_Driver/Src/stm32h7xx_hal.c ****   /* Add a freq to guarantee minimum wait */
 410:Drivers/STM32H7xx_HAL_Driver/Src/stm32h7xx_hal.c ****   if (wait < HAL_MAX_DELAY)
 545              		.loc 1 410 3 view .LVU119
 546              		.loc 1 410 6 is_stmt 0 view .LVU120
 547 000a B4F1FF3F 		cmp	r4, #-1
 548 000e 02D0     		beq	.L48
 411:Drivers/STM32H7xx_HAL_Driver/Src/stm32h7xx_hal.c ****   {
 412:Drivers/STM32H7xx_HAL_Driver/Src/stm32h7xx_hal.c ****     wait += (uint32_t)(uwTickFreq);
 549              		.loc 1 412 5 is_stmt 1 view .LVU121
 550              		.loc 1 412 13 is_stmt 0 view .LVU122
 551 0010 044B     		ldr	r3, .L50
 552 0012 1B78     		ldrb	r3, [r3]	@ zero_extendqisi2
 553              		.loc 1 412 10 view .LVU123
 554 0014 1C44     		add	r4, r4, r3
 555              	.LVL23:
 556              	.L48:
 413:Drivers/STM32H7xx_HAL_Driver/Src/stm32h7xx_hal.c ****   }
 414:Drivers/STM32H7xx_HAL_Driver/Src/stm32h7xx_hal.c **** 
 415:Drivers/STM32H7xx_HAL_Driver/Src/stm32h7xx_hal.c ****   while ((HAL_GetTick() - tickstart) < wait)
ARM GAS  C:\Users\Brandon\AppData\Local\Temp\ccg7xZpb.s 			page 19


 416:Drivers/STM32H7xx_HAL_Driver/Src/stm32h7xx_hal.c ****   {
 417:Drivers/STM32H7xx_HAL_Driver/Src/stm32h7xx_hal.c ****   }
 557              		.loc 1 417 3 is_stmt 1 discriminator 1 view .LVU124
 415:Drivers/STM32H7xx_HAL_Driver/Src/stm32h7xx_hal.c ****   {
 558              		.loc 1 415 9 discriminator 1 view .LVU125
 415:Drivers/STM32H7xx_HAL_Driver/Src/stm32h7xx_hal.c ****   {
 559              		.loc 1 415 11 is_stmt 0 discriminator 1 view .LVU126
 560 0016 FFF7FEFF 		bl	HAL_GetTick
 561              	.LVL24:
 415:Drivers/STM32H7xx_HAL_Driver/Src/stm32h7xx_hal.c ****   {
 562              		.loc 1 415 25 discriminator 1 view .LVU127
 563 001a 401B     		subs	r0, r0, r5
 415:Drivers/STM32H7xx_HAL_Driver/Src/stm32h7xx_hal.c ****   {
 564              		.loc 1 415 9 discriminator 1 view .LVU128
 565 001c A042     		cmp	r0, r4
 566 001e FAD3     		bcc	.L48
 418:Drivers/STM32H7xx_HAL_Driver/Src/stm32h7xx_hal.c **** }
 567              		.loc 1 418 1 view .LVU129
 568 0020 38BD     		pop	{r3, r4, r5, pc}
 569              	.LVL25:
 570              	.L51:
 571              		.loc 1 418 1 view .LVU130
 572 0022 00BF     		.align	2
 573              	.L50:
 574 0024 00000000 		.word	.LANCHOR0
 575              		.cfi_endproc
 576              	.LFE151:
 578              		.section	.text.HAL_SuspendTick,"ax",%progbits
 579              		.align	1
 580              		.weak	HAL_SuspendTick
 581              		.syntax unified
 582              		.thumb
 583              		.thumb_func
 584              		.fpu fpv5-d16
 586              	HAL_SuspendTick:
 587              	.LFB152:
 419:Drivers/STM32H7xx_HAL_Driver/Src/stm32h7xx_hal.c **** 
 420:Drivers/STM32H7xx_HAL_Driver/Src/stm32h7xx_hal.c **** /**
 421:Drivers/STM32H7xx_HAL_Driver/Src/stm32h7xx_hal.c ****   * @brief Suspend Tick increment.
 422:Drivers/STM32H7xx_HAL_Driver/Src/stm32h7xx_hal.c ****   * @note In the default implementation , SysTick timer is the source of time base. It is
 423:Drivers/STM32H7xx_HAL_Driver/Src/stm32h7xx_hal.c ****   *       used to generate interrupts at regular time intervals. Once HAL_SuspendTick()
 424:Drivers/STM32H7xx_HAL_Driver/Src/stm32h7xx_hal.c ****   *       is called, the the SysTick interrupt will be disabled and so Tick increment
 425:Drivers/STM32H7xx_HAL_Driver/Src/stm32h7xx_hal.c ****   *       is suspended.
 426:Drivers/STM32H7xx_HAL_Driver/Src/stm32h7xx_hal.c ****   * @note This function is declared as __weak to be overwritten in case of other
 427:Drivers/STM32H7xx_HAL_Driver/Src/stm32h7xx_hal.c ****   *       implementations in user file.
 428:Drivers/STM32H7xx_HAL_Driver/Src/stm32h7xx_hal.c ****   * @retval None
 429:Drivers/STM32H7xx_HAL_Driver/Src/stm32h7xx_hal.c ****   */
 430:Drivers/STM32H7xx_HAL_Driver/Src/stm32h7xx_hal.c **** __weak void HAL_SuspendTick(void)
 431:Drivers/STM32H7xx_HAL_Driver/Src/stm32h7xx_hal.c **** {
 588              		.loc 1 431 1 is_stmt 1 view -0
 589              		.cfi_startproc
 590              		@ args = 0, pretend = 0, frame = 0
 591              		@ frame_needed = 0, uses_anonymous_args = 0
 592              		@ link register save eliminated.
 432:Drivers/STM32H7xx_HAL_Driver/Src/stm32h7xx_hal.c ****   /* Disable SysTick Interrupt */
 433:Drivers/STM32H7xx_HAL_Driver/Src/stm32h7xx_hal.c ****   SysTick->CTRL &= ~SysTick_CTRL_TICKINT_Msk;
 593              		.loc 1 433 3 view .LVU132
ARM GAS  C:\Users\Brandon\AppData\Local\Temp\ccg7xZpb.s 			page 20


 594              		.loc 1 433 17 is_stmt 0 view .LVU133
 595 0000 024A     		ldr	r2, .L53
 596 0002 1368     		ldr	r3, [r2]
 597 0004 23F00203 		bic	r3, r3, #2
 598 0008 1360     		str	r3, [r2]
 434:Drivers/STM32H7xx_HAL_Driver/Src/stm32h7xx_hal.c **** }
 599              		.loc 1 434 1 view .LVU134
 600 000a 7047     		bx	lr
 601              	.L54:
 602              		.align	2
 603              	.L53:
 604 000c 10E000E0 		.word	-536813552
 605              		.cfi_endproc
 606              	.LFE152:
 608              		.section	.text.HAL_ResumeTick,"ax",%progbits
 609              		.align	1
 610              		.weak	HAL_ResumeTick
 611              		.syntax unified
 612              		.thumb
 613              		.thumb_func
 614              		.fpu fpv5-d16
 616              	HAL_ResumeTick:
 617              	.LFB153:
 435:Drivers/STM32H7xx_HAL_Driver/Src/stm32h7xx_hal.c **** 
 436:Drivers/STM32H7xx_HAL_Driver/Src/stm32h7xx_hal.c **** /**
 437:Drivers/STM32H7xx_HAL_Driver/Src/stm32h7xx_hal.c ****   * @brief Resume Tick increment.
 438:Drivers/STM32H7xx_HAL_Driver/Src/stm32h7xx_hal.c ****   * @note In the default implementation , SysTick timer is the source of time base. It is
 439:Drivers/STM32H7xx_HAL_Driver/Src/stm32h7xx_hal.c ****   *       used to generate interrupts at regular time intervals. Once HAL_ResumeTick()
 440:Drivers/STM32H7xx_HAL_Driver/Src/stm32h7xx_hal.c ****   *       is called, the the SysTick interrupt will be enabled and so Tick increment
 441:Drivers/STM32H7xx_HAL_Driver/Src/stm32h7xx_hal.c ****   *       is resumed.
 442:Drivers/STM32H7xx_HAL_Driver/Src/stm32h7xx_hal.c ****   * @note This function is declared as __weak to be overwritten in case of other
 443:Drivers/STM32H7xx_HAL_Driver/Src/stm32h7xx_hal.c ****   *       implementations in user file.
 444:Drivers/STM32H7xx_HAL_Driver/Src/stm32h7xx_hal.c ****   * @retval None
 445:Drivers/STM32H7xx_HAL_Driver/Src/stm32h7xx_hal.c ****   */
 446:Drivers/STM32H7xx_HAL_Driver/Src/stm32h7xx_hal.c **** __weak void HAL_ResumeTick(void)
 447:Drivers/STM32H7xx_HAL_Driver/Src/stm32h7xx_hal.c **** {
 618              		.loc 1 447 1 is_stmt 1 view -0
 619              		.cfi_startproc
 620              		@ args = 0, pretend = 0, frame = 0
 621              		@ frame_needed = 0, uses_anonymous_args = 0
 622              		@ link register save eliminated.
 448:Drivers/STM32H7xx_HAL_Driver/Src/stm32h7xx_hal.c ****   /* Enable SysTick Interrupt */
 449:Drivers/STM32H7xx_HAL_Driver/Src/stm32h7xx_hal.c ****   SysTick->CTRL  |= SysTick_CTRL_TICKINT_Msk;
 623              		.loc 1 449 3 view .LVU136
 624              		.loc 1 449 18 is_stmt 0 view .LVU137
 625 0000 024A     		ldr	r2, .L56
 626 0002 1368     		ldr	r3, [r2]
 627 0004 43F00203 		orr	r3, r3, #2
 628 0008 1360     		str	r3, [r2]
 450:Drivers/STM32H7xx_HAL_Driver/Src/stm32h7xx_hal.c **** }
 629              		.loc 1 450 1 view .LVU138
 630 000a 7047     		bx	lr
 631              	.L57:
 632              		.align	2
 633              	.L56:
 634 000c 10E000E0 		.word	-536813552
 635              		.cfi_endproc
ARM GAS  C:\Users\Brandon\AppData\Local\Temp\ccg7xZpb.s 			page 21


 636              	.LFE153:
 638              		.section	.text.HAL_GetHalVersion,"ax",%progbits
 639              		.align	1
 640              		.global	HAL_GetHalVersion
 641              		.syntax unified
 642              		.thumb
 643              		.thumb_func
 644              		.fpu fpv5-d16
 646              	HAL_GetHalVersion:
 647              	.LFB154:
 451:Drivers/STM32H7xx_HAL_Driver/Src/stm32h7xx_hal.c **** 
 452:Drivers/STM32H7xx_HAL_Driver/Src/stm32h7xx_hal.c **** /**
 453:Drivers/STM32H7xx_HAL_Driver/Src/stm32h7xx_hal.c ****   * @brief  Returns the HAL revision
 454:Drivers/STM32H7xx_HAL_Driver/Src/stm32h7xx_hal.c ****   * @retval version : 0xXYZR (8bits for each decimal, R for RC)
 455:Drivers/STM32H7xx_HAL_Driver/Src/stm32h7xx_hal.c ****   */
 456:Drivers/STM32H7xx_HAL_Driver/Src/stm32h7xx_hal.c **** uint32_t HAL_GetHalVersion(void)
 457:Drivers/STM32H7xx_HAL_Driver/Src/stm32h7xx_hal.c **** {
 648              		.loc 1 457 1 is_stmt 1 view -0
 649              		.cfi_startproc
 650              		@ args = 0, pretend = 0, frame = 0
 651              		@ frame_needed = 0, uses_anonymous_args = 0
 652              		@ link register save eliminated.
 458:Drivers/STM32H7xx_HAL_Driver/Src/stm32h7xx_hal.c ****  return __STM32H7xx_HAL_VERSION;
 653              		.loc 1 458 2 view .LVU140
 459:Drivers/STM32H7xx_HAL_Driver/Src/stm32h7xx_hal.c **** }
 654              		.loc 1 459 1 is_stmt 0 view .LVU141
 655 0000 0048     		ldr	r0, .L59
 656 0002 7047     		bx	lr
 657              	.L60:
 658              		.align	2
 659              	.L59:
 660 0004 00000901 		.word	17367040
 661              		.cfi_endproc
 662              	.LFE154:
 664              		.section	.text.HAL_GetREVID,"ax",%progbits
 665              		.align	1
 666              		.global	HAL_GetREVID
 667              		.syntax unified
 668              		.thumb
 669              		.thumb_func
 670              		.fpu fpv5-d16
 672              	HAL_GetREVID:
 673              	.LFB155:
 460:Drivers/STM32H7xx_HAL_Driver/Src/stm32h7xx_hal.c **** 
 461:Drivers/STM32H7xx_HAL_Driver/Src/stm32h7xx_hal.c **** /**
 462:Drivers/STM32H7xx_HAL_Driver/Src/stm32h7xx_hal.c ****   * @brief  Returns the device revision identifier.
 463:Drivers/STM32H7xx_HAL_Driver/Src/stm32h7xx_hal.c ****   * @retval Device revision identifier
 464:Drivers/STM32H7xx_HAL_Driver/Src/stm32h7xx_hal.c ****   */
 465:Drivers/STM32H7xx_HAL_Driver/Src/stm32h7xx_hal.c **** uint32_t HAL_GetREVID(void)
 466:Drivers/STM32H7xx_HAL_Driver/Src/stm32h7xx_hal.c **** {
 674              		.loc 1 466 1 is_stmt 1 view -0
 675              		.cfi_startproc
 676              		@ args = 0, pretend = 0, frame = 0
 677              		@ frame_needed = 0, uses_anonymous_args = 0
 678              		@ link register save eliminated.
 467:Drivers/STM32H7xx_HAL_Driver/Src/stm32h7xx_hal.c ****    return((DBGMCU->IDCODE) >> 16);
 679              		.loc 1 467 4 view .LVU143
ARM GAS  C:\Users\Brandon\AppData\Local\Temp\ccg7xZpb.s 			page 22


 680              		.loc 1 467 18 is_stmt 0 view .LVU144
 681 0000 014B     		ldr	r3, .L62
 682 0002 1868     		ldr	r0, [r3]
 468:Drivers/STM32H7xx_HAL_Driver/Src/stm32h7xx_hal.c **** }
 683              		.loc 1 468 1 view .LVU145
 684 0004 000C     		lsrs	r0, r0, #16
 685 0006 7047     		bx	lr
 686              	.L63:
 687              		.align	2
 688              	.L62:
 689 0008 0010005C 		.word	1543507968
 690              		.cfi_endproc
 691              	.LFE155:
 693              		.section	.text.HAL_GetDEVID,"ax",%progbits
 694              		.align	1
 695              		.global	HAL_GetDEVID
 696              		.syntax unified
 697              		.thumb
 698              		.thumb_func
 699              		.fpu fpv5-d16
 701              	HAL_GetDEVID:
 702              	.LFB156:
 469:Drivers/STM32H7xx_HAL_Driver/Src/stm32h7xx_hal.c **** 
 470:Drivers/STM32H7xx_HAL_Driver/Src/stm32h7xx_hal.c **** /**
 471:Drivers/STM32H7xx_HAL_Driver/Src/stm32h7xx_hal.c ****   * @brief  Returns the device identifier.
 472:Drivers/STM32H7xx_HAL_Driver/Src/stm32h7xx_hal.c ****   * @retval Device identifier
 473:Drivers/STM32H7xx_HAL_Driver/Src/stm32h7xx_hal.c ****   */
 474:Drivers/STM32H7xx_HAL_Driver/Src/stm32h7xx_hal.c **** uint32_t HAL_GetDEVID(void)
 475:Drivers/STM32H7xx_HAL_Driver/Src/stm32h7xx_hal.c **** {
 703              		.loc 1 475 1 is_stmt 1 view -0
 704              		.cfi_startproc
 705              		@ args = 0, pretend = 0, frame = 0
 706              		@ frame_needed = 0, uses_anonymous_args = 0
 707              		@ link register save eliminated.
 476:Drivers/STM32H7xx_HAL_Driver/Src/stm32h7xx_hal.c ****    return((DBGMCU->IDCODE) & IDCODE_DEVID_MASK);
 708              		.loc 1 476 4 view .LVU147
 709              		.loc 1 476 18 is_stmt 0 view .LVU148
 710 0000 024B     		ldr	r3, .L65
 711 0002 1868     		ldr	r0, [r3]
 477:Drivers/STM32H7xx_HAL_Driver/Src/stm32h7xx_hal.c **** }
 712              		.loc 1 477 1 view .LVU149
 713 0004 C0F30B00 		ubfx	r0, r0, #0, #12
 714 0008 7047     		bx	lr
 715              	.L66:
 716 000a 00BF     		.align	2
 717              	.L65:
 718 000c 0010005C 		.word	1543507968
 719              		.cfi_endproc
 720              	.LFE156:
 722              		.section	.text.HAL_GetUIDw0,"ax",%progbits
 723              		.align	1
 724              		.global	HAL_GetUIDw0
 725              		.syntax unified
 726              		.thumb
 727              		.thumb_func
 728              		.fpu fpv5-d16
 730              	HAL_GetUIDw0:
ARM GAS  C:\Users\Brandon\AppData\Local\Temp\ccg7xZpb.s 			page 23


 731              	.LFB157:
 478:Drivers/STM32H7xx_HAL_Driver/Src/stm32h7xx_hal.c **** 
 479:Drivers/STM32H7xx_HAL_Driver/Src/stm32h7xx_hal.c **** /**
 480:Drivers/STM32H7xx_HAL_Driver/Src/stm32h7xx_hal.c ****   * @brief  Return the first word of the unique device identifier (UID based on 96 bits)
 481:Drivers/STM32H7xx_HAL_Driver/Src/stm32h7xx_hal.c ****   * @retval Device identifier
 482:Drivers/STM32H7xx_HAL_Driver/Src/stm32h7xx_hal.c ****   */
 483:Drivers/STM32H7xx_HAL_Driver/Src/stm32h7xx_hal.c **** uint32_t HAL_GetUIDw0(void)
 484:Drivers/STM32H7xx_HAL_Driver/Src/stm32h7xx_hal.c **** {
 732              		.loc 1 484 1 is_stmt 1 view -0
 733              		.cfi_startproc
 734              		@ args = 0, pretend = 0, frame = 0
 735              		@ frame_needed = 0, uses_anonymous_args = 0
 736              		@ link register save eliminated.
 485:Drivers/STM32H7xx_HAL_Driver/Src/stm32h7xx_hal.c ****   return(READ_REG(*((uint32_t *)UID_BASE)));
 737              		.loc 1 485 3 view .LVU151
 486:Drivers/STM32H7xx_HAL_Driver/Src/stm32h7xx_hal.c **** }
 738              		.loc 1 486 1 is_stmt 0 view .LVU152
 739 0000 014B     		ldr	r3, .L68
 740 0002 1868     		ldr	r0, [r3]
 741 0004 7047     		bx	lr
 742              	.L69:
 743 0006 00BF     		.align	2
 744              	.L68:
 745 0008 00E8F11F 		.word	535947264
 746              		.cfi_endproc
 747              	.LFE157:
 749              		.section	.text.HAL_GetUIDw1,"ax",%progbits
 750              		.align	1
 751              		.global	HAL_GetUIDw1
 752              		.syntax unified
 753              		.thumb
 754              		.thumb_func
 755              		.fpu fpv5-d16
 757              	HAL_GetUIDw1:
 758              	.LFB158:
 487:Drivers/STM32H7xx_HAL_Driver/Src/stm32h7xx_hal.c **** 
 488:Drivers/STM32H7xx_HAL_Driver/Src/stm32h7xx_hal.c **** /**
 489:Drivers/STM32H7xx_HAL_Driver/Src/stm32h7xx_hal.c ****   * @brief  Return the second word of the unique device identifier (UID based on 96 bits)
 490:Drivers/STM32H7xx_HAL_Driver/Src/stm32h7xx_hal.c ****   * @retval Device identifier
 491:Drivers/STM32H7xx_HAL_Driver/Src/stm32h7xx_hal.c ****   */
 492:Drivers/STM32H7xx_HAL_Driver/Src/stm32h7xx_hal.c **** uint32_t HAL_GetUIDw1(void)
 493:Drivers/STM32H7xx_HAL_Driver/Src/stm32h7xx_hal.c **** {
 759              		.loc 1 493 1 is_stmt 1 view -0
 760              		.cfi_startproc
 761              		@ args = 0, pretend = 0, frame = 0
 762              		@ frame_needed = 0, uses_anonymous_args = 0
 763              		@ link register save eliminated.
 494:Drivers/STM32H7xx_HAL_Driver/Src/stm32h7xx_hal.c ****   return(READ_REG(*((uint32_t *)(UID_BASE + 4U))));
 764              		.loc 1 494 3 view .LVU154
 495:Drivers/STM32H7xx_HAL_Driver/Src/stm32h7xx_hal.c **** }
 765              		.loc 1 495 1 is_stmt 0 view .LVU155
 766 0000 014B     		ldr	r3, .L71
 767 0002 1868     		ldr	r0, [r3]
 768 0004 7047     		bx	lr
 769              	.L72:
 770 0006 00BF     		.align	2
 771              	.L71:
ARM GAS  C:\Users\Brandon\AppData\Local\Temp\ccg7xZpb.s 			page 24


 772 0008 04E8F11F 		.word	535947268
 773              		.cfi_endproc
 774              	.LFE158:
 776              		.section	.text.HAL_GetUIDw2,"ax",%progbits
 777              		.align	1
 778              		.global	HAL_GetUIDw2
 779              		.syntax unified
 780              		.thumb
 781              		.thumb_func
 782              		.fpu fpv5-d16
 784              	HAL_GetUIDw2:
 785              	.LFB159:
 496:Drivers/STM32H7xx_HAL_Driver/Src/stm32h7xx_hal.c **** 
 497:Drivers/STM32H7xx_HAL_Driver/Src/stm32h7xx_hal.c **** /**
 498:Drivers/STM32H7xx_HAL_Driver/Src/stm32h7xx_hal.c ****   * @brief  Return the third word of the unique device identifier (UID based on 96 bits)
 499:Drivers/STM32H7xx_HAL_Driver/Src/stm32h7xx_hal.c ****   * @retval Device identifier
 500:Drivers/STM32H7xx_HAL_Driver/Src/stm32h7xx_hal.c ****   */
 501:Drivers/STM32H7xx_HAL_Driver/Src/stm32h7xx_hal.c **** uint32_t HAL_GetUIDw2(void)
 502:Drivers/STM32H7xx_HAL_Driver/Src/stm32h7xx_hal.c **** {
 786              		.loc 1 502 1 is_stmt 1 view -0
 787              		.cfi_startproc
 788              		@ args = 0, pretend = 0, frame = 0
 789              		@ frame_needed = 0, uses_anonymous_args = 0
 790              		@ link register save eliminated.
 503:Drivers/STM32H7xx_HAL_Driver/Src/stm32h7xx_hal.c ****   return(READ_REG(*((uint32_t *)(UID_BASE + 8U))));
 791              		.loc 1 503 3 view .LVU157
 504:Drivers/STM32H7xx_HAL_Driver/Src/stm32h7xx_hal.c **** }
 792              		.loc 1 504 1 is_stmt 0 view .LVU158
 793 0000 014B     		ldr	r3, .L74
 794 0002 1868     		ldr	r0, [r3]
 795 0004 7047     		bx	lr
 796              	.L75:
 797 0006 00BF     		.align	2
 798              	.L74:
 799 0008 08E8F11F 		.word	535947272
 800              		.cfi_endproc
 801              	.LFE159:
 803              		.section	.text.HAL_SYSCFG_VREFBUF_VoltageScalingConfig,"ax",%progbits
 804              		.align	1
 805              		.global	HAL_SYSCFG_VREFBUF_VoltageScalingConfig
 806              		.syntax unified
 807              		.thumb
 808              		.thumb_func
 809              		.fpu fpv5-d16
 811              	HAL_SYSCFG_VREFBUF_VoltageScalingConfig:
 812              	.LVL26:
 813              	.LFB160:
 505:Drivers/STM32H7xx_HAL_Driver/Src/stm32h7xx_hal.c **** 
 506:Drivers/STM32H7xx_HAL_Driver/Src/stm32h7xx_hal.c **** /**
 507:Drivers/STM32H7xx_HAL_Driver/Src/stm32h7xx_hal.c ****   * @brief Configure the internal voltage reference buffer voltage scale.
 508:Drivers/STM32H7xx_HAL_Driver/Src/stm32h7xx_hal.c ****   * @param VoltageScaling  specifies the output voltage to achieve
 509:Drivers/STM32H7xx_HAL_Driver/Src/stm32h7xx_hal.c ****   *          This parameter can be one of the following values:
 510:Drivers/STM32H7xx_HAL_Driver/Src/stm32h7xx_hal.c ****   *            @arg SYSCFG_VREFBUF_VOLTAGE_SCALE0: VREF_OUT1 around 2.048 V.
 511:Drivers/STM32H7xx_HAL_Driver/Src/stm32h7xx_hal.c ****   *                                                This requires VDDA equal to or higher than 2.4 V
 512:Drivers/STM32H7xx_HAL_Driver/Src/stm32h7xx_hal.c ****   *            @arg SYSCFG_VREFBUF_VOLTAGE_SCALE1: VREF_OUT2 around 2.5 V.
 513:Drivers/STM32H7xx_HAL_Driver/Src/stm32h7xx_hal.c ****   *                                                This requires VDDA equal to or higher than 2.8 V
 514:Drivers/STM32H7xx_HAL_Driver/Src/stm32h7xx_hal.c ****   *            @arg SYSCFG_VREFBUF_VOLTAGE_SCALE2: VREF_OUT3 around 1.5 V.
ARM GAS  C:\Users\Brandon\AppData\Local\Temp\ccg7xZpb.s 			page 25


 515:Drivers/STM32H7xx_HAL_Driver/Src/stm32h7xx_hal.c ****   *                                                This requires VDDA equal to or higher than 1.8 V
 516:Drivers/STM32H7xx_HAL_Driver/Src/stm32h7xx_hal.c ****   *            @arg SYSCFG_VREFBUF_VOLTAGE_SCALE3: VREF_OUT4 around 1.8 V.
 517:Drivers/STM32H7xx_HAL_Driver/Src/stm32h7xx_hal.c ****   *                                                This requires VDDA equal to or higher than 2.1 V
 518:Drivers/STM32H7xx_HAL_Driver/Src/stm32h7xx_hal.c ****   * @retval None
 519:Drivers/STM32H7xx_HAL_Driver/Src/stm32h7xx_hal.c ****   */
 520:Drivers/STM32H7xx_HAL_Driver/Src/stm32h7xx_hal.c **** void HAL_SYSCFG_VREFBUF_VoltageScalingConfig(uint32_t VoltageScaling)
 521:Drivers/STM32H7xx_HAL_Driver/Src/stm32h7xx_hal.c **** {
 814              		.loc 1 521 1 is_stmt 1 view -0
 815              		.cfi_startproc
 816              		@ args = 0, pretend = 0, frame = 0
 817              		@ frame_needed = 0, uses_anonymous_args = 0
 818              		@ link register save eliminated.
 522:Drivers/STM32H7xx_HAL_Driver/Src/stm32h7xx_hal.c ****   /* Check the parameters */
 523:Drivers/STM32H7xx_HAL_Driver/Src/stm32h7xx_hal.c ****   assert_param(IS_SYSCFG_VREFBUF_VOLTAGE_SCALE(VoltageScaling));
 819              		.loc 1 523 3 view .LVU160
 524:Drivers/STM32H7xx_HAL_Driver/Src/stm32h7xx_hal.c **** 
 525:Drivers/STM32H7xx_HAL_Driver/Src/stm32h7xx_hal.c ****   MODIFY_REG(VREFBUF->CSR, VREFBUF_CSR_VRS, VoltageScaling);
 820              		.loc 1 525 3 view .LVU161
 821 0000 034A     		ldr	r2, .L77
 822 0002 1368     		ldr	r3, [r2]
 823 0004 23F07003 		bic	r3, r3, #112
 824 0008 0343     		orrs	r3, r3, r0
 825 000a 1360     		str	r3, [r2]
 526:Drivers/STM32H7xx_HAL_Driver/Src/stm32h7xx_hal.c **** }
 826              		.loc 1 526 1 is_stmt 0 view .LVU162
 827 000c 7047     		bx	lr
 828              	.L78:
 829 000e 00BF     		.align	2
 830              	.L77:
 831 0010 003C0058 		.word	1476410368
 832              		.cfi_endproc
 833              	.LFE160:
 835              		.section	.text.HAL_SYSCFG_VREFBUF_HighImpedanceConfig,"ax",%progbits
 836              		.align	1
 837              		.global	HAL_SYSCFG_VREFBUF_HighImpedanceConfig
 838              		.syntax unified
 839              		.thumb
 840              		.thumb_func
 841              		.fpu fpv5-d16
 843              	HAL_SYSCFG_VREFBUF_HighImpedanceConfig:
 844              	.LVL27:
 845              	.LFB161:
 527:Drivers/STM32H7xx_HAL_Driver/Src/stm32h7xx_hal.c **** 
 528:Drivers/STM32H7xx_HAL_Driver/Src/stm32h7xx_hal.c **** /**
 529:Drivers/STM32H7xx_HAL_Driver/Src/stm32h7xx_hal.c ****   * @brief Configure the internal voltage reference buffer high impedance mode.
 530:Drivers/STM32H7xx_HAL_Driver/Src/stm32h7xx_hal.c ****   * @param Mode  specifies the high impedance mode
 531:Drivers/STM32H7xx_HAL_Driver/Src/stm32h7xx_hal.c ****   *          This parameter can be one of the following values:
 532:Drivers/STM32H7xx_HAL_Driver/Src/stm32h7xx_hal.c ****   *            @arg SYSCFG_VREFBUF_HIGH_IMPEDANCE_DISABLE: VREF+ pin is internally connect to VREFI
 533:Drivers/STM32H7xx_HAL_Driver/Src/stm32h7xx_hal.c ****   *            @arg SYSCFG_VREFBUF_HIGH_IMPEDANCE_ENABLE: VREF+ pin is high impedance.
 534:Drivers/STM32H7xx_HAL_Driver/Src/stm32h7xx_hal.c ****   * @retval None
 535:Drivers/STM32H7xx_HAL_Driver/Src/stm32h7xx_hal.c ****   */
 536:Drivers/STM32H7xx_HAL_Driver/Src/stm32h7xx_hal.c **** void HAL_SYSCFG_VREFBUF_HighImpedanceConfig(uint32_t Mode)
 537:Drivers/STM32H7xx_HAL_Driver/Src/stm32h7xx_hal.c **** {
 846              		.loc 1 537 1 is_stmt 1 view -0
 847              		.cfi_startproc
 848              		@ args = 0, pretend = 0, frame = 0
 849              		@ frame_needed = 0, uses_anonymous_args = 0
ARM GAS  C:\Users\Brandon\AppData\Local\Temp\ccg7xZpb.s 			page 26


 850              		@ link register save eliminated.
 538:Drivers/STM32H7xx_HAL_Driver/Src/stm32h7xx_hal.c ****   /* Check the parameters */
 539:Drivers/STM32H7xx_HAL_Driver/Src/stm32h7xx_hal.c ****   assert_param(IS_SYSCFG_VREFBUF_HIGH_IMPEDANCE(Mode));
 851              		.loc 1 539 3 view .LVU164
 540:Drivers/STM32H7xx_HAL_Driver/Src/stm32h7xx_hal.c **** 
 541:Drivers/STM32H7xx_HAL_Driver/Src/stm32h7xx_hal.c ****   MODIFY_REG(VREFBUF->CSR, VREFBUF_CSR_HIZ, Mode);
 852              		.loc 1 541 3 view .LVU165
 853 0000 034A     		ldr	r2, .L80
 854 0002 1368     		ldr	r3, [r2]
 855 0004 23F00203 		bic	r3, r3, #2
 856 0008 0343     		orrs	r3, r3, r0
 857 000a 1360     		str	r3, [r2]
 542:Drivers/STM32H7xx_HAL_Driver/Src/stm32h7xx_hal.c **** }
 858              		.loc 1 542 1 is_stmt 0 view .LVU166
 859 000c 7047     		bx	lr
 860              	.L81:
 861 000e 00BF     		.align	2
 862              	.L80:
 863 0010 003C0058 		.word	1476410368
 864              		.cfi_endproc
 865              	.LFE161:
 867              		.section	.text.HAL_SYSCFG_VREFBUF_TrimmingConfig,"ax",%progbits
 868              		.align	1
 869              		.global	HAL_SYSCFG_VREFBUF_TrimmingConfig
 870              		.syntax unified
 871              		.thumb
 872              		.thumb_func
 873              		.fpu fpv5-d16
 875              	HAL_SYSCFG_VREFBUF_TrimmingConfig:
 876              	.LVL28:
 877              	.LFB162:
 543:Drivers/STM32H7xx_HAL_Driver/Src/stm32h7xx_hal.c **** 
 544:Drivers/STM32H7xx_HAL_Driver/Src/stm32h7xx_hal.c **** /**
 545:Drivers/STM32H7xx_HAL_Driver/Src/stm32h7xx_hal.c ****   * @brief  Tune the Internal Voltage Reference buffer (VREFBUF).
 546:Drivers/STM32H7xx_HAL_Driver/Src/stm32h7xx_hal.c ****   * @retval None
 547:Drivers/STM32H7xx_HAL_Driver/Src/stm32h7xx_hal.c ****   */
 548:Drivers/STM32H7xx_HAL_Driver/Src/stm32h7xx_hal.c **** void HAL_SYSCFG_VREFBUF_TrimmingConfig(uint32_t TrimmingValue)
 549:Drivers/STM32H7xx_HAL_Driver/Src/stm32h7xx_hal.c **** {
 878              		.loc 1 549 1 is_stmt 1 view -0
 879              		.cfi_startproc
 880              		@ args = 0, pretend = 0, frame = 0
 881              		@ frame_needed = 0, uses_anonymous_args = 0
 882              		@ link register save eliminated.
 550:Drivers/STM32H7xx_HAL_Driver/Src/stm32h7xx_hal.c ****   /* Check the parameters */
 551:Drivers/STM32H7xx_HAL_Driver/Src/stm32h7xx_hal.c ****   assert_param(IS_SYSCFG_VREFBUF_TRIMMING(TrimmingValue));
 883              		.loc 1 551 3 view .LVU168
 552:Drivers/STM32H7xx_HAL_Driver/Src/stm32h7xx_hal.c **** 
 553:Drivers/STM32H7xx_HAL_Driver/Src/stm32h7xx_hal.c ****   MODIFY_REG(VREFBUF->CCR, VREFBUF_CCR_TRIM, TrimmingValue);
 884              		.loc 1 553 3 view .LVU169
 885 0000 034A     		ldr	r2, .L83
 886 0002 5368     		ldr	r3, [r2, #4]
 887 0004 23F03F03 		bic	r3, r3, #63
 888 0008 0343     		orrs	r3, r3, r0
 889 000a 5360     		str	r3, [r2, #4]
 554:Drivers/STM32H7xx_HAL_Driver/Src/stm32h7xx_hal.c **** }
 890              		.loc 1 554 1 is_stmt 0 view .LVU170
 891 000c 7047     		bx	lr
ARM GAS  C:\Users\Brandon\AppData\Local\Temp\ccg7xZpb.s 			page 27


 892              	.L84:
 893 000e 00BF     		.align	2
 894              	.L83:
 895 0010 003C0058 		.word	1476410368
 896              		.cfi_endproc
 897              	.LFE162:
 899              		.section	.text.HAL_SYSCFG_EnableVREFBUF,"ax",%progbits
 900              		.align	1
 901              		.global	HAL_SYSCFG_EnableVREFBUF
 902              		.syntax unified
 903              		.thumb
 904              		.thumb_func
 905              		.fpu fpv5-d16
 907              	HAL_SYSCFG_EnableVREFBUF:
 908              	.LFB163:
 555:Drivers/STM32H7xx_HAL_Driver/Src/stm32h7xx_hal.c **** 
 556:Drivers/STM32H7xx_HAL_Driver/Src/stm32h7xx_hal.c **** /**
 557:Drivers/STM32H7xx_HAL_Driver/Src/stm32h7xx_hal.c ****   * @brief  Enable the Internal Voltage Reference buffer (VREFBUF).
 558:Drivers/STM32H7xx_HAL_Driver/Src/stm32h7xx_hal.c ****   * @retval HAL_OK/HAL_TIMEOUT
 559:Drivers/STM32H7xx_HAL_Driver/Src/stm32h7xx_hal.c ****   */
 560:Drivers/STM32H7xx_HAL_Driver/Src/stm32h7xx_hal.c **** HAL_StatusTypeDef HAL_SYSCFG_EnableVREFBUF(void)
 561:Drivers/STM32H7xx_HAL_Driver/Src/stm32h7xx_hal.c **** {
 909              		.loc 1 561 1 is_stmt 1 view -0
 910              		.cfi_startproc
 911              		@ args = 0, pretend = 0, frame = 0
 912              		@ frame_needed = 0, uses_anonymous_args = 0
 913 0000 10B5     		push	{r4, lr}
 914              	.LCFI5:
 915              		.cfi_def_cfa_offset 8
 916              		.cfi_offset 4, -8
 917              		.cfi_offset 14, -4
 562:Drivers/STM32H7xx_HAL_Driver/Src/stm32h7xx_hal.c ****   uint32_t  tickstart;
 918              		.loc 1 562 3 view .LVU172
 563:Drivers/STM32H7xx_HAL_Driver/Src/stm32h7xx_hal.c **** 
 564:Drivers/STM32H7xx_HAL_Driver/Src/stm32h7xx_hal.c ****   SET_BIT(VREFBUF->CSR, VREFBUF_CSR_ENVR);
 919              		.loc 1 564 3 view .LVU173
 920 0002 0B4A     		ldr	r2, .L92
 921 0004 1368     		ldr	r3, [r2]
 922 0006 43F00103 		orr	r3, r3, #1
 923 000a 1360     		str	r3, [r2]
 565:Drivers/STM32H7xx_HAL_Driver/Src/stm32h7xx_hal.c **** 
 566:Drivers/STM32H7xx_HAL_Driver/Src/stm32h7xx_hal.c ****   /* Get Start Tick*/
 567:Drivers/STM32H7xx_HAL_Driver/Src/stm32h7xx_hal.c ****   tickstart = HAL_GetTick();
 924              		.loc 1 567 3 view .LVU174
 925              		.loc 1 567 15 is_stmt 0 view .LVU175
 926 000c FFF7FEFF 		bl	HAL_GetTick
 927              	.LVL29:
 928 0010 0446     		mov	r4, r0
 929              	.LVL30:
 568:Drivers/STM32H7xx_HAL_Driver/Src/stm32h7xx_hal.c **** 
 569:Drivers/STM32H7xx_HAL_Driver/Src/stm32h7xx_hal.c ****   /* Wait for VRR bit  */
 570:Drivers/STM32H7xx_HAL_Driver/Src/stm32h7xx_hal.c ****   while(READ_BIT(VREFBUF->CSR, VREFBUF_CSR_VRR) == 0UL)
 930              		.loc 1 570 3 is_stmt 1 view .LVU176
 931              	.L86:
 932              		.loc 1 570 8 view .LVU177
 933              		.loc 1 570 9 is_stmt 0 view .LVU178
 934 0012 074B     		ldr	r3, .L92
ARM GAS  C:\Users\Brandon\AppData\Local\Temp\ccg7xZpb.s 			page 28


 935 0014 1B68     		ldr	r3, [r3]
 936              		.loc 1 570 8 view .LVU179
 937 0016 13F0080F 		tst	r3, #8
 938 001a 06D1     		bne	.L91
 571:Drivers/STM32H7xx_HAL_Driver/Src/stm32h7xx_hal.c ****   {
 572:Drivers/STM32H7xx_HAL_Driver/Src/stm32h7xx_hal.c ****     if((HAL_GetTick() - tickstart) > VREFBUF_TIMEOUT_VALUE)
 939              		.loc 1 572 5 is_stmt 1 view .LVU180
 940              		.loc 1 572 9 is_stmt 0 view .LVU181
 941 001c FFF7FEFF 		bl	HAL_GetTick
 942              	.LVL31:
 943              		.loc 1 572 23 view .LVU182
 944 0020 001B     		subs	r0, r0, r4
 945              		.loc 1 572 7 view .LVU183
 946 0022 0A28     		cmp	r0, #10
 947 0024 F5D9     		bls	.L86
 573:Drivers/STM32H7xx_HAL_Driver/Src/stm32h7xx_hal.c ****     {
 574:Drivers/STM32H7xx_HAL_Driver/Src/stm32h7xx_hal.c ****       return HAL_TIMEOUT;
 948              		.loc 1 574 14 view .LVU184
 949 0026 0320     		movs	r0, #3
 950 0028 00E0     		b	.L87
 951              	.L91:
 575:Drivers/STM32H7xx_HAL_Driver/Src/stm32h7xx_hal.c ****     }
 576:Drivers/STM32H7xx_HAL_Driver/Src/stm32h7xx_hal.c ****   }
 577:Drivers/STM32H7xx_HAL_Driver/Src/stm32h7xx_hal.c **** 
 578:Drivers/STM32H7xx_HAL_Driver/Src/stm32h7xx_hal.c ****   return HAL_OK;
 952              		.loc 1 578 10 view .LVU185
 953 002a 0020     		movs	r0, #0
 954              	.L87:
 579:Drivers/STM32H7xx_HAL_Driver/Src/stm32h7xx_hal.c **** }
 955              		.loc 1 579 1 view .LVU186
 956 002c 10BD     		pop	{r4, pc}
 957              	.LVL32:
 958              	.L93:
 959              		.loc 1 579 1 view .LVU187
 960 002e 00BF     		.align	2
 961              	.L92:
 962 0030 003C0058 		.word	1476410368
 963              		.cfi_endproc
 964              	.LFE163:
 966              		.section	.text.HAL_SYSCFG_DisableVREFBUF,"ax",%progbits
 967              		.align	1
 968              		.global	HAL_SYSCFG_DisableVREFBUF
 969              		.syntax unified
 970              		.thumb
 971              		.thumb_func
 972              		.fpu fpv5-d16
 974              	HAL_SYSCFG_DisableVREFBUF:
 975              	.LFB164:
 580:Drivers/STM32H7xx_HAL_Driver/Src/stm32h7xx_hal.c **** 
 581:Drivers/STM32H7xx_HAL_Driver/Src/stm32h7xx_hal.c **** /**
 582:Drivers/STM32H7xx_HAL_Driver/Src/stm32h7xx_hal.c ****   * @brief  Disable the Internal Voltage Reference buffer (VREFBUF).
 583:Drivers/STM32H7xx_HAL_Driver/Src/stm32h7xx_hal.c ****   *
 584:Drivers/STM32H7xx_HAL_Driver/Src/stm32h7xx_hal.c ****   * @retval None
 585:Drivers/STM32H7xx_HAL_Driver/Src/stm32h7xx_hal.c ****   */
 586:Drivers/STM32H7xx_HAL_Driver/Src/stm32h7xx_hal.c **** void HAL_SYSCFG_DisableVREFBUF(void)
 587:Drivers/STM32H7xx_HAL_Driver/Src/stm32h7xx_hal.c **** {
 976              		.loc 1 587 1 is_stmt 1 view -0
ARM GAS  C:\Users\Brandon\AppData\Local\Temp\ccg7xZpb.s 			page 29


 977              		.cfi_startproc
 978              		@ args = 0, pretend = 0, frame = 0
 979              		@ frame_needed = 0, uses_anonymous_args = 0
 980              		@ link register save eliminated.
 588:Drivers/STM32H7xx_HAL_Driver/Src/stm32h7xx_hal.c ****   CLEAR_BIT(VREFBUF->CSR, VREFBUF_CSR_ENVR);
 981              		.loc 1 588 3 view .LVU189
 982 0000 024A     		ldr	r2, .L95
 983 0002 1368     		ldr	r3, [r2]
 984 0004 23F00103 		bic	r3, r3, #1
 985 0008 1360     		str	r3, [r2]
 589:Drivers/STM32H7xx_HAL_Driver/Src/stm32h7xx_hal.c **** }
 986              		.loc 1 589 1 is_stmt 0 view .LVU190
 987 000a 7047     		bx	lr
 988              	.L96:
 989              		.align	2
 990              	.L95:
 991 000c 003C0058 		.word	1476410368
 992              		.cfi_endproc
 993              	.LFE164:
 995              		.section	.text.HAL_SYSCFG_ETHInterfaceSelect,"ax",%progbits
 996              		.align	1
 997              		.global	HAL_SYSCFG_ETHInterfaceSelect
 998              		.syntax unified
 999              		.thumb
 1000              		.thumb_func
 1001              		.fpu fpv5-d16
 1003              	HAL_SYSCFG_ETHInterfaceSelect:
 1004              	.LVL33:
 1005              	.LFB165:
 590:Drivers/STM32H7xx_HAL_Driver/Src/stm32h7xx_hal.c **** 
 591:Drivers/STM32H7xx_HAL_Driver/Src/stm32h7xx_hal.c **** #if defined(SYSCFG_PMCR_EPIS_SEL)
 592:Drivers/STM32H7xx_HAL_Driver/Src/stm32h7xx_hal.c **** /**
 593:Drivers/STM32H7xx_HAL_Driver/Src/stm32h7xx_hal.c ****   * @brief  Ethernet PHY Interface Selection either MII or RMII
 594:Drivers/STM32H7xx_HAL_Driver/Src/stm32h7xx_hal.c ****   * @param  SYSCFG_ETHInterface: Selects the Ethernet PHY interface
 595:Drivers/STM32H7xx_HAL_Driver/Src/stm32h7xx_hal.c ****   *   This parameter can be one of the following values:
 596:Drivers/STM32H7xx_HAL_Driver/Src/stm32h7xx_hal.c ****   *   @arg SYSCFG_ETH_MII : Select the Media Independent Interface
 597:Drivers/STM32H7xx_HAL_Driver/Src/stm32h7xx_hal.c ****   *   @arg SYSCFG_ETH_RMII: Select the Reduced Media Independent Interface
 598:Drivers/STM32H7xx_HAL_Driver/Src/stm32h7xx_hal.c ****   * @retval None
 599:Drivers/STM32H7xx_HAL_Driver/Src/stm32h7xx_hal.c ****   */
 600:Drivers/STM32H7xx_HAL_Driver/Src/stm32h7xx_hal.c **** void HAL_SYSCFG_ETHInterfaceSelect(uint32_t SYSCFG_ETHInterface)
 601:Drivers/STM32H7xx_HAL_Driver/Src/stm32h7xx_hal.c **** {
 1006              		.loc 1 601 1 is_stmt 1 view -0
 1007              		.cfi_startproc
 1008              		@ args = 0, pretend = 0, frame = 0
 1009              		@ frame_needed = 0, uses_anonymous_args = 0
 1010              		@ link register save eliminated.
 602:Drivers/STM32H7xx_HAL_Driver/Src/stm32h7xx_hal.c ****   /* Check the parameter */
 603:Drivers/STM32H7xx_HAL_Driver/Src/stm32h7xx_hal.c ****   assert_param(IS_SYSCFG_ETHERNET_CONFIG(SYSCFG_ETHInterface));
 1011              		.loc 1 603 3 view .LVU192
 604:Drivers/STM32H7xx_HAL_Driver/Src/stm32h7xx_hal.c **** 
 605:Drivers/STM32H7xx_HAL_Driver/Src/stm32h7xx_hal.c ****   MODIFY_REG(SYSCFG->PMCR, SYSCFG_PMCR_EPIS_SEL, (uint32_t)(SYSCFG_ETHInterface));
 1012              		.loc 1 605 3 view .LVU193
 1013 0000 034A     		ldr	r2, .L98
 1014 0002 5368     		ldr	r3, [r2, #4]
 1015 0004 23F46003 		bic	r3, r3, #14680064
 1016 0008 0343     		orrs	r3, r3, r0
 1017 000a 5360     		str	r3, [r2, #4]
ARM GAS  C:\Users\Brandon\AppData\Local\Temp\ccg7xZpb.s 			page 30


 606:Drivers/STM32H7xx_HAL_Driver/Src/stm32h7xx_hal.c **** }
 1018              		.loc 1 606 1 is_stmt 0 view .LVU194
 1019 000c 7047     		bx	lr
 1020              	.L99:
 1021 000e 00BF     		.align	2
 1022              	.L98:
 1023 0010 00040058 		.word	1476396032
 1024              		.cfi_endproc
 1025              	.LFE165:
 1027              		.section	.text.HAL_SYSCFG_AnalogSwitchConfig,"ax",%progbits
 1028              		.align	1
 1029              		.global	HAL_SYSCFG_AnalogSwitchConfig
 1030              		.syntax unified
 1031              		.thumb
 1032              		.thumb_func
 1033              		.fpu fpv5-d16
 1035              	HAL_SYSCFG_AnalogSwitchConfig:
 1036              	.LVL34:
 1037              	.LFB166:
 607:Drivers/STM32H7xx_HAL_Driver/Src/stm32h7xx_hal.c **** #endif /* SYSCFG_PMCR_EPIS_SEL */
 608:Drivers/STM32H7xx_HAL_Driver/Src/stm32h7xx_hal.c **** 
 609:Drivers/STM32H7xx_HAL_Driver/Src/stm32h7xx_hal.c **** /**
 610:Drivers/STM32H7xx_HAL_Driver/Src/stm32h7xx_hal.c ****   * @brief  Analog Switch control for dual analog pads.
 611:Drivers/STM32H7xx_HAL_Driver/Src/stm32h7xx_hal.c ****   * @param  SYSCFG_AnalogSwitch: Selects the analog pad
 612:Drivers/STM32H7xx_HAL_Driver/Src/stm32h7xx_hal.c ****   *   This parameter can be one or a combination of the following values:
 613:Drivers/STM32H7xx_HAL_Driver/Src/stm32h7xx_hal.c ****   *   @arg SYSCFG_SWITCH_PA0 : Select PA0 analog switch
 614:Drivers/STM32H7xx_HAL_Driver/Src/stm32h7xx_hal.c ****   *   @arg SYSCFG_SWITCH_PA1:  Select PA1 analog switch
 615:Drivers/STM32H7xx_HAL_Driver/Src/stm32h7xx_hal.c ****   *   @arg SYSCFG_SWITCH_PC2 : Select PC2 analog switch
 616:Drivers/STM32H7xx_HAL_Driver/Src/stm32h7xx_hal.c ****   *   @arg SYSCFG_SWITCH_PC3:  Select PC3 analog switch
 617:Drivers/STM32H7xx_HAL_Driver/Src/stm32h7xx_hal.c ****   * @param  SYSCFG_SwitchState: Open or Close the analog switch between dual pads (PXn and PXn_C)
 618:Drivers/STM32H7xx_HAL_Driver/Src/stm32h7xx_hal.c ****   *   This parameter can be one or a combination of the following values:
 619:Drivers/STM32H7xx_HAL_Driver/Src/stm32h7xx_hal.c ****   *   @arg SYSCFG_SWITCH_PA0_OPEN
 620:Drivers/STM32H7xx_HAL_Driver/Src/stm32h7xx_hal.c ****   *   @arg SYSCFG_SWITCH_PA0_CLOSE
 621:Drivers/STM32H7xx_HAL_Driver/Src/stm32h7xx_hal.c ****   *   @arg SYSCFG_SWITCH_PA1_OPEN
 622:Drivers/STM32H7xx_HAL_Driver/Src/stm32h7xx_hal.c ****   *   @arg SYSCFG_SWITCH_PA1_CLOSE
 623:Drivers/STM32H7xx_HAL_Driver/Src/stm32h7xx_hal.c ****   *   @arg SYSCFG_SWITCH_PC2_OPEN
 624:Drivers/STM32H7xx_HAL_Driver/Src/stm32h7xx_hal.c ****   *   @arg SYSCFG_SWITCH_PC2_CLOSE
 625:Drivers/STM32H7xx_HAL_Driver/Src/stm32h7xx_hal.c ****   *   @arg SYSCFG_SWITCH_PC3_OPEN
 626:Drivers/STM32H7xx_HAL_Driver/Src/stm32h7xx_hal.c ****   *   @arg SYSCFG_SWITCH_PC3_CLOSE
 627:Drivers/STM32H7xx_HAL_Driver/Src/stm32h7xx_hal.c ****   * @retval None
 628:Drivers/STM32H7xx_HAL_Driver/Src/stm32h7xx_hal.c ****   */
 629:Drivers/STM32H7xx_HAL_Driver/Src/stm32h7xx_hal.c **** 
 630:Drivers/STM32H7xx_HAL_Driver/Src/stm32h7xx_hal.c **** void HAL_SYSCFG_AnalogSwitchConfig(uint32_t SYSCFG_AnalogSwitch , uint32_t SYSCFG_SwitchState )
 631:Drivers/STM32H7xx_HAL_Driver/Src/stm32h7xx_hal.c **** {
 1038              		.loc 1 631 1 is_stmt 1 view -0
 1039              		.cfi_startproc
 1040              		@ args = 0, pretend = 0, frame = 0
 1041              		@ frame_needed = 0, uses_anonymous_args = 0
 1042              		@ link register save eliminated.
 632:Drivers/STM32H7xx_HAL_Driver/Src/stm32h7xx_hal.c ****   /* Check the parameter */
 633:Drivers/STM32H7xx_HAL_Driver/Src/stm32h7xx_hal.c ****   assert_param(IS_SYSCFG_ANALOG_SWITCH(SYSCFG_AnalogSwitch));
 1043              		.loc 1 633 3 view .LVU196
 634:Drivers/STM32H7xx_HAL_Driver/Src/stm32h7xx_hal.c ****   assert_param(IS_SYSCFG_SWITCH_STATE(SYSCFG_SwitchState));
 1044              		.loc 1 634 3 view .LVU197
 635:Drivers/STM32H7xx_HAL_Driver/Src/stm32h7xx_hal.c **** 
 636:Drivers/STM32H7xx_HAL_Driver/Src/stm32h7xx_hal.c ****   MODIFY_REG(SYSCFG->PMCR, (uint32_t) SYSCFG_AnalogSwitch, (uint32_t)(SYSCFG_SwitchState));
 1045              		.loc 1 636 3 view .LVU198
ARM GAS  C:\Users\Brandon\AppData\Local\Temp\ccg7xZpb.s 			page 31


 1046 0000 034A     		ldr	r2, .L101
 1047 0002 5368     		ldr	r3, [r2, #4]
 1048 0004 23EA0003 		bic	r3, r3, r0
 1049 0008 0B43     		orrs	r3, r3, r1
 1050 000a 5360     		str	r3, [r2, #4]
 637:Drivers/STM32H7xx_HAL_Driver/Src/stm32h7xx_hal.c **** }
 1051              		.loc 1 637 1 is_stmt 0 view .LVU199
 1052 000c 7047     		bx	lr
 1053              	.L102:
 1054 000e 00BF     		.align	2
 1055              	.L101:
 1056 0010 00040058 		.word	1476396032
 1057              		.cfi_endproc
 1058              	.LFE166:
 1060              		.section	.text.HAL_SYSCFG_EnableBOOST,"ax",%progbits
 1061              		.align	1
 1062              		.global	HAL_SYSCFG_EnableBOOST
 1063              		.syntax unified
 1064              		.thumb
 1065              		.thumb_func
 1066              		.fpu fpv5-d16
 1068              	HAL_SYSCFG_EnableBOOST:
 1069              	.LFB167:
 638:Drivers/STM32H7xx_HAL_Driver/Src/stm32h7xx_hal.c **** 
 639:Drivers/STM32H7xx_HAL_Driver/Src/stm32h7xx_hal.c **** #if defined(SYSCFG_PMCR_BOOSTEN)
 640:Drivers/STM32H7xx_HAL_Driver/Src/stm32h7xx_hal.c **** /**
 641:Drivers/STM32H7xx_HAL_Driver/Src/stm32h7xx_hal.c ****   * @brief  Enables the booster to reduce the total harmonic distortion of the analog
 642:Drivers/STM32H7xx_HAL_Driver/Src/stm32h7xx_hal.c ****   *         switch when the supply voltage is lower than 2.7 V.
 643:Drivers/STM32H7xx_HAL_Driver/Src/stm32h7xx_hal.c ****   * @note   Activating the booster allows to guaranty the analog switch AC performance
 644:Drivers/STM32H7xx_HAL_Driver/Src/stm32h7xx_hal.c ****   *         when the supply voltage is below 2.7 V: in this case, the analog switch
 645:Drivers/STM32H7xx_HAL_Driver/Src/stm32h7xx_hal.c ****   *         performance is the same on the full voltage range
 646:Drivers/STM32H7xx_HAL_Driver/Src/stm32h7xx_hal.c ****   * @retval None
 647:Drivers/STM32H7xx_HAL_Driver/Src/stm32h7xx_hal.c ****   */
 648:Drivers/STM32H7xx_HAL_Driver/Src/stm32h7xx_hal.c **** void HAL_SYSCFG_EnableBOOST(void)
 649:Drivers/STM32H7xx_HAL_Driver/Src/stm32h7xx_hal.c **** {
 1070              		.loc 1 649 1 is_stmt 1 view -0
 1071              		.cfi_startproc
 1072              		@ args = 0, pretend = 0, frame = 0
 1073              		@ frame_needed = 0, uses_anonymous_args = 0
 1074              		@ link register save eliminated.
 650:Drivers/STM32H7xx_HAL_Driver/Src/stm32h7xx_hal.c ****  SET_BIT(SYSCFG->PMCR, SYSCFG_PMCR_BOOSTEN) ;
 1075              		.loc 1 650 2 view .LVU201
 1076 0000 024A     		ldr	r2, .L104
 1077 0002 5368     		ldr	r3, [r2, #4]
 1078 0004 43F48073 		orr	r3, r3, #256
 1079 0008 5360     		str	r3, [r2, #4]
 651:Drivers/STM32H7xx_HAL_Driver/Src/stm32h7xx_hal.c **** }
 1080              		.loc 1 651 1 is_stmt 0 view .LVU202
 1081 000a 7047     		bx	lr
 1082              	.L105:
 1083              		.align	2
 1084              	.L104:
 1085 000c 00040058 		.word	1476396032
 1086              		.cfi_endproc
 1087              	.LFE167:
 1089              		.section	.text.HAL_SYSCFG_DisableBOOST,"ax",%progbits
 1090              		.align	1
ARM GAS  C:\Users\Brandon\AppData\Local\Temp\ccg7xZpb.s 			page 32


 1091              		.global	HAL_SYSCFG_DisableBOOST
 1092              		.syntax unified
 1093              		.thumb
 1094              		.thumb_func
 1095              		.fpu fpv5-d16
 1097              	HAL_SYSCFG_DisableBOOST:
 1098              	.LFB168:
 652:Drivers/STM32H7xx_HAL_Driver/Src/stm32h7xx_hal.c **** 
 653:Drivers/STM32H7xx_HAL_Driver/Src/stm32h7xx_hal.c **** /**
 654:Drivers/STM32H7xx_HAL_Driver/Src/stm32h7xx_hal.c ****   * @brief  Disables the booster
 655:Drivers/STM32H7xx_HAL_Driver/Src/stm32h7xx_hal.c ****   * @note   Activating the booster allows to guaranty the analog switch AC performance
 656:Drivers/STM32H7xx_HAL_Driver/Src/stm32h7xx_hal.c ****   *         when the supply voltage is below 2.7 V: in this case, the analog switch
 657:Drivers/STM32H7xx_HAL_Driver/Src/stm32h7xx_hal.c ****   *         performance is the same on the full voltage range
 658:Drivers/STM32H7xx_HAL_Driver/Src/stm32h7xx_hal.c ****   * @retval None
 659:Drivers/STM32H7xx_HAL_Driver/Src/stm32h7xx_hal.c ****   */
 660:Drivers/STM32H7xx_HAL_Driver/Src/stm32h7xx_hal.c **** void HAL_SYSCFG_DisableBOOST(void)
 661:Drivers/STM32H7xx_HAL_Driver/Src/stm32h7xx_hal.c **** {
 1099              		.loc 1 661 1 is_stmt 1 view -0
 1100              		.cfi_startproc
 1101              		@ args = 0, pretend = 0, frame = 0
 1102              		@ frame_needed = 0, uses_anonymous_args = 0
 1103              		@ link register save eliminated.
 662:Drivers/STM32H7xx_HAL_Driver/Src/stm32h7xx_hal.c ****  CLEAR_BIT(SYSCFG->PMCR, SYSCFG_PMCR_BOOSTEN) ;
 1104              		.loc 1 662 2 view .LVU204
 1105 0000 024A     		ldr	r2, .L107
 1106 0002 5368     		ldr	r3, [r2, #4]
 1107 0004 23F48073 		bic	r3, r3, #256
 1108 0008 5360     		str	r3, [r2, #4]
 663:Drivers/STM32H7xx_HAL_Driver/Src/stm32h7xx_hal.c **** }
 1109              		.loc 1 663 1 is_stmt 0 view .LVU205
 1110 000a 7047     		bx	lr
 1111              	.L108:
 1112              		.align	2
 1113              	.L107:
 1114 000c 00040058 		.word	1476396032
 1115              		.cfi_endproc
 1116              	.LFE168:
 1118              		.section	.text.HAL_SYSCFG_CM7BootAddConfig,"ax",%progbits
 1119              		.align	1
 1120              		.global	HAL_SYSCFG_CM7BootAddConfig
 1121              		.syntax unified
 1122              		.thumb
 1123              		.thumb_func
 1124              		.fpu fpv5-d16
 1126              	HAL_SYSCFG_CM7BootAddConfig:
 1127              	.LVL35:
 1128              	.LFB169:
 664:Drivers/STM32H7xx_HAL_Driver/Src/stm32h7xx_hal.c **** #endif /* SYSCFG_PMCR_BOOSTEN */
 665:Drivers/STM32H7xx_HAL_Driver/Src/stm32h7xx_hal.c **** 
 666:Drivers/STM32H7xx_HAL_Driver/Src/stm32h7xx_hal.c **** #if defined (SYSCFG_UR2_BOOT_ADD0) ||  defined (SYSCFG_UR2_BCM7_ADD0)
 667:Drivers/STM32H7xx_HAL_Driver/Src/stm32h7xx_hal.c **** /**
 668:Drivers/STM32H7xx_HAL_Driver/Src/stm32h7xx_hal.c ****   * @brief  BootCM7 address 0 configuration
 669:Drivers/STM32H7xx_HAL_Driver/Src/stm32h7xx_hal.c ****   * @param  BootRegister :Specifies the Boot Address register (Address0 or Address1)
 670:Drivers/STM32H7xx_HAL_Driver/Src/stm32h7xx_hal.c ****   *   This parameter can be one of the following values:
 671:Drivers/STM32H7xx_HAL_Driver/Src/stm32h7xx_hal.c ****   *   @arg SYSCFG_BOOT_ADDR0 : Select the boot address0
 672:Drivers/STM32H7xx_HAL_Driver/Src/stm32h7xx_hal.c ****   *   @arg SYSCFG_BOOT_ADDR1:  Select the boot address1
 673:Drivers/STM32H7xx_HAL_Driver/Src/stm32h7xx_hal.c ****   * @param  BootAddress :Specifies the CM7 Boot Address to be loaded in Address0 or Address1
ARM GAS  C:\Users\Brandon\AppData\Local\Temp\ccg7xZpb.s 			page 33


 674:Drivers/STM32H7xx_HAL_Driver/Src/stm32h7xx_hal.c ****   * @retval None
 675:Drivers/STM32H7xx_HAL_Driver/Src/stm32h7xx_hal.c ****   */
 676:Drivers/STM32H7xx_HAL_Driver/Src/stm32h7xx_hal.c **** void HAL_SYSCFG_CM7BootAddConfig(uint32_t BootRegister, uint32_t BootAddress)
 677:Drivers/STM32H7xx_HAL_Driver/Src/stm32h7xx_hal.c **** {
 1129              		.loc 1 677 1 is_stmt 1 view -0
 1130              		.cfi_startproc
 1131              		@ args = 0, pretend = 0, frame = 0
 1132              		@ frame_needed = 0, uses_anonymous_args = 0
 1133              		@ link register save eliminated.
 678:Drivers/STM32H7xx_HAL_Driver/Src/stm32h7xx_hal.c ****   /* Check the parameters */
 679:Drivers/STM32H7xx_HAL_Driver/Src/stm32h7xx_hal.c ****   assert_param(IS_SYSCFG_BOOT_REGISTER(BootRegister));
 1134              		.loc 1 679 3 view .LVU207
 680:Drivers/STM32H7xx_HAL_Driver/Src/stm32h7xx_hal.c ****   assert_param(IS_SYSCFG_BOOT_ADDRESS(BootAddress));
 1135              		.loc 1 680 3 view .LVU208
 681:Drivers/STM32H7xx_HAL_Driver/Src/stm32h7xx_hal.c ****   if ( BootRegister == SYSCFG_BOOT_ADDR0 )
 1136              		.loc 1 681 3 view .LVU209
 1137              		.loc 1 681 6 is_stmt 0 view .LVU210
 1138 0000 48B9     		cbnz	r0, .L110
 682:Drivers/STM32H7xx_HAL_Driver/Src/stm32h7xx_hal.c ****   {
 683:Drivers/STM32H7xx_HAL_Driver/Src/stm32h7xx_hal.c ****     /* Configure CM7 BOOT ADD0 */
 684:Drivers/STM32H7xx_HAL_Driver/Src/stm32h7xx_hal.c **** #if defined(DUAL_CORE)
 685:Drivers/STM32H7xx_HAL_Driver/Src/stm32h7xx_hal.c ****     MODIFY_REG(SYSCFG->UR2, SYSCFG_UR2_BCM7_ADD0, ((BootAddress >> 16) << SYSCFG_UR2_BCM7_ADD0_Pos)
 686:Drivers/STM32H7xx_HAL_Driver/Src/stm32h7xx_hal.c **** #else
 687:Drivers/STM32H7xx_HAL_Driver/Src/stm32h7xx_hal.c ****     MODIFY_REG(SYSCFG->UR2, SYSCFG_UR2_BOOT_ADD0, ((BootAddress >> 16) << SYSCFG_UR2_BOOT_ADD0_Pos)
 1139              		.loc 1 687 5 is_stmt 1 view .LVU211
 1140 0002 0A48     		ldr	r0, .L112
 1141              	.LVL36:
 1142              		.loc 1 687 5 is_stmt 0 view .LVU212
 1143 0004 D0F80833 		ldr	r3, [r0, #776]
 1144 0008 9BB2     		uxth	r3, r3
 1145 000a 094A     		ldr	r2, .L112+4
 1146 000c 0A40     		ands	r2, r2, r1
 1147 000e 1343     		orrs	r3, r3, r2
 1148 0010 C0F80833 		str	r3, [r0, #776]
 1149 0014 7047     		bx	lr
 1150              	.LVL37:
 1151              	.L110:
 688:Drivers/STM32H7xx_HAL_Driver/Src/stm32h7xx_hal.c **** #endif /*DUAL_CORE*/
 689:Drivers/STM32H7xx_HAL_Driver/Src/stm32h7xx_hal.c ****   }
 690:Drivers/STM32H7xx_HAL_Driver/Src/stm32h7xx_hal.c ****   else
 691:Drivers/STM32H7xx_HAL_Driver/Src/stm32h7xx_hal.c ****   {
 692:Drivers/STM32H7xx_HAL_Driver/Src/stm32h7xx_hal.c ****     /* Configure CM7 BOOT ADD1 */
 693:Drivers/STM32H7xx_HAL_Driver/Src/stm32h7xx_hal.c **** #if defined(DUAL_CORE)
 694:Drivers/STM32H7xx_HAL_Driver/Src/stm32h7xx_hal.c ****     MODIFY_REG(SYSCFG->UR3, SYSCFG_UR3_BCM7_ADD1, (BootAddress >> 16));
 695:Drivers/STM32H7xx_HAL_Driver/Src/stm32h7xx_hal.c **** #else
 696:Drivers/STM32H7xx_HAL_Driver/Src/stm32h7xx_hal.c ****     MODIFY_REG(SYSCFG->UR3, SYSCFG_UR3_BOOT_ADD1, (BootAddress >> 16));
 1152              		.loc 1 696 5 is_stmt 1 view .LVU213
 1153 0016 054A     		ldr	r2, .L112
 1154 0018 D2F80C03 		ldr	r0, [r2, #780]
 1155              	.LVL38:
 1156              		.loc 1 696 5 is_stmt 0 view .LVU214
 1157 001c 044B     		ldr	r3, .L112+4
 1158 001e 0340     		ands	r3, r3, r0
 1159 0020 43EA1141 		orr	r1, r3, r1, lsr #16
 1160              	.LVL39:
 1161              		.loc 1 696 5 view .LVU215
 1162 0024 C2F80C13 		str	r1, [r2, #780]
ARM GAS  C:\Users\Brandon\AppData\Local\Temp\ccg7xZpb.s 			page 34


 697:Drivers/STM32H7xx_HAL_Driver/Src/stm32h7xx_hal.c **** #endif /*DUAL_CORE*/
 698:Drivers/STM32H7xx_HAL_Driver/Src/stm32h7xx_hal.c ****   }
 699:Drivers/STM32H7xx_HAL_Driver/Src/stm32h7xx_hal.c **** }
 1163              		.loc 1 699 1 view .LVU216
 1164 0028 7047     		bx	lr
 1165              	.L113:
 1166 002a 00BF     		.align	2
 1167              	.L112:
 1168 002c 00040058 		.word	1476396032
 1169 0030 0000FFFF 		.word	-65536
 1170              		.cfi_endproc
 1171              	.LFE169:
 1173              		.section	.text.HAL_EnableCompensationCell,"ax",%progbits
 1174              		.align	1
 1175              		.global	HAL_EnableCompensationCell
 1176              		.syntax unified
 1177              		.thumb
 1178              		.thumb_func
 1179              		.fpu fpv5-d16
 1181              	HAL_EnableCompensationCell:
 1182              	.LFB170:
 700:Drivers/STM32H7xx_HAL_Driver/Src/stm32h7xx_hal.c **** #endif /* SYSCFG_UR2_BOOT_ADD0 || SYSCFG_UR2_BCM7_ADD0 */
 701:Drivers/STM32H7xx_HAL_Driver/Src/stm32h7xx_hal.c **** 
 702:Drivers/STM32H7xx_HAL_Driver/Src/stm32h7xx_hal.c **** #if defined(DUAL_CORE)
 703:Drivers/STM32H7xx_HAL_Driver/Src/stm32h7xx_hal.c **** /**
 704:Drivers/STM32H7xx_HAL_Driver/Src/stm32h7xx_hal.c ****   * @brief  BootCM4 address 0 configuration
 705:Drivers/STM32H7xx_HAL_Driver/Src/stm32h7xx_hal.c ****   * @param  BootRegister :Specifies the Boot Address register (Address0 or Address1)
 706:Drivers/STM32H7xx_HAL_Driver/Src/stm32h7xx_hal.c ****   *   This parameter can be one of the following values:
 707:Drivers/STM32H7xx_HAL_Driver/Src/stm32h7xx_hal.c ****   *   @arg SYSCFG_BOOT_ADDR0 : Select the boot address0
 708:Drivers/STM32H7xx_HAL_Driver/Src/stm32h7xx_hal.c ****   *   @arg SYSCFG_BOOT_ADDR1:  Select the boot address1
 709:Drivers/STM32H7xx_HAL_Driver/Src/stm32h7xx_hal.c ****   * @param  BootAddress :Specifies the CM4 Boot Address to be loaded in Address0 or Address1
 710:Drivers/STM32H7xx_HAL_Driver/Src/stm32h7xx_hal.c ****   * @retval None
 711:Drivers/STM32H7xx_HAL_Driver/Src/stm32h7xx_hal.c ****   */
 712:Drivers/STM32H7xx_HAL_Driver/Src/stm32h7xx_hal.c **** void HAL_SYSCFG_CM4BootAddConfig(uint32_t BootRegister, uint32_t BootAddress)
 713:Drivers/STM32H7xx_HAL_Driver/Src/stm32h7xx_hal.c **** {
 714:Drivers/STM32H7xx_HAL_Driver/Src/stm32h7xx_hal.c ****   /* Check the parameters */
 715:Drivers/STM32H7xx_HAL_Driver/Src/stm32h7xx_hal.c ****   assert_param(IS_SYSCFG_BOOT_REGISTER(BootRegister));
 716:Drivers/STM32H7xx_HAL_Driver/Src/stm32h7xx_hal.c ****   assert_param(IS_SYSCFG_BOOT_ADDRESS(BootAddress));
 717:Drivers/STM32H7xx_HAL_Driver/Src/stm32h7xx_hal.c **** 
 718:Drivers/STM32H7xx_HAL_Driver/Src/stm32h7xx_hal.c ****   if ( BootRegister == SYSCFG_BOOT_ADDR0 )
 719:Drivers/STM32H7xx_HAL_Driver/Src/stm32h7xx_hal.c ****   {
 720:Drivers/STM32H7xx_HAL_Driver/Src/stm32h7xx_hal.c ****     /* Configure CM4 BOOT ADD0 */
 721:Drivers/STM32H7xx_HAL_Driver/Src/stm32h7xx_hal.c ****     MODIFY_REG(SYSCFG->UR3, SYSCFG_UR3_BCM4_ADD0, ((BootAddress >> 16)<< SYSCFG_UR3_BCM4_ADD0_Pos))
 722:Drivers/STM32H7xx_HAL_Driver/Src/stm32h7xx_hal.c ****   }
 723:Drivers/STM32H7xx_HAL_Driver/Src/stm32h7xx_hal.c **** 
 724:Drivers/STM32H7xx_HAL_Driver/Src/stm32h7xx_hal.c ****   else
 725:Drivers/STM32H7xx_HAL_Driver/Src/stm32h7xx_hal.c ****   {
 726:Drivers/STM32H7xx_HAL_Driver/Src/stm32h7xx_hal.c ****     /* Configure CM4 BOOT ADD1 */
 727:Drivers/STM32H7xx_HAL_Driver/Src/stm32h7xx_hal.c ****     MODIFY_REG(SYSCFG->UR4, SYSCFG_UR4_BCM4_ADD1, (BootAddress >> 16));
 728:Drivers/STM32H7xx_HAL_Driver/Src/stm32h7xx_hal.c ****   }
 729:Drivers/STM32H7xx_HAL_Driver/Src/stm32h7xx_hal.c **** }
 730:Drivers/STM32H7xx_HAL_Driver/Src/stm32h7xx_hal.c **** 
 731:Drivers/STM32H7xx_HAL_Driver/Src/stm32h7xx_hal.c **** /**
 732:Drivers/STM32H7xx_HAL_Driver/Src/stm32h7xx_hal.c ****   * @brief  Enables the Cortex-M7 boot
 733:Drivers/STM32H7xx_HAL_Driver/Src/stm32h7xx_hal.c ****   * @retval None
 734:Drivers/STM32H7xx_HAL_Driver/Src/stm32h7xx_hal.c ****   */
 735:Drivers/STM32H7xx_HAL_Driver/Src/stm32h7xx_hal.c **** void HAL_SYSCFG_EnableCM7BOOT(void)
ARM GAS  C:\Users\Brandon\AppData\Local\Temp\ccg7xZpb.s 			page 35


 736:Drivers/STM32H7xx_HAL_Driver/Src/stm32h7xx_hal.c **** {
 737:Drivers/STM32H7xx_HAL_Driver/Src/stm32h7xx_hal.c ****  SET_BIT(SYSCFG->UR1, SYSCFG_UR1_BCM7);
 738:Drivers/STM32H7xx_HAL_Driver/Src/stm32h7xx_hal.c **** }
 739:Drivers/STM32H7xx_HAL_Driver/Src/stm32h7xx_hal.c **** 
 740:Drivers/STM32H7xx_HAL_Driver/Src/stm32h7xx_hal.c **** /**
 741:Drivers/STM32H7xx_HAL_Driver/Src/stm32h7xx_hal.c ****   * @brief  Disables the Cortex-M7 boot
 742:Drivers/STM32H7xx_HAL_Driver/Src/stm32h7xx_hal.c ****   * @note   Disabling the boot will gate the CPU clock
 743:Drivers/STM32H7xx_HAL_Driver/Src/stm32h7xx_hal.c ****   * @retval None
 744:Drivers/STM32H7xx_HAL_Driver/Src/stm32h7xx_hal.c ****   */
 745:Drivers/STM32H7xx_HAL_Driver/Src/stm32h7xx_hal.c **** void HAL_SYSCFG_DisableCM7BOOT(void)
 746:Drivers/STM32H7xx_HAL_Driver/Src/stm32h7xx_hal.c **** {
 747:Drivers/STM32H7xx_HAL_Driver/Src/stm32h7xx_hal.c ****  CLEAR_BIT(SYSCFG->UR1, SYSCFG_UR1_BCM7) ;
 748:Drivers/STM32H7xx_HAL_Driver/Src/stm32h7xx_hal.c **** }
 749:Drivers/STM32H7xx_HAL_Driver/Src/stm32h7xx_hal.c **** 
 750:Drivers/STM32H7xx_HAL_Driver/Src/stm32h7xx_hal.c **** /**
 751:Drivers/STM32H7xx_HAL_Driver/Src/stm32h7xx_hal.c ****   * @brief  Enables the Cortex-M4 boot
 752:Drivers/STM32H7xx_HAL_Driver/Src/stm32h7xx_hal.c ****   * @retval None
 753:Drivers/STM32H7xx_HAL_Driver/Src/stm32h7xx_hal.c ****   */
 754:Drivers/STM32H7xx_HAL_Driver/Src/stm32h7xx_hal.c **** void HAL_SYSCFG_EnableCM4BOOT(void)
 755:Drivers/STM32H7xx_HAL_Driver/Src/stm32h7xx_hal.c **** {
 756:Drivers/STM32H7xx_HAL_Driver/Src/stm32h7xx_hal.c ****  SET_BIT(SYSCFG->UR1, SYSCFG_UR1_BCM4);
 757:Drivers/STM32H7xx_HAL_Driver/Src/stm32h7xx_hal.c **** }
 758:Drivers/STM32H7xx_HAL_Driver/Src/stm32h7xx_hal.c **** 
 759:Drivers/STM32H7xx_HAL_Driver/Src/stm32h7xx_hal.c **** /**
 760:Drivers/STM32H7xx_HAL_Driver/Src/stm32h7xx_hal.c ****   * @brief  Disables the Cortex-M4 boot
 761:Drivers/STM32H7xx_HAL_Driver/Src/stm32h7xx_hal.c ****   * @note   Disabling the boot will gate the CPU clock
 762:Drivers/STM32H7xx_HAL_Driver/Src/stm32h7xx_hal.c ****   * @retval None
 763:Drivers/STM32H7xx_HAL_Driver/Src/stm32h7xx_hal.c ****   */
 764:Drivers/STM32H7xx_HAL_Driver/Src/stm32h7xx_hal.c **** void HAL_SYSCFG_DisableCM4BOOT(void)
 765:Drivers/STM32H7xx_HAL_Driver/Src/stm32h7xx_hal.c **** {
 766:Drivers/STM32H7xx_HAL_Driver/Src/stm32h7xx_hal.c ****   CLEAR_BIT(SYSCFG->UR1, SYSCFG_UR1_BCM4);
 767:Drivers/STM32H7xx_HAL_Driver/Src/stm32h7xx_hal.c **** }
 768:Drivers/STM32H7xx_HAL_Driver/Src/stm32h7xx_hal.c **** #endif /*DUAL_CORE*/
 769:Drivers/STM32H7xx_HAL_Driver/Src/stm32h7xx_hal.c **** /**
 770:Drivers/STM32H7xx_HAL_Driver/Src/stm32h7xx_hal.c ****   * @brief  Enables the I/O Compensation Cell.
 771:Drivers/STM32H7xx_HAL_Driver/Src/stm32h7xx_hal.c ****   * @note   The I/O compensation cell can be used only when the device supply
 772:Drivers/STM32H7xx_HAL_Driver/Src/stm32h7xx_hal.c ****   *         voltage ranges from 2.4 to 3.6 V.
 773:Drivers/STM32H7xx_HAL_Driver/Src/stm32h7xx_hal.c ****   * @retval None
 774:Drivers/STM32H7xx_HAL_Driver/Src/stm32h7xx_hal.c ****   */
 775:Drivers/STM32H7xx_HAL_Driver/Src/stm32h7xx_hal.c **** void HAL_EnableCompensationCell(void)
 776:Drivers/STM32H7xx_HAL_Driver/Src/stm32h7xx_hal.c **** {
 1183              		.loc 1 776 1 is_stmt 1 view -0
 1184              		.cfi_startproc
 1185              		@ args = 0, pretend = 0, frame = 0
 1186              		@ frame_needed = 0, uses_anonymous_args = 0
 1187              		@ link register save eliminated.
 777:Drivers/STM32H7xx_HAL_Driver/Src/stm32h7xx_hal.c ****   SET_BIT(SYSCFG->CCCSR, SYSCFG_CCCSR_EN) ;
 1188              		.loc 1 777 3 view .LVU218
 1189 0000 024A     		ldr	r2, .L115
 1190 0002 136A     		ldr	r3, [r2, #32]
 1191 0004 43F00103 		orr	r3, r3, #1
 1192 0008 1362     		str	r3, [r2, #32]
 778:Drivers/STM32H7xx_HAL_Driver/Src/stm32h7xx_hal.c **** }
 1193              		.loc 1 778 1 is_stmt 0 view .LVU219
 1194 000a 7047     		bx	lr
 1195              	.L116:
 1196              		.align	2
ARM GAS  C:\Users\Brandon\AppData\Local\Temp\ccg7xZpb.s 			page 36


 1197              	.L115:
 1198 000c 00040058 		.word	1476396032
 1199              		.cfi_endproc
 1200              	.LFE170:
 1202              		.section	.text.HAL_DisableCompensationCell,"ax",%progbits
 1203              		.align	1
 1204              		.global	HAL_DisableCompensationCell
 1205              		.syntax unified
 1206              		.thumb
 1207              		.thumb_func
 1208              		.fpu fpv5-d16
 1210              	HAL_DisableCompensationCell:
 1211              	.LFB171:
 779:Drivers/STM32H7xx_HAL_Driver/Src/stm32h7xx_hal.c **** 
 780:Drivers/STM32H7xx_HAL_Driver/Src/stm32h7xx_hal.c **** /**
 781:Drivers/STM32H7xx_HAL_Driver/Src/stm32h7xx_hal.c ****   * @brief  Power-down the I/O Compensation Cell.
 782:Drivers/STM32H7xx_HAL_Driver/Src/stm32h7xx_hal.c ****   * @note   The I/O compensation cell can be used only when the device supply
 783:Drivers/STM32H7xx_HAL_Driver/Src/stm32h7xx_hal.c ****   *         voltage ranges from 2.4 to 3.6 V.
 784:Drivers/STM32H7xx_HAL_Driver/Src/stm32h7xx_hal.c ****   * @retval None
 785:Drivers/STM32H7xx_HAL_Driver/Src/stm32h7xx_hal.c ****   */
 786:Drivers/STM32H7xx_HAL_Driver/Src/stm32h7xx_hal.c **** void HAL_DisableCompensationCell(void)
 787:Drivers/STM32H7xx_HAL_Driver/Src/stm32h7xx_hal.c **** {
 1212              		.loc 1 787 1 is_stmt 1 view -0
 1213              		.cfi_startproc
 1214              		@ args = 0, pretend = 0, frame = 0
 1215              		@ frame_needed = 0, uses_anonymous_args = 0
 1216              		@ link register save eliminated.
 788:Drivers/STM32H7xx_HAL_Driver/Src/stm32h7xx_hal.c ****   CLEAR_BIT(SYSCFG->CCCSR, SYSCFG_CCCSR_EN);
 1217              		.loc 1 788 3 view .LVU221
 1218 0000 024A     		ldr	r2, .L118
 1219 0002 136A     		ldr	r3, [r2, #32]
 1220 0004 23F00103 		bic	r3, r3, #1
 1221 0008 1362     		str	r3, [r2, #32]
 789:Drivers/STM32H7xx_HAL_Driver/Src/stm32h7xx_hal.c **** }
 1222              		.loc 1 789 1 is_stmt 0 view .LVU222
 1223 000a 7047     		bx	lr
 1224              	.L119:
 1225              		.align	2
 1226              	.L118:
 1227 000c 00040058 		.word	1476396032
 1228              		.cfi_endproc
 1229              	.LFE171:
 1231              		.section	.text.HAL_SYSCFG_EnableIOSpeedOptimize,"ax",%progbits
 1232              		.align	1
 1233              		.global	HAL_SYSCFG_EnableIOSpeedOptimize
 1234              		.syntax unified
 1235              		.thumb
 1236              		.thumb_func
 1237              		.fpu fpv5-d16
 1239              	HAL_SYSCFG_EnableIOSpeedOptimize:
 1240              	.LFB172:
 790:Drivers/STM32H7xx_HAL_Driver/Src/stm32h7xx_hal.c **** 
 791:Drivers/STM32H7xx_HAL_Driver/Src/stm32h7xx_hal.c **** 
 792:Drivers/STM32H7xx_HAL_Driver/Src/stm32h7xx_hal.c **** /**
 793:Drivers/STM32H7xx_HAL_Driver/Src/stm32h7xx_hal.c ****   * @brief  To Enable optimize the I/O speed when the product voltage is low.
 794:Drivers/STM32H7xx_HAL_Driver/Src/stm32h7xx_hal.c ****   * @note   This bit is active only if PRODUCT_BELOW_25V user option bit is set. It must be
 795:Drivers/STM32H7xx_HAL_Driver/Src/stm32h7xx_hal.c ****   *         used only if the product supply voltage is below 2.5 V. Setting this bit when VDD is
ARM GAS  C:\Users\Brandon\AppData\Local\Temp\ccg7xZpb.s 			page 37


 796:Drivers/STM32H7xx_HAL_Driver/Src/stm32h7xx_hal.c ****   *         higher than 2.5 V might be destructive.
 797:Drivers/STM32H7xx_HAL_Driver/Src/stm32h7xx_hal.c ****   * @retval None
 798:Drivers/STM32H7xx_HAL_Driver/Src/stm32h7xx_hal.c ****   */
 799:Drivers/STM32H7xx_HAL_Driver/Src/stm32h7xx_hal.c **** void HAL_SYSCFG_EnableIOSpeedOptimize(void)
 800:Drivers/STM32H7xx_HAL_Driver/Src/stm32h7xx_hal.c **** {
 1241              		.loc 1 800 1 is_stmt 1 view -0
 1242              		.cfi_startproc
 1243              		@ args = 0, pretend = 0, frame = 0
 1244              		@ frame_needed = 0, uses_anonymous_args = 0
 1245              		@ link register save eliminated.
 801:Drivers/STM32H7xx_HAL_Driver/Src/stm32h7xx_hal.c **** #if defined(SYSCFG_CCCSR_HSLV)
 802:Drivers/STM32H7xx_HAL_Driver/Src/stm32h7xx_hal.c ****   SET_BIT(SYSCFG->CCCSR, SYSCFG_CCCSR_HSLV);
 1246              		.loc 1 802 3 view .LVU224
 1247 0000 024A     		ldr	r2, .L121
 1248 0002 136A     		ldr	r3, [r2, #32]
 1249 0004 43F48033 		orr	r3, r3, #65536
 1250 0008 1362     		str	r3, [r2, #32]
 803:Drivers/STM32H7xx_HAL_Driver/Src/stm32h7xx_hal.c **** #else
 804:Drivers/STM32H7xx_HAL_Driver/Src/stm32h7xx_hal.c ****   SET_BIT(SYSCFG->CCCSR, (SYSCFG_CCCSR_HSLV0| SYSCFG_CCCSR_HSLV1 | SYSCFG_CCCSR_HSLV2  | SYSCFG_CCC
 805:Drivers/STM32H7xx_HAL_Driver/Src/stm32h7xx_hal.c **** #endif   /* SYSCFG_CCCSR_HSLV */
 806:Drivers/STM32H7xx_HAL_Driver/Src/stm32h7xx_hal.c **** }
 1251              		.loc 1 806 1 is_stmt 0 view .LVU225
 1252 000a 7047     		bx	lr
 1253              	.L122:
 1254              		.align	2
 1255              	.L121:
 1256 000c 00040058 		.word	1476396032
 1257              		.cfi_endproc
 1258              	.LFE172:
 1260              		.section	.text.HAL_SYSCFG_DisableIOSpeedOptimize,"ax",%progbits
 1261              		.align	1
 1262              		.global	HAL_SYSCFG_DisableIOSpeedOptimize
 1263              		.syntax unified
 1264              		.thumb
 1265              		.thumb_func
 1266              		.fpu fpv5-d16
 1268              	HAL_SYSCFG_DisableIOSpeedOptimize:
 1269              	.LFB173:
 807:Drivers/STM32H7xx_HAL_Driver/Src/stm32h7xx_hal.c **** 
 808:Drivers/STM32H7xx_HAL_Driver/Src/stm32h7xx_hal.c **** /**
 809:Drivers/STM32H7xx_HAL_Driver/Src/stm32h7xx_hal.c ****   * @brief  To Disable optimize the I/O speed when the product voltage is low.
 810:Drivers/STM32H7xx_HAL_Driver/Src/stm32h7xx_hal.c ****   * @note   This bit is active only if PRODUCT_BELOW_25V user option bit is set. It must be
 811:Drivers/STM32H7xx_HAL_Driver/Src/stm32h7xx_hal.c ****   *         used only if the product supply voltage is below 2.5 V. Setting this bit when VDD is
 812:Drivers/STM32H7xx_HAL_Driver/Src/stm32h7xx_hal.c ****   *         higher than 2.5 V might be destructive.
 813:Drivers/STM32H7xx_HAL_Driver/Src/stm32h7xx_hal.c ****   * @retval None
 814:Drivers/STM32H7xx_HAL_Driver/Src/stm32h7xx_hal.c ****   */
 815:Drivers/STM32H7xx_HAL_Driver/Src/stm32h7xx_hal.c **** void HAL_SYSCFG_DisableIOSpeedOptimize(void)
 816:Drivers/STM32H7xx_HAL_Driver/Src/stm32h7xx_hal.c **** {
 1270              		.loc 1 816 1 is_stmt 1 view -0
 1271              		.cfi_startproc
 1272              		@ args = 0, pretend = 0, frame = 0
 1273              		@ frame_needed = 0, uses_anonymous_args = 0
 1274              		@ link register save eliminated.
 817:Drivers/STM32H7xx_HAL_Driver/Src/stm32h7xx_hal.c **** #if defined(SYSCFG_CCCSR_HSLV)
 818:Drivers/STM32H7xx_HAL_Driver/Src/stm32h7xx_hal.c ****   CLEAR_BIT(SYSCFG->CCCSR, SYSCFG_CCCSR_HSLV);
 1275              		.loc 1 818 3 view .LVU227
 1276 0000 024A     		ldr	r2, .L124
ARM GAS  C:\Users\Brandon\AppData\Local\Temp\ccg7xZpb.s 			page 38


 1277 0002 136A     		ldr	r3, [r2, #32]
 1278 0004 23F48033 		bic	r3, r3, #65536
 1279 0008 1362     		str	r3, [r2, #32]
 819:Drivers/STM32H7xx_HAL_Driver/Src/stm32h7xx_hal.c **** #else
 820:Drivers/STM32H7xx_HAL_Driver/Src/stm32h7xx_hal.c ****   CLEAR_BIT(SYSCFG->CCCSR, (SYSCFG_CCCSR_HSLV0| SYSCFG_CCCSR_HSLV1 | SYSCFG_CCCSR_HSLV2  | SYSCFG_C
 821:Drivers/STM32H7xx_HAL_Driver/Src/stm32h7xx_hal.c **** #endif   /* SYSCFG_CCCSR_HSLV */
 822:Drivers/STM32H7xx_HAL_Driver/Src/stm32h7xx_hal.c **** }
 1280              		.loc 1 822 1 is_stmt 0 view .LVU228
 1281 000a 7047     		bx	lr
 1282              	.L125:
 1283              		.align	2
 1284              	.L124:
 1285 000c 00040058 		.word	1476396032
 1286              		.cfi_endproc
 1287              	.LFE173:
 1289              		.section	.text.HAL_SYSCFG_CompensationCodeSelect,"ax",%progbits
 1290              		.align	1
 1291              		.global	HAL_SYSCFG_CompensationCodeSelect
 1292              		.syntax unified
 1293              		.thumb
 1294              		.thumb_func
 1295              		.fpu fpv5-d16
 1297              	HAL_SYSCFG_CompensationCodeSelect:
 1298              	.LVL40:
 1299              	.LFB174:
 823:Drivers/STM32H7xx_HAL_Driver/Src/stm32h7xx_hal.c **** 
 824:Drivers/STM32H7xx_HAL_Driver/Src/stm32h7xx_hal.c **** /**
 825:Drivers/STM32H7xx_HAL_Driver/Src/stm32h7xx_hal.c ****   * @brief  Code selection for the I/O Compensation cell
 826:Drivers/STM32H7xx_HAL_Driver/Src/stm32h7xx_hal.c ****   * @param  SYSCFG_CompCode: Selects the code to be applied for the I/O compensation cell
 827:Drivers/STM32H7xx_HAL_Driver/Src/stm32h7xx_hal.c ****   *   This parameter can be one of the following values:
 828:Drivers/STM32H7xx_HAL_Driver/Src/stm32h7xx_hal.c ****   *   @arg SYSCFG_CELL_CODE : Select Code from the cell (available in the SYSCFG_CCVR)
 829:Drivers/STM32H7xx_HAL_Driver/Src/stm32h7xx_hal.c ****   *   @arg SYSCFG_REGISTER_CODE: Select Code from the SYSCFG compensation cell code register (SYSCF
 830:Drivers/STM32H7xx_HAL_Driver/Src/stm32h7xx_hal.c ****   * @retval None
 831:Drivers/STM32H7xx_HAL_Driver/Src/stm32h7xx_hal.c ****   */
 832:Drivers/STM32H7xx_HAL_Driver/Src/stm32h7xx_hal.c **** void HAL_SYSCFG_CompensationCodeSelect(uint32_t SYSCFG_CompCode)
 833:Drivers/STM32H7xx_HAL_Driver/Src/stm32h7xx_hal.c **** {
 1300              		.loc 1 833 1 is_stmt 1 view -0
 1301              		.cfi_startproc
 1302              		@ args = 0, pretend = 0, frame = 0
 1303              		@ frame_needed = 0, uses_anonymous_args = 0
 1304              		@ link register save eliminated.
 834:Drivers/STM32H7xx_HAL_Driver/Src/stm32h7xx_hal.c ****   /* Check the parameter */
 835:Drivers/STM32H7xx_HAL_Driver/Src/stm32h7xx_hal.c ****   assert_param(IS_SYSCFG_CODE_SELECT(SYSCFG_CompCode));
 1305              		.loc 1 835 3 view .LVU230
 836:Drivers/STM32H7xx_HAL_Driver/Src/stm32h7xx_hal.c ****   MODIFY_REG(SYSCFG->CCCSR, SYSCFG_CCCSR_CS, (uint32_t)(SYSCFG_CompCode));
 1306              		.loc 1 836 3 view .LVU231
 1307 0000 034A     		ldr	r2, .L127
 1308 0002 136A     		ldr	r3, [r2, #32]
 1309 0004 23F00203 		bic	r3, r3, #2
 1310 0008 0343     		orrs	r3, r3, r0
 1311 000a 1362     		str	r3, [r2, #32]
 837:Drivers/STM32H7xx_HAL_Driver/Src/stm32h7xx_hal.c **** }
 1312              		.loc 1 837 1 is_stmt 0 view .LVU232
 1313 000c 7047     		bx	lr
 1314              	.L128:
 1315 000e 00BF     		.align	2
 1316              	.L127:
ARM GAS  C:\Users\Brandon\AppData\Local\Temp\ccg7xZpb.s 			page 39


 1317 0010 00040058 		.word	1476396032
 1318              		.cfi_endproc
 1319              	.LFE174:
 1321              		.section	.text.HAL_SYSCFG_CompensationCodeConfig,"ax",%progbits
 1322              		.align	1
 1323              		.global	HAL_SYSCFG_CompensationCodeConfig
 1324              		.syntax unified
 1325              		.thumb
 1326              		.thumb_func
 1327              		.fpu fpv5-d16
 1329              	HAL_SYSCFG_CompensationCodeConfig:
 1330              	.LVL41:
 1331              	.LFB175:
 838:Drivers/STM32H7xx_HAL_Driver/Src/stm32h7xx_hal.c **** 
 839:Drivers/STM32H7xx_HAL_Driver/Src/stm32h7xx_hal.c **** /**
 840:Drivers/STM32H7xx_HAL_Driver/Src/stm32h7xx_hal.c ****   * @brief  Code selection for the I/O Compensation cell
 841:Drivers/STM32H7xx_HAL_Driver/Src/stm32h7xx_hal.c ****   * @param  SYSCFG_PMOSCode: PMOS compensation code
 842:Drivers/STM32H7xx_HAL_Driver/Src/stm32h7xx_hal.c ****   *         This code is applied to the I/O compensation cell when the CS bit of the
 843:Drivers/STM32H7xx_HAL_Driver/Src/stm32h7xx_hal.c ****   *          SYSCFG_CMPCR is set
 844:Drivers/STM32H7xx_HAL_Driver/Src/stm32h7xx_hal.c ****   * @param  SYSCFG_NMOSCode: NMOS compensation code
 845:Drivers/STM32H7xx_HAL_Driver/Src/stm32h7xx_hal.c ****   *         This code is applied to the I/O compensation cell when the CS bit of the
 846:Drivers/STM32H7xx_HAL_Driver/Src/stm32h7xx_hal.c ****   *          SYSCFG_CMPCR is set
 847:Drivers/STM32H7xx_HAL_Driver/Src/stm32h7xx_hal.c ****   * @retval None
 848:Drivers/STM32H7xx_HAL_Driver/Src/stm32h7xx_hal.c ****   */
 849:Drivers/STM32H7xx_HAL_Driver/Src/stm32h7xx_hal.c **** void HAL_SYSCFG_CompensationCodeConfig(uint32_t SYSCFG_PMOSCode, uint32_t SYSCFG_NMOSCode )
 850:Drivers/STM32H7xx_HAL_Driver/Src/stm32h7xx_hal.c **** {
 1332              		.loc 1 850 1 is_stmt 1 view -0
 1333              		.cfi_startproc
 1334              		@ args = 0, pretend = 0, frame = 0
 1335              		@ frame_needed = 0, uses_anonymous_args = 0
 1336              		@ link register save eliminated.
 851:Drivers/STM32H7xx_HAL_Driver/Src/stm32h7xx_hal.c ****   /* Check the parameter */
 852:Drivers/STM32H7xx_HAL_Driver/Src/stm32h7xx_hal.c ****   assert_param(IS_SYSCFG_CODE_CONFIG(SYSCFG_PMOSCode));
 1337              		.loc 1 852 3 view .LVU234
 853:Drivers/STM32H7xx_HAL_Driver/Src/stm32h7xx_hal.c ****   assert_param(IS_SYSCFG_CODE_CONFIG(SYSCFG_NMOSCode));
 1338              		.loc 1 853 3 view .LVU235
 854:Drivers/STM32H7xx_HAL_Driver/Src/stm32h7xx_hal.c ****   MODIFY_REG(SYSCFG->CCCR, SYSCFG_CCCR_NCC|SYSCFG_CCCR_PCC, (((uint32_t)(SYSCFG_PMOSCode)<< 4)|(uin
 1339              		.loc 1 854 3 view .LVU236
 1340 0000 044A     		ldr	r2, .L130
 1341 0002 936A     		ldr	r3, [r2, #40]
 1342 0004 23F0FF03 		bic	r3, r3, #255
 1343 0008 41EA0011 		orr	r1, r1, r0, lsl #4
 1344              	.LVL42:
 1345              		.loc 1 854 3 is_stmt 0 view .LVU237
 1346 000c 0B43     		orrs	r3, r3, r1
 1347 000e 9362     		str	r3, [r2, #40]
 855:Drivers/STM32H7xx_HAL_Driver/Src/stm32h7xx_hal.c **** }
 1348              		.loc 1 855 1 view .LVU238
 1349 0010 7047     		bx	lr
 1350              	.L131:
 1351 0012 00BF     		.align	2
 1352              	.L130:
 1353 0014 00040058 		.word	1476396032
 1354              		.cfi_endproc
 1355              	.LFE175:
 1357              		.section	.text.HAL_SYSCFG_ADC2ALT_Rout0Config,"ax",%progbits
 1358              		.align	1
ARM GAS  C:\Users\Brandon\AppData\Local\Temp\ccg7xZpb.s 			page 40


 1359              		.global	HAL_SYSCFG_ADC2ALT_Rout0Config
 1360              		.syntax unified
 1361              		.thumb
 1362              		.thumb_func
 1363              		.fpu fpv5-d16
 1365              	HAL_SYSCFG_ADC2ALT_Rout0Config:
 1366              	.LVL43:
 1367              	.LFB176:
 856:Drivers/STM32H7xx_HAL_Driver/Src/stm32h7xx_hal.c **** 
 857:Drivers/STM32H7xx_HAL_Driver/Src/stm32h7xx_hal.c **** #if defined(SYSCFG_CCCR_NCC_MMC)
 858:Drivers/STM32H7xx_HAL_Driver/Src/stm32h7xx_hal.c **** /**
 859:Drivers/STM32H7xx_HAL_Driver/Src/stm32h7xx_hal.c ****   * @brief  Code selection for the I/O Compensation cell
 860:Drivers/STM32H7xx_HAL_Driver/Src/stm32h7xx_hal.c ****   * @param  SYSCFG_PMOSCode: VDDMMC PMOS compensation code
 861:Drivers/STM32H7xx_HAL_Driver/Src/stm32h7xx_hal.c ****   *         This code is applied to the I/O compensation cell when the CS bit of the
 862:Drivers/STM32H7xx_HAL_Driver/Src/stm32h7xx_hal.c ****   *          SYSCFG_CMPCR is set
 863:Drivers/STM32H7xx_HAL_Driver/Src/stm32h7xx_hal.c ****   * @param  SYSCFG_NMOSCode: VDDMMC NMOS compensation code
 864:Drivers/STM32H7xx_HAL_Driver/Src/stm32h7xx_hal.c ****   *         This code is applied to the I/O compensation cell when the CS bit of the
 865:Drivers/STM32H7xx_HAL_Driver/Src/stm32h7xx_hal.c ****   *          SYSCFG_CMPCR is set
 866:Drivers/STM32H7xx_HAL_Driver/Src/stm32h7xx_hal.c ****   * @retval None
 867:Drivers/STM32H7xx_HAL_Driver/Src/stm32h7xx_hal.c ****   */
 868:Drivers/STM32H7xx_HAL_Driver/Src/stm32h7xx_hal.c **** void HAL_SYSCFG_VDDMMC_CompensationCodeConfig(uint32_t SYSCFG_PMOSCode, uint32_t SYSCFG_NMOSCode )
 869:Drivers/STM32H7xx_HAL_Driver/Src/stm32h7xx_hal.c **** {
 870:Drivers/STM32H7xx_HAL_Driver/Src/stm32h7xx_hal.c ****   /* Check the parameter */
 871:Drivers/STM32H7xx_HAL_Driver/Src/stm32h7xx_hal.c ****   assert_param(IS_SYSCFG_CODE_CONFIG(SYSCFG_PMOSCode));
 872:Drivers/STM32H7xx_HAL_Driver/Src/stm32h7xx_hal.c ****   assert_param(IS_SYSCFG_CODE_CONFIG(SYSCFG_NMOSCode));
 873:Drivers/STM32H7xx_HAL_Driver/Src/stm32h7xx_hal.c ****   MODIFY_REG(SYSCFG->CCCR, (SYSCFG_CCCR_NCC_MMC | SYSCFG_CCCR_PCC_MMC), (((uint32_t)(SYSCFG_PMOSCod
 874:Drivers/STM32H7xx_HAL_Driver/Src/stm32h7xx_hal.c **** }
 875:Drivers/STM32H7xx_HAL_Driver/Src/stm32h7xx_hal.c **** #endif /* SYSCFG_CCCR_NCC_MMC */
 876:Drivers/STM32H7xx_HAL_Driver/Src/stm32h7xx_hal.c **** 
 877:Drivers/STM32H7xx_HAL_Driver/Src/stm32h7xx_hal.c **** #if defined(SYSCFG_ADC2ALT_ADC2_ROUT0)
 878:Drivers/STM32H7xx_HAL_Driver/Src/stm32h7xx_hal.c **** /** @brief  SYSCFG ADC2 internal input alternate connection macros
 879:Drivers/STM32H7xx_HAL_Driver/Src/stm32h7xx_hal.c ****   * @param Adc2AltRout0 This parameter can be a value of :
 880:Drivers/STM32H7xx_HAL_Driver/Src/stm32h7xx_hal.c ****   *     @arg @ref SYSCFG_ADC2_ROUT0_DAC1_1   DAC1_out1 connected to ADC2 VINP[16]
 881:Drivers/STM32H7xx_HAL_Driver/Src/stm32h7xx_hal.c ****   *     @arg @ref SYSCFG_ADC2_ROUT0_VBAT4    VBAT/4 connected to ADC2 VINP[16]
 882:Drivers/STM32H7xx_HAL_Driver/Src/stm32h7xx_hal.c ****   */
 883:Drivers/STM32H7xx_HAL_Driver/Src/stm32h7xx_hal.c **** void HAL_SYSCFG_ADC2ALT_Rout0Config(uint32_t Adc2AltRout0)
 884:Drivers/STM32H7xx_HAL_Driver/Src/stm32h7xx_hal.c **** {
 1368              		.loc 1 884 1 is_stmt 1 view -0
 1369              		.cfi_startproc
 1370              		@ args = 0, pretend = 0, frame = 0
 1371              		@ frame_needed = 0, uses_anonymous_args = 0
 1372              		@ link register save eliminated.
 885:Drivers/STM32H7xx_HAL_Driver/Src/stm32h7xx_hal.c ****   /* Check the parameters */
 886:Drivers/STM32H7xx_HAL_Driver/Src/stm32h7xx_hal.c ****   assert_param(IS_SYSCFG_ADC2ALT_ROUT0(Adc2AltRout0));
 1373              		.loc 1 886 3 view .LVU240
 887:Drivers/STM32H7xx_HAL_Driver/Src/stm32h7xx_hal.c **** 
 888:Drivers/STM32H7xx_HAL_Driver/Src/stm32h7xx_hal.c ****   MODIFY_REG(SYSCFG->ADC2ALT, SYSCFG_ADC2ALT_ADC2_ROUT0, Adc2AltRout0);
 1374              		.loc 1 888 3 view .LVU241
 1375 0000 034A     		ldr	r2, .L133
 1376 0002 136B     		ldr	r3, [r2, #48]
 1377 0004 23F00103 		bic	r3, r3, #1
 1378 0008 0343     		orrs	r3, r3, r0
 1379 000a 1363     		str	r3, [r2, #48]
 889:Drivers/STM32H7xx_HAL_Driver/Src/stm32h7xx_hal.c **** }
 1380              		.loc 1 889 1 is_stmt 0 view .LVU242
 1381 000c 7047     		bx	lr
 1382              	.L134:
ARM GAS  C:\Users\Brandon\AppData\Local\Temp\ccg7xZpb.s 			page 41


 1383 000e 00BF     		.align	2
 1384              	.L133:
 1385 0010 00040058 		.word	1476396032
 1386              		.cfi_endproc
 1387              	.LFE176:
 1389              		.section	.text.HAL_SYSCFG_ADC2ALT_Rout1Config,"ax",%progbits
 1390              		.align	1
 1391              		.global	HAL_SYSCFG_ADC2ALT_Rout1Config
 1392              		.syntax unified
 1393              		.thumb
 1394              		.thumb_func
 1395              		.fpu fpv5-d16
 1397              	HAL_SYSCFG_ADC2ALT_Rout1Config:
 1398              	.LVL44:
 1399              	.LFB177:
 890:Drivers/STM32H7xx_HAL_Driver/Src/stm32h7xx_hal.c **** /**
 891:Drivers/STM32H7xx_HAL_Driver/Src/stm32h7xx_hal.c ****   * @}
 892:Drivers/STM32H7xx_HAL_Driver/Src/stm32h7xx_hal.c ****   */
 893:Drivers/STM32H7xx_HAL_Driver/Src/stm32h7xx_hal.c **** #endif /*SYSCFG_ADC2ALT_ADC2_ROUT0*/
 894:Drivers/STM32H7xx_HAL_Driver/Src/stm32h7xx_hal.c **** 
 895:Drivers/STM32H7xx_HAL_Driver/Src/stm32h7xx_hal.c **** #if defined(SYSCFG_ADC2ALT_ADC2_ROUT1)
 896:Drivers/STM32H7xx_HAL_Driver/Src/stm32h7xx_hal.c **** /** @brief  SYSCFG ADC2 internal input alternate connection macros
 897:Drivers/STM32H7xx_HAL_Driver/Src/stm32h7xx_hal.c ****   * @param Adc2AltRout1  This parameter can be a value of :
 898:Drivers/STM32H7xx_HAL_Driver/Src/stm32h7xx_hal.c ****   *     @arg @ref SYSCFG_ADC2_ROUT1_DAC1_2   DAC1_out2 connected to ADC2 VINP[17]
 899:Drivers/STM32H7xx_HAL_Driver/Src/stm32h7xx_hal.c ****   *     @arg @ref SYSCFG_ADC2_ROUT1_VREFINT  VREFINT connected to ADC2 VINP[17]
 900:Drivers/STM32H7xx_HAL_Driver/Src/stm32h7xx_hal.c ****   */
 901:Drivers/STM32H7xx_HAL_Driver/Src/stm32h7xx_hal.c **** void HAL_SYSCFG_ADC2ALT_Rout1Config(uint32_t Adc2AltRout1)
 902:Drivers/STM32H7xx_HAL_Driver/Src/stm32h7xx_hal.c **** {
 1400              		.loc 1 902 1 is_stmt 1 view -0
 1401              		.cfi_startproc
 1402              		@ args = 0, pretend = 0, frame = 0
 1403              		@ frame_needed = 0, uses_anonymous_args = 0
 1404              		@ link register save eliminated.
 903:Drivers/STM32H7xx_HAL_Driver/Src/stm32h7xx_hal.c ****   /* Check the parameters */
 904:Drivers/STM32H7xx_HAL_Driver/Src/stm32h7xx_hal.c ****   assert_param(IS_SYSCFG_ADC2ALT_ROUT1(Adc2AltRout1));
 1405              		.loc 1 904 3 view .LVU244
 905:Drivers/STM32H7xx_HAL_Driver/Src/stm32h7xx_hal.c **** 
 906:Drivers/STM32H7xx_HAL_Driver/Src/stm32h7xx_hal.c ****   MODIFY_REG(SYSCFG->ADC2ALT, SYSCFG_ADC2ALT_ADC2_ROUT1, Adc2AltRout1);
 1406              		.loc 1 906 3 view .LVU245
 1407 0000 034A     		ldr	r2, .L136
 1408 0002 136B     		ldr	r3, [r2, #48]
 1409 0004 23F00203 		bic	r3, r3, #2
 1410 0008 0343     		orrs	r3, r3, r0
 1411 000a 1363     		str	r3, [r2, #48]
 907:Drivers/STM32H7xx_HAL_Driver/Src/stm32h7xx_hal.c **** }
 1412              		.loc 1 907 1 is_stmt 0 view .LVU246
 1413 000c 7047     		bx	lr
 1414              	.L137:
 1415 000e 00BF     		.align	2
 1416              	.L136:
 1417 0010 00040058 		.word	1476396032
 1418              		.cfi_endproc
 1419              	.LFE177:
 1421              		.section	.text.HAL_DBGMCU_EnableDBGSleepMode,"ax",%progbits
 1422              		.align	1
 1423              		.global	HAL_DBGMCU_EnableDBGSleepMode
 1424              		.syntax unified
ARM GAS  C:\Users\Brandon\AppData\Local\Temp\ccg7xZpb.s 			page 42


 1425              		.thumb
 1426              		.thumb_func
 1427              		.fpu fpv5-d16
 1429              	HAL_DBGMCU_EnableDBGSleepMode:
 1430              	.LFB178:
 908:Drivers/STM32H7xx_HAL_Driver/Src/stm32h7xx_hal.c **** /**
 909:Drivers/STM32H7xx_HAL_Driver/Src/stm32h7xx_hal.c ****   * @}
 910:Drivers/STM32H7xx_HAL_Driver/Src/stm32h7xx_hal.c ****   */
 911:Drivers/STM32H7xx_HAL_Driver/Src/stm32h7xx_hal.c **** #endif /*SYSCFG_ADC2ALT_ADC2_ROUT1*/
 912:Drivers/STM32H7xx_HAL_Driver/Src/stm32h7xx_hal.c **** 
 913:Drivers/STM32H7xx_HAL_Driver/Src/stm32h7xx_hal.c **** /**
 914:Drivers/STM32H7xx_HAL_Driver/Src/stm32h7xx_hal.c ****   * @brief  Enable the Debug Module during Domain1/CDomain SLEEP mode
 915:Drivers/STM32H7xx_HAL_Driver/Src/stm32h7xx_hal.c ****   * @retval None
 916:Drivers/STM32H7xx_HAL_Driver/Src/stm32h7xx_hal.c ****   */
 917:Drivers/STM32H7xx_HAL_Driver/Src/stm32h7xx_hal.c **** void HAL_EnableDBGSleepMode(void)
 918:Drivers/STM32H7xx_HAL_Driver/Src/stm32h7xx_hal.c **** {
 1431              		.loc 1 918 1 is_stmt 1 view -0
 1432              		.cfi_startproc
 1433              		@ args = 0, pretend = 0, frame = 0
 1434              		@ frame_needed = 0, uses_anonymous_args = 0
 1435              		@ link register save eliminated.
 919:Drivers/STM32H7xx_HAL_Driver/Src/stm32h7xx_hal.c ****   SET_BIT(DBGMCU->CR, DBGMCU_CR_DBG_SLEEPD1);
 1436              		.loc 1 919 3 view .LVU248
 1437 0000 024A     		ldr	r2, .L139
 1438 0002 5368     		ldr	r3, [r2, #4]
 1439 0004 43F00103 		orr	r3, r3, #1
 1440 0008 5360     		str	r3, [r2, #4]
 920:Drivers/STM32H7xx_HAL_Driver/Src/stm32h7xx_hal.c **** }
 1441              		.loc 1 920 1 is_stmt 0 view .LVU249
 1442 000a 7047     		bx	lr
 1443              	.L140:
 1444              		.align	2
 1445              	.L139:
 1446 000c 0010005C 		.word	1543507968
 1447              		.cfi_endproc
 1448              	.LFE178:
 1450              		.section	.text.HAL_DBGMCU_DisableDBGSleepMode,"ax",%progbits
 1451              		.align	1
 1452              		.global	HAL_DBGMCU_DisableDBGSleepMode
 1453              		.syntax unified
 1454              		.thumb
 1455              		.thumb_func
 1456              		.fpu fpv5-d16
 1458              	HAL_DBGMCU_DisableDBGSleepMode:
 1459              	.LFB179:
 921:Drivers/STM32H7xx_HAL_Driver/Src/stm32h7xx_hal.c **** 
 922:Drivers/STM32H7xx_HAL_Driver/Src/stm32h7xx_hal.c **** /**
 923:Drivers/STM32H7xx_HAL_Driver/Src/stm32h7xx_hal.c ****   * @brief  Disable the Debug Module during Domain1/CDomain SLEEP mode
 924:Drivers/STM32H7xx_HAL_Driver/Src/stm32h7xx_hal.c ****   * @retval None
 925:Drivers/STM32H7xx_HAL_Driver/Src/stm32h7xx_hal.c ****   */
 926:Drivers/STM32H7xx_HAL_Driver/Src/stm32h7xx_hal.c **** void HAL_DisableDBGSleepMode(void)
 927:Drivers/STM32H7xx_HAL_Driver/Src/stm32h7xx_hal.c **** {
 1460              		.loc 1 927 1 is_stmt 1 view -0
 1461              		.cfi_startproc
 1462              		@ args = 0, pretend = 0, frame = 0
 1463              		@ frame_needed = 0, uses_anonymous_args = 0
 1464              		@ link register save eliminated.
ARM GAS  C:\Users\Brandon\AppData\Local\Temp\ccg7xZpb.s 			page 43


 928:Drivers/STM32H7xx_HAL_Driver/Src/stm32h7xx_hal.c ****   CLEAR_BIT(DBGMCU->CR, DBGMCU_CR_DBG_SLEEPD1);
 1465              		.loc 1 928 3 view .LVU251
 1466 0000 024A     		ldr	r2, .L142
 1467 0002 5368     		ldr	r3, [r2, #4]
 1468 0004 23F00103 		bic	r3, r3, #1
 1469 0008 5360     		str	r3, [r2, #4]
 929:Drivers/STM32H7xx_HAL_Driver/Src/stm32h7xx_hal.c **** }
 1470              		.loc 1 929 1 is_stmt 0 view .LVU252
 1471 000a 7047     		bx	lr
 1472              	.L143:
 1473              		.align	2
 1474              	.L142:
 1475 000c 0010005C 		.word	1543507968
 1476              		.cfi_endproc
 1477              	.LFE179:
 1479              		.section	.text.HAL_DBGMCU_EnableDBGStopMode,"ax",%progbits
 1480              		.align	1
 1481              		.global	HAL_DBGMCU_EnableDBGStopMode
 1482              		.syntax unified
 1483              		.thumb
 1484              		.thumb_func
 1485              		.fpu fpv5-d16
 1487              	HAL_DBGMCU_EnableDBGStopMode:
 1488              	.LFB180:
 930:Drivers/STM32H7xx_HAL_Driver/Src/stm32h7xx_hal.c **** 
 931:Drivers/STM32H7xx_HAL_Driver/Src/stm32h7xx_hal.c **** 
 932:Drivers/STM32H7xx_HAL_Driver/Src/stm32h7xx_hal.c **** /**
 933:Drivers/STM32H7xx_HAL_Driver/Src/stm32h7xx_hal.c ****   * @brief  Enable the Debug Module during Domain1/CDomain STOP mode
 934:Drivers/STM32H7xx_HAL_Driver/Src/stm32h7xx_hal.c ****   * @retval None
 935:Drivers/STM32H7xx_HAL_Driver/Src/stm32h7xx_hal.c ****   */
 936:Drivers/STM32H7xx_HAL_Driver/Src/stm32h7xx_hal.c **** void HAL_EnableDBGStopMode(void)
 937:Drivers/STM32H7xx_HAL_Driver/Src/stm32h7xx_hal.c **** {
 1489              		.loc 1 937 1 is_stmt 1 view -0
 1490              		.cfi_startproc
 1491              		@ args = 0, pretend = 0, frame = 0
 1492              		@ frame_needed = 0, uses_anonymous_args = 0
 1493              		@ link register save eliminated.
 938:Drivers/STM32H7xx_HAL_Driver/Src/stm32h7xx_hal.c ****   SET_BIT(DBGMCU->CR, DBGMCU_CR_DBG_STOPD1);
 1494              		.loc 1 938 3 view .LVU254
 1495 0000 024A     		ldr	r2, .L145
 1496 0002 5368     		ldr	r3, [r2, #4]
 1497 0004 43F00203 		orr	r3, r3, #2
 1498 0008 5360     		str	r3, [r2, #4]
 939:Drivers/STM32H7xx_HAL_Driver/Src/stm32h7xx_hal.c **** }
 1499              		.loc 1 939 1 is_stmt 0 view .LVU255
 1500 000a 7047     		bx	lr
 1501              	.L146:
 1502              		.align	2
 1503              	.L145:
 1504 000c 0010005C 		.word	1543507968
 1505              		.cfi_endproc
 1506              	.LFE180:
 1508              		.section	.text.HAL_DBGMCU_DisableDBGStopMode,"ax",%progbits
 1509              		.align	1
 1510              		.global	HAL_DBGMCU_DisableDBGStopMode
 1511              		.syntax unified
 1512              		.thumb
ARM GAS  C:\Users\Brandon\AppData\Local\Temp\ccg7xZpb.s 			page 44


 1513              		.thumb_func
 1514              		.fpu fpv5-d16
 1516              	HAL_DBGMCU_DisableDBGStopMode:
 1517              	.LFB181:
 940:Drivers/STM32H7xx_HAL_Driver/Src/stm32h7xx_hal.c **** 
 941:Drivers/STM32H7xx_HAL_Driver/Src/stm32h7xx_hal.c **** /**
 942:Drivers/STM32H7xx_HAL_Driver/Src/stm32h7xx_hal.c ****   * @brief  Disable the Debug Module during Domain1/CDomain STOP mode
 943:Drivers/STM32H7xx_HAL_Driver/Src/stm32h7xx_hal.c ****   * @retval None
 944:Drivers/STM32H7xx_HAL_Driver/Src/stm32h7xx_hal.c ****   */
 945:Drivers/STM32H7xx_HAL_Driver/Src/stm32h7xx_hal.c **** void HAL_DisableDBGStopMode(void)
 946:Drivers/STM32H7xx_HAL_Driver/Src/stm32h7xx_hal.c **** {
 1518              		.loc 1 946 1 is_stmt 1 view -0
 1519              		.cfi_startproc
 1520              		@ args = 0, pretend = 0, frame = 0
 1521              		@ frame_needed = 0, uses_anonymous_args = 0
 1522              		@ link register save eliminated.
 947:Drivers/STM32H7xx_HAL_Driver/Src/stm32h7xx_hal.c ****   CLEAR_BIT(DBGMCU->CR, DBGMCU_CR_DBG_STOPD1);
 1523              		.loc 1 947 3 view .LVU257
 1524 0000 024A     		ldr	r2, .L148
 1525 0002 5368     		ldr	r3, [r2, #4]
 1526 0004 23F00203 		bic	r3, r3, #2
 1527 0008 5360     		str	r3, [r2, #4]
 948:Drivers/STM32H7xx_HAL_Driver/Src/stm32h7xx_hal.c **** }
 1528              		.loc 1 948 1 is_stmt 0 view .LVU258
 1529 000a 7047     		bx	lr
 1530              	.L149:
 1531              		.align	2
 1532              	.L148:
 1533 000c 0010005C 		.word	1543507968
 1534              		.cfi_endproc
 1535              	.LFE181:
 1537              		.section	.text.HAL_DBGMCU_EnableDBGStandbyMode,"ax",%progbits
 1538              		.align	1
 1539              		.global	HAL_DBGMCU_EnableDBGStandbyMode
 1540              		.syntax unified
 1541              		.thumb
 1542              		.thumb_func
 1543              		.fpu fpv5-d16
 1545              	HAL_DBGMCU_EnableDBGStandbyMode:
 1546              	.LFB182:
 949:Drivers/STM32H7xx_HAL_Driver/Src/stm32h7xx_hal.c **** 
 950:Drivers/STM32H7xx_HAL_Driver/Src/stm32h7xx_hal.c **** /**
 951:Drivers/STM32H7xx_HAL_Driver/Src/stm32h7xx_hal.c ****   * @brief  Enable the Debug Module during Domain1/CDomain STANDBY mode
 952:Drivers/STM32H7xx_HAL_Driver/Src/stm32h7xx_hal.c ****   * @retval None
 953:Drivers/STM32H7xx_HAL_Driver/Src/stm32h7xx_hal.c ****   */
 954:Drivers/STM32H7xx_HAL_Driver/Src/stm32h7xx_hal.c **** void HAL_EnableDBGStandbyMode(void)
 955:Drivers/STM32H7xx_HAL_Driver/Src/stm32h7xx_hal.c **** {
 1547              		.loc 1 955 1 is_stmt 1 view -0
 1548              		.cfi_startproc
 1549              		@ args = 0, pretend = 0, frame = 0
 1550              		@ frame_needed = 0, uses_anonymous_args = 0
 1551              		@ link register save eliminated.
 956:Drivers/STM32H7xx_HAL_Driver/Src/stm32h7xx_hal.c ****   SET_BIT(DBGMCU->CR, DBGMCU_CR_DBG_STANDBYD1);
 1552              		.loc 1 956 3 view .LVU260
 1553 0000 024A     		ldr	r2, .L151
 1554 0002 5368     		ldr	r3, [r2, #4]
 1555 0004 43F00403 		orr	r3, r3, #4
ARM GAS  C:\Users\Brandon\AppData\Local\Temp\ccg7xZpb.s 			page 45


 1556 0008 5360     		str	r3, [r2, #4]
 957:Drivers/STM32H7xx_HAL_Driver/Src/stm32h7xx_hal.c **** }
 1557              		.loc 1 957 1 is_stmt 0 view .LVU261
 1558 000a 7047     		bx	lr
 1559              	.L152:
 1560              		.align	2
 1561              	.L151:
 1562 000c 0010005C 		.word	1543507968
 1563              		.cfi_endproc
 1564              	.LFE182:
 1566              		.section	.text.HAL_DBGMCU_DisableDBGStandbyMode,"ax",%progbits
 1567              		.align	1
 1568              		.global	HAL_DBGMCU_DisableDBGStandbyMode
 1569              		.syntax unified
 1570              		.thumb
 1571              		.thumb_func
 1572              		.fpu fpv5-d16
 1574              	HAL_DBGMCU_DisableDBGStandbyMode:
 1575              	.LFB183:
 958:Drivers/STM32H7xx_HAL_Driver/Src/stm32h7xx_hal.c **** 
 959:Drivers/STM32H7xx_HAL_Driver/Src/stm32h7xx_hal.c **** /**
 960:Drivers/STM32H7xx_HAL_Driver/Src/stm32h7xx_hal.c ****   * @brief  Disable the Debug Module during Domain1/CDomain STANDBY mode
 961:Drivers/STM32H7xx_HAL_Driver/Src/stm32h7xx_hal.c ****   * @retval None
 962:Drivers/STM32H7xx_HAL_Driver/Src/stm32h7xx_hal.c ****   */
 963:Drivers/STM32H7xx_HAL_Driver/Src/stm32h7xx_hal.c **** void HAL_DisableDBGStandbyMode(void)
 964:Drivers/STM32H7xx_HAL_Driver/Src/stm32h7xx_hal.c **** {
 1576              		.loc 1 964 1 is_stmt 1 view -0
 1577              		.cfi_startproc
 1578              		@ args = 0, pretend = 0, frame = 0
 1579              		@ frame_needed = 0, uses_anonymous_args = 0
 1580              		@ link register save eliminated.
 965:Drivers/STM32H7xx_HAL_Driver/Src/stm32h7xx_hal.c ****   CLEAR_BIT(DBGMCU->CR, DBGMCU_CR_DBG_STANDBYD1);
 1581              		.loc 1 965 3 view .LVU263
 1582 0000 024A     		ldr	r2, .L154
 1583 0002 5368     		ldr	r3, [r2, #4]
 1584 0004 23F00403 		bic	r3, r3, #4
 1585 0008 5360     		str	r3, [r2, #4]
 966:Drivers/STM32H7xx_HAL_Driver/Src/stm32h7xx_hal.c **** }
 1586              		.loc 1 966 1 is_stmt 0 view .LVU264
 1587 000a 7047     		bx	lr
 1588              	.L155:
 1589              		.align	2
 1590              	.L154:
 1591 000c 0010005C 		.word	1543507968
 1592              		.cfi_endproc
 1593              	.LFE183:
 1595              		.section	.text.HAL_EnableDomain3DBGStopMode,"ax",%progbits
 1596              		.align	1
 1597              		.global	HAL_EnableDomain3DBGStopMode
 1598              		.syntax unified
 1599              		.thumb
 1600              		.thumb_func
 1601              		.fpu fpv5-d16
 1603              	HAL_EnableDomain3DBGStopMode:
 1604              	.LFB184:
 967:Drivers/STM32H7xx_HAL_Driver/Src/stm32h7xx_hal.c **** 
 968:Drivers/STM32H7xx_HAL_Driver/Src/stm32h7xx_hal.c **** #if defined(DUAL_CORE)
ARM GAS  C:\Users\Brandon\AppData\Local\Temp\ccg7xZpb.s 			page 46


 969:Drivers/STM32H7xx_HAL_Driver/Src/stm32h7xx_hal.c **** /**
 970:Drivers/STM32H7xx_HAL_Driver/Src/stm32h7xx_hal.c ****   * @brief  Enable the Debug Module during Domain1 SLEEP mode
 971:Drivers/STM32H7xx_HAL_Driver/Src/stm32h7xx_hal.c ****   * @retval None
 972:Drivers/STM32H7xx_HAL_Driver/Src/stm32h7xx_hal.c ****   */
 973:Drivers/STM32H7xx_HAL_Driver/Src/stm32h7xx_hal.c **** void HAL_EnableDomain2DBGSleepMode(void)
 974:Drivers/STM32H7xx_HAL_Driver/Src/stm32h7xx_hal.c **** {
 975:Drivers/STM32H7xx_HAL_Driver/Src/stm32h7xx_hal.c ****   SET_BIT(DBGMCU->CR, DBGMCU_CR_DBG_SLEEPD2);
 976:Drivers/STM32H7xx_HAL_Driver/Src/stm32h7xx_hal.c **** }
 977:Drivers/STM32H7xx_HAL_Driver/Src/stm32h7xx_hal.c **** 
 978:Drivers/STM32H7xx_HAL_Driver/Src/stm32h7xx_hal.c **** /**
 979:Drivers/STM32H7xx_HAL_Driver/Src/stm32h7xx_hal.c ****   * @brief  Disable the Debug Module during Domain2 SLEEP mode
 980:Drivers/STM32H7xx_HAL_Driver/Src/stm32h7xx_hal.c ****   * @retval None
 981:Drivers/STM32H7xx_HAL_Driver/Src/stm32h7xx_hal.c ****   */
 982:Drivers/STM32H7xx_HAL_Driver/Src/stm32h7xx_hal.c **** void HAL_DisableDomain2DBGSleepMode(void)
 983:Drivers/STM32H7xx_HAL_Driver/Src/stm32h7xx_hal.c **** {
 984:Drivers/STM32H7xx_HAL_Driver/Src/stm32h7xx_hal.c ****   CLEAR_BIT(DBGMCU->CR, DBGMCU_CR_DBG_SLEEPD2);
 985:Drivers/STM32H7xx_HAL_Driver/Src/stm32h7xx_hal.c **** }
 986:Drivers/STM32H7xx_HAL_Driver/Src/stm32h7xx_hal.c **** 
 987:Drivers/STM32H7xx_HAL_Driver/Src/stm32h7xx_hal.c **** /**
 988:Drivers/STM32H7xx_HAL_Driver/Src/stm32h7xx_hal.c ****   * @brief  Enable the Debug Module during Domain2 STOP mode
 989:Drivers/STM32H7xx_HAL_Driver/Src/stm32h7xx_hal.c ****   * @retval None
 990:Drivers/STM32H7xx_HAL_Driver/Src/stm32h7xx_hal.c ****   */
 991:Drivers/STM32H7xx_HAL_Driver/Src/stm32h7xx_hal.c **** void HAL_EnableDomain2DBGStopMode(void)
 992:Drivers/STM32H7xx_HAL_Driver/Src/stm32h7xx_hal.c **** {
 993:Drivers/STM32H7xx_HAL_Driver/Src/stm32h7xx_hal.c ****   SET_BIT(DBGMCU->CR, DBGMCU_CR_DBG_STOPD2);
 994:Drivers/STM32H7xx_HAL_Driver/Src/stm32h7xx_hal.c **** }
 995:Drivers/STM32H7xx_HAL_Driver/Src/stm32h7xx_hal.c **** 
 996:Drivers/STM32H7xx_HAL_Driver/Src/stm32h7xx_hal.c **** /**
 997:Drivers/STM32H7xx_HAL_Driver/Src/stm32h7xx_hal.c ****   * @brief  Disable the Debug Module during Domain2 STOP mode
 998:Drivers/STM32H7xx_HAL_Driver/Src/stm32h7xx_hal.c ****   * @retval None
 999:Drivers/STM32H7xx_HAL_Driver/Src/stm32h7xx_hal.c ****   */
1000:Drivers/STM32H7xx_HAL_Driver/Src/stm32h7xx_hal.c **** void HAL_DisableDomain2DBGStopMode(void)
1001:Drivers/STM32H7xx_HAL_Driver/Src/stm32h7xx_hal.c **** {
1002:Drivers/STM32H7xx_HAL_Driver/Src/stm32h7xx_hal.c ****   CLEAR_BIT(DBGMCU->CR, DBGMCU_CR_DBG_STOPD2);
1003:Drivers/STM32H7xx_HAL_Driver/Src/stm32h7xx_hal.c **** }
1004:Drivers/STM32H7xx_HAL_Driver/Src/stm32h7xx_hal.c **** 
1005:Drivers/STM32H7xx_HAL_Driver/Src/stm32h7xx_hal.c **** /**
1006:Drivers/STM32H7xx_HAL_Driver/Src/stm32h7xx_hal.c ****   * @brief  Enable the Debug Module during Domain2 STANDBY mode
1007:Drivers/STM32H7xx_HAL_Driver/Src/stm32h7xx_hal.c ****   * @retval None
1008:Drivers/STM32H7xx_HAL_Driver/Src/stm32h7xx_hal.c ****   */
1009:Drivers/STM32H7xx_HAL_Driver/Src/stm32h7xx_hal.c **** void HAL_EnableDomain2DBGStandbyMode(void)
1010:Drivers/STM32H7xx_HAL_Driver/Src/stm32h7xx_hal.c **** {
1011:Drivers/STM32H7xx_HAL_Driver/Src/stm32h7xx_hal.c ****   SET_BIT(DBGMCU->CR, DBGMCU_CR_DBG_STANDBYD2);
1012:Drivers/STM32H7xx_HAL_Driver/Src/stm32h7xx_hal.c **** }
1013:Drivers/STM32H7xx_HAL_Driver/Src/stm32h7xx_hal.c **** 
1014:Drivers/STM32H7xx_HAL_Driver/Src/stm32h7xx_hal.c **** /**
1015:Drivers/STM32H7xx_HAL_Driver/Src/stm32h7xx_hal.c ****   * @brief  Disable the Debug Module during Domain2 STANDBY mode
1016:Drivers/STM32H7xx_HAL_Driver/Src/stm32h7xx_hal.c ****   * @retval None
1017:Drivers/STM32H7xx_HAL_Driver/Src/stm32h7xx_hal.c ****   */
1018:Drivers/STM32H7xx_HAL_Driver/Src/stm32h7xx_hal.c **** void HAL_DisableDomain2DBGStandbyMode(void)
1019:Drivers/STM32H7xx_HAL_Driver/Src/stm32h7xx_hal.c **** {
1020:Drivers/STM32H7xx_HAL_Driver/Src/stm32h7xx_hal.c ****   CLEAR_BIT(DBGMCU->CR, DBGMCU_CR_DBG_STANDBYD2);
1021:Drivers/STM32H7xx_HAL_Driver/Src/stm32h7xx_hal.c **** }
1022:Drivers/STM32H7xx_HAL_Driver/Src/stm32h7xx_hal.c **** #endif /*DUAL_CORE*/
1023:Drivers/STM32H7xx_HAL_Driver/Src/stm32h7xx_hal.c **** 
1024:Drivers/STM32H7xx_HAL_Driver/Src/stm32h7xx_hal.c **** /**
1025:Drivers/STM32H7xx_HAL_Driver/Src/stm32h7xx_hal.c ****   * @brief  Enable the Debug Module during Domain3/SRDomain STOP mode
ARM GAS  C:\Users\Brandon\AppData\Local\Temp\ccg7xZpb.s 			page 47


1026:Drivers/STM32H7xx_HAL_Driver/Src/stm32h7xx_hal.c ****   * @retval None
1027:Drivers/STM32H7xx_HAL_Driver/Src/stm32h7xx_hal.c ****   */
1028:Drivers/STM32H7xx_HAL_Driver/Src/stm32h7xx_hal.c **** void HAL_EnableDomain3DBGStopMode(void)
1029:Drivers/STM32H7xx_HAL_Driver/Src/stm32h7xx_hal.c **** {
 1605              		.loc 1 1029 1 is_stmt 1 view -0
 1606              		.cfi_startproc
 1607              		@ args = 0, pretend = 0, frame = 0
 1608              		@ frame_needed = 0, uses_anonymous_args = 0
 1609              		@ link register save eliminated.
1030:Drivers/STM32H7xx_HAL_Driver/Src/stm32h7xx_hal.c ****   SET_BIT(DBGMCU->CR, DBGMCU_CR_DBG_STOPD3);
 1610              		.loc 1 1030 3 view .LVU266
 1611 0000 024A     		ldr	r2, .L157
 1612 0002 5368     		ldr	r3, [r2, #4]
 1613 0004 43F08003 		orr	r3, r3, #128
 1614 0008 5360     		str	r3, [r2, #4]
1031:Drivers/STM32H7xx_HAL_Driver/Src/stm32h7xx_hal.c **** }
 1615              		.loc 1 1031 1 is_stmt 0 view .LVU267
 1616 000a 7047     		bx	lr
 1617              	.L158:
 1618              		.align	2
 1619              	.L157:
 1620 000c 0010005C 		.word	1543507968
 1621              		.cfi_endproc
 1622              	.LFE184:
 1624              		.section	.text.HAL_DisableDomain3DBGStopMode,"ax",%progbits
 1625              		.align	1
 1626              		.global	HAL_DisableDomain3DBGStopMode
 1627              		.syntax unified
 1628              		.thumb
 1629              		.thumb_func
 1630              		.fpu fpv5-d16
 1632              	HAL_DisableDomain3DBGStopMode:
 1633              	.LFB185:
1032:Drivers/STM32H7xx_HAL_Driver/Src/stm32h7xx_hal.c **** /**
1033:Drivers/STM32H7xx_HAL_Driver/Src/stm32h7xx_hal.c ****   * @brief  Disable the Debug Module during Domain3/SRDomain STOP mode
1034:Drivers/STM32H7xx_HAL_Driver/Src/stm32h7xx_hal.c ****   * @retval None
1035:Drivers/STM32H7xx_HAL_Driver/Src/stm32h7xx_hal.c ****   */
1036:Drivers/STM32H7xx_HAL_Driver/Src/stm32h7xx_hal.c **** void HAL_DisableDomain3DBGStopMode(void)
1037:Drivers/STM32H7xx_HAL_Driver/Src/stm32h7xx_hal.c **** {
 1634              		.loc 1 1037 1 is_stmt 1 view -0
 1635              		.cfi_startproc
 1636              		@ args = 0, pretend = 0, frame = 0
 1637              		@ frame_needed = 0, uses_anonymous_args = 0
 1638              		@ link register save eliminated.
1038:Drivers/STM32H7xx_HAL_Driver/Src/stm32h7xx_hal.c ****   CLEAR_BIT(DBGMCU->CR, DBGMCU_CR_DBG_STOPD3);
 1639              		.loc 1 1038 3 view .LVU269
 1640 0000 024A     		ldr	r2, .L160
 1641 0002 5368     		ldr	r3, [r2, #4]
 1642 0004 23F08003 		bic	r3, r3, #128
 1643 0008 5360     		str	r3, [r2, #4]
1039:Drivers/STM32H7xx_HAL_Driver/Src/stm32h7xx_hal.c **** }
 1644              		.loc 1 1039 1 is_stmt 0 view .LVU270
 1645 000a 7047     		bx	lr
 1646              	.L161:
 1647              		.align	2
 1648              	.L160:
 1649 000c 0010005C 		.word	1543507968
ARM GAS  C:\Users\Brandon\AppData\Local\Temp\ccg7xZpb.s 			page 48


 1650              		.cfi_endproc
 1651              	.LFE185:
 1653              		.section	.text.HAL_EnableDomain3DBGStandbyMode,"ax",%progbits
 1654              		.align	1
 1655              		.global	HAL_EnableDomain3DBGStandbyMode
 1656              		.syntax unified
 1657              		.thumb
 1658              		.thumb_func
 1659              		.fpu fpv5-d16
 1661              	HAL_EnableDomain3DBGStandbyMode:
 1662              	.LFB186:
1040:Drivers/STM32H7xx_HAL_Driver/Src/stm32h7xx_hal.c **** 
1041:Drivers/STM32H7xx_HAL_Driver/Src/stm32h7xx_hal.c **** /**
1042:Drivers/STM32H7xx_HAL_Driver/Src/stm32h7xx_hal.c ****   * @brief  Enable the Debug Module during Domain3/SRDomain STANDBY mode
1043:Drivers/STM32H7xx_HAL_Driver/Src/stm32h7xx_hal.c ****   * @retval None
1044:Drivers/STM32H7xx_HAL_Driver/Src/stm32h7xx_hal.c ****   */
1045:Drivers/STM32H7xx_HAL_Driver/Src/stm32h7xx_hal.c **** void HAL_EnableDomain3DBGStandbyMode(void)
1046:Drivers/STM32H7xx_HAL_Driver/Src/stm32h7xx_hal.c **** {
 1663              		.loc 1 1046 1 is_stmt 1 view -0
 1664              		.cfi_startproc
 1665              		@ args = 0, pretend = 0, frame = 0
 1666              		@ frame_needed = 0, uses_anonymous_args = 0
 1667              		@ link register save eliminated.
1047:Drivers/STM32H7xx_HAL_Driver/Src/stm32h7xx_hal.c ****   SET_BIT(DBGMCU->CR, DBGMCU_CR_DBG_STANDBYD3);
 1668              		.loc 1 1047 3 view .LVU272
 1669 0000 024A     		ldr	r2, .L163
 1670 0002 5368     		ldr	r3, [r2, #4]
 1671 0004 43F48073 		orr	r3, r3, #256
 1672 0008 5360     		str	r3, [r2, #4]
1048:Drivers/STM32H7xx_HAL_Driver/Src/stm32h7xx_hal.c **** }
 1673              		.loc 1 1048 1 is_stmt 0 view .LVU273
 1674 000a 7047     		bx	lr
 1675              	.L164:
 1676              		.align	2
 1677              	.L163:
 1678 000c 0010005C 		.word	1543507968
 1679              		.cfi_endproc
 1680              	.LFE186:
 1682              		.section	.text.HAL_DisableDomain3DBGStandbyMode,"ax",%progbits
 1683              		.align	1
 1684              		.global	HAL_DisableDomain3DBGStandbyMode
 1685              		.syntax unified
 1686              		.thumb
 1687              		.thumb_func
 1688              		.fpu fpv5-d16
 1690              	HAL_DisableDomain3DBGStandbyMode:
 1691              	.LFB187:
1049:Drivers/STM32H7xx_HAL_Driver/Src/stm32h7xx_hal.c **** 
1050:Drivers/STM32H7xx_HAL_Driver/Src/stm32h7xx_hal.c **** /**
1051:Drivers/STM32H7xx_HAL_Driver/Src/stm32h7xx_hal.c ****   * @brief  Disable the Debug Module during Domain3/SRDomain STANDBY mode
1052:Drivers/STM32H7xx_HAL_Driver/Src/stm32h7xx_hal.c ****   * @retval None
1053:Drivers/STM32H7xx_HAL_Driver/Src/stm32h7xx_hal.c ****   */
1054:Drivers/STM32H7xx_HAL_Driver/Src/stm32h7xx_hal.c **** void HAL_DisableDomain3DBGStandbyMode(void)
1055:Drivers/STM32H7xx_HAL_Driver/Src/stm32h7xx_hal.c **** {
 1692              		.loc 1 1055 1 is_stmt 1 view -0
 1693              		.cfi_startproc
 1694              		@ args = 0, pretend = 0, frame = 0
ARM GAS  C:\Users\Brandon\AppData\Local\Temp\ccg7xZpb.s 			page 49


 1695              		@ frame_needed = 0, uses_anonymous_args = 0
 1696              		@ link register save eliminated.
1056:Drivers/STM32H7xx_HAL_Driver/Src/stm32h7xx_hal.c ****   CLEAR_BIT(DBGMCU->CR, DBGMCU_CR_DBG_STANDBYD3);
 1697              		.loc 1 1056 3 view .LVU275
 1698 0000 024A     		ldr	r2, .L166
 1699 0002 5368     		ldr	r3, [r2, #4]
 1700 0004 23F48073 		bic	r3, r3, #256
 1701 0008 5360     		str	r3, [r2, #4]
1057:Drivers/STM32H7xx_HAL_Driver/Src/stm32h7xx_hal.c **** }
 1702              		.loc 1 1057 1 is_stmt 0 view .LVU276
 1703 000a 7047     		bx	lr
 1704              	.L167:
 1705              		.align	2
 1706              	.L166:
 1707 000c 0010005C 		.word	1543507968
 1708              		.cfi_endproc
 1709              	.LFE187:
 1711              		.section	.text.HAL_SetFMCMemorySwappingConfig,"ax",%progbits
 1712              		.align	1
 1713              		.global	HAL_SetFMCMemorySwappingConfig
 1714              		.syntax unified
 1715              		.thumb
 1716              		.thumb_func
 1717              		.fpu fpv5-d16
 1719              	HAL_SetFMCMemorySwappingConfig:
 1720              	.LVL45:
 1721              	.LFB188:
1058:Drivers/STM32H7xx_HAL_Driver/Src/stm32h7xx_hal.c **** 
1059:Drivers/STM32H7xx_HAL_Driver/Src/stm32h7xx_hal.c **** /**
1060:Drivers/STM32H7xx_HAL_Driver/Src/stm32h7xx_hal.c ****   * @brief  Set the FMC Memory Mapping Swapping config.
1061:Drivers/STM32H7xx_HAL_Driver/Src/stm32h7xx_hal.c ****   * @param  BankMapConfig: Defines the FMC Bank mapping configuration. This parameter can be
1062:Drivers/STM32H7xx_HAL_Driver/Src/stm32h7xx_hal.c ****             FMC_SWAPBMAP_DISABLE, FMC_SWAPBMAP_SDRAM_SRAM, FMC_SWAPBMAP_SDRAMB2
1063:Drivers/STM32H7xx_HAL_Driver/Src/stm32h7xx_hal.c ****   * @retval HAL state
1064:Drivers/STM32H7xx_HAL_Driver/Src/stm32h7xx_hal.c ****   */
1065:Drivers/STM32H7xx_HAL_Driver/Src/stm32h7xx_hal.c **** void HAL_SetFMCMemorySwappingConfig(uint32_t BankMapConfig)
1066:Drivers/STM32H7xx_HAL_Driver/Src/stm32h7xx_hal.c **** {
 1722              		.loc 1 1066 1 is_stmt 1 view -0
 1723              		.cfi_startproc
 1724              		@ args = 0, pretend = 0, frame = 0
 1725              		@ frame_needed = 0, uses_anonymous_args = 0
 1726              		@ link register save eliminated.
1067:Drivers/STM32H7xx_HAL_Driver/Src/stm32h7xx_hal.c ****   /* Check the parameter */
1068:Drivers/STM32H7xx_HAL_Driver/Src/stm32h7xx_hal.c ****   assert_param(IS_FMC_SWAPBMAP_MODE(BankMapConfig));
 1727              		.loc 1 1068 3 view .LVU278
1069:Drivers/STM32H7xx_HAL_Driver/Src/stm32h7xx_hal.c ****   MODIFY_REG(FMC_Bank1_R->BTCR[0], FMC_BCR1_BMAP, BankMapConfig);
 1728              		.loc 1 1069 3 view .LVU279
 1729 0000 034A     		ldr	r2, .L169
 1730 0002 1368     		ldr	r3, [r2]
 1731 0004 23F04073 		bic	r3, r3, #50331648
 1732 0008 0343     		orrs	r3, r3, r0
 1733 000a 1360     		str	r3, [r2]
1070:Drivers/STM32H7xx_HAL_Driver/Src/stm32h7xx_hal.c **** }
 1734              		.loc 1 1070 1 is_stmt 0 view .LVU280
 1735 000c 7047     		bx	lr
 1736              	.L170:
 1737 000e 00BF     		.align	2
 1738              	.L169:
ARM GAS  C:\Users\Brandon\AppData\Local\Temp\ccg7xZpb.s 			page 50


 1739 0010 00400052 		.word	1375748096
 1740              		.cfi_endproc
 1741              	.LFE188:
 1743              		.section	.text.HAL_GetFMCMemorySwappingConfig,"ax",%progbits
 1744              		.align	1
 1745              		.global	HAL_GetFMCMemorySwappingConfig
 1746              		.syntax unified
 1747              		.thumb
 1748              		.thumb_func
 1749              		.fpu fpv5-d16
 1751              	HAL_GetFMCMemorySwappingConfig:
 1752              	.LFB189:
1071:Drivers/STM32H7xx_HAL_Driver/Src/stm32h7xx_hal.c **** 
1072:Drivers/STM32H7xx_HAL_Driver/Src/stm32h7xx_hal.c **** /**
1073:Drivers/STM32H7xx_HAL_Driver/Src/stm32h7xx_hal.c ****   * @brief  Get FMC Bank mapping mode.
1074:Drivers/STM32H7xx_HAL_Driver/Src/stm32h7xx_hal.c ****   * @retval The FMC Bank mapping mode. This parameter can be
1075:Drivers/STM32H7xx_HAL_Driver/Src/stm32h7xx_hal.c ****             FMC_SWAPBMAP_DISABLE, FMC_SWAPBMAP_SDRAM_SRAM, FMC_SWAPBMAP_SDRAMB2
1076:Drivers/STM32H7xx_HAL_Driver/Src/stm32h7xx_hal.c **** */
1077:Drivers/STM32H7xx_HAL_Driver/Src/stm32h7xx_hal.c **** uint32_t HAL_GetFMCMemorySwappingConfig(void)
1078:Drivers/STM32H7xx_HAL_Driver/Src/stm32h7xx_hal.c **** {
 1753              		.loc 1 1078 1 is_stmt 1 view -0
 1754              		.cfi_startproc
 1755              		@ args = 0, pretend = 0, frame = 0
 1756              		@ frame_needed = 0, uses_anonymous_args = 0
 1757              		@ link register save eliminated.
1079:Drivers/STM32H7xx_HAL_Driver/Src/stm32h7xx_hal.c ****   return READ_BIT(FMC_Bank1_R->BTCR[0], FMC_BCR1_BMAP);
 1758              		.loc 1 1079 3 view .LVU282
 1759              		.loc 1 1079 10 is_stmt 0 view .LVU283
 1760 0000 024B     		ldr	r3, .L172
 1761 0002 1868     		ldr	r0, [r3]
1080:Drivers/STM32H7xx_HAL_Driver/Src/stm32h7xx_hal.c **** }
 1762              		.loc 1 1080 1 view .LVU284
 1763 0004 00F04070 		and	r0, r0, #50331648
 1764 0008 7047     		bx	lr
 1765              	.L173:
 1766 000a 00BF     		.align	2
 1767              	.L172:
 1768 000c 00400052 		.word	1375748096
 1769              		.cfi_endproc
 1770              	.LFE189:
 1772              		.section	.text.HAL_EXTI_EdgeConfig,"ax",%progbits
 1773              		.align	1
 1774              		.global	HAL_EXTI_EdgeConfig
 1775              		.syntax unified
 1776              		.thumb
 1777              		.thumb_func
 1778              		.fpu fpv5-d16
 1780              	HAL_EXTI_EdgeConfig:
 1781              	.LVL46:
 1782              	.LFB190:
1081:Drivers/STM32H7xx_HAL_Driver/Src/stm32h7xx_hal.c **** 
1082:Drivers/STM32H7xx_HAL_Driver/Src/stm32h7xx_hal.c **** /**
1083:Drivers/STM32H7xx_HAL_Driver/Src/stm32h7xx_hal.c ****   * @brief  Configure the EXTI input event line edge
1084:Drivers/STM32H7xx_HAL_Driver/Src/stm32h7xx_hal.c ****   * @note    No edge configuration for direct lines but for configurable lines:(EXTI_LINE0..EXTI_LI
1085:Drivers/STM32H7xx_HAL_Driver/Src/stm32h7xx_hal.c ****   *          EXTI_LINE49,EXTI_LINE51,EXTI_LINE82,EXTI_LINE84,EXTI_LINE85 and EXTI_LINE86.
1086:Drivers/STM32H7xx_HAL_Driver/Src/stm32h7xx_hal.c ****   * @param   EXTI_Line: Specifies the EXTI LINE, it can be one of the following values,
1087:Drivers/STM32H7xx_HAL_Driver/Src/stm32h7xx_hal.c ****   *         (EXTI_LINE0....EXTI_LINE87)excluding :line45, line81,line83 which are reserved
ARM GAS  C:\Users\Brandon\AppData\Local\Temp\ccg7xZpb.s 			page 51


1088:Drivers/STM32H7xx_HAL_Driver/Src/stm32h7xx_hal.c ****   * @param   EXTI_Edge: Specifies  EXTI line Edge used.
1089:Drivers/STM32H7xx_HAL_Driver/Src/stm32h7xx_hal.c ****   *          This parameter can be one of the following values :
1090:Drivers/STM32H7xx_HAL_Driver/Src/stm32h7xx_hal.c ****   *   @arg EXTI_RISING_EDGE : Configurable line, with Rising edge trigger detection
1091:Drivers/STM32H7xx_HAL_Driver/Src/stm32h7xx_hal.c ****   *   @arg EXTI_FALLING_EDGE: Configurable line, with Falling edge trigger detection
1092:Drivers/STM32H7xx_HAL_Driver/Src/stm32h7xx_hal.c ****   * @retval None
1093:Drivers/STM32H7xx_HAL_Driver/Src/stm32h7xx_hal.c ****   */
1094:Drivers/STM32H7xx_HAL_Driver/Src/stm32h7xx_hal.c **** void HAL_EXTI_EdgeConfig(uint32_t EXTI_Line , uint32_t EXTI_Edge )
1095:Drivers/STM32H7xx_HAL_Driver/Src/stm32h7xx_hal.c **** {
 1783              		.loc 1 1095 1 is_stmt 1 view -0
 1784              		.cfi_startproc
 1785              		@ args = 0, pretend = 0, frame = 0
 1786              		@ frame_needed = 0, uses_anonymous_args = 0
 1787              		@ link register save eliminated.
 1788              		.loc 1 1095 1 is_stmt 0 view .LVU286
 1789 0000 70B4     		push	{r4, r5, r6}
 1790              	.LCFI6:
 1791              		.cfi_def_cfa_offset 12
 1792              		.cfi_offset 4, -12
 1793              		.cfi_offset 5, -8
 1794              		.cfi_offset 6, -4
1096:Drivers/STM32H7xx_HAL_Driver/Src/stm32h7xx_hal.c ****   /* Check the parameter */
1097:Drivers/STM32H7xx_HAL_Driver/Src/stm32h7xx_hal.c ****   assert_param(IS_HAL_EXTI_CONFIG_LINE(EXTI_Line));
 1795              		.loc 1 1097 3 is_stmt 1 view .LVU287
1098:Drivers/STM32H7xx_HAL_Driver/Src/stm32h7xx_hal.c ****   assert_param(IS_EXTI_EDGE_LINE(EXTI_Edge));
 1796              		.loc 1 1098 3 view .LVU288
1099:Drivers/STM32H7xx_HAL_Driver/Src/stm32h7xx_hal.c **** 
1100:Drivers/STM32H7xx_HAL_Driver/Src/stm32h7xx_hal.c ****   /* Clear Rising Falling edge configuration */
1101:Drivers/STM32H7xx_HAL_Driver/Src/stm32h7xx_hal.c ****   CLEAR_BIT(*(__IO uint32_t *) (((uint32_t) &(EXTI->FTSR1)) + ((EXTI_Line >> 5 ) * 0x20UL)), (uint3
 1797              		.loc 1 1101 3 view .LVU289
 1798 0002 4309     		lsrs	r3, r0, #5
 1799 0004 20F01F05 		bic	r5, r0, #31
 1800 0008 0F4C     		ldr	r4, .L178
 1801 000a 2E59     		ldr	r6, [r5, r4]
 1802 000c 00F01F00 		and	r0, r0, #31
 1803              	.LVL47:
 1804              		.loc 1 1101 3 is_stmt 0 view .LVU290
 1805 0010 0122     		movs	r2, #1
 1806 0012 02FA00F0 		lsl	r0, r2, r0
 1807 0016 26EA0006 		bic	r6, r6, r0
 1808 001a 2E51     		str	r6, [r5, r4]
1102:Drivers/STM32H7xx_HAL_Driver/Src/stm32h7xx_hal.c ****   CLEAR_BIT( *(__IO uint32_t *) (((uint32_t) &(EXTI->RTSR1)) + ((EXTI_Line >> 5 ) * 0x20UL)), (uint
 1809              		.loc 1 1102 3 is_stmt 1 view .LVU291
 1810 001c 03F13073 		add	r3, r3, #46137344
 1811 0020 5B01     		lsls	r3, r3, #5
 1812 0022 1A68     		ldr	r2, [r3]
 1813 0024 22EA0002 		bic	r2, r2, r0
 1814 0028 1A60     		str	r2, [r3]
1103:Drivers/STM32H7xx_HAL_Driver/Src/stm32h7xx_hal.c **** 
1104:Drivers/STM32H7xx_HAL_Driver/Src/stm32h7xx_hal.c ****   if( (EXTI_Edge & EXTI_RISING_EDGE) == EXTI_RISING_EDGE)
 1815              		.loc 1 1104 3 view .LVU292
 1816              		.loc 1 1104 5 is_stmt 0 view .LVU293
 1817 002a 11F4801F 		tst	r1, #1048576
 1818 002e 02D0     		beq	.L175
1105:Drivers/STM32H7xx_HAL_Driver/Src/stm32h7xx_hal.c ****   {
1106:Drivers/STM32H7xx_HAL_Driver/Src/stm32h7xx_hal.c ****    SET_BIT( *(__IO uint32_t *) (((uint32_t) &(EXTI->RTSR1)) + ((EXTI_Line >> 5 ) * 0x20UL)), (uint3
 1819              		.loc 1 1106 4 is_stmt 1 view .LVU294
 1820 0030 1A68     		ldr	r2, [r3]
ARM GAS  C:\Users\Brandon\AppData\Local\Temp\ccg7xZpb.s 			page 52


 1821 0032 0243     		orrs	r2, r2, r0
 1822 0034 1A60     		str	r2, [r3]
 1823              	.L175:
1107:Drivers/STM32H7xx_HAL_Driver/Src/stm32h7xx_hal.c ****   }
1108:Drivers/STM32H7xx_HAL_Driver/Src/stm32h7xx_hal.c ****   if( (EXTI_Edge & EXTI_FALLING_EDGE) == EXTI_FALLING_EDGE)
 1824              		.loc 1 1108 3 view .LVU295
 1825              		.loc 1 1108 5 is_stmt 0 view .LVU296
 1826 0036 11F4001F 		tst	r1, #2097152
 1827 003a 02D0     		beq	.L174
1109:Drivers/STM32H7xx_HAL_Driver/Src/stm32h7xx_hal.c ****   {
1110:Drivers/STM32H7xx_HAL_Driver/Src/stm32h7xx_hal.c ****    SET_BIT(*(__IO uint32_t *) (((uint32_t) &(EXTI->FTSR1)) + ((EXTI_Line >> 5 ) * 0x20UL)), (uint32
 1828              		.loc 1 1110 4 is_stmt 1 view .LVU297
 1829 003c 2B59     		ldr	r3, [r5, r4]
 1830 003e 1843     		orrs	r0, r0, r3
 1831 0040 2851     		str	r0, [r5, r4]
 1832              	.L174:
1111:Drivers/STM32H7xx_HAL_Driver/Src/stm32h7xx_hal.c ****   }
1112:Drivers/STM32H7xx_HAL_Driver/Src/stm32h7xx_hal.c **** }
 1833              		.loc 1 1112 1 is_stmt 0 view .LVU298
 1834 0042 70BC     		pop	{r4, r5, r6}
 1835              	.LCFI7:
 1836              		.cfi_restore 6
 1837              		.cfi_restore 5
 1838              		.cfi_restore 4
 1839              		.cfi_def_cfa_offset 0
 1840 0044 7047     		bx	lr
 1841              	.L179:
 1842 0046 00BF     		.align	2
 1843              	.L178:
 1844 0048 04000058 		.word	1476395012
 1845              		.cfi_endproc
 1846              	.LFE190:
 1848              		.section	.text.HAL_EXTI_GenerateSWInterrupt,"ax",%progbits
 1849              		.align	1
 1850              		.global	HAL_EXTI_GenerateSWInterrupt
 1851              		.syntax unified
 1852              		.thumb
 1853              		.thumb_func
 1854              		.fpu fpv5-d16
 1856              	HAL_EXTI_GenerateSWInterrupt:
 1857              	.LVL48:
 1858              	.LFB191:
1113:Drivers/STM32H7xx_HAL_Driver/Src/stm32h7xx_hal.c **** 
1114:Drivers/STM32H7xx_HAL_Driver/Src/stm32h7xx_hal.c **** /**
1115:Drivers/STM32H7xx_HAL_Driver/Src/stm32h7xx_hal.c ****   * @brief  Generates a Software interrupt on selected EXTI line.
1116:Drivers/STM32H7xx_HAL_Driver/Src/stm32h7xx_hal.c ****   * @param   EXTI_Line: Specifies the EXTI LINE, it can be one of the following values,
1117:Drivers/STM32H7xx_HAL_Driver/Src/stm32h7xx_hal.c ****   *          (EXTI_LINE0..EXTI_LINE21),EXTI_LINE49,EXTI_LINE51,EXTI_LINE82,EXTI_LINE84,EXTI_LINE85 
1118:Drivers/STM32H7xx_HAL_Driver/Src/stm32h7xx_hal.c ****   * @retval None
1119:Drivers/STM32H7xx_HAL_Driver/Src/stm32h7xx_hal.c ****   */
1120:Drivers/STM32H7xx_HAL_Driver/Src/stm32h7xx_hal.c **** void HAL_EXTI_GenerateSWInterrupt(uint32_t EXTI_Line)
1121:Drivers/STM32H7xx_HAL_Driver/Src/stm32h7xx_hal.c **** {
 1859              		.loc 1 1121 1 is_stmt 1 view -0
 1860              		.cfi_startproc
 1861              		@ args = 0, pretend = 0, frame = 0
 1862              		@ frame_needed = 0, uses_anonymous_args = 0
 1863              		@ link register save eliminated.
 1864              		.loc 1 1121 1 is_stmt 0 view .LVU300
ARM GAS  C:\Users\Brandon\AppData\Local\Temp\ccg7xZpb.s 			page 53


 1865 0000 10B4     		push	{r4}
 1866              	.LCFI8:
 1867              		.cfi_def_cfa_offset 4
 1868              		.cfi_offset 4, -4
1122:Drivers/STM32H7xx_HAL_Driver/Src/stm32h7xx_hal.c ****   /* Check the parameters */
1123:Drivers/STM32H7xx_HAL_Driver/Src/stm32h7xx_hal.c ****   assert_param(IS_HAL_EXTI_CONFIG_LINE(EXTI_Line));
 1869              		.loc 1 1123 3 is_stmt 1 view .LVU301
1124:Drivers/STM32H7xx_HAL_Driver/Src/stm32h7xx_hal.c **** 
1125:Drivers/STM32H7xx_HAL_Driver/Src/stm32h7xx_hal.c ****   SET_BIT(*(__IO uint32_t *) (((uint32_t) &(EXTI->SWIER1)) + ((EXTI_Line >> 5 ) * 0x20UL)), (uint32
 1870              		.loc 1 1125 3 view .LVU302
 1871 0002 20F01F04 		bic	r4, r0, #31
 1872 0006 0649     		ldr	r1, .L182
 1873 0008 6358     		ldr	r3, [r4, r1]
 1874 000a 00F01F00 		and	r0, r0, #31
 1875              	.LVL49:
 1876              		.loc 1 1125 3 is_stmt 0 view .LVU303
 1877 000e 0122     		movs	r2, #1
 1878 0010 02FA00F0 		lsl	r0, r2, r0
 1879 0014 1843     		orrs	r0, r0, r3
 1880 0016 6050     		str	r0, [r4, r1]
1126:Drivers/STM32H7xx_HAL_Driver/Src/stm32h7xx_hal.c **** }
 1881              		.loc 1 1126 1 view .LVU304
 1882 0018 5DF8044B 		ldr	r4, [sp], #4
 1883              	.LCFI9:
 1884              		.cfi_restore 4
 1885              		.cfi_def_cfa_offset 0
 1886 001c 7047     		bx	lr
 1887              	.L183:
 1888 001e 00BF     		.align	2
 1889              	.L182:
 1890 0020 08000058 		.word	1476395016
 1891              		.cfi_endproc
 1892              	.LFE191:
 1894              		.section	.text.HAL_EXTI_D1_ClearFlag,"ax",%progbits
 1895              		.align	1
 1896              		.global	HAL_EXTI_D1_ClearFlag
 1897              		.syntax unified
 1898              		.thumb
 1899              		.thumb_func
 1900              		.fpu fpv5-d16
 1902              	HAL_EXTI_D1_ClearFlag:
 1903              	.LVL50:
 1904              	.LFB192:
1127:Drivers/STM32H7xx_HAL_Driver/Src/stm32h7xx_hal.c **** 
1128:Drivers/STM32H7xx_HAL_Driver/Src/stm32h7xx_hal.c **** 
1129:Drivers/STM32H7xx_HAL_Driver/Src/stm32h7xx_hal.c **** /**
1130:Drivers/STM32H7xx_HAL_Driver/Src/stm32h7xx_hal.c ****   * @brief  Clears the EXTI's line pending flags for Domain D1
1131:Drivers/STM32H7xx_HAL_Driver/Src/stm32h7xx_hal.c ****   * @param   EXTI_Line: Specifies the EXTI LINE, it can be one of the following values,
1132:Drivers/STM32H7xx_HAL_Driver/Src/stm32h7xx_hal.c ****   *         (EXTI_LINE0....EXTI_LINE87)excluding :line45, line81,line83 which are reserved
1133:Drivers/STM32H7xx_HAL_Driver/Src/stm32h7xx_hal.c ****   * @retval None
1134:Drivers/STM32H7xx_HAL_Driver/Src/stm32h7xx_hal.c ****   */
1135:Drivers/STM32H7xx_HAL_Driver/Src/stm32h7xx_hal.c **** void HAL_EXTI_D1_ClearFlag(uint32_t EXTI_Line)
1136:Drivers/STM32H7xx_HAL_Driver/Src/stm32h7xx_hal.c **** {
 1905              		.loc 1 1136 1 is_stmt 1 view -0
 1906              		.cfi_startproc
 1907              		@ args = 0, pretend = 0, frame = 0
 1908              		@ frame_needed = 0, uses_anonymous_args = 0
ARM GAS  C:\Users\Brandon\AppData\Local\Temp\ccg7xZpb.s 			page 54


 1909              		@ link register save eliminated.
1137:Drivers/STM32H7xx_HAL_Driver/Src/stm32h7xx_hal.c ****   /* Check the parameters */
1138:Drivers/STM32H7xx_HAL_Driver/Src/stm32h7xx_hal.c ****  assert_param(IS_EXTI_D1_LINE(EXTI_Line));
 1910              		.loc 1 1138 2 view .LVU306
1139:Drivers/STM32H7xx_HAL_Driver/Src/stm32h7xx_hal.c ****  WRITE_REG(*(__IO uint32_t *) (((uint32_t) &(EXTI_D1->PR1)) + ((EXTI_Line >> 5 ) * 0x10UL)), (uint3
 1911              		.loc 1 1139 2 view .LVU307
 1912 0000 00F01F02 		and	r2, r0, #31
 1913 0004 4009     		lsrs	r0, r0, #5
 1914              	.LVL51:
 1915              		.loc 1 1139 2 is_stmt 0 view .LVU308
 1916 0006 0001     		lsls	r0, r0, #4
 1917 0008 0123     		movs	r3, #1
 1918 000a 9340     		lsls	r3, r3, r2
 1919 000c 014A     		ldr	r2, .L185
 1920 000e 8350     		str	r3, [r0, r2]
1140:Drivers/STM32H7xx_HAL_Driver/Src/stm32h7xx_hal.c **** 
1141:Drivers/STM32H7xx_HAL_Driver/Src/stm32h7xx_hal.c **** }
 1921              		.loc 1 1141 1 view .LVU309
 1922 0010 7047     		bx	lr
 1923              	.L186:
 1924 0012 00BF     		.align	2
 1925              	.L185:
 1926 0014 88000058 		.word	1476395144
 1927              		.cfi_endproc
 1928              	.LFE192:
 1930              		.section	.text.HAL_EXTI_D1_EventInputConfig,"ax",%progbits
 1931              		.align	1
 1932              		.global	HAL_EXTI_D1_EventInputConfig
 1933              		.syntax unified
 1934              		.thumb
 1935              		.thumb_func
 1936              		.fpu fpv5-d16
 1938              	HAL_EXTI_D1_EventInputConfig:
 1939              	.LVL52:
 1940              	.LFB193:
1142:Drivers/STM32H7xx_HAL_Driver/Src/stm32h7xx_hal.c **** 
1143:Drivers/STM32H7xx_HAL_Driver/Src/stm32h7xx_hal.c **** #if defined(DUAL_CORE)
1144:Drivers/STM32H7xx_HAL_Driver/Src/stm32h7xx_hal.c **** /**
1145:Drivers/STM32H7xx_HAL_Driver/Src/stm32h7xx_hal.c ****   * @brief  Clears the EXTI's line pending flags for Domain D2
1146:Drivers/STM32H7xx_HAL_Driver/Src/stm32h7xx_hal.c ****   * @param   EXTI_Line: Specifies the EXTI LINE, it can be one of the following values,
1147:Drivers/STM32H7xx_HAL_Driver/Src/stm32h7xx_hal.c ****   *         (EXTI_LINE0....EXTI_LINE87)excluding :line45, line81,line83 which are reserved
1148:Drivers/STM32H7xx_HAL_Driver/Src/stm32h7xx_hal.c ****   * @retval None
1149:Drivers/STM32H7xx_HAL_Driver/Src/stm32h7xx_hal.c ****   */
1150:Drivers/STM32H7xx_HAL_Driver/Src/stm32h7xx_hal.c **** void HAL_EXTI_D2_ClearFlag(uint32_t EXTI_Line)
1151:Drivers/STM32H7xx_HAL_Driver/Src/stm32h7xx_hal.c **** {
1152:Drivers/STM32H7xx_HAL_Driver/Src/stm32h7xx_hal.c ****   /* Check the parameters */
1153:Drivers/STM32H7xx_HAL_Driver/Src/stm32h7xx_hal.c ****  assert_param(IS_EXTI_D2_LINE(EXTI_Line));
1154:Drivers/STM32H7xx_HAL_Driver/Src/stm32h7xx_hal.c ****  WRITE_REG(*(__IO uint32_t *) (((uint32_t) &(EXTI_D2->PR1)) + ((EXTI_Line >> 5 ) * 0x10UL)), (uint3
1155:Drivers/STM32H7xx_HAL_Driver/Src/stm32h7xx_hal.c **** }
1156:Drivers/STM32H7xx_HAL_Driver/Src/stm32h7xx_hal.c **** 
1157:Drivers/STM32H7xx_HAL_Driver/Src/stm32h7xx_hal.c **** #endif /*DUAL_CORE*/
1158:Drivers/STM32H7xx_HAL_Driver/Src/stm32h7xx_hal.c **** /**
1159:Drivers/STM32H7xx_HAL_Driver/Src/stm32h7xx_hal.c ****   * @brief  Configure the EXTI input event line for Domain D1
1160:Drivers/STM32H7xx_HAL_Driver/Src/stm32h7xx_hal.c ****   * @param   EXTI_Line: Specifies the EXTI LINE, it can be one of the following values,
1161:Drivers/STM32H7xx_HAL_Driver/Src/stm32h7xx_hal.c ****   *         (EXTI_LINE0....EXTI_LINE87)excluding :line45, line81,line83 which are reserved
1162:Drivers/STM32H7xx_HAL_Driver/Src/stm32h7xx_hal.c ****   * @param   EXTI_Mode: Specifies which EXTI line is used as interrupt or an event.
1163:Drivers/STM32H7xx_HAL_Driver/Src/stm32h7xx_hal.c ****   *          This parameter can be one or a combination of the following values :
ARM GAS  C:\Users\Brandon\AppData\Local\Temp\ccg7xZpb.s 			page 55


1164:Drivers/STM32H7xx_HAL_Driver/Src/stm32h7xx_hal.c ****   *   @arg EXTI_MODE_IT :  Interrupt Mode selected
1165:Drivers/STM32H7xx_HAL_Driver/Src/stm32h7xx_hal.c ****   *   @arg EXTI_MODE_EVT : Event Mode selected
1166:Drivers/STM32H7xx_HAL_Driver/Src/stm32h7xx_hal.c ****   * @param   EXTI_LineCmd controls (Enable/Disable) the EXTI line.
1167:Drivers/STM32H7xx_HAL_Driver/Src/stm32h7xx_hal.c **** 
1168:Drivers/STM32H7xx_HAL_Driver/Src/stm32h7xx_hal.c ****   * @retval None
1169:Drivers/STM32H7xx_HAL_Driver/Src/stm32h7xx_hal.c ****   */
1170:Drivers/STM32H7xx_HAL_Driver/Src/stm32h7xx_hal.c **** void HAL_EXTI_D1_EventInputConfig(uint32_t EXTI_Line , uint32_t EXTI_Mode,  uint32_t EXTI_LineCmd )
1171:Drivers/STM32H7xx_HAL_Driver/Src/stm32h7xx_hal.c **** {
 1941              		.loc 1 1171 1 is_stmt 1 view -0
 1942              		.cfi_startproc
 1943              		@ args = 0, pretend = 0, frame = 0
 1944              		@ frame_needed = 0, uses_anonymous_args = 0
 1945              		@ link register save eliminated.
 1946              		.loc 1 1171 1 is_stmt 0 view .LVU311
 1947 0000 70B4     		push	{r4, r5, r6}
 1948              	.LCFI10:
 1949              		.cfi_def_cfa_offset 12
 1950              		.cfi_offset 4, -12
 1951              		.cfi_offset 5, -8
 1952              		.cfi_offset 6, -4
1172:Drivers/STM32H7xx_HAL_Driver/Src/stm32h7xx_hal.c ****   /* Check the parameter */
1173:Drivers/STM32H7xx_HAL_Driver/Src/stm32h7xx_hal.c ****   assert_param(IS_EXTI_D1_LINE(EXTI_Line));
 1953              		.loc 1 1173 3 is_stmt 1 view .LVU312
1174:Drivers/STM32H7xx_HAL_Driver/Src/stm32h7xx_hal.c ****   assert_param(IS_EXTI_MODE_LINE(EXTI_Mode));
 1954              		.loc 1 1174 3 view .LVU313
1175:Drivers/STM32H7xx_HAL_Driver/Src/stm32h7xx_hal.c **** 
1176:Drivers/STM32H7xx_HAL_Driver/Src/stm32h7xx_hal.c ****   if( (EXTI_Mode & EXTI_MODE_IT) == EXTI_MODE_IT)
 1955              		.loc 1 1176 3 view .LVU314
 1956              		.loc 1 1176 5 is_stmt 0 view .LVU315
 1957 0002 11F4803F 		tst	r1, #65536
 1958 0006 0CD0     		beq	.L188
1177:Drivers/STM32H7xx_HAL_Driver/Src/stm32h7xx_hal.c ****   {
1178:Drivers/STM32H7xx_HAL_Driver/Src/stm32h7xx_hal.c ****      if( EXTI_LineCmd == 0UL)
 1959              		.loc 1 1178 6 is_stmt 1 view .LVU316
 1960              		.loc 1 1178 8 is_stmt 0 view .LVU317
 1961 0008 E2B9     		cbnz	r2, .L189
1179:Drivers/STM32H7xx_HAL_Driver/Src/stm32h7xx_hal.c ****      {
1180:Drivers/STM32H7xx_HAL_Driver/Src/stm32h7xx_hal.c ****        /* Clear EXTI line configuration */
1181:Drivers/STM32H7xx_HAL_Driver/Src/stm32h7xx_hal.c ****         CLEAR_BIT(*(__IO uint32_t *) (((uint32_t) &(EXTI_D1->IMR1)) + ((EXTI_Line >> 5 ) * 0x10UL))
 1962              		.loc 1 1181 9 is_stmt 1 view .LVU318
 1963 000a 1A4B     		ldr	r3, .L193
 1964 000c 03EB5013 		add	r3, r3, r0, lsr #5
 1965 0010 1B01     		lsls	r3, r3, #4
 1966 0012 1C68     		ldr	r4, [r3]
 1967 0014 00F01F06 		and	r6, r0, #31
 1968 0018 0125     		movs	r5, #1
 1969 001a B540     		lsls	r5, r5, r6
 1970 001c 24EA0504 		bic	r4, r4, r5
 1971 0020 1C60     		str	r4, [r3]
 1972              	.L188:
1182:Drivers/STM32H7xx_HAL_Driver/Src/stm32h7xx_hal.c ****      }
1183:Drivers/STM32H7xx_HAL_Driver/Src/stm32h7xx_hal.c ****      else
1184:Drivers/STM32H7xx_HAL_Driver/Src/stm32h7xx_hal.c ****      {
1185:Drivers/STM32H7xx_HAL_Driver/Src/stm32h7xx_hal.c ****         SET_BIT(*(__IO uint32_t *) (((uint32_t) &(EXTI_D1->IMR1)) + ((EXTI_Line >> 5 ) * 0x10UL)), 
1186:Drivers/STM32H7xx_HAL_Driver/Src/stm32h7xx_hal.c ****      }
1187:Drivers/STM32H7xx_HAL_Driver/Src/stm32h7xx_hal.c ****   }
1188:Drivers/STM32H7xx_HAL_Driver/Src/stm32h7xx_hal.c **** 
ARM GAS  C:\Users\Brandon\AppData\Local\Temp\ccg7xZpb.s 			page 56


1189:Drivers/STM32H7xx_HAL_Driver/Src/stm32h7xx_hal.c ****   if( (EXTI_Mode & EXTI_MODE_EVT) == EXTI_MODE_EVT)
 1973              		.loc 1 1189 3 view .LVU319
 1974              		.loc 1 1189 5 is_stmt 0 view .LVU320
 1975 0022 11F4003F 		tst	r1, #131072
 1976 0026 0BD0     		beq	.L187
1190:Drivers/STM32H7xx_HAL_Driver/Src/stm32h7xx_hal.c ****   {
1191:Drivers/STM32H7xx_HAL_Driver/Src/stm32h7xx_hal.c ****     if( EXTI_LineCmd == 0UL)
 1977              		.loc 1 1191 5 is_stmt 1 view .LVU321
 1978              		.loc 1 1191 7 is_stmt 0 view .LVU322
 1979 0028 C2B9     		cbnz	r2, .L191
1192:Drivers/STM32H7xx_HAL_Driver/Src/stm32h7xx_hal.c ****     {
1193:Drivers/STM32H7xx_HAL_Driver/Src/stm32h7xx_hal.c ****       /* Clear EXTI line configuration */
1194:Drivers/STM32H7xx_HAL_Driver/Src/stm32h7xx_hal.c ****       CLEAR_BIT(  *(__IO uint32_t *) (((uint32_t) &(EXTI_D1->EMR1)) + ((EXTI_Line >> 5 ) * 0x10UL))
 1980              		.loc 1 1194 7 is_stmt 1 view .LVU323
 1981 002a 4309     		lsrs	r3, r0, #5
 1982 002c 1B01     		lsls	r3, r3, #4
 1983 002e 1249     		ldr	r1, .L193+4
 1984              	.LVL53:
 1985              		.loc 1 1194 7 is_stmt 0 view .LVU324
 1986 0030 5A58     		ldr	r2, [r3, r1]
 1987              	.LVL54:
 1988              		.loc 1 1194 7 view .LVU325
 1989 0032 00F01F04 		and	r4, r0, #31
 1990 0036 0120     		movs	r0, #1
 1991              	.LVL55:
 1992              		.loc 1 1194 7 view .LVU326
 1993 0038 A040     		lsls	r0, r0, r4
 1994 003a 22EA0000 		bic	r0, r2, r0
 1995 003e 5850     		str	r0, [r3, r1]
 1996              	.L187:
1195:Drivers/STM32H7xx_HAL_Driver/Src/stm32h7xx_hal.c ****     }
1196:Drivers/STM32H7xx_HAL_Driver/Src/stm32h7xx_hal.c ****     else
1197:Drivers/STM32H7xx_HAL_Driver/Src/stm32h7xx_hal.c ****     {
1198:Drivers/STM32H7xx_HAL_Driver/Src/stm32h7xx_hal.c ****       SET_BIT(  *(__IO uint32_t *) (((uint32_t) &(EXTI_D1->EMR1)) + ((EXTI_Line >> 5 ) * 0x10UL)), 
1199:Drivers/STM32H7xx_HAL_Driver/Src/stm32h7xx_hal.c ****     }
1200:Drivers/STM32H7xx_HAL_Driver/Src/stm32h7xx_hal.c ****   }
1201:Drivers/STM32H7xx_HAL_Driver/Src/stm32h7xx_hal.c **** }
 1997              		.loc 1 1201 1 view .LVU327
 1998 0040 70BC     		pop	{r4, r5, r6}
 1999              	.LCFI11:
 2000              		.cfi_remember_state
 2001              		.cfi_restore 6
 2002              		.cfi_restore 5
 2003              		.cfi_restore 4
 2004              		.cfi_def_cfa_offset 0
 2005 0042 7047     		bx	lr
 2006              	.LVL56:
 2007              	.L189:
 2008              	.LCFI12:
 2009              		.cfi_restore_state
1185:Drivers/STM32H7xx_HAL_Driver/Src/stm32h7xx_hal.c ****      }
 2010              		.loc 1 1185 9 is_stmt 1 view .LVU328
 2011 0044 0B4B     		ldr	r3, .L193
 2012 0046 03EB5013 		add	r3, r3, r0, lsr #5
 2013 004a 1B01     		lsls	r3, r3, #4
 2014 004c 1C68     		ldr	r4, [r3]
 2015 004e 00F01F06 		and	r6, r0, #31
ARM GAS  C:\Users\Brandon\AppData\Local\Temp\ccg7xZpb.s 			page 57


 2016 0052 0125     		movs	r5, #1
 2017 0054 B540     		lsls	r5, r5, r6
 2018 0056 2C43     		orrs	r4, r4, r5
 2019 0058 1C60     		str	r4, [r3]
 2020 005a E2E7     		b	.L188
 2021              	.L191:
1198:Drivers/STM32H7xx_HAL_Driver/Src/stm32h7xx_hal.c ****     }
 2022              		.loc 1 1198 7 view .LVU329
 2023 005c 4309     		lsrs	r3, r0, #5
 2024 005e 1B01     		lsls	r3, r3, #4
 2025 0060 054C     		ldr	r4, .L193+4
 2026 0062 1A59     		ldr	r2, [r3, r4]
 2027              	.LVL57:
1198:Drivers/STM32H7xx_HAL_Driver/Src/stm32h7xx_hal.c ****     }
 2028              		.loc 1 1198 7 is_stmt 0 view .LVU330
 2029 0064 00F01F00 		and	r0, r0, #31
 2030              	.LVL58:
1198:Drivers/STM32H7xx_HAL_Driver/Src/stm32h7xx_hal.c ****     }
 2031              		.loc 1 1198 7 view .LVU331
 2032 0068 0121     		movs	r1, #1
 2033              	.LVL59:
1198:Drivers/STM32H7xx_HAL_Driver/Src/stm32h7xx_hal.c ****     }
 2034              		.loc 1 1198 7 view .LVU332
 2035 006a 01FA00F0 		lsl	r0, r1, r0
 2036 006e 1043     		orrs	r0, r0, r2
 2037 0070 1851     		str	r0, [r3, r4]
 2038              		.loc 1 1201 1 view .LVU333
 2039 0072 E5E7     		b	.L187
 2040              	.L194:
 2041              		.align	2
 2042              	.L193:
 2043 0074 08008005 		.word	92274696
 2044 0078 84000058 		.word	1476395140
 2045              		.cfi_endproc
 2046              	.LFE193:
 2048              		.section	.text.HAL_EXTI_D3_EventInputConfig,"ax",%progbits
 2049              		.align	1
 2050              		.global	HAL_EXTI_D3_EventInputConfig
 2051              		.syntax unified
 2052              		.thumb
 2053              		.thumb_func
 2054              		.fpu fpv5-d16
 2056              	HAL_EXTI_D3_EventInputConfig:
 2057              	.LVL60:
 2058              	.LFB194:
1202:Drivers/STM32H7xx_HAL_Driver/Src/stm32h7xx_hal.c **** 
1203:Drivers/STM32H7xx_HAL_Driver/Src/stm32h7xx_hal.c **** #if defined(DUAL_CORE)
1204:Drivers/STM32H7xx_HAL_Driver/Src/stm32h7xx_hal.c **** /**
1205:Drivers/STM32H7xx_HAL_Driver/Src/stm32h7xx_hal.c ****   * @brief  Configure the EXTI input event line for Domain D2
1206:Drivers/STM32H7xx_HAL_Driver/Src/stm32h7xx_hal.c ****   * @param   EXTI_Line: Specifies the EXTI LINE, it can be one of the following values,
1207:Drivers/STM32H7xx_HAL_Driver/Src/stm32h7xx_hal.c ****   *         (EXTI_LINE0....EXTI_LINE87)excluding :line45, line81,line83 which are reserved
1208:Drivers/STM32H7xx_HAL_Driver/Src/stm32h7xx_hal.c ****   * @param   EXTI_Mode: Specifies which EXTI line is used as interrupt or an event.
1209:Drivers/STM32H7xx_HAL_Driver/Src/stm32h7xx_hal.c ****   *          This parameter can be one or a combination of the following values :
1210:Drivers/STM32H7xx_HAL_Driver/Src/stm32h7xx_hal.c ****   *   @arg EXTI_MODE_IT :  Interrupt Mode selected
1211:Drivers/STM32H7xx_HAL_Driver/Src/stm32h7xx_hal.c ****   *   @arg EXTI_MODE_EVT : Event Mode selected
1212:Drivers/STM32H7xx_HAL_Driver/Src/stm32h7xx_hal.c ****   * @param   EXTI_LineCmd controls (Enable/Disable) the EXTI line.
1213:Drivers/STM32H7xx_HAL_Driver/Src/stm32h7xx_hal.c **** 
ARM GAS  C:\Users\Brandon\AppData\Local\Temp\ccg7xZpb.s 			page 58


1214:Drivers/STM32H7xx_HAL_Driver/Src/stm32h7xx_hal.c ****   * @retval None
1215:Drivers/STM32H7xx_HAL_Driver/Src/stm32h7xx_hal.c ****   */
1216:Drivers/STM32H7xx_HAL_Driver/Src/stm32h7xx_hal.c **** void HAL_EXTI_D2_EventInputConfig(uint32_t EXTI_Line , uint32_t EXTI_Mode,  uint32_t EXTI_LineCmd )
1217:Drivers/STM32H7xx_HAL_Driver/Src/stm32h7xx_hal.c **** {
1218:Drivers/STM32H7xx_HAL_Driver/Src/stm32h7xx_hal.c ****   /* Check the parameter */
1219:Drivers/STM32H7xx_HAL_Driver/Src/stm32h7xx_hal.c ****   assert_param(IS_EXTI_D2_LINE(EXTI_Line));
1220:Drivers/STM32H7xx_HAL_Driver/Src/stm32h7xx_hal.c ****   assert_param(IS_EXTI_MODE_LINE(EXTI_Mode));
1221:Drivers/STM32H7xx_HAL_Driver/Src/stm32h7xx_hal.c **** 
1222:Drivers/STM32H7xx_HAL_Driver/Src/stm32h7xx_hal.c ****   if( (EXTI_Mode & EXTI_MODE_IT) == EXTI_MODE_IT)
1223:Drivers/STM32H7xx_HAL_Driver/Src/stm32h7xx_hal.c ****   {
1224:Drivers/STM32H7xx_HAL_Driver/Src/stm32h7xx_hal.c ****     if( EXTI_LineCmd == 0UL)
1225:Drivers/STM32H7xx_HAL_Driver/Src/stm32h7xx_hal.c ****     {
1226:Drivers/STM32H7xx_HAL_Driver/Src/stm32h7xx_hal.c ****     /* Clear EXTI line configuration */
1227:Drivers/STM32H7xx_HAL_Driver/Src/stm32h7xx_hal.c ****      CLEAR_BIT(*(__IO uint32_t *) (((uint32_t) &(EXTI_D2->IMR1)) + ((EXTI_Line >> 5 ) * 0x10UL)),(u
1228:Drivers/STM32H7xx_HAL_Driver/Src/stm32h7xx_hal.c ****     }
1229:Drivers/STM32H7xx_HAL_Driver/Src/stm32h7xx_hal.c ****     else
1230:Drivers/STM32H7xx_HAL_Driver/Src/stm32h7xx_hal.c ****     {
1231:Drivers/STM32H7xx_HAL_Driver/Src/stm32h7xx_hal.c ****      SET_BIT(*(__IO uint32_t *) (((uint32_t) &(EXTI_D2->IMR1)) + ((EXTI_Line >> 5 ) * 0x10UL)), (ui
1232:Drivers/STM32H7xx_HAL_Driver/Src/stm32h7xx_hal.c ****     }
1233:Drivers/STM32H7xx_HAL_Driver/Src/stm32h7xx_hal.c ****   }
1234:Drivers/STM32H7xx_HAL_Driver/Src/stm32h7xx_hal.c **** 
1235:Drivers/STM32H7xx_HAL_Driver/Src/stm32h7xx_hal.c ****   if( (EXTI_Mode & EXTI_MODE_EVT) == EXTI_MODE_EVT)
1236:Drivers/STM32H7xx_HAL_Driver/Src/stm32h7xx_hal.c ****   {
1237:Drivers/STM32H7xx_HAL_Driver/Src/stm32h7xx_hal.c ****     if( EXTI_LineCmd == 0UL)
1238:Drivers/STM32H7xx_HAL_Driver/Src/stm32h7xx_hal.c ****     {
1239:Drivers/STM32H7xx_HAL_Driver/Src/stm32h7xx_hal.c ****       /* Clear EXTI line configuration */
1240:Drivers/STM32H7xx_HAL_Driver/Src/stm32h7xx_hal.c ****       CLEAR_BIT(  *(__IO uint32_t *) (((uint32_t) &(EXTI_D2->EMR1)) + ((EXTI_Line >> 5 ) * 0x10UL))
1241:Drivers/STM32H7xx_HAL_Driver/Src/stm32h7xx_hal.c ****     }
1242:Drivers/STM32H7xx_HAL_Driver/Src/stm32h7xx_hal.c ****     else
1243:Drivers/STM32H7xx_HAL_Driver/Src/stm32h7xx_hal.c ****     {
1244:Drivers/STM32H7xx_HAL_Driver/Src/stm32h7xx_hal.c ****       SET_BIT(  *(__IO uint32_t *) (((uint32_t) &(EXTI_D2->EMR1)) + ((EXTI_Line >> 5 ) * 0x10UL)), 
1245:Drivers/STM32H7xx_HAL_Driver/Src/stm32h7xx_hal.c ****     }
1246:Drivers/STM32H7xx_HAL_Driver/Src/stm32h7xx_hal.c ****   }
1247:Drivers/STM32H7xx_HAL_Driver/Src/stm32h7xx_hal.c **** }
1248:Drivers/STM32H7xx_HAL_Driver/Src/stm32h7xx_hal.c **** #endif /*DUAL_CORE*/
1249:Drivers/STM32H7xx_HAL_Driver/Src/stm32h7xx_hal.c **** 
1250:Drivers/STM32H7xx_HAL_Driver/Src/stm32h7xx_hal.c **** /**
1251:Drivers/STM32H7xx_HAL_Driver/Src/stm32h7xx_hal.c ****   * @brief  Configure the EXTI input event line for Domain D3
1252:Drivers/STM32H7xx_HAL_Driver/Src/stm32h7xx_hal.c ****   * @param   EXTI_Line: Specifies the EXTI LINE, it can be one of the following values,
1253:Drivers/STM32H7xx_HAL_Driver/Src/stm32h7xx_hal.c ****   *         (EXTI_LINE0...EXTI_LINE15),(EXTI_LINE19...EXTI_LINE21),EXTI_LINE25, EXTI_LINE34,
1254:Drivers/STM32H7xx_HAL_Driver/Src/stm32h7xx_hal.c ****   *          EXTI_LINE35,EXTI_LINE41,(EXTI_LINE48...EXTI_LINE53)
1255:Drivers/STM32H7xx_HAL_Driver/Src/stm32h7xx_hal.c ****   * @param   EXTI_LineCmd controls (Enable/Disable) the EXTI line.
1256:Drivers/STM32H7xx_HAL_Driver/Src/stm32h7xx_hal.c ****   * @param   EXTI_ClearSrc: Specifies the clear source of D3 pending event.
1257:Drivers/STM32H7xx_HAL_Driver/Src/stm32h7xx_hal.c ****   *          This parameter can be one of the following values :
1258:Drivers/STM32H7xx_HAL_Driver/Src/stm32h7xx_hal.c ****   *   @arg BDMA_CH6_CLEAR : BDMA ch6 event selected as D3 domain pendclear source
1259:Drivers/STM32H7xx_HAL_Driver/Src/stm32h7xx_hal.c ****   *   @arg BDMA_CH7_CLEAR : BDMA ch7 event selected as D3 domain pendclear source
1260:Drivers/STM32H7xx_HAL_Driver/Src/stm32h7xx_hal.c ****   *   @arg LPTIM4_OUT_CLEAR : LPTIM4 out selected as D3 domain pendclear source
1261:Drivers/STM32H7xx_HAL_Driver/Src/stm32h7xx_hal.c ****   *   @arg LPTIM5_OUT_CLEAR : LPTIM5 out selected as D3 domain pendclear source
1262:Drivers/STM32H7xx_HAL_Driver/Src/stm32h7xx_hal.c ****   * @retval None
1263:Drivers/STM32H7xx_HAL_Driver/Src/stm32h7xx_hal.c ****   */
1264:Drivers/STM32H7xx_HAL_Driver/Src/stm32h7xx_hal.c **** void HAL_EXTI_D3_EventInputConfig(uint32_t EXTI_Line, uint32_t EXTI_LineCmd , uint32_t EXTI_ClearSr
1265:Drivers/STM32H7xx_HAL_Driver/Src/stm32h7xx_hal.c **** {
 2059              		.loc 1 1265 1 is_stmt 1 view -0
 2060              		.cfi_startproc
 2061              		@ args = 0, pretend = 0, frame = 0
 2062              		@ frame_needed = 0, uses_anonymous_args = 0
 2063              		@ link register save eliminated.
ARM GAS  C:\Users\Brandon\AppData\Local\Temp\ccg7xZpb.s 			page 59


 2064              		.loc 1 1265 1 is_stmt 0 view .LVU335
 2065 0000 70B4     		push	{r4, r5, r6}
 2066              	.LCFI13:
 2067              		.cfi_def_cfa_offset 12
 2068              		.cfi_offset 4, -12
 2069              		.cfi_offset 5, -8
 2070              		.cfi_offset 6, -4
1266:Drivers/STM32H7xx_HAL_Driver/Src/stm32h7xx_hal.c ****   __IO uint32_t *pRegv;
 2071              		.loc 1 1266 3 is_stmt 1 view .LVU336
1267:Drivers/STM32H7xx_HAL_Driver/Src/stm32h7xx_hal.c **** 
1268:Drivers/STM32H7xx_HAL_Driver/Src/stm32h7xx_hal.c ****   /* Check the parameter */
1269:Drivers/STM32H7xx_HAL_Driver/Src/stm32h7xx_hal.c ****   assert_param(IS_EXTI_D3_LINE(EXTI_Line));
 2072              		.loc 1 1269 3 view .LVU337
1270:Drivers/STM32H7xx_HAL_Driver/Src/stm32h7xx_hal.c ****   assert_param(IS_EXTI_D3_CLEAR(EXTI_ClearSrc));
 2073              		.loc 1 1270 3 view .LVU338
1271:Drivers/STM32H7xx_HAL_Driver/Src/stm32h7xx_hal.c **** 
1272:Drivers/STM32H7xx_HAL_Driver/Src/stm32h7xx_hal.c ****   if( EXTI_LineCmd == 0UL)
 2074              		.loc 1 1272 3 view .LVU339
 2075              		.loc 1 1272 5 is_stmt 0 view .LVU340
 2076 0002 F9B9     		cbnz	r1, .L196
1273:Drivers/STM32H7xx_HAL_Driver/Src/stm32h7xx_hal.c ****   {
1274:Drivers/STM32H7xx_HAL_Driver/Src/stm32h7xx_hal.c ****     /* Clear EXTI line configuration */
1275:Drivers/STM32H7xx_HAL_Driver/Src/stm32h7xx_hal.c ****     CLEAR_BIT(*(__IO uint32_t *) (((uint32_t) &(EXTI->D3PMR1)) + ((EXTI_Line >> 5 ) * 0x20UL)),(uin
 2077              		.loc 1 1275 5 is_stmt 1 view .LVU341
 2078 0004 20F01F03 		bic	r3, r0, #31
 2079 0008 164D     		ldr	r5, .L201
 2080 000a 5959     		ldr	r1, [r3, r5]
 2081              	.LVL61:
 2082              		.loc 1 1275 5 is_stmt 0 view .LVU342
 2083 000c 00F01F06 		and	r6, r0, #31
 2084 0010 0124     		movs	r4, #1
 2085 0012 B440     		lsls	r4, r4, r6
 2086 0014 21EA0401 		bic	r1, r1, r4
 2087 0018 5951     		str	r1, [r3, r5]
 2088              	.L197:
1276:Drivers/STM32H7xx_HAL_Driver/Src/stm32h7xx_hal.c ****   }
1277:Drivers/STM32H7xx_HAL_Driver/Src/stm32h7xx_hal.c ****   else
1278:Drivers/STM32H7xx_HAL_Driver/Src/stm32h7xx_hal.c ****   {
1279:Drivers/STM32H7xx_HAL_Driver/Src/stm32h7xx_hal.c ****     SET_BIT(*(__IO uint32_t *) (((uint32_t) &(EXTI->D3PMR1)) +((EXTI_Line >> 5 ) * 0x20UL)), (uint3
1280:Drivers/STM32H7xx_HAL_Driver/Src/stm32h7xx_hal.c ****   }
1281:Drivers/STM32H7xx_HAL_Driver/Src/stm32h7xx_hal.c **** 
1282:Drivers/STM32H7xx_HAL_Driver/Src/stm32h7xx_hal.c ****   if(((EXTI_Line>>4)%2UL) == 0UL)
 2089              		.loc 1 1282 3 is_stmt 1 view .LVU343
 2090              		.loc 1 1282 5 is_stmt 0 view .LVU344
 2091 001a 10F0100F 		tst	r0, #16
 2092 001e 1CD1     		bne	.L198
1283:Drivers/STM32H7xx_HAL_Driver/Src/stm32h7xx_hal.c ****   {
1284:Drivers/STM32H7xx_HAL_Driver/Src/stm32h7xx_hal.c ****     pRegv = (__IO uint32_t *) (((uint32_t) &(EXTI->D3PCR1L)) + ((EXTI_Line >> 5 ) * 0x20UL));
 2093              		.loc 1 1284 5 is_stmt 1 view .LVU345
 2094              		.loc 1 1284 83 is_stmt 0 view .LVU346
 2095 0020 20F01F03 		bic	r3, r0, #31
 2096              		.loc 1 1284 62 view .LVU347
 2097 0024 1049     		ldr	r1, .L201+4
 2098 0026 1944     		add	r1, r1, r3
 2099              	.LVL62:
 2100              	.L199:
1285:Drivers/STM32H7xx_HAL_Driver/Src/stm32h7xx_hal.c ****   }
ARM GAS  C:\Users\Brandon\AppData\Local\Temp\ccg7xZpb.s 			page 60


1286:Drivers/STM32H7xx_HAL_Driver/Src/stm32h7xx_hal.c ****   else
1287:Drivers/STM32H7xx_HAL_Driver/Src/stm32h7xx_hal.c ****   {
1288:Drivers/STM32H7xx_HAL_Driver/Src/stm32h7xx_hal.c ****     pRegv = (__IO uint32_t *) (((uint32_t) &(EXTI->D3PCR1H)) + ((EXTI_Line >> 5 ) * 0x20UL));
1289:Drivers/STM32H7xx_HAL_Driver/Src/stm32h7xx_hal.c ****   }
1290:Drivers/STM32H7xx_HAL_Driver/Src/stm32h7xx_hal.c ****   MODIFY_REG(*pRegv, (uint32_t)(3UL << ((EXTI_Line*2UL) & 0x1FUL)), (uint32_t)(EXTI_ClearSrc << ((E
 2101              		.loc 1 1290 3 is_stmt 1 view .LVU348
 2102 0028 0B68     		ldr	r3, [r1]
 2103 002a 4000     		lsls	r0, r0, #1
 2104              	.LVL63:
 2105              		.loc 1 1290 3 is_stmt 0 view .LVU349
 2106 002c 00F01E00 		and	r0, r0, #30
 2107 0030 0324     		movs	r4, #3
 2108 0032 8440     		lsls	r4, r4, r0
 2109 0034 23EA0403 		bic	r3, r3, r4
 2110 0038 02FA00F0 		lsl	r0, r2, r0
 2111 003c 1843     		orrs	r0, r0, r3
 2112 003e 0860     		str	r0, [r1]
1291:Drivers/STM32H7xx_HAL_Driver/Src/stm32h7xx_hal.c **** 
1292:Drivers/STM32H7xx_HAL_Driver/Src/stm32h7xx_hal.c **** }
 2113              		.loc 1 1292 1 view .LVU350
 2114 0040 70BC     		pop	{r4, r5, r6}
 2115              	.LCFI14:
 2116              		.cfi_remember_state
 2117              		.cfi_restore 6
 2118              		.cfi_restore 5
 2119              		.cfi_restore 4
 2120              		.cfi_def_cfa_offset 0
 2121 0042 7047     		bx	lr
 2122              	.LVL64:
 2123              	.L196:
 2124              	.LCFI15:
 2125              		.cfi_restore_state
1279:Drivers/STM32H7xx_HAL_Driver/Src/stm32h7xx_hal.c ****   }
 2126              		.loc 1 1279 5 is_stmt 1 view .LVU351
 2127 0044 20F01F03 		bic	r3, r0, #31
 2128 0048 064D     		ldr	r5, .L201
 2129 004a 5959     		ldr	r1, [r3, r5]
 2130              	.LVL65:
1279:Drivers/STM32H7xx_HAL_Driver/Src/stm32h7xx_hal.c ****   }
 2131              		.loc 1 1279 5 is_stmt 0 view .LVU352
 2132 004c 00F01F06 		and	r6, r0, #31
 2133 0050 0124     		movs	r4, #1
 2134 0052 B440     		lsls	r4, r4, r6
 2135 0054 2143     		orrs	r1, r1, r4
 2136 0056 5951     		str	r1, [r3, r5]
 2137 0058 DFE7     		b	.L197
 2138              	.L198:
1288:Drivers/STM32H7xx_HAL_Driver/Src/stm32h7xx_hal.c ****   }
 2139              		.loc 1 1288 5 is_stmt 1 view .LVU353
1288:Drivers/STM32H7xx_HAL_Driver/Src/stm32h7xx_hal.c ****   }
 2140              		.loc 1 1288 83 is_stmt 0 view .LVU354
 2141 005a 20F01F03 		bic	r3, r0, #31
1288:Drivers/STM32H7xx_HAL_Driver/Src/stm32h7xx_hal.c ****   }
 2142              		.loc 1 1288 62 view .LVU355
 2143 005e 0349     		ldr	r1, .L201+8
 2144 0060 1944     		add	r1, r1, r3
 2145              	.LVL66:
ARM GAS  C:\Users\Brandon\AppData\Local\Temp\ccg7xZpb.s 			page 61


1288:Drivers/STM32H7xx_HAL_Driver/Src/stm32h7xx_hal.c ****   }
 2146              		.loc 1 1288 62 view .LVU356
 2147 0062 E1E7     		b	.L199
 2148              	.L202:
 2149              		.align	2
 2150              	.L201:
 2151 0064 0C000058 		.word	1476395020
 2152 0068 10000058 		.word	1476395024
 2153 006c 14000058 		.word	1476395028
 2154              		.cfi_endproc
 2155              	.LFE194:
 2157              		.global	uwTickFreq
 2158              		.global	uwTickPrio
 2159              		.comm	uwTick,4,4
 2160              		.section	.data.uwTickFreq,"aw"
 2161              		.set	.LANCHOR0,. + 0
 2164              	uwTickFreq:
 2165 0000 01       		.byte	1
 2166              		.section	.data.uwTickPrio,"aw"
 2167              		.align	2
 2168              		.set	.LANCHOR1,. + 0
 2171              	uwTickPrio:
 2172 0000 10000000 		.word	16
 2173              		.text
 2174              	.Letext0:
 2175              		.file 2 "c:\\program files (x86)\\gnu arm embedded toolchain\\9 2020-q2-update\\arm-none-eabi\\inc
 2176              		.file 3 "c:\\program files (x86)\\gnu arm embedded toolchain\\9 2020-q2-update\\arm-none-eabi\\inc
 2177              		.file 4 "Drivers/CMSIS/Include/core_cm7.h"
 2178              		.file 5 "Drivers/CMSIS/Device/ST/STM32H7xx/Include/system_stm32h7xx.h"
 2179              		.file 6 "Drivers/CMSIS/Device/ST/STM32H7xx/Include/stm32h735xx.h"
 2180              		.file 7 "c:\\program files (x86)\\gnu arm embedded toolchain\\9 2020-q2-update\\lib\\gcc\\arm-none
 2181              		.file 8 "c:\\program files (x86)\\gnu arm embedded toolchain\\9 2020-q2-update\\arm-none-eabi\\inc
 2182              		.file 9 "c:\\program files (x86)\\gnu arm embedded toolchain\\9 2020-q2-update\\arm-none-eabi\\inc
 2183              		.file 10 "c:\\program files (x86)\\gnu arm embedded toolchain\\9 2020-q2-update\\arm-none-eabi\\in
 2184              		.file 11 "c:\\program files (x86)\\gnu arm embedded toolchain\\9 2020-q2-update\\arm-none-eabi\\in
 2185              		.file 12 "Drivers/STM32H7xx_HAL_Driver/Inc/stm32h7xx_hal_def.h"
 2186              		.file 13 "Drivers/STM32H7xx_HAL_Driver/Inc/stm32h7xx_hal_flash.h"
 2187              		.file 14 "Drivers/STM32H7xx_HAL_Driver/Inc/stm32h7xx_hal.h"
 2188              		.file 15 "Drivers/STM32H7xx_HAL_Driver/Inc/stm32h7xx_hal_cortex.h"
 2189              		.file 16 "Drivers/STM32H7xx_HAL_Driver/Inc/stm32h7xx_hal_rcc.h"
ARM GAS  C:\Users\Brandon\AppData\Local\Temp\ccg7xZpb.s 			page 62

