ARM GAS  C:\Users\Brandon\AppData\Local\Temp\cc15zA07.s 			page 1


   1              		.cpu cortex-m7
   2              		.eabi_attribute 28, 1
   3              		.eabi_attribute 20, 1
   4              		.eabi_attribute 21, 1
   5              		.eabi_attribute 23, 3
   6              		.eabi_attribute 24, 1
   7              		.eabi_attribute 25, 1
   8              		.eabi_attribute 26, 1
   9              		.eabi_attribute 30, 2
  10              		.eabi_attribute 34, 1
  11              		.eabi_attribute 18, 4
  12              		.file	"stm32h7xx_hal_rcc_ex.c"
  13              		.text
  14              		.section	.text.RCCEx_PLL2_Config,"ax",%progbits
  15              		.align	1
  16              		.p2align 2,,3
  17              		.arch armv7e-m
  18              		.syntax unified
  19              		.thumb
  20              		.thumb_func
  21              		.fpu fpv5-d16
  23              	RCCEx_PLL2_Config:
  24              		@ args = 0, pretend = 0, frame = 0
  25              		@ frame_needed = 0, uses_anonymous_args = 0
  26 0000 3B4A     		ldr	r2, .L16
  27 0002 F8B5     		push	{r3, r4, r5, r6, r7, lr}
  28 0004 936A     		ldr	r3, [r2, #40]
  29 0006 03F00303 		and	r3, r3, #3
  30 000a 032B     		cmp	r3, #3
  31 000c 69D0     		beq	.L11
  32 000e 1368     		ldr	r3, [r2]
  33 0010 0646     		mov	r6, r0
  34 0012 0F46     		mov	r7, r1
  35 0014 1446     		mov	r4, r2
  36 0016 23F08063 		bic	r3, r3, #67108864
  37 001a 1360     		str	r3, [r2]
  38 001c FFF7FEFF 		bl	HAL_GetTick
  39 0020 0546     		mov	r5, r0
  40 0022 04E0     		b	.L3
  41              	.L4:
  42 0024 FFF7FEFF 		bl	HAL_GetTick
  43 0028 431B     		subs	r3, r0, r5
  44 002a 022B     		cmp	r3, #2
  45 002c 57D8     		bhi	.L9
  46              	.L3:
  47 002e 2368     		ldr	r3, [r4]
  48 0030 1A01     		lsls	r2, r3, #4
  49 0032 F7D4     		bmi	.L4
  50 0034 A36A     		ldr	r3, [r4, #40]
  51 0036 3268     		ldr	r2, [r6]
  52 0038 23F47C33 		bic	r3, r3, #258048
  53 003c 2D49     		ldr	r1, .L16+4
  54 003e 43EA0233 		orr	r3, r3, r2, lsl #12
  55 0042 A362     		str	r3, [r4, #40]
  56 0044 7568     		ldr	r5, [r6, #4]
  57 0046 D6E90232 		ldrd	r3, r2, [r6, #8]
  58 004a 013D     		subs	r5, r5, #1
ARM GAS  C:\Users\Brandon\AppData\Local\Temp\cc15zA07.s 			page 2


  59 004c 501E     		subs	r0, r2, #1
  60 004e 013B     		subs	r3, r3, #1
  61 0050 3269     		ldr	r2, [r6, #16]
  62 0052 C5F30805 		ubfx	r5, r5, #0, #9
  63 0056 5B02     		lsls	r3, r3, #9
  64 0058 0004     		lsls	r0, r0, #16
  65 005a 013A     		subs	r2, r2, #1
  66 005c 9BB2     		uxth	r3, r3
  67 005e 00F4FE00 		and	r0, r0, #8323072
  68 0062 1206     		lsls	r2, r2, #24
  69 0064 0343     		orrs	r3, r3, r0
  70 0066 02F0FE42 		and	r2, r2, #2130706432
  71 006a 2B43     		orrs	r3, r3, r5
  72 006c 1343     		orrs	r3, r3, r2
  73 006e A363     		str	r3, [r4, #56]
  74 0070 E36A     		ldr	r3, [r4, #44]
  75 0072 7269     		ldr	r2, [r6, #20]
  76 0074 23F0C003 		bic	r3, r3, #192
  77 0078 1343     		orrs	r3, r3, r2
  78 007a E362     		str	r3, [r4, #44]
  79 007c E36A     		ldr	r3, [r4, #44]
  80 007e B269     		ldr	r2, [r6, #24]
  81 0080 23F02003 		bic	r3, r3, #32
  82 0084 1343     		orrs	r3, r3, r2
  83 0086 E362     		str	r3, [r4, #44]
  84 0088 E36A     		ldr	r3, [r4, #44]
  85 008a 23F01003 		bic	r3, r3, #16
  86 008e E362     		str	r3, [r4, #44]
  87 0090 E26B     		ldr	r2, [r4, #60]
  88 0092 F369     		ldr	r3, [r6, #28]
  89 0094 1140     		ands	r1, r1, r2
  90 0096 41EAC301 		orr	r1, r1, r3, lsl #3
  91 009a E163     		str	r1, [r4, #60]
  92 009c E36A     		ldr	r3, [r4, #44]
  93 009e 43F01003 		orr	r3, r3, #16
  94 00a2 E362     		str	r3, [r4, #44]
  95 00a4 E36A     		ldr	r3, [r4, #44]
  96 00a6 F7B1     		cbz	r7, .L15
  97 00a8 012F     		cmp	r7, #1
  98 00aa 0CBF     		ite	eq
  99 00ac 43F48013 		orreq	r3, r3, #1048576
 100 00b0 43F40013 		orrne	r3, r3, #2097152
 101 00b4 E362     		str	r3, [r4, #44]
 102              	.L6:
 103 00b6 0E4B     		ldr	r3, .L16
 104 00b8 1A68     		ldr	r2, [r3]
 105 00ba 1D46     		mov	r5, r3
 106 00bc 42F08062 		orr	r2, r2, #67108864
 107 00c0 1A60     		str	r2, [r3]
 108 00c2 FFF7FEFF 		bl	HAL_GetTick
 109 00c6 0446     		mov	r4, r0
 110 00c8 04E0     		b	.L8
 111              	.L10:
 112 00ca FFF7FEFF 		bl	HAL_GetTick
 113 00ce 001B     		subs	r0, r0, r4
 114 00d0 0228     		cmp	r0, #2
 115 00d2 04D8     		bhi	.L9
ARM GAS  C:\Users\Brandon\AppData\Local\Temp\cc15zA07.s 			page 3


 116              	.L8:
 117 00d4 2B68     		ldr	r3, [r5]
 118 00d6 1B01     		lsls	r3, r3, #4
 119 00d8 F7D5     		bpl	.L10
 120 00da 0020     		movs	r0, #0
 121 00dc F8BD     		pop	{r3, r4, r5, r6, r7, pc}
 122              	.L9:
 123 00de 0320     		movs	r0, #3
 124 00e0 F8BD     		pop	{r3, r4, r5, r6, r7, pc}
 125              	.L11:
 126 00e2 0120     		movs	r0, #1
 127 00e4 F8BD     		pop	{r3, r4, r5, r6, r7, pc}
 128              	.L15:
 129 00e6 43F40023 		orr	r3, r3, #524288
 130 00ea E362     		str	r3, [r4, #44]
 131 00ec E3E7     		b	.L6
 132              	.L17:
 133 00ee 00BF     		.align	2
 134              	.L16:
 135 00f0 00440258 		.word	1476543488
 136 00f4 0700FFFF 		.word	-65529
 138              		.section	.text.RCCEx_PLL3_Config,"ax",%progbits
 139              		.align	1
 140              		.p2align 2,,3
 141              		.syntax unified
 142              		.thumb
 143              		.thumb_func
 144              		.fpu fpv5-d16
 146              	RCCEx_PLL3_Config:
 147              		@ args = 0, pretend = 0, frame = 0
 148              		@ frame_needed = 0, uses_anonymous_args = 0
 149 0000 3B4A     		ldr	r2, .L32
 150 0002 F8B5     		push	{r3, r4, r5, r6, r7, lr}
 151 0004 936A     		ldr	r3, [r2, #40]
 152 0006 03F00303 		and	r3, r3, #3
 153 000a 032B     		cmp	r3, #3
 154 000c 69D0     		beq	.L28
 155 000e 1368     		ldr	r3, [r2]
 156 0010 0646     		mov	r6, r0
 157 0012 0F46     		mov	r7, r1
 158 0014 1446     		mov	r4, r2
 159 0016 23F08053 		bic	r3, r3, #268435456
 160 001a 1360     		str	r3, [r2]
 161 001c FFF7FEFF 		bl	HAL_GetTick
 162 0020 0546     		mov	r5, r0
 163 0022 04E0     		b	.L20
 164              	.L21:
 165 0024 FFF7FEFF 		bl	HAL_GetTick
 166 0028 431B     		subs	r3, r0, r5
 167 002a 022B     		cmp	r3, #2
 168 002c 57D8     		bhi	.L26
 169              	.L20:
 170 002e 2368     		ldr	r3, [r4]
 171 0030 9A00     		lsls	r2, r3, #2
 172 0032 F7D4     		bmi	.L21
 173 0034 A36A     		ldr	r3, [r4, #40]
 174 0036 3268     		ldr	r2, [r6]
ARM GAS  C:\Users\Brandon\AppData\Local\Temp\cc15zA07.s 			page 4


 175 0038 23F07C73 		bic	r3, r3, #66060288
 176 003c 2D49     		ldr	r1, .L32+4
 177 003e 43EA0253 		orr	r3, r3, r2, lsl #20
 178 0042 A362     		str	r3, [r4, #40]
 179 0044 7568     		ldr	r5, [r6, #4]
 180 0046 D6E90232 		ldrd	r3, r2, [r6, #8]
 181 004a 013D     		subs	r5, r5, #1
 182 004c 501E     		subs	r0, r2, #1
 183 004e 013B     		subs	r3, r3, #1
 184 0050 3269     		ldr	r2, [r6, #16]
 185 0052 C5F30805 		ubfx	r5, r5, #0, #9
 186 0056 5B02     		lsls	r3, r3, #9
 187 0058 0004     		lsls	r0, r0, #16
 188 005a 013A     		subs	r2, r2, #1
 189 005c 9BB2     		uxth	r3, r3
 190 005e 00F4FE00 		and	r0, r0, #8323072
 191 0062 1206     		lsls	r2, r2, #24
 192 0064 0343     		orrs	r3, r3, r0
 193 0066 02F0FE42 		and	r2, r2, #2130706432
 194 006a 2B43     		orrs	r3, r3, r5
 195 006c 1343     		orrs	r3, r3, r2
 196 006e 2364     		str	r3, [r4, #64]
 197 0070 E36A     		ldr	r3, [r4, #44]
 198 0072 7269     		ldr	r2, [r6, #20]
 199 0074 23F44063 		bic	r3, r3, #3072
 200 0078 1343     		orrs	r3, r3, r2
 201 007a E362     		str	r3, [r4, #44]
 202 007c E36A     		ldr	r3, [r4, #44]
 203 007e B269     		ldr	r2, [r6, #24]
 204 0080 23F40073 		bic	r3, r3, #512
 205 0084 1343     		orrs	r3, r3, r2
 206 0086 E362     		str	r3, [r4, #44]
 207 0088 E36A     		ldr	r3, [r4, #44]
 208 008a 23F48073 		bic	r3, r3, #256
 209 008e E362     		str	r3, [r4, #44]
 210 0090 626C     		ldr	r2, [r4, #68]
 211 0092 F369     		ldr	r3, [r6, #28]
 212 0094 1140     		ands	r1, r1, r2
 213 0096 41EAC301 		orr	r1, r1, r3, lsl #3
 214 009a 6164     		str	r1, [r4, #68]
 215 009c E36A     		ldr	r3, [r4, #44]
 216 009e 43F48073 		orr	r3, r3, #256
 217 00a2 E362     		str	r3, [r4, #44]
 218 00a4 E36A     		ldr	r3, [r4, #44]
 219 00a6 F7B1     		cbz	r7, .L31
 220 00a8 012F     		cmp	r7, #1
 221 00aa 0CBF     		ite	eq
 222 00ac 43F40003 		orreq	r3, r3, #8388608
 223 00b0 43F08073 		orrne	r3, r3, #16777216
 224 00b4 E362     		str	r3, [r4, #44]
 225              	.L23:
 226 00b6 0E4B     		ldr	r3, .L32
 227 00b8 1A68     		ldr	r2, [r3]
 228 00ba 1D46     		mov	r5, r3
 229 00bc 42F08052 		orr	r2, r2, #268435456
 230 00c0 1A60     		str	r2, [r3]
 231 00c2 FFF7FEFF 		bl	HAL_GetTick
ARM GAS  C:\Users\Brandon\AppData\Local\Temp\cc15zA07.s 			page 5


 232 00c6 0446     		mov	r4, r0
 233 00c8 04E0     		b	.L25
 234              	.L27:
 235 00ca FFF7FEFF 		bl	HAL_GetTick
 236 00ce 001B     		subs	r0, r0, r4
 237 00d0 0228     		cmp	r0, #2
 238 00d2 04D8     		bhi	.L26
 239              	.L25:
 240 00d4 2B68     		ldr	r3, [r5]
 241 00d6 9B00     		lsls	r3, r3, #2
 242 00d8 F7D5     		bpl	.L27
 243 00da 0020     		movs	r0, #0
 244 00dc F8BD     		pop	{r3, r4, r5, r6, r7, pc}
 245              	.L26:
 246 00de 0320     		movs	r0, #3
 247 00e0 F8BD     		pop	{r3, r4, r5, r6, r7, pc}
 248              	.L28:
 249 00e2 0120     		movs	r0, #1
 250 00e4 F8BD     		pop	{r3, r4, r5, r6, r7, pc}
 251              	.L31:
 252 00e6 43F48003 		orr	r3, r3, #4194304
 253 00ea E362     		str	r3, [r4, #44]
 254 00ec E3E7     		b	.L23
 255              	.L33:
 256 00ee 00BF     		.align	2
 257              	.L32:
 258 00f0 00440258 		.word	1476543488
 259 00f4 0700FFFF 		.word	-65529
 261              		.section	.text.HAL_RCCEx_PeriphCLKConfig,"ax",%progbits
 262              		.align	1
 263              		.p2align 2,,3
 264              		.global	HAL_RCCEx_PeriphCLKConfig
 265              		.syntax unified
 266              		.thumb
 267              		.thumb_func
 268              		.fpu fpv5-d16
 270              	HAL_RCCEx_PeriphCLKConfig:
 271              		@ args = 0, pretend = 0, frame = 0
 272              		@ frame_needed = 0, uses_anonymous_args = 0
 273 0000 2DE9F843 		push	{r3, r4, r5, r6, r7, r8, r9, lr}
 274 0004 0368     		ldr	r3, [r0]
 275 0006 0446     		mov	r4, r0
 276 0008 13F00066 		ands	r6, r3, #134217728
 277 000c 1CD0     		beq	.L35
 278 000e 026E     		ldr	r2, [r0, #96]
 279 0010 B2F5001F 		cmp	r2, #2097152
 280 0014 00F05B84 		beq	.L36
 281 0018 23D8     		bhi	.L37
 282 001a 002A     		cmp	r2, #0
 283 001c 00F09283 		beq	.L38
 284 0020 B2F5801F 		cmp	r2, #1048576
 285 0024 20D1     		bne	.L352
 286 0026 0221     		movs	r1, #2
 287 0028 0430     		adds	r0, r0, #4
 288 002a FFF7FEFF 		bl	RCCEx_PLL2_Config
 289 002e 0646     		mov	r6, r0
 290 0030 002E     		cmp	r6, #0
ARM GAS  C:\Users\Brandon\AppData\Local\Temp\cc15zA07.s 			page 6


 291 0032 40F04984 		bne	.L366
 292              	.L42:
 293 0036 226E     		ldr	r2, [r4, #96]
 294 0038 2368     		ldr	r3, [r4]
 295              	.L40:
 296 003a 9948     		ldr	r0, .L396
 297 003c 0026     		movs	r6, #0
 298 003e 016D     		ldr	r1, [r0, #80]
 299 0040 21F44011 		bic	r1, r1, #3145728
 300 0044 0A43     		orrs	r2, r2, r1
 301 0046 0265     		str	r2, [r0, #80]
 302              	.L35:
 303 0048 D805     		lsls	r0, r3, #23
 304 004a 11D5     		bpl	.L353
 305              	.L367:
 306 004c 626D     		ldr	r2, [r4, #84]
 307 004e 042A     		cmp	r2, #4
 308 0050 00F2D284 		bhi	.L160
 309 0054 DFE812F0 		tbh	[pc, r2, lsl #1]
 310              	.L45:
 311 0058 4404     		.2byte	(.L48-.L45)/2
 312 005a 4B04     		.2byte	(.L47-.L45)/2
 313 005c 3004     		.2byte	(.L46-.L45)/2
 314 005e 9B02     		.2byte	(.L161-.L45)/2
 315 0060 9B02     		.2byte	(.L161-.L45)/2
 316              		.p2align 1
 317              	.L37:
 318 0062 B2F5401F 		cmp	r2, #3145728
 319 0066 E8D0     		beq	.L40
 320              	.L352:
 321 0068 D805     		lsls	r0, r3, #23
 322 006a 4FF00106 		mov	r6, #1
 323 006e EDD4     		bmi	.L367
 324              	.L353:
 325 0070 3546     		mov	r5, r6
 326              	.L43:
 327 0072 5905     		lsls	r1, r3, #21
 328 0074 1FD5     		bpl	.L49
 329 0076 D4F8A020 		ldr	r2, [r4, #160]
 330 007a B2F5800F 		cmp	r2, #4194304
 331 007e 00F00A84 		beq	.L50
 332 0082 00F2CB80 		bhi	.L51
 333 0086 002A     		cmp	r2, #0
 334 0088 00F06883 		beq	.L52
 335 008c B2F5001F 		cmp	r2, #2097152
 336 0090 40F0CE80 		bne	.L354
 337 0094 0021     		movs	r1, #0
 338 0096 201D     		adds	r0, r4, #4
 339 0098 FFF7FEFF 		bl	RCCEx_PLL2_Config
 340 009c 2368     		ldr	r3, [r4]
 341 009e 0546     		mov	r5, r0
 342              	.L54:
 343 00a0 002D     		cmp	r5, #0
 344 00a2 40F04B83 		bne	.L163
 345 00a6 7E49     		ldr	r1, .L396
 346 00a8 D4F8A000 		ldr	r0, [r4, #160]
 347 00ac 8A6D     		ldr	r2, [r1, #88]
ARM GAS  C:\Users\Brandon\AppData\Local\Temp\cc15zA07.s 			page 7


 348 00ae 22F46002 		bic	r2, r2, #14680064
 349 00b2 0243     		orrs	r2, r2, r0
 350 00b4 8A65     		str	r2, [r1, #88]
 351              	.L49:
 352 00b6 1A05     		lsls	r2, r3, #20
 353 00b8 1FD5     		bpl	.L55
 354 00ba D4F8A420 		ldr	r2, [r4, #164]
 355 00be B2F1007F 		cmp	r2, #33554432
 356 00c2 00F01B84 		beq	.L56
 357 00c6 00F2B680 		bhi	.L57
 358 00ca 002A     		cmp	r2, #0
 359 00cc 00F04083 		beq	.L58
 360 00d0 B2F1807F 		cmp	r2, #16777216
 361 00d4 40F0B980 		bne	.L355
 362 00d8 0021     		movs	r1, #0
 363 00da 201D     		adds	r0, r4, #4
 364 00dc FFF7FEFF 		bl	RCCEx_PLL2_Config
 365 00e0 2368     		ldr	r3, [r4]
 366 00e2 0546     		mov	r5, r0
 367              	.L60:
 368 00e4 002D     		cmp	r5, #0
 369 00e6 40F02B83 		bne	.L164
 370 00ea 6D49     		ldr	r1, .L396
 371 00ec D4F8A400 		ldr	r0, [r4, #164]
 372 00f0 8A6D     		ldr	r2, [r1, #88]
 373 00f2 22F0E062 		bic	r2, r2, #117440512
 374 00f6 0243     		orrs	r2, r2, r0
 375 00f8 8A65     		str	r2, [r1, #88]
 376              	.L55:
 377 00fa 9F01     		lsls	r7, r3, #6
 378 00fc 18D5     		bpl	.L61
 379 00fe A26C     		ldr	r2, [r4, #72]
 380 0100 202A     		cmp	r2, #32
 381 0102 00F09883 		beq	.L62
 382 0106 00F2A380 		bhi	.L63
 383 010a 3AB1     		cbz	r2, .L64
 384 010c 102A     		cmp	r2, #16
 385 010e 40F0A280 		bne	.L356
 386 0112 6349     		ldr	r1, .L396
 387 0114 CA6A     		ldr	r2, [r1, #44]
 388 0116 42F40032 		orr	r2, r2, #131072
 389 011a CA62     		str	r2, [r1, #44]
 390              	.L64:
 391 011c 002D     		cmp	r5, #0
 392 011e 40F04283 		bne	.L165
 393              	.L389:
 394 0122 5F49     		ldr	r1, .L396
 395 0124 A06C     		ldr	r0, [r4, #72]
 396 0126 CA6C     		ldr	r2, [r1, #76]
 397 0128 22F03002 		bic	r2, r2, #48
 398 012c 0243     		orrs	r2, r2, r0
 399 012e CA64     		str	r2, [r1, #76]
 400              	.L61:
 401 0130 D804     		lsls	r0, r3, #19
 402 0132 1DD5     		bpl	.L66
 403 0134 A26D     		ldr	r2, [r4, #88]
 404 0136 B2F5005F 		cmp	r2, #8192
ARM GAS  C:\Users\Brandon\AppData\Local\Temp\cc15zA07.s 			page 8


 405 013a 00F0B583 		beq	.L67
 406 013e 00F28D80 		bhi	.L68
 407 0142 002A     		cmp	r2, #0
 408 0144 00F01083 		beq	.L69
 409 0148 B2F5805F 		cmp	r2, #4096
 410 014c 40F08E80 		bne	.L357
 411 0150 0021     		movs	r1, #0
 412 0152 201D     		adds	r0, r4, #4
 413 0154 FFF7FEFF 		bl	RCCEx_PLL2_Config
 414 0158 2368     		ldr	r3, [r4]
 415 015a 0546     		mov	r5, r0
 416              	.L71:
 417 015c 002D     		cmp	r5, #0
 418 015e 40F0E982 		bne	.L166
 419 0162 4F49     		ldr	r1, .L396
 420 0164 A06D     		ldr	r0, [r4, #88]
 421 0166 0A6D     		ldr	r2, [r1, #80]
 422 0168 22F4E042 		bic	r2, r2, #28672
 423 016c 0243     		orrs	r2, r2, r0
 424 016e 0A65     		str	r2, [r1, #80]
 425              	.L66:
 426 0170 9904     		lsls	r1, r3, #18
 427 0172 19D5     		bpl	.L72
 428 0174 E26D     		ldr	r2, [r4, #92]
 429 0176 B2F5003F 		cmp	r2, #131072
 430 017a 00F03683 		beq	.L73
 431 017e 78D8     		bhi	.L74
 432 0180 42B1     		cbz	r2, .L75
 433 0182 B2F5803F 		cmp	r2, #65536
 434 0186 7CD1     		bne	.L358
 435 0188 0121     		movs	r1, #1
 436 018a 201D     		adds	r0, r4, #4
 437 018c FFF7FEFF 		bl	RCCEx_PLL2_Config
 438 0190 2368     		ldr	r3, [r4]
 439 0192 0546     		mov	r5, r0
 440              	.L75:
 441 0194 002D     		cmp	r5, #0
 442 0196 40F01283 		bne	.L167
 443              	.L385:
 444 019a 4149     		ldr	r1, .L396
 445 019c E06D     		ldr	r0, [r4, #92]
 446 019e 0A6D     		ldr	r2, [r1, #80]
 447 01a0 22F4E022 		bic	r2, r2, #458752
 448 01a4 0243     		orrs	r2, r2, r0
 449 01a6 0A65     		str	r2, [r1, #80]
 450              	.L72:
 451 01a8 5A04     		lsls	r2, r3, #17
 452 01aa 1BD5     		bpl	.L77
 453 01ac D4F8A820 		ldr	r2, [r4, #168]
 454 01b0 B2F1005F 		cmp	r2, #536870912
 455 01b4 00F05B83 		beq	.L78
 456 01b8 66D8     		bhi	.L79
 457 01ba 42B1     		cbz	r2, .L80
 458 01bc B2F1805F 		cmp	r2, #268435456
 459 01c0 6AD1     		bne	.L359
 460 01c2 0121     		movs	r1, #1
 461 01c4 201D     		adds	r0, r4, #4
ARM GAS  C:\Users\Brandon\AppData\Local\Temp\cc15zA07.s 			page 9


 462 01c6 FFF7FEFF 		bl	RCCEx_PLL2_Config
 463 01ca 2368     		ldr	r3, [r4]
 464 01cc 0546     		mov	r5, r0
 465              	.L80:
 466 01ce 002D     		cmp	r5, #0
 467 01d0 40F0EB82 		bne	.L168
 468              	.L391:
 469 01d4 3249     		ldr	r1, .L396
 470 01d6 D4F8A800 		ldr	r0, [r4, #168]
 471 01da 8A6D     		ldr	r2, [r1, #88]
 472 01dc 22F0E042 		bic	r2, r2, #1879048192
 473 01e0 0243     		orrs	r2, r2, r0
 474 01e2 8A65     		str	r2, [r1, #88]
 475              	.L77:
 476 01e4 1F04     		lsls	r7, r3, #16
 477 01e6 0DD5     		bpl	.L82
 478 01e8 A26E     		ldr	r2, [r4, #104]
 479 01ea B2F1805F 		cmp	r2, #268435456
 480 01ee 00F01083 		beq	.L83
 481 01f2 B2F1005F 		cmp	r2, #536870912
 482 01f6 00F0D681 		beq	.L84
 483 01fa 002A     		cmp	r2, #0
 484 01fc 00F0D981 		beq	.L85
 485 0200 0126     		movs	r6, #1
 486 0202 3546     		mov	r5, r6
 487              	.L82:
 488 0204 D801     		lsls	r0, r3, #7
 489 0206 57D5     		bpl	.L86
 490 0208 626C     		ldr	r2, [r4, #68]
 491 020a 032A     		cmp	r2, #3
 492 020c 00F2F783 		bhi	.L170
 493 0210 DFE812F0 		tbh	[pc, r2, lsl #1]
 494              	.L88:
 495 0214 4E00     		.2byte	(.L87-.L88)/2
 496 0216 1A03     		.2byte	(.L90-.L88)/2
 497 0218 4800     		.2byte	(.L89-.L88)/2
 498 021a 4E00     		.2byte	(.L87-.L88)/2
 499              		.p2align 1
 500              	.L51:
 501 021c 22F40011 		bic	r1, r2, #2097152
 502 0220 B1F5000F 		cmp	r1, #8388608
 503 0224 3FF43CAF 		beq	.L54
 504 0228 B2F5C00F 		cmp	r2, #6291456
 505 022c 3FF438AF 		beq	.L54
 506              	.L354:
 507 0230 0126     		movs	r6, #1
 508 0232 3546     		mov	r5, r6
 509 0234 3FE7     		b	.L49
 510              	.L57:
 511 0236 22F08071 		bic	r1, r2, #16777216
 512 023a B1F1806F 		cmp	r1, #67108864
 513 023e 3FF451AF 		beq	.L60
 514 0242 B2F1407F 		cmp	r2, #50331648
 515 0246 3FF44DAF 		beq	.L60
 516              	.L355:
 517 024a 0126     		movs	r6, #1
 518 024c 3546     		mov	r5, r6
ARM GAS  C:\Users\Brandon\AppData\Local\Temp\cc15zA07.s 			page 10


 519 024e 54E7     		b	.L55
 520              	.L63:
 521 0250 302A     		cmp	r2, #48
 522 0252 3FF463AF 		beq	.L64
 523              	.L356:
 524 0256 0126     		movs	r6, #1
 525 0258 3546     		mov	r5, r6
 526 025a 69E7     		b	.L61
 527              	.L68:
 528 025c B2F5405F 		cmp	r2, #12288
 529 0260 3FF47CAF 		beq	.L71
 530 0264 B2F5804F 		cmp	r2, #16384
 531 0268 3FF478AF 		beq	.L71
 532              	.L357:
 533 026c 0126     		movs	r6, #1
 534 026e 3546     		mov	r5, r6
 535 0270 7EE7     		b	.L66
 536              	.L74:
 537 0272 22F48031 		bic	r1, r2, #65536
 538 0276 B1F5802F 		cmp	r1, #262144
 539 027a 8BD0     		beq	.L75
 540 027c B2F5403F 		cmp	r2, #196608
 541 0280 88D0     		beq	.L75
 542              	.L358:
 543 0282 0126     		movs	r6, #1
 544 0284 3546     		mov	r5, r6
 545 0286 8FE7     		b	.L72
 546              	.L79:
 547 0288 22F08051 		bic	r1, r2, #268435456
 548 028c B1F1804F 		cmp	r1, #1073741824
 549 0290 9DD0     		beq	.L80
 550 0292 B2F1405F 		cmp	r2, #805306368
 551 0296 9AD0     		beq	.L80
 552              	.L359:
 553 0298 0126     		movs	r6, #1
 554 029a 3546     		mov	r5, r6
 555 029c A2E7     		b	.L77
 556              	.L397:
 557 029e 00BF     		.align	2
 558              	.L396:
 559 02a0 00440258 		.word	1476543488
 560              	.L89:
 561 02a4 0221     		movs	r1, #2
 562 02a6 201D     		adds	r0, r4, #4
 563 02a8 FFF7FEFF 		bl	RCCEx_PLL2_Config
 564 02ac 2368     		ldr	r3, [r4]
 565 02ae 0546     		mov	r5, r0
 566              	.L87:
 567 02b0 002D     		cmp	r5, #0
 568 02b2 00F07082 		beq	.L368
 569              	.L171:
 570 02b6 2E46     		mov	r6, r5
 571              	.L86:
 572 02b8 5902     		lsls	r1, r3, #9
 573 02ba 00F1E681 		bmi	.L369
 574              	.L91:
 575 02be DF07     		lsls	r7, r3, #31
ARM GAS  C:\Users\Brandon\AppData\Local\Temp\cc15zA07.s 			page 11


 576 02c0 39D5     		bpl	.L101
 577 02c2 626F     		ldr	r2, [r4, #116]
 578 02c4 282A     		cmp	r2, #40
 579 02c6 00F25F81 		bhi	.L172
 580 02ca DFE812F0 		tbh	[pc, r2, lsl #1]
 581              	.L103:
 582 02ce 3000     		.2byte	(.L102-.L103)/2
 583 02d0 5D01     		.2byte	(.L172-.L103)/2
 584 02d2 5D01     		.2byte	(.L172-.L103)/2
 585 02d4 5D01     		.2byte	(.L172-.L103)/2
 586 02d6 5D01     		.2byte	(.L172-.L103)/2
 587 02d8 5D01     		.2byte	(.L172-.L103)/2
 588 02da 5D01     		.2byte	(.L172-.L103)/2
 589 02dc 5D01     		.2byte	(.L172-.L103)/2
 590 02de 3403     		.2byte	(.L105-.L103)/2
 591 02e0 5D01     		.2byte	(.L172-.L103)/2
 592 02e2 5D01     		.2byte	(.L172-.L103)/2
 593 02e4 5D01     		.2byte	(.L172-.L103)/2
 594 02e6 5D01     		.2byte	(.L172-.L103)/2
 595 02e8 5D01     		.2byte	(.L172-.L103)/2
 596 02ea 5D01     		.2byte	(.L172-.L103)/2
 597 02ec 5D01     		.2byte	(.L172-.L103)/2
 598 02ee 2900     		.2byte	(.L104-.L103)/2
 599 02f0 5D01     		.2byte	(.L172-.L103)/2
 600 02f2 5D01     		.2byte	(.L172-.L103)/2
 601 02f4 5D01     		.2byte	(.L172-.L103)/2
 602 02f6 5D01     		.2byte	(.L172-.L103)/2
 603 02f8 5D01     		.2byte	(.L172-.L103)/2
 604 02fa 5D01     		.2byte	(.L172-.L103)/2
 605 02fc 5D01     		.2byte	(.L172-.L103)/2
 606 02fe 3000     		.2byte	(.L102-.L103)/2
 607 0300 5D01     		.2byte	(.L172-.L103)/2
 608 0302 5D01     		.2byte	(.L172-.L103)/2
 609 0304 5D01     		.2byte	(.L172-.L103)/2
 610 0306 5D01     		.2byte	(.L172-.L103)/2
 611 0308 5D01     		.2byte	(.L172-.L103)/2
 612 030a 5D01     		.2byte	(.L172-.L103)/2
 613 030c 5D01     		.2byte	(.L172-.L103)/2
 614 030e 3000     		.2byte	(.L102-.L103)/2
 615 0310 5D01     		.2byte	(.L172-.L103)/2
 616 0312 5D01     		.2byte	(.L172-.L103)/2
 617 0314 5D01     		.2byte	(.L172-.L103)/2
 618 0316 5D01     		.2byte	(.L172-.L103)/2
 619 0318 5D01     		.2byte	(.L172-.L103)/2
 620 031a 5D01     		.2byte	(.L172-.L103)/2
 621 031c 5D01     		.2byte	(.L172-.L103)/2
 622 031e 3000     		.2byte	(.L102-.L103)/2
 623              		.p2align 1
 624              	.L104:
 625 0320 0121     		movs	r1, #1
 626 0322 04F12400 		add	r0, r4, #36
 627 0326 FFF7FEFF 		bl	RCCEx_PLL3_Config
 628 032a 2368     		ldr	r3, [r4]
 629 032c 0546     		mov	r5, r0
 630              	.L102:
 631 032e 002D     		cmp	r5, #0
 632 0330 00F05182 		beq	.L370
ARM GAS  C:\Users\Brandon\AppData\Local\Temp\cc15zA07.s 			page 12


 633              	.L173:
 634 0334 2E46     		mov	r6, r5
 635              	.L101:
 636 0336 9807     		lsls	r0, r3, #30
 637 0338 16D5     		bpl	.L106
 638 033a 226F     		ldr	r2, [r4, #112]
 639 033c 052A     		cmp	r2, #5
 640 033e 00F26483 		bhi	.L174
 641 0342 DFE812F0 		tbh	[pc, r2, lsl #1]
 642              	.L108:
 643 0346 0D00     		.2byte	(.L107-.L108)/2
 644 0348 E402     		.2byte	(.L110-.L108)/2
 645 034a 0600     		.2byte	(.L109-.L108)/2
 646 034c 0D00     		.2byte	(.L107-.L108)/2
 647 034e 0D00     		.2byte	(.L107-.L108)/2
 648 0350 0D00     		.2byte	(.L107-.L108)/2
 649              		.p2align 1
 650              	.L109:
 651 0352 0121     		movs	r1, #1
 652 0354 04F12400 		add	r0, r4, #36
 653 0358 FFF7FEFF 		bl	RCCEx_PLL3_Config
 654 035c 2368     		ldr	r3, [r4]
 655 035e 0546     		mov	r5, r0
 656              	.L107:
 657 0360 002D     		cmp	r5, #0
 658 0362 00F02482 		beq	.L371
 659              	.L175:
 660 0366 2E46     		mov	r6, r5
 661              	.L106:
 662 0368 5907     		lsls	r1, r3, #29
 663 036a 17D5     		bpl	.L111
 664 036c D4F88C20 		ldr	r2, [r4, #140]
 665 0370 052A     		cmp	r2, #5
 666 0372 00F24783 		bhi	.L176
 667 0376 DFE812F0 		tbh	[pc, r2, lsl #1]
 668              	.L113:
 669 037a 0D00     		.2byte	(.L112-.L113)/2
 670 037c D402     		.2byte	(.L115-.L113)/2
 671 037e 0600     		.2byte	(.L114-.L113)/2
 672 0380 0D00     		.2byte	(.L112-.L113)/2
 673 0382 0D00     		.2byte	(.L112-.L113)/2
 674 0384 0D00     		.2byte	(.L112-.L113)/2
 675              		.p2align 1
 676              	.L114:
 677 0386 0121     		movs	r1, #1
 678 0388 04F12400 		add	r0, r4, #36
 679 038c FFF7FEFF 		bl	RCCEx_PLL3_Config
 680 0390 2368     		ldr	r3, [r4]
 681 0392 0546     		mov	r5, r0
 682              	.L112:
 683 0394 002D     		cmp	r5, #0
 684 0396 00F0ED81 		beq	.L372
 685              	.L177:
 686 039a 2E46     		mov	r6, r5
 687              	.L111:
 688 039c 9A06     		lsls	r2, r3, #26
 689 039e 1DD5     		bpl	.L116
ARM GAS  C:\Users\Brandon\AppData\Local\Temp\cc15zA07.s 			page 13


 690 03a0 D4F88820 		ldr	r2, [r4, #136]
 691 03a4 B2F1005F 		cmp	r2, #536870912
 692 03a8 00F05782 		beq	.L117
 693 03ac 00F20C81 		bhi	.L118
 694 03b0 4AB1     		cbz	r2, .L119
 695 03b2 B2F1805F 		cmp	r2, #268435456
 696 03b6 40F01181 		bne	.L361
 697 03ba 0021     		movs	r1, #0
 698 03bc 201D     		adds	r0, r4, #4
 699 03be FFF7FEFF 		bl	RCCEx_PLL2_Config
 700 03c2 2368     		ldr	r3, [r4]
 701 03c4 0546     		mov	r5, r0
 702              	.L119:
 703 03c6 002D     		cmp	r5, #0
 704 03c8 40F0DF81 		bne	.L178
 705              	.L390:
 706 03cc B449     		ldr	r1, .L398
 707 03ce D4F88800 		ldr	r0, [r4, #136]
 708 03d2 4A6D     		ldr	r2, [r1, #84]
 709 03d4 22F0E042 		bic	r2, r2, #1879048192
 710 03d8 0243     		orrs	r2, r2, r0
 711 03da 4A65     		str	r2, [r1, #84]
 712              	.L116:
 713 03dc 5F06     		lsls	r7, r3, #25
 714 03de 1DD5     		bpl	.L121
 715 03e0 D4F89420 		ldr	r2, [r4, #148]
 716 03e4 B2F5006F 		cmp	r2, #2048
 717 03e8 00F01B82 		beq	.L122
 718 03ec 00F21481 		bhi	.L123
 719 03f0 4AB1     		cbz	r2, .L124
 720 03f2 B2F5806F 		cmp	r2, #1024
 721 03f6 40F01981 		bne	.L362
 722 03fa 0021     		movs	r1, #0
 723 03fc 201D     		adds	r0, r4, #4
 724 03fe FFF7FEFF 		bl	RCCEx_PLL2_Config
 725 0402 2368     		ldr	r3, [r4]
 726 0404 0546     		mov	r5, r0
 727              	.L124:
 728 0406 002D     		cmp	r5, #0
 729 0408 40F0C181 		bne	.L179
 730              	.L388:
 731 040c A449     		ldr	r1, .L398
 732 040e D4F89400 		ldr	r0, [r4, #148]
 733 0412 8A6D     		ldr	r2, [r1, #88]
 734 0414 22F4E052 		bic	r2, r2, #7168
 735 0418 0243     		orrs	r2, r2, r0
 736 041a 8A65     		str	r2, [r1, #88]
 737              	.L121:
 738 041c 1806     		lsls	r0, r3, #24
 739 041e 1DD5     		bpl	.L126
 740 0420 D4F89820 		ldr	r2, [r4, #152]
 741 0424 B2F5804F 		cmp	r2, #16384
 742 0428 00F0E981 		beq	.L127
 743 042c 00F2E780 		bhi	.L128
 744 0430 4AB1     		cbz	r2, .L129
 745 0432 B2F5005F 		cmp	r2, #8192
 746 0436 40F0EC80 		bne	.L363
ARM GAS  C:\Users\Brandon\AppData\Local\Temp\cc15zA07.s 			page 14


 747 043a 0021     		movs	r1, #0
 748 043c 201D     		adds	r0, r4, #4
 749 043e FFF7FEFF 		bl	RCCEx_PLL2_Config
 750 0442 2368     		ldr	r3, [r4]
 751 0444 0546     		mov	r5, r0
 752              	.L129:
 753 0446 002D     		cmp	r5, #0
 754 0448 40F0A381 		bne	.L180
 755              	.L386:
 756 044c 9449     		ldr	r1, .L398
 757 044e D4F89800 		ldr	r0, [r4, #152]
 758 0452 8A6D     		ldr	r2, [r1, #88]
 759 0454 22F46042 		bic	r2, r2, #57344
 760 0458 0243     		orrs	r2, r2, r0
 761 045a 8A65     		str	r2, [r1, #88]
 762              	.L126:
 763 045c 1907     		lsls	r1, r3, #28
 764 045e 0AD5     		bpl	.L131
 765 0460 E16F     		ldr	r1, [r4, #124]
 766 0462 B1F5805F 		cmp	r1, #4096
 767 0466 00F00C82 		beq	.L373
 768              	.L132:
 769 046a 8D48     		ldr	r0, .L398
 770 046c 426D     		ldr	r2, [r0, #84]
 771 046e 22F44052 		bic	r2, r2, #12288
 772 0472 0A43     		orrs	r2, r2, r1
 773 0474 4265     		str	r2, [r0, #84]
 774              	.L131:
 775 0476 DA06     		lsls	r2, r3, #27
 776 0478 0BD5     		bpl	.L134
 777 047a D4F89010 		ldr	r1, [r4, #144]
 778 047e B1F5807F 		cmp	r1, #256
 779 0482 00F08D82 		beq	.L374
 780              	.L135:
 781 0486 8648     		ldr	r0, .L398
 782 0488 826D     		ldr	r2, [r0, #88]
 783 048a 22F44072 		bic	r2, r2, #768
 784 048e 0A43     		orrs	r2, r2, r1
 785 0490 8265     		str	r2, [r0, #88]
 786              	.L134:
 787 0492 1F03     		lsls	r7, r3, #12
 788 0494 0ED5     		bpl	.L137
 789 0496 D4F89C10 		ldr	r1, [r4, #156]
 790 049a B1F5803F 		cmp	r1, #65536
 791 049e 00F0DE80 		beq	.L138
 792 04a2 B1F5003F 		cmp	r1, #131072
 793 04a6 00F0E180 		beq	.L139
 794 04aa 0029     		cmp	r1, #0
 795 04ac 00F06F82 		beq	.L375
 796 04b0 0126     		movs	r6, #1
 797 04b2 3546     		mov	r5, r6
 798              	.L137:
 799 04b4 5803     		lsls	r0, r3, #13
 800 04b6 0FD5     		bpl	.L140
 801              	.L381:
 802 04b8 D4F88020 		ldr	r2, [r4, #128]
 803 04bc B2F5001F 		cmp	r2, #2097152
ARM GAS  C:\Users\Brandon\AppData\Local\Temp\cc15zA07.s 			page 15


 804 04c0 00F0B780 		beq	.L141
 805 04c4 B2F5401F 		cmp	r2, #3145728
 806 04c8 00F0BA80 		beq	.L142
 807 04cc B2F5801F 		cmp	r2, #1048576
 808 04d0 00F05482 		beq	.L376
 809 04d4 0126     		movs	r6, #1
 810 04d6 3546     		mov	r5, r6
 811              	.L140:
 812 04d8 D903     		lsls	r1, r3, #15
 813 04da 17D5     		bpl	.L143
 814              	.L380:
 815 04dc E26C     		ldr	r2, [r4, #76]
 816 04de 002A     		cmp	r2, #0
 817 04e0 00F03782 		beq	.L144
 818 04e4 B2F5803F 		cmp	r2, #65536
 819 04e8 40F02181 		bne	.L377
 820 04ec 0221     		movs	r1, #2
 821 04ee 201D     		adds	r0, r4, #4
 822 04f0 FFF7FEFF 		bl	RCCEx_PLL2_Config
 823 04f4 0546     		mov	r5, r0
 824 04f6 2368     		ldr	r3, [r4]
 825 04f8 002D     		cmp	r5, #0
 826 04fa 40F07481 		bne	.L185
 827              	.L392:
 828 04fe 6849     		ldr	r1, .L398
 829 0500 E06C     		ldr	r0, [r4, #76]
 830 0502 CA6C     		ldr	r2, [r1, #76]
 831 0504 22F48032 		bic	r2, r2, #65536
 832 0508 0243     		orrs	r2, r2, r0
 833 050a CA64     		str	r2, [r1, #76]
 834              	.L143:
 835 050c 9A00     		lsls	r2, r3, #2
 836 050e 00F10381 		bmi	.L378
 837              	.L147:
 838 0512 9F03     		lsls	r7, r3, #14
 839 0514 2BD4     		bmi	.L149
 840 0516 301E     		subs	r0, r6, #0
 841 0518 18BF     		it	ne
 842 051a 0120     		movne	r0, #1
 843              	.L150:
 844 051c DD02     		lsls	r5, r3, #11
 845 051e 06D5     		bpl	.L154
 846 0520 5F49     		ldr	r1, .L398
 847 0522 E56E     		ldr	r5, [r4, #108]
 848 0524 0A6D     		ldr	r2, [r1, #80]
 849 0526 22F00042 		bic	r2, r2, #-2147483648
 850 052a 2A43     		orrs	r2, r2, r5
 851 052c 0A65     		str	r2, [r1, #80]
 852              	.L154:
 853 052e 9902     		lsls	r1, r3, #10
 854 0530 06D5     		bpl	.L155
 855 0532 5B49     		ldr	r1, .L398
 856 0534 656E     		ldr	r5, [r4, #100]
 857 0536 0A6D     		ldr	r2, [r1, #80]
 858 0538 22F08072 		bic	r2, r2, #16777216
 859 053c 2A43     		orrs	r2, r2, r5
 860 053e 0A65     		str	r2, [r1, #80]
ARM GAS  C:\Users\Brandon\AppData\Local\Temp\cc15zA07.s 			page 16


 861              	.L155:
 862 0540 5A00     		lsls	r2, r3, #1
 863 0542 09D5     		bpl	.L156
 864 0544 564A     		ldr	r2, .L398
 865 0546 1169     		ldr	r1, [r2, #16]
 866 0548 21F40041 		bic	r1, r1, #32768
 867 054c 1161     		str	r1, [r2, #16]
 868 054e 1169     		ldr	r1, [r2, #16]
 869 0550 D4F8B050 		ldr	r5, [r4, #176]
 870 0554 2943     		orrs	r1, r1, r5
 871 0556 1161     		str	r1, [r2, #16]
 872              	.L156:
 873 0558 002B     		cmp	r3, #0
 874 055a 06DA     		bge	.L157
 875 055c 504A     		ldr	r2, .L398
 876 055e 216D     		ldr	r1, [r4, #80]
 877 0560 D36C     		ldr	r3, [r2, #76]
 878 0562 23F04053 		bic	r3, r3, #805306368
 879 0566 0B43     		orrs	r3, r3, r1
 880 0568 D364     		str	r3, [r2, #76]
 881              	.L157:
 882 056a BDE8F883 		pop	{r3, r4, r5, r6, r7, r8, r9, pc}
 883              	.L149:
 884 056e A26F     		ldr	r2, [r4, #120]
 885 0570 B2F5807F 		cmp	r2, #256
 886 0574 00F0F681 		beq	.L151
 887 0578 33D9     		bls	.L379
 888 057a 22F48071 		bic	r1, r2, #256
 889 057e B1F5007F 		cmp	r1, #512
 890 0582 30D0     		beq	.L153
 891              	.L186:
 892 0584 0120     		movs	r0, #1
 893 0586 C9E7     		b	.L150
 894              	.L172:
 895 0588 0126     		movs	r6, #1
 896 058a 3546     		mov	r5, r6
 897 058c D3E6     		b	.L101
 898              	.L161:
 899 058e 3546     		mov	r5, r6
 900              	.L44:
 901 0590 002D     		cmp	r5, #0
 902 0592 40F0D180 		bne	.L162
 903 0596 4249     		ldr	r1, .L398
 904 0598 606D     		ldr	r0, [r4, #84]
 905 059a 0A6D     		ldr	r2, [r1, #80]
 906 059c 22F00702 		bic	r2, r2, #7
 907 05a0 0243     		orrs	r2, r2, r0
 908 05a2 0A65     		str	r2, [r1, #80]
 909 05a4 65E5     		b	.L43
 910              	.L84:
 911 05a6 0121     		movs	r1, #1
 912 05a8 201D     		adds	r0, r4, #4
 913 05aa FFF7FEFF 		bl	RCCEx_PLL2_Config
 914 05ae 2368     		ldr	r3, [r4]
 915 05b0 0546     		mov	r5, r0
 916              	.L85:
 917 05b2 002D     		cmp	r5, #0
ARM GAS  C:\Users\Brandon\AppData\Local\Temp\cc15zA07.s 			page 17


 918 05b4 40F0E780 		bne	.L169
 919              	.L387:
 920 05b8 3949     		ldr	r1, .L398
 921 05ba A06E     		ldr	r0, [r4, #104]
 922 05bc 0A6D     		ldr	r2, [r1, #80]
 923 05be 22F04052 		bic	r2, r2, #805306368
 924 05c2 0243     		orrs	r2, r2, r0
 925 05c4 0A65     		str	r2, [r1, #80]
 926 05c6 1DE6     		b	.L82
 927              	.L118:
 928 05c8 22F08051 		bic	r1, r2, #268435456
 929 05cc B1F1804F 		cmp	r1, #1073741824
 930 05d0 3FF4F9AE 		beq	.L119
 931 05d4 B2F1405F 		cmp	r2, #805306368
 932 05d8 3FF4F5AE 		beq	.L119
 933              	.L361:
 934 05dc 0126     		movs	r6, #1
 935 05de 3546     		mov	r5, r6
 936 05e0 FCE6     		b	.L116
 937              	.L379:
 938 05e2 002A     		cmp	r2, #0
 939 05e4 CED1     		bne	.L186
 940              	.L153:
 941 05e6 002D     		cmp	r5, #0
 942 05e8 CCD1     		bne	.L186
 943              	.L393:
 944 05ea 2D4D     		ldr	r5, .L398
 945 05ec 301E     		subs	r0, r6, #0
 946 05ee 696D     		ldr	r1, [r5, #84]
 947 05f0 18BF     		it	ne
 948 05f2 0120     		movne	r0, #1
 949 05f4 21F44071 		bic	r1, r1, #768
 950 05f8 0A43     		orrs	r2, r2, r1
 951 05fa 6A65     		str	r2, [r5, #84]
 952 05fc 8EE7     		b	.L150
 953              	.L128:
 954 05fe 22F40051 		bic	r1, r2, #8192
 955 0602 B1F5004F 		cmp	r1, #32768
 956 0606 3FF41EAF 		beq	.L129
 957 060a B2F5C04F 		cmp	r2, #24576
 958 060e 3FF41AAF 		beq	.L129
 959              	.L363:
 960 0612 0126     		movs	r6, #1
 961 0614 3546     		mov	r5, r6
 962 0616 21E7     		b	.L126
 963              	.L123:
 964 0618 22F48061 		bic	r1, r2, #1024
 965 061c B1F5805F 		cmp	r1, #4096
 966 0620 3FF4F1AE 		beq	.L124
 967 0624 B2F5406F 		cmp	r2, #3072
 968 0628 3FF4EDAE 		beq	.L124
 969              	.L362:
 970 062c 0126     		movs	r6, #1
 971 062e 3546     		mov	r5, r6
 972 0630 F4E6     		b	.L121
 973              	.L141:
 974 0632 0121     		movs	r1, #1
ARM GAS  C:\Users\Brandon\AppData\Local\Temp\cc15zA07.s 			page 18


 975 0634 04F12400 		add	r0, r4, #36
 976 0638 FFF7FEFF 		bl	RCCEx_PLL3_Config
 977 063c 2368     		ldr	r3, [r4]
 978 063e 0546     		mov	r5, r0
 979              	.L142:
 980 0640 002D     		cmp	r5, #0
 981 0642 40F0C380 		bne	.L184
 982              	.L394:
 983 0646 1649     		ldr	r1, .L398
 984 0648 D4F88000 		ldr	r0, [r4, #128]
 985 064c 4A6D     		ldr	r2, [r1, #84]
 986 064e 22F44012 		bic	r2, r2, #3145728
 987 0652 0243     		orrs	r2, r2, r0
 988 0654 4A65     		str	r2, [r1, #84]
 989 0656 D903     		lsls	r1, r3, #15
 990 0658 7FF558AF 		bpl	.L143
 991 065c 3EE7     		b	.L380
 992              	.L138:
 993 065e 0221     		movs	r1, #2
 994 0660 04F12400 		add	r0, r4, #36
 995 0664 FFF7FEFF 		bl	RCCEx_PLL3_Config
 996 0668 2368     		ldr	r3, [r4]
 997 066a 0546     		mov	r5, r0
 998              	.L139:
 999 066c 002D     		cmp	r5, #0
 1000 066e 40F0A880 		bne	.L182
 1001              	.L395:
 1002 0672 0B49     		ldr	r1, .L398
 1003 0674 D4F89C00 		ldr	r0, [r4, #156]
 1004 0678 8A6D     		ldr	r2, [r1, #88]
 1005 067a 22F44032 		bic	r2, r2, #196608
 1006 067e 0243     		orrs	r2, r2, r0
 1007 0680 5803     		lsls	r0, r3, #13
 1008 0682 8A65     		str	r2, [r1, #88]
 1009 0684 7FF528AF 		bpl	.L140
 1010 0688 16E7     		b	.L381
 1011              	.L369:
 1012 068a 064B     		ldr	r3, .L398+4
 1013 068c 1A68     		ldr	r2, [r3]
 1014 068e 9846     		mov	r8, r3
 1015 0690 42F48072 		orr	r2, r2, #256
 1016 0694 1A60     		str	r2, [r3]
 1017 0696 FFF7FEFF 		bl	HAL_GetTick
 1018 069a 0746     		mov	r7, r0
 1019 069c 0AE0     		b	.L92
 1020              	.L399:
 1021 069e 00BF     		.align	2
 1022              	.L398:
 1023 06a0 00440258 		.word	1476543488
 1024 06a4 00480258 		.word	1476544512
 1025              	.L93:
 1026 06a8 FFF7FEFF 		bl	HAL_GetTick
 1027 06ac C01B     		subs	r0, r0, r7
 1028 06ae 6428     		cmp	r0, #100
 1029 06b0 00F24B81 		bhi	.L360
 1030              	.L92:
 1031 06b4 D8F80030 		ldr	r3, [r8]
ARM GAS  C:\Users\Brandon\AppData\Local\Temp\cc15zA07.s 			page 19


 1032 06b8 DA05     		lsls	r2, r3, #23
 1033 06ba F5D5     		bpl	.L93
 1034 06bc 002D     		cmp	r5, #0
 1035 06be 40F09881 		bne	.L382
 1036 06c2 AD4A     		ldr	r2, .L400
 1037 06c4 D4F8AC30 		ldr	r3, [r4, #172]
 1038 06c8 116F     		ldr	r1, [r2, #112]
 1039 06ca 5940     		eors	r1, r1, r3
 1040 06cc 11F4407F 		tst	r1, #768
 1041 06d0 0BD0     		beq	.L95
 1042 06d2 116F     		ldr	r1, [r2, #112]
 1043 06d4 106F     		ldr	r0, [r2, #112]
 1044 06d6 21F44071 		bic	r1, r1, #768
 1045 06da 40F48030 		orr	r0, r0, #65536
 1046 06de 1067     		str	r0, [r2, #112]
 1047 06e0 106F     		ldr	r0, [r2, #112]
 1048 06e2 20F48030 		bic	r0, r0, #65536
 1049 06e6 1067     		str	r0, [r2, #112]
 1050 06e8 1167     		str	r1, [r2, #112]
 1051              	.L95:
 1052 06ea B3F5807F 		cmp	r3, #256
 1053 06ee 00F06281 		beq	.L383
 1054              	.L96:
 1055 06f2 03F44072 		and	r2, r3, #768
 1056 06f6 B2F5407F 		cmp	r2, #768
 1057 06fa 00F07081 		beq	.L384
 1058 06fe 9E49     		ldr	r1, .L400
 1059 0700 0A69     		ldr	r2, [r1, #16]
 1060 0702 22F47C52 		bic	r2, r2, #16128
 1061 0706 0A61     		str	r2, [r1, #16]
 1062              	.L100:
 1063 0708 9B4A     		ldr	r2, .L400
 1064 070a C3F30B03 		ubfx	r3, r3, #0, #12
 1065 070e 116F     		ldr	r1, [r2, #112]
 1066 0710 0B43     		orrs	r3, r3, r1
 1067 0712 1367     		str	r3, [r2, #112]
 1068 0714 2368     		ldr	r3, [r4]
 1069 0716 D2E5     		b	.L91
 1070              	.L378:
 1071 0718 0221     		movs	r1, #2
 1072 071a 04F12400 		add	r0, r4, #36
 1073 071e FFF7FEFF 		bl	RCCEx_PLL3_Config
 1074 0722 2368     		ldr	r3, [r4]
 1075 0724 0028     		cmp	r0, #0
 1076 0726 3FF4F4AE 		beq	.L147
 1077 072a 0126     		movs	r6, #1
 1078 072c F1E6     		b	.L147
 1079              	.L377:
 1080 072e 0126     		movs	r6, #1
 1081 0730 3546     		mov	r5, r6
 1082 0732 EBE6     		b	.L143
 1083              	.L166:
 1084 0734 2E46     		mov	r6, r5
 1085 0736 1BE5     		b	.L66
 1086              	.L162:
 1087 0738 2E46     		mov	r6, r5
 1088 073a 9AE4     		b	.L43
ARM GAS  C:\Users\Brandon\AppData\Local\Temp\cc15zA07.s 			page 20


 1089              	.L163:
 1090 073c 2E46     		mov	r6, r5
 1091 073e BAE4     		b	.L49
 1092              	.L164:
 1093 0740 2E46     		mov	r6, r5
 1094 0742 DAE4     		b	.L55
 1095              	.L38:
 1096 0744 8C48     		ldr	r0, .L400
 1097 0746 C16A     		ldr	r1, [r0, #44]
 1098 0748 41F40031 		orr	r1, r1, #131072
 1099 074c C162     		str	r1, [r0, #44]
 1100 074e 74E4     		b	.L40
 1101              	.L58:
 1102 0750 8949     		ldr	r1, .L400
 1103 0752 CA6A     		ldr	r2, [r1, #44]
 1104 0754 42F40032 		orr	r2, r2, #131072
 1105 0758 CA62     		str	r2, [r1, #44]
 1106 075a C3E4     		b	.L60
 1107              	.L52:
 1108 075c 8649     		ldr	r1, .L400
 1109 075e CA6A     		ldr	r2, [r1, #44]
 1110 0760 42F40032 		orr	r2, r2, #131072
 1111 0764 CA62     		str	r2, [r1, #44]
 1112 0766 9BE4     		b	.L54
 1113              	.L69:
 1114 0768 8349     		ldr	r1, .L400
 1115 076a CA6A     		ldr	r2, [r1, #44]
 1116 076c 42F40032 		orr	r2, r2, #131072
 1117 0770 CA62     		str	r2, [r1, #44]
 1118 0772 F3E4     		b	.L71
 1119              	.L372:
 1120 0774 8049     		ldr	r1, .L400
 1121 0776 D4F88C00 		ldr	r0, [r4, #140]
 1122 077a 8A6D     		ldr	r2, [r1, #88]
 1123 077c 22F00702 		bic	r2, r2, #7
 1124 0780 0243     		orrs	r2, r2, r0
 1125 0782 8A65     		str	r2, [r1, #88]
 1126 0784 0AE6     		b	.L111
 1127              	.L169:
 1128 0786 2E46     		mov	r6, r5
 1129 0788 3CE5     		b	.L82
 1130              	.L178:
 1131 078a 2E46     		mov	r6, r5
 1132 078c 26E6     		b	.L116
 1133              	.L179:
 1134 078e 2E46     		mov	r6, r5
 1135 0790 44E6     		b	.L121
 1136              	.L180:
 1137 0792 2E46     		mov	r6, r5
 1138 0794 62E6     		b	.L126
 1139              	.L368:
 1140 0796 7849     		ldr	r1, .L400
 1141 0798 606C     		ldr	r0, [r4, #68]
 1142 079a CA6C     		ldr	r2, [r1, #76]
 1143 079c 22F00302 		bic	r2, r2, #3
 1144 07a0 0243     		orrs	r2, r2, r0
 1145 07a2 CA64     		str	r2, [r1, #76]
ARM GAS  C:\Users\Brandon\AppData\Local\Temp\cc15zA07.s 			page 21


 1146 07a4 88E5     		b	.L86
 1147              	.L165:
 1148 07a6 2E46     		mov	r6, r5
 1149 07a8 C2E4     		b	.L61
 1150              	.L168:
 1151 07aa 2E46     		mov	r6, r5
 1152 07ac 1AE5     		b	.L77
 1153              	.L371:
 1154 07ae 7249     		ldr	r1, .L400
 1155 07b0 206F     		ldr	r0, [r4, #112]
 1156 07b2 4A6D     		ldr	r2, [r1, #84]
 1157 07b4 22F00702 		bic	r2, r2, #7
 1158 07b8 0243     		orrs	r2, r2, r0
 1159 07ba 4A65     		str	r2, [r1, #84]
 1160 07bc D4E5     		b	.L106
 1161              	.L167:
 1162 07be 2E46     		mov	r6, r5
 1163 07c0 F2E4     		b	.L72
 1164              	.L182:
 1165 07c2 5803     		lsls	r0, r3, #13
 1166 07c4 2E46     		mov	r6, r5
 1167 07c6 7FF587AE 		bpl	.L140
 1168 07ca 75E6     		b	.L381
 1169              	.L184:
 1170 07cc D903     		lsls	r1, r3, #15
 1171 07ce 2E46     		mov	r6, r5
 1172 07d0 7FF59CAE 		bpl	.L143
 1173 07d4 82E6     		b	.L380
 1174              	.L370:
 1175 07d6 6849     		ldr	r1, .L400
 1176 07d8 606F     		ldr	r0, [r4, #116]
 1177 07da 4A6D     		ldr	r2, [r1, #84]
 1178 07dc 22F03802 		bic	r2, r2, #56
 1179 07e0 0243     		orrs	r2, r2, r0
 1180 07e2 4A65     		str	r2, [r1, #84]
 1181 07e4 A7E5     		b	.L101
 1182              	.L185:
 1183 07e6 2E46     		mov	r6, r5
 1184 07e8 90E6     		b	.L143
 1185              	.L73:
 1186 07ea 0121     		movs	r1, #1
 1187 07ec 04F12400 		add	r0, r4, #36
 1188 07f0 FFF7FEFF 		bl	RCCEx_PLL3_Config
 1189 07f4 0546     		mov	r5, r0
 1190 07f6 2368     		ldr	r3, [r4]
 1191 07f8 002D     		cmp	r5, #0
 1192 07fa E0D1     		bne	.L167
 1193 07fc CDE4     		b	.L385
 1194              	.L127:
 1195 07fe 0221     		movs	r1, #2
 1196 0800 04F12400 		add	r0, r4, #36
 1197 0804 FFF7FEFF 		bl	RCCEx_PLL3_Config
 1198 0808 0546     		mov	r5, r0
 1199 080a 2368     		ldr	r3, [r4]
 1200 080c 002D     		cmp	r5, #0
 1201 080e C0D1     		bne	.L180
 1202 0810 1CE6     		b	.L386
ARM GAS  C:\Users\Brandon\AppData\Local\Temp\cc15zA07.s 			page 22


 1203              	.L83:
 1204 0812 5949     		ldr	r1, .L400
 1205 0814 CA6A     		ldr	r2, [r1, #44]
 1206 0816 42F40032 		orr	r2, r2, #131072
 1207 081a CA62     		str	r2, [r1, #44]
 1208 081c 002D     		cmp	r5, #0
 1209 081e B2D1     		bne	.L169
 1210 0820 CAE6     		b	.L387
 1211              	.L122:
 1212 0822 0221     		movs	r1, #2
 1213 0824 04F12400 		add	r0, r4, #36
 1214 0828 FFF7FEFF 		bl	RCCEx_PLL3_Config
 1215 082c 0546     		mov	r5, r0
 1216 082e 2368     		ldr	r3, [r4]
 1217 0830 002D     		cmp	r5, #0
 1218 0832 ACD1     		bne	.L179
 1219 0834 EAE5     		b	.L388
 1220              	.L62:
 1221 0836 0221     		movs	r1, #2
 1222 0838 201D     		adds	r0, r4, #4
 1223 083a FFF7FEFF 		bl	RCCEx_PLL2_Config
 1224 083e 0546     		mov	r5, r0
 1225 0840 2368     		ldr	r3, [r4]
 1226 0842 002D     		cmp	r5, #0
 1227 0844 AFD1     		bne	.L165
 1228 0846 6CE4     		b	.L389
 1229              	.L90:
 1230 0848 4B49     		ldr	r1, .L400
 1231 084a CA6A     		ldr	r2, [r1, #44]
 1232 084c 42F40032 		orr	r2, r2, #131072
 1233 0850 CA62     		str	r2, [r1, #44]
 1234 0852 002D     		cmp	r5, #0
 1235 0854 7FF42FAD 		bne	.L171
 1236 0858 9DE7     		b	.L368
 1237              	.L117:
 1238 085a 0221     		movs	r1, #2
 1239 085c 04F12400 		add	r0, r4, #36
 1240 0860 FFF7FEFF 		bl	RCCEx_PLL3_Config
 1241 0864 0546     		mov	r5, r0
 1242 0866 2368     		ldr	r3, [r4]
 1243 0868 002D     		cmp	r5, #0
 1244 086a 8ED1     		bne	.L178
 1245 086c AEE5     		b	.L390
 1246              	.L78:
 1247 086e 0121     		movs	r1, #1
 1248 0870 04F12400 		add	r0, r4, #36
 1249 0874 FFF7FEFF 		bl	RCCEx_PLL3_Config
 1250 0878 0546     		mov	r5, r0
 1251 087a 2368     		ldr	r3, [r4]
 1252 087c 002D     		cmp	r5, #0
 1253 087e 94D1     		bne	.L168
 1254 0880 A8E4     		b	.L391
 1255              	.L373:
 1256 0882 0221     		movs	r1, #2
 1257 0884 04F12400 		add	r0, r4, #36
 1258 0888 FFF7FEFF 		bl	RCCEx_PLL3_Config
 1259 088c E16F     		ldr	r1, [r4, #124]
ARM GAS  C:\Users\Brandon\AppData\Local\Temp\cc15zA07.s 			page 23


 1260 088e 00B1     		cbz	r0, .L364
 1261 0890 0126     		movs	r6, #1
 1262              	.L364:
 1263 0892 2368     		ldr	r3, [r4]
 1264 0894 E9E5     		b	.L132
 1265              	.L50:
 1266 0896 0021     		movs	r1, #0
 1267 0898 04F12400 		add	r0, r4, #36
 1268 089c FFF7FEFF 		bl	RCCEx_PLL3_Config
 1269 08a0 2368     		ldr	r3, [r4]
 1270 08a2 0546     		mov	r5, r0
 1271 08a4 FFF7FCBB 		b	.L54
 1272              	.L67:
 1273 08a8 0021     		movs	r1, #0
 1274 08aa 04F12400 		add	r0, r4, #36
 1275 08ae FFF7FEFF 		bl	RCCEx_PLL3_Config
 1276 08b2 2368     		ldr	r3, [r4]
 1277 08b4 0546     		mov	r5, r0
 1278 08b6 51E4     		b	.L71
 1279              	.L46:
 1280 08b8 0021     		movs	r1, #0
 1281 08ba 04F12400 		add	r0, r4, #36
 1282 08be FFF7FEFF 		bl	RCCEx_PLL3_Config
 1283 08c2 2368     		ldr	r3, [r4]
 1284 08c4 0546     		mov	r5, r0
 1285 08c6 63E6     		b	.L44
 1286              	.L366:
 1287 08c8 2368     		ldr	r3, [r4]
 1288 08ca FFF7BDBB 		b	.L35
 1289              	.L36:
 1290 08ce 0221     		movs	r1, #2
 1291 08d0 2430     		adds	r0, r0, #36
 1292 08d2 FFF7FEFF 		bl	RCCEx_PLL3_Config
 1293 08d6 0646     		mov	r6, r0
 1294 08d8 002E     		cmp	r6, #0
 1295 08da 3FF4ACAB 		beq	.L42
 1296 08de F3E7     		b	.L366
 1297              	.L48:
 1298 08e0 2549     		ldr	r1, .L400
 1299 08e2 3546     		mov	r5, r6
 1300 08e4 CA6A     		ldr	r2, [r1, #44]
 1301 08e6 42F40032 		orr	r2, r2, #131072
 1302 08ea CA62     		str	r2, [r1, #44]
 1303 08ec 50E6     		b	.L44
 1304              	.L47:
 1305 08ee 0021     		movs	r1, #0
 1306 08f0 201D     		adds	r0, r4, #4
 1307 08f2 FFF7FEFF 		bl	RCCEx_PLL2_Config
 1308 08f6 2368     		ldr	r3, [r4]
 1309 08f8 0546     		mov	r5, r0
 1310 08fa 49E6     		b	.L44
 1311              	.L56:
 1312 08fc 0021     		movs	r1, #0
 1313 08fe 04F12400 		add	r0, r4, #36
 1314 0902 FFF7FEFF 		bl	RCCEx_PLL3_Config
 1315 0906 2368     		ldr	r3, [r4]
 1316 0908 0546     		mov	r5, r0
ARM GAS  C:\Users\Brandon\AppData\Local\Temp\cc15zA07.s 			page 24


 1317 090a FFF7EBBB 		b	.L60
 1318              	.L110:
 1319 090e 0121     		movs	r1, #1
 1320 0910 201D     		adds	r0, r4, #4
 1321 0912 FFF7FEFF 		bl	RCCEx_PLL2_Config
 1322 0916 0546     		mov	r5, r0
 1323 0918 2368     		ldr	r3, [r4]
 1324 091a 002D     		cmp	r5, #0
 1325 091c 7FF423AD 		bne	.L175
 1326 0920 45E7     		b	.L371
 1327              	.L115:
 1328 0922 0121     		movs	r1, #1
 1329 0924 201D     		adds	r0, r4, #4
 1330 0926 FFF7FEFF 		bl	RCCEx_PLL2_Config
 1331 092a 0546     		mov	r5, r0
 1332 092c 2368     		ldr	r3, [r4]
 1333 092e 002D     		cmp	r5, #0
 1334 0930 7FF433AD 		bne	.L177
 1335 0934 1EE7     		b	.L372
 1336              	.L105:
 1337 0936 0121     		movs	r1, #1
 1338 0938 201D     		adds	r0, r4, #4
 1339 093a FFF7FEFF 		bl	RCCEx_PLL2_Config
 1340 093e 0546     		mov	r5, r0
 1341 0940 2368     		ldr	r3, [r4]
 1342 0942 002D     		cmp	r5, #0
 1343 0944 7FF4F6AC 		bne	.L173
 1344 0948 45E7     		b	.L370
 1345              	.L360:
 1346 094a 0326     		movs	r6, #3
 1347 094c 2368     		ldr	r3, [r4]
 1348 094e 3546     		mov	r5, r6
 1349 0950 B5E4     		b	.L91
 1350              	.L144:
 1351 0952 0949     		ldr	r1, .L400
 1352 0954 CA6A     		ldr	r2, [r1, #44]
 1353 0956 42F40032 		orr	r2, r2, #131072
 1354 095a CA62     		str	r2, [r1, #44]
 1355 095c 002D     		cmp	r5, #0
 1356 095e 7FF442AF 		bne	.L185
 1357 0962 CCE5     		b	.L392
 1358              	.L151:
 1359 0964 0448     		ldr	r0, .L400
 1360 0966 C16A     		ldr	r1, [r0, #44]
 1361 0968 41F40031 		orr	r1, r1, #131072
 1362 096c C162     		str	r1, [r0, #44]
 1363 096e 002D     		cmp	r5, #0
 1364 0970 7FF408AE 		bne	.L186
 1365 0974 39E6     		b	.L393
 1366              	.L401:
 1367 0976 00BF     		.align	2
 1368              	.L400:
 1369 0978 00440258 		.word	1476543488
 1370              	.L376:
 1371 097c 2449     		ldr	r1, .L402
 1372 097e CA6A     		ldr	r2, [r1, #44]
 1373 0980 42F40032 		orr	r2, r2, #131072
ARM GAS  C:\Users\Brandon\AppData\Local\Temp\cc15zA07.s 			page 25


 1374 0984 CA62     		str	r2, [r1, #44]
 1375 0986 002D     		cmp	r5, #0
 1376 0988 7FF420AF 		bne	.L184
 1377 098c 5BE6     		b	.L394
 1378              	.L375:
 1379 098e 201D     		adds	r0, r4, #4
 1380 0990 FFF7FEFF 		bl	RCCEx_PLL2_Config
 1381 0994 0546     		mov	r5, r0
 1382 0996 2368     		ldr	r3, [r4]
 1383 0998 002D     		cmp	r5, #0
 1384 099a 7FF412AF 		bne	.L182
 1385 099e 68E6     		b	.L395
 1386              	.L374:
 1387 09a0 0221     		movs	r1, #2
 1388 09a2 04F12400 		add	r0, r4, #36
 1389 09a6 FFF7FEFF 		bl	RCCEx_PLL3_Config
 1390 09aa D4F89010 		ldr	r1, [r4, #144]
 1391 09ae 00B1     		cbz	r0, .L365
 1392 09b0 0126     		movs	r6, #1
 1393              	.L365:
 1394 09b2 2368     		ldr	r3, [r4]
 1395 09b4 67E5     		b	.L135
 1396              	.L383:
 1397 09b6 FFF7FEFF 		bl	HAL_GetTick
 1398 09ba DFF85480 		ldr	r8, .L402
 1399 09be 41F28839 		movw	r9, #5000
 1400 09c2 0746     		mov	r7, r0
 1401 09c4 04E0     		b	.L97
 1402              	.L98:
 1403 09c6 FFF7FEFF 		bl	HAL_GetTick
 1404 09ca C01B     		subs	r0, r0, r7
 1405 09cc 4845     		cmp	r0, r9
 1406 09ce BCD8     		bhi	.L360
 1407              	.L97:
 1408 09d0 D8F87030 		ldr	r3, [r8, #112]
 1409 09d4 9B07     		lsls	r3, r3, #30
 1410 09d6 F6D5     		bpl	.L98
 1411 09d8 D4F8AC30 		ldr	r3, [r4, #172]
 1412 09dc 89E6     		b	.L96
 1413              	.L384:
 1414 09de 0C48     		ldr	r0, .L402
 1415 09e0 0C4A     		ldr	r2, .L402+4
 1416 09e2 0169     		ldr	r1, [r0, #16]
 1417 09e4 02EA1312 		and	r2, r2, r3, lsr #4
 1418 09e8 21F47C51 		bic	r1, r1, #16128
 1419 09ec 0A43     		orrs	r2, r2, r1
 1420 09ee 0261     		str	r2, [r0, #16]
 1421 09f0 8AE6     		b	.L100
 1422              	.L382:
 1423 09f2 2368     		ldr	r3, [r4]
 1424 09f4 2E46     		mov	r6, r5
 1425 09f6 62E4     		b	.L91
 1426              	.L160:
 1427 09f8 0126     		movs	r6, #1
 1428 09fa FFF739BB 		b	.L353
 1429              	.L170:
 1430 09fe 0126     		movs	r6, #1
ARM GAS  C:\Users\Brandon\AppData\Local\Temp\cc15zA07.s 			page 26


 1431 0a00 3546     		mov	r5, r6
 1432 0a02 59E4     		b	.L86
 1433              	.L176:
 1434 0a04 0126     		movs	r6, #1
 1435 0a06 3546     		mov	r5, r6
 1436 0a08 C8E4     		b	.L111
 1437              	.L174:
 1438 0a0a 0126     		movs	r6, #1
 1439 0a0c 3546     		mov	r5, r6
 1440 0a0e ABE4     		b	.L106
 1441              	.L403:
 1442              		.align	2
 1443              	.L402:
 1444 0a10 00440258 		.word	1476543488
 1445 0a14 CFFFFF00 		.word	16777167
 1447              		.section	.text.HAL_RCCEx_GetPeriphCLKConfig,"ax",%progbits
 1448              		.align	1
 1449              		.p2align 2,,3
 1450              		.global	HAL_RCCEx_GetPeriphCLKConfig
 1451              		.syntax unified
 1452              		.thumb
 1453              		.thumb_func
 1454              		.fpu fpv5-d16
 1456              	HAL_RCCEx_GetPeriphCLKConfig:
 1457              		@ args = 0, pretend = 0, frame = 0
 1458              		@ frame_needed = 0, uses_anonymous_args = 0
 1459              		@ link register save eliminated.
 1460 0000 5D4B     		ldr	r3, .L408
 1461 0002 5E4A     		ldr	r2, .L408+4
 1462 0004 0260     		str	r2, [r0]
 1463 0006 9A6A     		ldr	r2, [r3, #40]
 1464 0008 C2F30552 		ubfx	r2, r2, #20, #6
 1465 000c 4262     		str	r2, [r0, #36]
 1466 000e 1A6C     		ldr	r2, [r3, #64]
 1467 0010 C2F30802 		ubfx	r2, r2, #0, #9
 1468 0014 0132     		adds	r2, r2, #1
 1469 0016 8262     		str	r2, [r0, #40]
 1470 0018 1A6C     		ldr	r2, [r3, #64]
 1471 001a C2F30662 		ubfx	r2, r2, #24, #7
 1472 001e 0132     		adds	r2, r2, #1
 1473 0020 4263     		str	r2, [r0, #52]
 1474 0022 1A6C     		ldr	r2, [r3, #64]
 1475 0024 C2F34622 		ubfx	r2, r2, #9, #7
 1476 0028 0132     		adds	r2, r2, #1
 1477 002a C262     		str	r2, [r0, #44]
 1478 002c 1A6C     		ldr	r2, [r3, #64]
 1479 002e C2F30642 		ubfx	r2, r2, #16, #7
 1480 0032 0132     		adds	r2, r2, #1
 1481 0034 0263     		str	r2, [r0, #48]
 1482 0036 DA6A     		ldr	r2, [r3, #44]
 1483 0038 C2F38122 		ubfx	r2, r2, #10, #2
 1484 003c 8263     		str	r2, [r0, #56]
 1485 003e DA6A     		ldr	r2, [r3, #44]
 1486 0040 C2F34022 		ubfx	r2, r2, #9, #1
 1487 0044 C263     		str	r2, [r0, #60]
 1488 0046 9A6A     		ldr	r2, [r3, #40]
 1489 0048 C2F30532 		ubfx	r2, r2, #12, #6
ARM GAS  C:\Users\Brandon\AppData\Local\Temp\cc15zA07.s 			page 27


 1490 004c 4260     		str	r2, [r0, #4]
 1491 004e 9A6B     		ldr	r2, [r3, #56]
 1492 0050 C2F30802 		ubfx	r2, r2, #0, #9
 1493 0054 0132     		adds	r2, r2, #1
 1494 0056 8260     		str	r2, [r0, #8]
 1495 0058 9A6B     		ldr	r2, [r3, #56]
 1496 005a C2F30662 		ubfx	r2, r2, #24, #7
 1497 005e 0132     		adds	r2, r2, #1
 1498 0060 4261     		str	r2, [r0, #20]
 1499 0062 9A6B     		ldr	r2, [r3, #56]
 1500 0064 C2F34622 		ubfx	r2, r2, #9, #7
 1501 0068 0132     		adds	r2, r2, #1
 1502 006a C260     		str	r2, [r0, #12]
 1503 006c 9A6B     		ldr	r2, [r3, #56]
 1504 006e C2F30642 		ubfx	r2, r2, #16, #7
 1505 0072 0132     		adds	r2, r2, #1
 1506 0074 0261     		str	r2, [r0, #16]
 1507 0076 DA6A     		ldr	r2, [r3, #44]
 1508 0078 C2F38112 		ubfx	r2, r2, #6, #2
 1509 007c 8261     		str	r2, [r0, #24]
 1510 007e DA6A     		ldr	r2, [r3, #44]
 1511 0080 C2F34012 		ubfx	r2, r2, #5, #1
 1512 0084 C261     		str	r2, [r0, #28]
 1513 0086 5A6D     		ldr	r2, [r3, #84]
 1514 0088 02F03802 		and	r2, r2, #56
 1515 008c 4267     		str	r2, [r0, #116]
 1516 008e 5A6D     		ldr	r2, [r3, #84]
 1517 0090 02F00702 		and	r2, r2, #7
 1518 0094 0267     		str	r2, [r0, #112]
 1519 0096 9A6D     		ldr	r2, [r3, #88]
 1520 0098 02F00702 		and	r2, r2, #7
 1521 009c C0F88C20 		str	r2, [r0, #140]
 1522 00a0 5A6D     		ldr	r2, [r3, #84]
 1523 00a2 02F44052 		and	r2, r2, #12288
 1524 00a6 C267     		str	r2, [r0, #124]
 1525 00a8 5A6D     		ldr	r2, [r3, #84]
 1526 00aa 02F0E042 		and	r2, r2, #1879048192
 1527 00ae C0F88820 		str	r2, [r0, #136]
 1528 00b2 9A6D     		ldr	r2, [r3, #88]
 1529 00b4 02F4E052 		and	r2, r2, #7168
 1530 00b8 C0F89420 		str	r2, [r0, #148]
 1531 00bc 9A6D     		ldr	r2, [r3, #88]
 1532 00be 02F46042 		and	r2, r2, #57344
 1533 00c2 C0F89820 		str	r2, [r0, #152]
 1534 00c6 1A6D     		ldr	r2, [r3, #80]
 1535 00c8 02F00702 		and	r2, r2, #7
 1536 00cc 4265     		str	r2, [r0, #84]
 1537 00ce 9A6D     		ldr	r2, [r3, #88]
 1538 00d0 02F46002 		and	r2, r2, #14680064
 1539 00d4 C0F8A020 		str	r2, [r0, #160]
 1540 00d8 9A6D     		ldr	r2, [r3, #88]
 1541 00da 02F0E062 		and	r2, r2, #117440512
 1542 00de C0F8A420 		str	r2, [r0, #164]
 1543 00e2 1A6F     		ldr	r2, [r3, #112]
 1544 00e4 02F44072 		and	r2, r2, #768
 1545 00e8 C0F8AC20 		str	r2, [r0, #172]
 1546 00ec 5A6D     		ldr	r2, [r3, #84]
ARM GAS  C:\Users\Brandon\AppData\Local\Temp\cc15zA07.s 			page 28


 1547 00ee 02F44012 		and	r2, r2, #3145728
 1548 00f2 C0F88020 		str	r2, [r0, #128]
 1549 00f6 DA6C     		ldr	r2, [r3, #76]
 1550 00f8 02F48032 		and	r2, r2, #65536
 1551 00fc C264     		str	r2, [r0, #76]
 1552 00fe 5A6D     		ldr	r2, [r3, #84]
 1553 0100 02F44072 		and	r2, r2, #768
 1554 0104 8267     		str	r2, [r0, #120]
 1555 0106 9A6D     		ldr	r2, [r3, #88]
 1556 0108 02F44032 		and	r2, r2, #196608
 1557 010c C0F89C20 		str	r2, [r0, #156]
 1558 0110 1A6D     		ldr	r2, [r3, #80]
 1559 0112 02F00042 		and	r2, r2, #-2147483648
 1560 0116 C266     		str	r2, [r0, #108]
 1561 0118 1A6D     		ldr	r2, [r3, #80]
 1562 011a 02F08072 		and	r2, r2, #16777216
 1563 011e 4266     		str	r2, [r0, #100]
 1564 0120 1A6D     		ldr	r2, [r3, #80]
 1565 0122 02F44012 		and	r2, r2, #3145728
 1566 0126 0266     		str	r2, [r0, #96]
 1567 0128 1A6D     		ldr	r2, [r3, #80]
 1568 012a 02F4E042 		and	r2, r2, #28672
 1569 012e 8265     		str	r2, [r0, #88]
 1570 0130 1A6D     		ldr	r2, [r3, #80]
 1571 0132 02F4E022 		and	r2, r2, #458752
 1572 0136 C265     		str	r2, [r0, #92]
 1573 0138 9A6D     		ldr	r2, [r3, #88]
 1574 013a 02F0E042 		and	r2, r2, #1879048192
 1575 013e C0F8A820 		str	r2, [r0, #168]
 1576 0142 1A6D     		ldr	r2, [r3, #80]
 1577 0144 02F04052 		and	r2, r2, #805306368
 1578 0148 8266     		str	r2, [r0, #104]
 1579 014a 5A6D     		ldr	r2, [r3, #84]
 1580 014c 02F44002 		and	r2, r2, #12582912
 1581 0150 C0F88420 		str	r2, [r0, #132]
 1582 0154 DA6C     		ldr	r2, [r3, #76]
 1583 0156 02F00302 		and	r2, r2, #3
 1584 015a 4264     		str	r2, [r0, #68]
 1585 015c DA6C     		ldr	r2, [r3, #76]
 1586 015e 02F03002 		and	r2, r2, #48
 1587 0162 8264     		str	r2, [r0, #72]
 1588 0164 DA6C     		ldr	r2, [r3, #76]
 1589 0166 02F04052 		and	r2, r2, #805306368
 1590 016a 0265     		str	r2, [r0, #80]
 1591 016c 1B69     		ldr	r3, [r3, #16]
 1592 016e 03F40043 		and	r3, r3, #32768
 1593 0172 C0F8B030 		str	r3, [r0, #176]
 1594 0176 7047     		bx	lr
 1595              	.L409:
 1596              		.align	2
 1597              	.L408:
 1598 0178 00440258 		.word	1476543488
 1599 017c FFFDFFEB 		.word	-335544833
 1601              		.section	.text.HAL_RCCEx_GetD1PCLK1Freq,"ax",%progbits
 1602              		.align	1
 1603              		.p2align 2,,3
 1604              		.global	HAL_RCCEx_GetD1PCLK1Freq
ARM GAS  C:\Users\Brandon\AppData\Local\Temp\cc15zA07.s 			page 29


 1605              		.syntax unified
 1606              		.thumb
 1607              		.thumb_func
 1608              		.fpu fpv5-d16
 1610              	HAL_RCCEx_GetD1PCLK1Freq:
 1611              		@ args = 0, pretend = 0, frame = 0
 1612              		@ frame_needed = 0, uses_anonymous_args = 0
 1613 0000 08B5     		push	{r3, lr}
 1614 0002 FFF7FEFF 		bl	HAL_RCC_GetHCLKFreq
 1615 0006 054B     		ldr	r3, .L412
 1616 0008 054A     		ldr	r2, .L412+4
 1617 000a 9B69     		ldr	r3, [r3, #24]
 1618 000c C3F30213 		ubfx	r3, r3, #4, #3
 1619 0010 D35C     		ldrb	r3, [r2, r3]	@ zero_extendqisi2
 1620 0012 03F01F03 		and	r3, r3, #31
 1621 0016 D840     		lsrs	r0, r0, r3
 1622 0018 08BD     		pop	{r3, pc}
 1623              	.L413:
 1624 001a 00BF     		.align	2
 1625              	.L412:
 1626 001c 00440258 		.word	1476543488
 1627 0020 00000000 		.word	D1CorePrescTable
 1629              		.section	.text.HAL_RCCEx_GetD3PCLK1Freq,"ax",%progbits
 1630              		.align	1
 1631              		.p2align 2,,3
 1632              		.global	HAL_RCCEx_GetD3PCLK1Freq
 1633              		.syntax unified
 1634              		.thumb
 1635              		.thumb_func
 1636              		.fpu fpv5-d16
 1638              	HAL_RCCEx_GetD3PCLK1Freq:
 1639              		@ args = 0, pretend = 0, frame = 0
 1640              		@ frame_needed = 0, uses_anonymous_args = 0
 1641 0000 08B5     		push	{r3, lr}
 1642 0002 FFF7FEFF 		bl	HAL_RCC_GetHCLKFreq
 1643 0006 054B     		ldr	r3, .L416
 1644 0008 054A     		ldr	r2, .L416+4
 1645 000a 1B6A     		ldr	r3, [r3, #32]
 1646 000c C3F30213 		ubfx	r3, r3, #4, #3
 1647 0010 D35C     		ldrb	r3, [r2, r3]	@ zero_extendqisi2
 1648 0012 03F01F03 		and	r3, r3, #31
 1649 0016 D840     		lsrs	r0, r0, r3
 1650 0018 08BD     		pop	{r3, pc}
 1651              	.L417:
 1652 001a 00BF     		.align	2
 1653              	.L416:
 1654 001c 00440258 		.word	1476543488
 1655 0020 00000000 		.word	D1CorePrescTable
 1657              		.section	.text.HAL_RCCEx_GetPLL2ClockFreq,"ax",%progbits
 1658              		.align	1
 1659              		.p2align 2,,3
 1660              		.global	HAL_RCCEx_GetPLL2ClockFreq
 1661              		.syntax unified
 1662              		.thumb
 1663              		.thumb_func
 1664              		.fpu fpv5-d16
 1666              	HAL_RCCEx_GetPLL2ClockFreq:
ARM GAS  C:\Users\Brandon\AppData\Local\Temp\cc15zA07.s 			page 30


 1667              		@ args = 0, pretend = 0, frame = 0
 1668              		@ frame_needed = 0, uses_anonymous_args = 0
 1669              		@ link register save eliminated.
 1670 0000 584B     		ldr	r3, .L429
 1671 0002 70B4     		push	{r4, r5, r6}
 1672 0004 996A     		ldr	r1, [r3, #40]
 1673 0006 9D6A     		ldr	r5, [r3, #40]
 1674 0008 DC6A     		ldr	r4, [r3, #44]
 1675 000a 15F47C3F 		tst	r5, #258048
 1676 000e C5F30532 		ubfx	r2, r5, #12, #6
 1677 0012 DE6B     		ldr	r6, [r3, #60]
 1678 0014 5CD0     		beq	.L419
 1679 0016 C6F3CC06 		ubfx	r6, r6, #3, #13
 1680 001a C4F30014 		ubfx	r4, r4, #4, #1
 1681 001e 01F00301 		and	r1, r1, #3
 1682 0022 04FB06F4 		mul	r4, r4, r6
 1683 0026 0129     		cmp	r1, #1
 1684 0028 07EE904A 		vmov	s15, r4	@ int
 1685 002c B8EEE77A 		vcvt.f32.s32	s14, s15
 1686 0030 03D0     		beq	.L422
 1687 0032 0229     		cmp	r1, #2
 1688 0034 75D0     		beq	.L421
 1689 0036 0029     		cmp	r1, #0
 1690 0038 4FD0     		beq	.L428
 1691              	.L422:
 1692 003a 07EE902A 		vmov	s15, r2	@ int
 1693 003e DFED4A6A 		vldr.32	s13, .L429+4
 1694 0042 F8EEE77A 		vcvt.f32.s32	s15, s15
 1695              	.L427:
 1696 0046 9B6B     		ldr	r3, [r3, #56]
 1697 0048 86EEA76A 		vdiv.f32	s12, s13, s15
 1698 004c 9FED475A 		vldr.32	s10, .L429+8
 1699 0050 C3F30803 		ubfx	r3, r3, #0, #9
 1700 0054 06EE903A 		vmov	s13, r3	@ int
 1701 0058 F7EE005A 		vmov.f32	s11, #1.0e+0
 1702 005c F8EEE66A 		vcvt.f32.s32	s13, s13
 1703 0060 E7EE056A 		vfma.f32	s13, s14, s10
 1704 0064 76EEA56A 		vadd.f32	s13, s13, s11
 1705 0068 66EE266A 		vmul.f32	s13, s12, s13
 1706              	.L424:
 1707 006c 3D4A     		ldr	r2, .L429
 1708 006e B7EE006A 		vmov.f32	s12, #1.0e+0
 1709 0072 936B     		ldr	r3, [r2, #56]
 1710 0074 C3F34623 		ubfx	r3, r3, #9, #7
 1711 0078 07EE103A 		vmov	s14, r3	@ int
 1712 007c B8EEC77A 		vcvt.f32.s32	s14, s14
 1713 0080 70BC     		pop	{r4, r5, r6}
 1714 0082 37EE067A 		vadd.f32	s14, s14, s12
 1715 0086 C6EE877A 		vdiv.f32	s15, s13, s14
 1716 008a FCEEE77A 		vcvt.u32.f32	s15, s15
 1717 008e C0ED007A 		vstr.32	s15, [r0]	@ int
 1718 0092 936B     		ldr	r3, [r2, #56]
 1719 0094 C3F30643 		ubfx	r3, r3, #16, #7
 1720 0098 07EE103A 		vmov	s14, r3	@ int
 1721 009c B8EEC77A 		vcvt.f32.s32	s14, s14
 1722 00a0 37EE067A 		vadd.f32	s14, s14, s12
 1723 00a4 C6EE877A 		vdiv.f32	s15, s13, s14
ARM GAS  C:\Users\Brandon\AppData\Local\Temp\cc15zA07.s 			page 31


 1724 00a8 FCEEE77A 		vcvt.u32.f32	s15, s15
 1725 00ac C0ED017A 		vstr.32	s15, [r0, #4]	@ int
 1726 00b0 936B     		ldr	r3, [r2, #56]
 1727 00b2 C3F30663 		ubfx	r3, r3, #24, #7
 1728 00b6 07EE903A 		vmov	s15, r3	@ int
 1729 00ba F8EEE77A 		vcvt.f32.s32	s15, s15
 1730 00be 77EE867A 		vadd.f32	s15, s15, s12
 1731 00c2 86EEA77A 		vdiv.f32	s14, s13, s15
 1732 00c6 BCEEC77A 		vcvt.u32.f32	s14, s14
 1733 00ca 80ED027A 		vstr.32	s14, [r0, #8]	@ int
 1734 00ce 7047     		bx	lr
 1735              	.L419:
 1736 00d0 70BC     		pop	{r4, r5, r6}
 1737 00d2 C0E90022 		strd	r2, r2, [r0]
 1738 00d6 8260     		str	r2, [r0, #8]
 1739 00d8 7047     		bx	lr
 1740              	.L428:
 1741 00da 1968     		ldr	r1, [r3]
 1742 00dc 8906     		lsls	r1, r1, #26
 1743 00de 27D5     		bpl	.L423
 1744 00e0 1968     		ldr	r1, [r3]
 1745 00e2 07EE902A 		vmov	s15, r2	@ int
 1746 00e6 224A     		ldr	r2, .L429+12
 1747 00e8 B7EE005A 		vmov.f32	s10, #1.0e+0
 1748 00ec C1F3C101 		ubfx	r1, r1, #3, #2
 1749 00f0 F8EEE77A 		vcvt.f32.s32	s15, s15
 1750 00f4 9B6B     		ldr	r3, [r3, #56]
 1751 00f6 CA40     		lsrs	r2, r2, r1
 1752 00f8 DFED1C4A 		vldr.32	s9, .L429+8
 1753 00fc C3F30803 		ubfx	r3, r3, #0, #9
 1754 0100 06EE102A 		vmov	s12, r2	@ int
 1755 0104 06EE903A 		vmov	s13, r3	@ int
 1756 0108 B8EEC66A 		vcvt.f32.s32	s12, s12
 1757 010c F8EEE66A 		vcvt.f32.s32	s13, s13
 1758 0110 C6EE275A 		vdiv.f32	s11, s12, s15
 1759 0114 E7EE246A 		vfma.f32	s13, s14, s9
 1760 0118 76EE856A 		vadd.f32	s13, s13, s10
 1761 011c 66EEA56A 		vmul.f32	s13, s13, s11
 1762 0120 A4E7     		b	.L424
 1763              	.L421:
 1764 0122 07EE902A 		vmov	s15, r2	@ int
 1765 0126 DFED136A 		vldr.32	s13, .L429+16
 1766 012a F8EEE77A 		vcvt.f32.s32	s15, s15
 1767 012e 8AE7     		b	.L427
 1768              	.L423:
 1769 0130 07EE902A 		vmov	s15, r2	@ int
 1770 0134 9FED105A 		vldr.32	s10, .L429+20
 1771 0138 9B6B     		ldr	r3, [r3, #56]
 1772 013a B7EE006A 		vmov.f32	s12, #1.0e+0
 1773 013e F8EEE77A 		vcvt.f32.s32	s15, s15
 1774 0142 DFED0A5A 		vldr.32	s11, .L429+8
 1775 0146 C3F30803 		ubfx	r3, r3, #0, #9
 1776 014a C5EE276A 		vdiv.f32	s13, s10, s15
 1777 014e 07EE903A 		vmov	s15, r3	@ int
 1778 0152 F8EEE77A 		vcvt.f32.s32	s15, s15
 1779 0156 E7EE257A 		vfma.f32	s15, s14, s11
 1780 015a 77EE867A 		vadd.f32	s15, s15, s12
ARM GAS  C:\Users\Brandon\AppData\Local\Temp\cc15zA07.s 			page 32


 1781 015e 66EEA76A 		vmul.f32	s13, s13, s15
 1782 0162 83E7     		b	.L424
 1783              	.L430:
 1784              		.align	2
 1785              	.L429:
 1786 0164 00440258 		.word	1476543488
 1787 0168 0024744A 		.word	1249125376
 1788 016c 00000039 		.word	956301312
 1789 0170 0090D003 		.word	64000000
 1790 0174 8096984B 		.word	1268291200
 1791 0178 0024744C 		.word	1282679808
 1793              		.section	.text.HAL_RCCEx_GetPLL3ClockFreq,"ax",%progbits
 1794              		.align	1
 1795              		.p2align 2,,3
 1796              		.global	HAL_RCCEx_GetPLL3ClockFreq
 1797              		.syntax unified
 1798              		.thumb
 1799              		.thumb_func
 1800              		.fpu fpv5-d16
 1802              	HAL_RCCEx_GetPLL3ClockFreq:
 1803              		@ args = 0, pretend = 0, frame = 0
 1804              		@ frame_needed = 0, uses_anonymous_args = 0
 1805              		@ link register save eliminated.
 1806 0000 584B     		ldr	r3, .L442
 1807 0002 70B4     		push	{r4, r5, r6}
 1808 0004 996A     		ldr	r1, [r3, #40]
 1809 0006 9D6A     		ldr	r5, [r3, #40]
 1810 0008 DC6A     		ldr	r4, [r3, #44]
 1811 000a 15F07C7F 		tst	r5, #66060288
 1812 000e C5F30552 		ubfx	r2, r5, #20, #6
 1813 0012 5E6C     		ldr	r6, [r3, #68]
 1814 0014 5CD0     		beq	.L432
 1815 0016 C6F3CC06 		ubfx	r6, r6, #3, #13
 1816 001a C4F30024 		ubfx	r4, r4, #8, #1
 1817 001e 01F00301 		and	r1, r1, #3
 1818 0022 04FB06F4 		mul	r4, r4, r6
 1819 0026 0129     		cmp	r1, #1
 1820 0028 07EE904A 		vmov	s15, r4	@ int
 1821 002c B8EEE77A 		vcvt.f32.s32	s14, s15
 1822 0030 03D0     		beq	.L435
 1823 0032 0229     		cmp	r1, #2
 1824 0034 75D0     		beq	.L434
 1825 0036 0029     		cmp	r1, #0
 1826 0038 4FD0     		beq	.L441
 1827              	.L435:
 1828 003a 07EE902A 		vmov	s15, r2	@ int
 1829 003e DFED4A6A 		vldr.32	s13, .L442+4
 1830 0042 F8EEE77A 		vcvt.f32.s32	s15, s15
 1831              	.L440:
 1832 0046 1B6C     		ldr	r3, [r3, #64]
 1833 0048 86EEA76A 		vdiv.f32	s12, s13, s15
 1834 004c 9FED475A 		vldr.32	s10, .L442+8
 1835 0050 C3F30803 		ubfx	r3, r3, #0, #9
 1836 0054 06EE903A 		vmov	s13, r3	@ int
 1837 0058 F7EE005A 		vmov.f32	s11, #1.0e+0
 1838 005c F8EEE66A 		vcvt.f32.s32	s13, s13
 1839 0060 E7EE056A 		vfma.f32	s13, s14, s10
ARM GAS  C:\Users\Brandon\AppData\Local\Temp\cc15zA07.s 			page 33


 1840 0064 76EEA56A 		vadd.f32	s13, s13, s11
 1841 0068 66EE266A 		vmul.f32	s13, s12, s13
 1842              	.L437:
 1843 006c 3D4A     		ldr	r2, .L442
 1844 006e B7EE006A 		vmov.f32	s12, #1.0e+0
 1845 0072 136C     		ldr	r3, [r2, #64]
 1846 0074 C3F34623 		ubfx	r3, r3, #9, #7
 1847 0078 07EE103A 		vmov	s14, r3	@ int
 1848 007c B8EEC77A 		vcvt.f32.s32	s14, s14
 1849 0080 70BC     		pop	{r4, r5, r6}
 1850 0082 37EE067A 		vadd.f32	s14, s14, s12
 1851 0086 C6EE877A 		vdiv.f32	s15, s13, s14
 1852 008a FCEEE77A 		vcvt.u32.f32	s15, s15
 1853 008e C0ED007A 		vstr.32	s15, [r0]	@ int
 1854 0092 136C     		ldr	r3, [r2, #64]
 1855 0094 C3F30643 		ubfx	r3, r3, #16, #7
 1856 0098 07EE103A 		vmov	s14, r3	@ int
 1857 009c B8EEC77A 		vcvt.f32.s32	s14, s14
 1858 00a0 37EE067A 		vadd.f32	s14, s14, s12
 1859 00a4 C6EE877A 		vdiv.f32	s15, s13, s14
 1860 00a8 FCEEE77A 		vcvt.u32.f32	s15, s15
 1861 00ac C0ED017A 		vstr.32	s15, [r0, #4]	@ int
 1862 00b0 136C     		ldr	r3, [r2, #64]
 1863 00b2 C3F30663 		ubfx	r3, r3, #24, #7
 1864 00b6 07EE903A 		vmov	s15, r3	@ int
 1865 00ba F8EEE77A 		vcvt.f32.s32	s15, s15
 1866 00be 77EE867A 		vadd.f32	s15, s15, s12
 1867 00c2 86EEA77A 		vdiv.f32	s14, s13, s15
 1868 00c6 BCEEC77A 		vcvt.u32.f32	s14, s14
 1869 00ca 80ED027A 		vstr.32	s14, [r0, #8]	@ int
 1870 00ce 7047     		bx	lr
 1871              	.L432:
 1872 00d0 70BC     		pop	{r4, r5, r6}
 1873 00d2 C0E90022 		strd	r2, r2, [r0]
 1874 00d6 8260     		str	r2, [r0, #8]
 1875 00d8 7047     		bx	lr
 1876              	.L441:
 1877 00da 1968     		ldr	r1, [r3]
 1878 00dc 8906     		lsls	r1, r1, #26
 1879 00de 27D5     		bpl	.L436
 1880 00e0 1968     		ldr	r1, [r3]
 1881 00e2 07EE902A 		vmov	s15, r2	@ int
 1882 00e6 224A     		ldr	r2, .L442+12
 1883 00e8 B7EE005A 		vmov.f32	s10, #1.0e+0
 1884 00ec C1F3C101 		ubfx	r1, r1, #3, #2
 1885 00f0 F8EEE77A 		vcvt.f32.s32	s15, s15
 1886 00f4 1B6C     		ldr	r3, [r3, #64]
 1887 00f6 CA40     		lsrs	r2, r2, r1
 1888 00f8 DFED1C4A 		vldr.32	s9, .L442+8
 1889 00fc C3F30803 		ubfx	r3, r3, #0, #9
 1890 0100 06EE102A 		vmov	s12, r2	@ int
 1891 0104 06EE903A 		vmov	s13, r3	@ int
 1892 0108 B8EEC66A 		vcvt.f32.s32	s12, s12
 1893 010c F8EEE66A 		vcvt.f32.s32	s13, s13
 1894 0110 C6EE275A 		vdiv.f32	s11, s12, s15
 1895 0114 E7EE246A 		vfma.f32	s13, s14, s9
 1896 0118 76EE856A 		vadd.f32	s13, s13, s10
ARM GAS  C:\Users\Brandon\AppData\Local\Temp\cc15zA07.s 			page 34


 1897 011c 66EEA56A 		vmul.f32	s13, s13, s11
 1898 0120 A4E7     		b	.L437
 1899              	.L434:
 1900 0122 07EE902A 		vmov	s15, r2	@ int
 1901 0126 DFED136A 		vldr.32	s13, .L442+16
 1902 012a F8EEE77A 		vcvt.f32.s32	s15, s15
 1903 012e 8AE7     		b	.L440
 1904              	.L436:
 1905 0130 07EE902A 		vmov	s15, r2	@ int
 1906 0134 9FED105A 		vldr.32	s10, .L442+20
 1907 0138 1B6C     		ldr	r3, [r3, #64]
 1908 013a B7EE006A 		vmov.f32	s12, #1.0e+0
 1909 013e F8EEE77A 		vcvt.f32.s32	s15, s15
 1910 0142 DFED0A5A 		vldr.32	s11, .L442+8
 1911 0146 C3F30803 		ubfx	r3, r3, #0, #9
 1912 014a C5EE276A 		vdiv.f32	s13, s10, s15
 1913 014e 07EE903A 		vmov	s15, r3	@ int
 1914 0152 F8EEE77A 		vcvt.f32.s32	s15, s15
 1915 0156 E7EE257A 		vfma.f32	s15, s14, s11
 1916 015a 77EE867A 		vadd.f32	s15, s15, s12
 1917 015e 66EEA76A 		vmul.f32	s13, s13, s15
 1918 0162 83E7     		b	.L437
 1919              	.L443:
 1920              		.align	2
 1921              	.L442:
 1922 0164 00440258 		.word	1476543488
 1923 0168 0024744A 		.word	1249125376
 1924 016c 00000039 		.word	956301312
 1925 0170 0090D003 		.word	64000000
 1926 0174 8096984B 		.word	1268291200
 1927 0178 0024744C 		.word	1282679808
 1929              		.section	.text.HAL_RCCEx_GetPLL1ClockFreq,"ax",%progbits
 1930              		.align	1
 1931              		.p2align 2,,3
 1932              		.global	HAL_RCCEx_GetPLL1ClockFreq
 1933              		.syntax unified
 1934              		.thumb
 1935              		.thumb_func
 1936              		.fpu fpv5-d16
 1938              	HAL_RCCEx_GetPLL1ClockFreq:
 1939              		@ args = 0, pretend = 0, frame = 0
 1940              		@ frame_needed = 0, uses_anonymous_args = 0
 1941              		@ link register save eliminated.
 1942 0000 584B     		ldr	r3, .L455
 1943 0002 70B4     		push	{r4, r5, r6}
 1944 0004 996A     		ldr	r1, [r3, #40]
 1945 0006 9D6A     		ldr	r5, [r3, #40]
 1946 0008 DC6A     		ldr	r4, [r3, #44]
 1947 000a 15F47C7F 		tst	r5, #1008
 1948 000e C5F30512 		ubfx	r2, r5, #4, #6
 1949 0012 5E6B     		ldr	r6, [r3, #52]
 1950 0014 5CD0     		beq	.L445
 1951 0016 C6F3CC06 		ubfx	r6, r6, #3, #13
 1952 001a 04F00104 		and	r4, r4, #1
 1953 001e 01F00301 		and	r1, r1, #3
 1954 0022 04FB06F4 		mul	r4, r4, r6
 1955 0026 0129     		cmp	r1, #1
ARM GAS  C:\Users\Brandon\AppData\Local\Temp\cc15zA07.s 			page 35


 1956 0028 07EE904A 		vmov	s15, r4	@ int
 1957 002c B8EEE77A 		vcvt.f32.s32	s14, s15
 1958 0030 03D0     		beq	.L448
 1959 0032 0229     		cmp	r1, #2
 1960 0034 75D0     		beq	.L447
 1961 0036 0029     		cmp	r1, #0
 1962 0038 4FD0     		beq	.L454
 1963              	.L448:
 1964 003a 07EE902A 		vmov	s15, r2	@ int
 1965 003e DFED4A6A 		vldr.32	s13, .L455+4
 1966 0042 F8EEE77A 		vcvt.f32.s32	s15, s15
 1967              	.L453:
 1968 0046 1B6B     		ldr	r3, [r3, #48]
 1969 0048 86EEA76A 		vdiv.f32	s12, s13, s15
 1970 004c 9FED475A 		vldr.32	s10, .L455+8
 1971 0050 C3F30803 		ubfx	r3, r3, #0, #9
 1972 0054 06EE903A 		vmov	s13, r3	@ int
 1973 0058 F7EE005A 		vmov.f32	s11, #1.0e+0
 1974 005c F8EEE66A 		vcvt.f32.s32	s13, s13
 1975 0060 E7EE056A 		vfma.f32	s13, s14, s10
 1976 0064 76EEA56A 		vadd.f32	s13, s13, s11
 1977 0068 66EE266A 		vmul.f32	s13, s12, s13
 1978              	.L450:
 1979 006c 3D4A     		ldr	r2, .L455
 1980 006e B7EE006A 		vmov.f32	s12, #1.0e+0
 1981 0072 136B     		ldr	r3, [r2, #48]
 1982 0074 C3F34623 		ubfx	r3, r3, #9, #7
 1983 0078 07EE103A 		vmov	s14, r3	@ int
 1984 007c B8EEC77A 		vcvt.f32.s32	s14, s14
 1985 0080 70BC     		pop	{r4, r5, r6}
 1986 0082 37EE067A 		vadd.f32	s14, s14, s12
 1987 0086 C6EE877A 		vdiv.f32	s15, s13, s14
 1988 008a FCEEE77A 		vcvt.u32.f32	s15, s15
 1989 008e C0ED007A 		vstr.32	s15, [r0]	@ int
 1990 0092 136B     		ldr	r3, [r2, #48]
 1991 0094 C3F30643 		ubfx	r3, r3, #16, #7
 1992 0098 07EE103A 		vmov	s14, r3	@ int
 1993 009c B8EEC77A 		vcvt.f32.s32	s14, s14
 1994 00a0 37EE067A 		vadd.f32	s14, s14, s12
 1995 00a4 C6EE877A 		vdiv.f32	s15, s13, s14
 1996 00a8 FCEEE77A 		vcvt.u32.f32	s15, s15
 1997 00ac C0ED017A 		vstr.32	s15, [r0, #4]	@ int
 1998 00b0 136B     		ldr	r3, [r2, #48]
 1999 00b2 C3F30663 		ubfx	r3, r3, #24, #7
 2000 00b6 07EE903A 		vmov	s15, r3	@ int
 2001 00ba F8EEE77A 		vcvt.f32.s32	s15, s15
 2002 00be 77EE867A 		vadd.f32	s15, s15, s12
 2003 00c2 86EEA77A 		vdiv.f32	s14, s13, s15
 2004 00c6 BCEEC77A 		vcvt.u32.f32	s14, s14
 2005 00ca 80ED027A 		vstr.32	s14, [r0, #8]	@ int
 2006 00ce 7047     		bx	lr
 2007              	.L445:
 2008 00d0 70BC     		pop	{r4, r5, r6}
 2009 00d2 C0E90022 		strd	r2, r2, [r0]
 2010 00d6 8260     		str	r2, [r0, #8]
 2011 00d8 7047     		bx	lr
 2012              	.L454:
ARM GAS  C:\Users\Brandon\AppData\Local\Temp\cc15zA07.s 			page 36


 2013 00da 1968     		ldr	r1, [r3]
 2014 00dc 8906     		lsls	r1, r1, #26
 2015 00de 27D5     		bpl	.L449
 2016 00e0 1968     		ldr	r1, [r3]
 2017 00e2 07EE902A 		vmov	s15, r2	@ int
 2018 00e6 224A     		ldr	r2, .L455+12
 2019 00e8 B7EE005A 		vmov.f32	s10, #1.0e+0
 2020 00ec C1F3C101 		ubfx	r1, r1, #3, #2
 2021 00f0 F8EEE77A 		vcvt.f32.s32	s15, s15
 2022 00f4 1B6B     		ldr	r3, [r3, #48]
 2023 00f6 CA40     		lsrs	r2, r2, r1
 2024 00f8 DFED1C4A 		vldr.32	s9, .L455+8
 2025 00fc C3F30803 		ubfx	r3, r3, #0, #9
 2026 0100 06EE102A 		vmov	s12, r2	@ int
 2027 0104 06EE903A 		vmov	s13, r3	@ int
 2028 0108 B8EEC66A 		vcvt.f32.s32	s12, s12
 2029 010c F8EEE66A 		vcvt.f32.s32	s13, s13
 2030 0110 C6EE275A 		vdiv.f32	s11, s12, s15
 2031 0114 E7EE246A 		vfma.f32	s13, s14, s9
 2032 0118 76EE856A 		vadd.f32	s13, s13, s10
 2033 011c 66EEA56A 		vmul.f32	s13, s13, s11
 2034 0120 A4E7     		b	.L450
 2035              	.L447:
 2036 0122 07EE902A 		vmov	s15, r2	@ int
 2037 0126 DFED136A 		vldr.32	s13, .L455+16
 2038 012a F8EEE77A 		vcvt.f32.s32	s15, s15
 2039 012e 8AE7     		b	.L453
 2040              	.L449:
 2041 0130 07EE902A 		vmov	s15, r2	@ int
 2042 0134 9FED105A 		vldr.32	s10, .L455+20
 2043 0138 1B6B     		ldr	r3, [r3, #48]
 2044 013a B7EE006A 		vmov.f32	s12, #1.0e+0
 2045 013e F8EEE77A 		vcvt.f32.s32	s15, s15
 2046 0142 DFED0A5A 		vldr.32	s11, .L455+8
 2047 0146 C3F30803 		ubfx	r3, r3, #0, #9
 2048 014a C5EE276A 		vdiv.f32	s13, s10, s15
 2049 014e 07EE903A 		vmov	s15, r3	@ int
 2050 0152 F8EEE77A 		vcvt.f32.s32	s15, s15
 2051 0156 E7EE257A 		vfma.f32	s15, s14, s11
 2052 015a 77EE867A 		vadd.f32	s15, s15, s12
 2053 015e 66EEA76A 		vmul.f32	s13, s13, s15
 2054 0162 83E7     		b	.L450
 2055              	.L456:
 2056              		.align	2
 2057              	.L455:
 2058 0164 00440258 		.word	1476543488
 2059 0168 0024744A 		.word	1249125376
 2060 016c 00000039 		.word	956301312
 2061 0170 0090D003 		.word	64000000
 2062 0174 8096984B 		.word	1268291200
 2063 0178 0024744C 		.word	1282679808
 2065              		.section	.text.HAL_RCCEx_GetPeriphCLKFreq,"ax",%progbits
 2066              		.align	1
 2067              		.p2align 2,,3
 2068              		.global	HAL_RCCEx_GetPeriphCLKFreq
 2069              		.syntax unified
 2070              		.thumb
ARM GAS  C:\Users\Brandon\AppData\Local\Temp\cc15zA07.s 			page 37


 2071              		.thumb_func
 2072              		.fpu fpv5-d16
 2074              	HAL_RCCEx_GetPeriphCLKFreq:
 2075              		@ args = 0, pretend = 0, frame = 16
 2076              		@ frame_needed = 0, uses_anonymous_args = 0
 2077 0000 B0F5807F 		cmp	r0, #256
 2078 0004 00B5     		push	{lr}
 2079 0006 85B0     		sub	sp, sp, #20
 2080 0008 43D0     		beq	.L551
 2081 000a B0F5806F 		cmp	r0, #1024
 2082 000e 15D0     		beq	.L552
 2083 0010 B0F5006F 		cmp	r0, #2048
 2084 0014 7AD0     		beq	.L553
 2085 0016 B0F5805F 		cmp	r0, #4096
 2086 001a 4DD0     		beq	.L554
 2087 001c B0F5002F 		cmp	r0, #524288
 2088 0020 00F08980 		beq	.L555
 2089 0024 B0F5803F 		cmp	r0, #65536
 2090 0028 00F09880 		beq	.L556
 2091 002c B0F5804F 		cmp	r0, #16384
 2092 0030 00F09F80 		beq	.L557
 2093              	.L502:
 2094 0034 0020     		movs	r0, #0
 2095              	.L457:
 2096 0036 05B0     		add	sp, sp, #20
 2097              		@ sp needed
 2098 0038 5DF804FB 		ldr	pc, [sp], #4
 2099              	.L552:
 2100 003c 654A     		ldr	r2, .L561
 2101 003e 936D     		ldr	r3, [r2, #88]
 2102 0040 03F46003 		and	r3, r3, #14680064
 2103 0044 B3F5800F 		cmp	r3, #4194304
 2104 0048 4CD0     		beq	.L463
 2105 004a 13D9     		bls	.L558
 2106 004c B3F5C00F 		cmp	r3, #6291456
 2107 0050 1BD0     		beq	.L494
 2108 0052 B3F5000F 		cmp	r3, #8388608
 2109 0056 EDD1     		bne	.L502
 2110              	.L474:
 2111 0058 D36C     		ldr	r3, [r2, #76]
 2112 005a 13F04053 		ands	r3, r3, #805306368
 2113 005e 4DD0     		beq	.L503
 2114              	.L546:
 2115 0060 B3F1805F 		cmp	r3, #268435456
 2116 0064 00F08380 		beq	.L504
 2117 0068 B3F1005F 		cmp	r3, #536870912
 2118 006c 5A48     		ldr	r0, .L561+4
 2119 006e 18BF     		it	ne
 2120 0070 0020     		movne	r0, #0
 2121 0072 E0E7     		b	.L457
 2122              	.L558:
 2123 0074 7BB3     		cbz	r3, .L465
 2124 0076 B3F5001F 		cmp	r3, #2097152
 2125 007a DBD1     		bne	.L502
 2126              	.L464:
 2127 007c 01A8     		add	r0, sp, #4
 2128 007e FFF7FEFF 		bl	HAL_RCCEx_GetPLL2ClockFreq
ARM GAS  C:\Users\Brandon\AppData\Local\Temp\cc15zA07.s 			page 38


 2129 0082 0198     		ldr	r0, [sp, #4]
 2130 0084 05B0     		add	sp, sp, #20
 2131              		@ sp needed
 2132 0086 5DF804FB 		ldr	pc, [sp], #4
 2133              	.L494:
 2134 008a 5448     		ldr	r0, .L561+8
 2135 008c 05B0     		add	sp, sp, #20
 2136              		@ sp needed
 2137 008e 5DF804FB 		ldr	pc, [sp], #4
 2138              	.L551:
 2139 0092 504B     		ldr	r3, .L561
 2140 0094 1B6D     		ldr	r3, [r3, #80]
 2141 0096 03F00703 		and	r3, r3, #7
 2142 009a 042B     		cmp	r3, #4
 2143 009c CAD8     		bhi	.L502
 2144 009e 01A2     		adr	r2, .L461
 2145 00a0 52F823F0 		ldr	pc, [r2, r3, lsl #2]
 2146              		.p2align 2
 2147              	.L461:
 2148 00a4 D7000000 		.word	.L465+1
 2149 00a8 7D000000 		.word	.L464+1
 2150 00ac E5000000 		.word	.L463+1
 2151 00b0 8B000000 		.word	.L494+1
 2152 00b4 F3000000 		.word	.L460+1
 2153              		.p2align 1
 2154              	.L554:
 2155 00b8 464A     		ldr	r2, .L561
 2156 00ba 136D     		ldr	r3, [r2, #80]
 2157 00bc 03F4E043 		and	r3, r3, #28672
 2158 00c0 B3F5005F 		cmp	r3, #8192
 2159 00c4 0ED0     		beq	.L463
 2160 00c6 1BD9     		bls	.L559
 2161 00c8 B3F5405F 		cmp	r3, #12288
 2162 00cc DDD0     		beq	.L494
 2163 00ce B3F5804F 		cmp	r3, #16384
 2164 00d2 C1D0     		beq	.L474
 2165 00d4 AEE7     		b	.L502
 2166              	.L465:
 2167 00d6 01A8     		add	r0, sp, #4
 2168 00d8 FFF7FEFF 		bl	HAL_RCCEx_GetPLL1ClockFreq
 2169 00dc 0298     		ldr	r0, [sp, #8]
 2170 00de 05B0     		add	sp, sp, #20
 2171              		@ sp needed
 2172 00e0 5DF804FB 		ldr	pc, [sp], #4
 2173              	.L463:
 2174 00e4 01A8     		add	r0, sp, #4
 2175 00e6 FFF7FEFF 		bl	HAL_RCCEx_GetPLL3ClockFreq
 2176 00ea 0198     		ldr	r0, [sp, #4]
 2177 00ec 05B0     		add	sp, sp, #20
 2178              		@ sp needed
 2179 00ee 5DF804FB 		ldr	pc, [sp], #4
 2180              	.L460:
 2181 00f2 384B     		ldr	r3, .L561
 2182 00f4 DB6C     		ldr	r3, [r3, #76]
 2183 00f6 13F04053 		ands	r3, r3, #805306368
 2184 00fa B1D1     		bne	.L546
 2185              	.L503:
ARM GAS  C:\Users\Brandon\AppData\Local\Temp\cc15zA07.s 			page 39


 2186 00fc 3848     		ldr	r0, .L561+12
 2187 00fe 9AE7     		b	.L457
 2188              	.L559:
 2189 0100 002B     		cmp	r3, #0
 2190 0102 E8D0     		beq	.L465
 2191 0104 B3F5805F 		cmp	r3, #4096
 2192 0108 B8D0     		beq	.L464
 2193 010a 93E7     		b	.L502
 2194              	.L553:
 2195 010c 314A     		ldr	r2, .L561
 2196 010e 936D     		ldr	r3, [r2, #88]
 2197 0110 03F0E063 		and	r3, r3, #117440512
 2198 0114 B3F1007F 		cmp	r3, #33554432
 2199 0118 E4D0     		beq	.L463
 2200 011a 05D8     		bhi	.L469
 2201 011c 002B     		cmp	r3, #0
 2202 011e DAD0     		beq	.L465
 2203 0120 B3F1807F 		cmp	r3, #16777216
 2204 0124 AAD0     		beq	.L464
 2205 0126 85E7     		b	.L502
 2206              	.L469:
 2207 0128 B3F1407F 		cmp	r3, #50331648
 2208 012c ADD0     		beq	.L494
 2209 012e B3F1806F 		cmp	r3, #67108864
 2210 0132 91D0     		beq	.L474
 2211 0134 7EE7     		b	.L502
 2212              	.L555:
 2213 0136 274A     		ldr	r2, .L561
 2214 0138 936D     		ldr	r3, [r2, #88]
 2215 013a 03F44033 		and	r3, r3, #196608
 2216 013e B3F5803F 		cmp	r3, #65536
 2217 0142 06D0     		beq	.L473
 2218 0144 B3F5003F 		cmp	r3, #131072
 2219 0148 86D0     		beq	.L474
 2220 014a 002B     		cmp	r3, #0
 2221 014c 7FF472AF 		bne	.L502
 2222 0150 94E7     		b	.L464
 2223              	.L473:
 2224 0152 01A8     		add	r0, sp, #4
 2225 0154 FFF7FEFF 		bl	HAL_RCCEx_GetPLL3ClockFreq
 2226 0158 0398     		ldr	r0, [sp, #12]
 2227 015a 6CE7     		b	.L457
 2228              	.L556:
 2229 015c 1D4B     		ldr	r3, .L561
 2230 015e DB6C     		ldr	r3, [r3, #76]
 2231 0160 DB03     		lsls	r3, r3, #15
 2232 0162 B8D5     		bpl	.L465
 2233 0164 01A8     		add	r0, sp, #4
 2234 0166 FFF7FEFF 		bl	HAL_RCCEx_GetPLL2ClockFreq
 2235 016a 0398     		ldr	r0, [sp, #12]
 2236 016c 63E7     		b	.L457
 2237              	.L504:
 2238 016e 1D48     		ldr	r0, .L561+16
 2239 0170 61E7     		b	.L457
 2240              	.L557:
 2241 0172 184B     		ldr	r3, .L561
 2242 0174 9B6D     		ldr	r3, [r3, #88]
ARM GAS  C:\Users\Brandon\AppData\Local\Temp\cc15zA07.s 			page 40


 2243 0176 03F0E043 		and	r3, r3, #1879048192
 2244 017a B3F1405F 		cmp	r3, #805306368
 2245 017e BDD0     		beq	.L503
 2246 0180 0AD8     		bhi	.L476
 2247 0182 B3F1805F 		cmp	r3, #268435456
 2248 0186 1FD0     		beq	.L477
 2249 0188 B3F1005F 		cmp	r3, #536870912
 2250 018c 0DD1     		bne	.L560
 2251 018e 01A8     		add	r0, sp, #4
 2252 0190 FFF7FEFF 		bl	HAL_RCCEx_GetPLL3ClockFreq
 2253 0194 0298     		ldr	r0, [sp, #8]
 2254 0196 4EE7     		b	.L457
 2255              	.L476:
 2256 0198 B3F1804F 		cmp	r3, #1073741824
 2257 019c E7D0     		beq	.L504
 2258 019e B3F1A04F 		cmp	r3, #1342177280
 2259 01a2 0D48     		ldr	r0, .L561+4
 2260 01a4 18BF     		it	ne
 2261 01a6 0020     		movne	r0, #0
 2262 01a8 45E7     		b	.L457
 2263              	.L560:
 2264 01aa 002B     		cmp	r3, #0
 2265 01ac 7FF442AF 		bne	.L502
 2266 01b0 FFF7FEFF 		bl	HAL_RCC_GetHCLKFreq
 2267 01b4 074B     		ldr	r3, .L561
 2268 01b6 0C4A     		ldr	r2, .L561+20
 2269 01b8 1B6A     		ldr	r3, [r3, #32]
 2270 01ba C3F30213 		ubfx	r3, r3, #4, #3
 2271 01be D35C     		ldrb	r3, [r2, r3]	@ zero_extendqisi2
 2272 01c0 03F01F03 		and	r3, r3, #31
 2273 01c4 D840     		lsrs	r0, r0, r3
 2274 01c6 36E7     		b	.L457
 2275              	.L477:
 2276 01c8 01A8     		add	r0, sp, #4
 2277 01ca FFF7FEFF 		bl	HAL_RCCEx_GetPLL2ClockFreq
 2278 01ce 0298     		ldr	r0, [sp, #8]
 2279 01d0 31E7     		b	.L457
 2280              	.L562:
 2281 01d2 00BF     		.align	2
 2282              	.L561:
 2283 01d4 00440258 		.word	1476543488
 2284 01d8 002D3101 		.word	20000000
 2285 01dc 0080BB00 		.word	12288000
 2286 01e0 0090D003 		.word	64000000
 2287 01e4 00093D00 		.word	4000000
 2288 01e8 00000000 		.word	D1CorePrescTable
 2290              		.section	.text.HAL_RCCEx_GetD1SysClockFreq,"ax",%progbits
 2291              		.align	1
 2292              		.p2align 2,,3
 2293              		.global	HAL_RCCEx_GetD1SysClockFreq
 2294              		.syntax unified
 2295              		.thumb
 2296              		.thumb_func
 2297              		.fpu fpv5-d16
 2299              	HAL_RCCEx_GetD1SysClockFreq:
 2300              		@ args = 0, pretend = 0, frame = 0
 2301              		@ frame_needed = 0, uses_anonymous_args = 0
ARM GAS  C:\Users\Brandon\AppData\Local\Temp\cc15zA07.s 			page 41


 2302 0000 38B5     		push	{r3, r4, r5, lr}
 2303 0002 FFF7FEFF 		bl	HAL_RCC_GetSysClockFreq
 2304 0006 0B4B     		ldr	r3, .L565
 2305 0008 0B49     		ldr	r1, .L565+4
 2306 000a 9A69     		ldr	r2, [r3, #24]
 2307 000c 9B69     		ldr	r3, [r3, #24]
 2308 000e C2F30322 		ubfx	r2, r2, #8, #4
 2309 0012 0A4C     		ldr	r4, .L565+8
 2310 0014 03F00F03 		and	r3, r3, #15
 2311 0018 094D     		ldr	r5, .L565+12
 2312 001a 8A5C     		ldrb	r2, [r1, r2]	@ zero_extendqisi2
 2313 001c CB5C     		ldrb	r3, [r1, r3]	@ zero_extendqisi2
 2314 001e 02F01F02 		and	r2, r2, #31
 2315 0022 03F01F03 		and	r3, r3, #31
 2316 0026 D040     		lsrs	r0, r0, r2
 2317 0028 20FA03F3 		lsr	r3, r0, r3
 2318 002c 2860     		str	r0, [r5]
 2319 002e 2360     		str	r3, [r4]
 2320 0030 38BD     		pop	{r3, r4, r5, pc}
 2321              	.L566:
 2322 0032 00BF     		.align	2
 2323              	.L565:
 2324 0034 00440258 		.word	1476543488
 2325 0038 00000000 		.word	D1CorePrescTable
 2326 003c 00000000 		.word	SystemD2Clock
 2327 0040 00000000 		.word	SystemCoreClock
 2329              		.section	.text.HAL_RCCEx_EnableLSECSS,"ax",%progbits
 2330              		.align	1
 2331              		.p2align 2,,3
 2332              		.global	HAL_RCCEx_EnableLSECSS
 2333              		.syntax unified
 2334              		.thumb
 2335              		.thumb_func
 2336              		.fpu fpv5-d16
 2338              	HAL_RCCEx_EnableLSECSS:
 2339              		@ args = 0, pretend = 0, frame = 0
 2340              		@ frame_needed = 0, uses_anonymous_args = 0
 2341              		@ link register save eliminated.
 2342 0000 024A     		ldr	r2, .L568
 2343 0002 136F     		ldr	r3, [r2, #112]
 2344 0004 43F02003 		orr	r3, r3, #32
 2345 0008 1367     		str	r3, [r2, #112]
 2346 000a 7047     		bx	lr
 2347              	.L569:
 2348              		.align	2
 2349              	.L568:
 2350 000c 00440258 		.word	1476543488
 2352              		.section	.text.HAL_RCCEx_DisableLSECSS,"ax",%progbits
 2353              		.align	1
 2354              		.p2align 2,,3
 2355              		.global	HAL_RCCEx_DisableLSECSS
 2356              		.syntax unified
 2357              		.thumb
 2358              		.thumb_func
 2359              		.fpu fpv5-d16
 2361              	HAL_RCCEx_DisableLSECSS:
 2362              		@ args = 0, pretend = 0, frame = 0
ARM GAS  C:\Users\Brandon\AppData\Local\Temp\cc15zA07.s 			page 42


 2363              		@ frame_needed = 0, uses_anonymous_args = 0
 2364              		@ link register save eliminated.
 2365 0000 044B     		ldr	r3, .L571
 2366 0002 1A6F     		ldr	r2, [r3, #112]
 2367 0004 22F02002 		bic	r2, r2, #32
 2368 0008 1A67     		str	r2, [r3, #112]
 2369 000a 1A6E     		ldr	r2, [r3, #96]
 2370 000c 22F40072 		bic	r2, r2, #512
 2371 0010 1A66     		str	r2, [r3, #96]
 2372 0012 7047     		bx	lr
 2373              	.L572:
 2374              		.align	2
 2375              	.L571:
 2376 0014 00440258 		.word	1476543488
 2378              		.section	.text.HAL_RCCEx_EnableLSECSS_IT,"ax",%progbits
 2379              		.align	1
 2380              		.p2align 2,,3
 2381              		.global	HAL_RCCEx_EnableLSECSS_IT
 2382              		.syntax unified
 2383              		.thumb
 2384              		.thumb_func
 2385              		.fpu fpv5-d16
 2387              	HAL_RCCEx_EnableLSECSS_IT:
 2388              		@ args = 0, pretend = 0, frame = 0
 2389              		@ frame_needed = 0, uses_anonymous_args = 0
 2390              		@ link register save eliminated.
 2391 0000 0A4A     		ldr	r2, .L574
 2392 0002 4FF0B043 		mov	r3, #1476395008
 2393 0006 116F     		ldr	r1, [r2, #112]
 2394 0008 41F02001 		orr	r1, r1, #32
 2395 000c 1167     		str	r1, [r2, #112]
 2396 000e 116E     		ldr	r1, [r2, #96]
 2397 0010 41F40071 		orr	r1, r1, #512
 2398 0014 1166     		str	r1, [r2, #96]
 2399 0016 D3F88020 		ldr	r2, [r3, #128]
 2400 001a 42F48022 		orr	r2, r2, #262144
 2401 001e C3F88020 		str	r2, [r3, #128]
 2402 0022 1A68     		ldr	r2, [r3]
 2403 0024 42F48022 		orr	r2, r2, #262144
 2404 0028 1A60     		str	r2, [r3]
 2405 002a 7047     		bx	lr
 2406              	.L575:
 2407              		.align	2
 2408              	.L574:
 2409 002c 00440258 		.word	1476543488
 2411              		.section	.text.HAL_RCCEx_WakeUpStopCLKConfig,"ax",%progbits
 2412              		.align	1
 2413              		.p2align 2,,3
 2414              		.global	HAL_RCCEx_WakeUpStopCLKConfig
 2415              		.syntax unified
 2416              		.thumb
 2417              		.thumb_func
 2418              		.fpu fpv5-d16
 2420              	HAL_RCCEx_WakeUpStopCLKConfig:
 2421              		@ args = 0, pretend = 0, frame = 0
 2422              		@ frame_needed = 0, uses_anonymous_args = 0
 2423              		@ link register save eliminated.
ARM GAS  C:\Users\Brandon\AppData\Local\Temp\cc15zA07.s 			page 43


 2424 0000 034A     		ldr	r2, .L577
 2425 0002 1369     		ldr	r3, [r2, #16]
 2426 0004 23F04003 		bic	r3, r3, #64
 2427 0008 1843     		orrs	r0, r0, r3
 2428 000a 1061     		str	r0, [r2, #16]
 2429 000c 7047     		bx	lr
 2430              	.L578:
 2431 000e 00BF     		.align	2
 2432              	.L577:
 2433 0010 00440258 		.word	1476543488
 2435              		.section	.text.HAL_RCCEx_KerWakeUpStopCLKConfig,"ax",%progbits
 2436              		.align	1
 2437              		.p2align 2,,3
 2438              		.global	HAL_RCCEx_KerWakeUpStopCLKConfig
 2439              		.syntax unified
 2440              		.thumb
 2441              		.thumb_func
 2442              		.fpu fpv5-d16
 2444              	HAL_RCCEx_KerWakeUpStopCLKConfig:
 2445              		@ args = 0, pretend = 0, frame = 0
 2446              		@ frame_needed = 0, uses_anonymous_args = 0
 2447              		@ link register save eliminated.
 2448 0000 034A     		ldr	r2, .L580
 2449 0002 1369     		ldr	r3, [r2, #16]
 2450 0004 23F08003 		bic	r3, r3, #128
 2451 0008 1843     		orrs	r0, r0, r3
 2452 000a 1061     		str	r0, [r2, #16]
 2453 000c 7047     		bx	lr
 2454              	.L581:
 2455 000e 00BF     		.align	2
 2456              	.L580:
 2457 0010 00440258 		.word	1476543488
 2459              		.section	.text.HAL_RCCEx_WWDGxSysResetConfig,"ax",%progbits
 2460              		.align	1
 2461              		.p2align 2,,3
 2462              		.global	HAL_RCCEx_WWDGxSysResetConfig
 2463              		.syntax unified
 2464              		.thumb
 2465              		.thumb_func
 2466              		.fpu fpv5-d16
 2468              	HAL_RCCEx_WWDGxSysResetConfig:
 2469              		@ args = 0, pretend = 0, frame = 0
 2470              		@ frame_needed = 0, uses_anonymous_args = 0
 2471              		@ link register save eliminated.
 2472 0000 034A     		ldr	r2, .L583
 2473 0002 D2F8A030 		ldr	r3, [r2, #160]
 2474 0006 1843     		orrs	r0, r0, r3
 2475 0008 C2F8A000 		str	r0, [r2, #160]
 2476 000c 7047     		bx	lr
 2477              	.L584:
 2478 000e 00BF     		.align	2
 2479              	.L583:
 2480 0010 00440258 		.word	1476543488
 2482              		.section	.text.HAL_RCCEx_CRSConfig,"ax",%progbits
 2483              		.align	1
 2484              		.p2align 2,,3
 2485              		.global	HAL_RCCEx_CRSConfig
ARM GAS  C:\Users\Brandon\AppData\Local\Temp\cc15zA07.s 			page 44


 2486              		.syntax unified
 2487              		.thumb
 2488              		.thumb_func
 2489              		.fpu fpv5-d16
 2491              	HAL_RCCEx_CRSConfig:
 2492              		@ args = 0, pretend = 0, frame = 0
 2493              		@ frame_needed = 0, uses_anonymous_args = 0
 2494 0000 194B     		ldr	r3, .L591
 2495 0002 D3F89420 		ldr	r2, [r3, #148]
 2496 0006 42F00202 		orr	r2, r2, #2
 2497 000a 10B5     		push	{r4, lr}
 2498 000c C3F89420 		str	r2, [r3, #148]
 2499 0010 0446     		mov	r4, r0
 2500 0012 D3F89420 		ldr	r2, [r3, #148]
 2501 0016 22F00202 		bic	r2, r2, #2
 2502 001a C3F89420 		str	r2, [r3, #148]
 2503 001e FFF7FEFF 		bl	HAL_GetREVID
 2504 0022 41F20303 		movw	r3, #4099
 2505 0026 6168     		ldr	r1, [r4, #4]
 2506 0028 9842     		cmp	r0, r3
 2507 002a 02D8     		bhi	.L587
 2508 002c B1F1405F 		cmp	r1, #805306368
 2509 0030 16D0     		beq	.L590
 2510              	.L587:
 2511 0032 2368     		ldr	r3, [r4]
 2512 0034 A268     		ldr	r2, [r4, #8]
 2513 0036 1A43     		orrs	r2, r2, r3
 2514 0038 1143     		orrs	r1, r1, r2
 2515              	.L588:
 2516 003a 0C4B     		ldr	r3, .L591+4
 2517 003c D4E90320 		ldrd	r2, r0, [r4, #12]
 2518 0040 42EA0042 		orr	r2, r2, r0, lsl #16
 2519 0044 0A43     		orrs	r2, r2, r1
 2520 0046 5A60     		str	r2, [r3, #4]
 2521 0048 1A68     		ldr	r2, [r3]
 2522 004a 6169     		ldr	r1, [r4, #20]
 2523 004c 22F47C52 		bic	r2, r2, #16128
 2524 0050 42EA0122 		orr	r2, r2, r1, lsl #8
 2525 0054 1A60     		str	r2, [r3]
 2526 0056 1A68     		ldr	r2, [r3]
 2527 0058 42F06002 		orr	r2, r2, #96
 2528 005c 1A60     		str	r2, [r3]
 2529 005e 10BD     		pop	{r4, pc}
 2530              	.L590:
 2531 0060 2268     		ldr	r2, [r4]
 2532 0062 A168     		ldr	r1, [r4, #8]
 2533 0064 1143     		orrs	r1, r1, r2
 2534 0066 E8E7     		b	.L588
 2535              	.L592:
 2536              		.align	2
 2537              	.L591:
 2538 0068 00440258 		.word	1476543488
 2539 006c 00840040 		.word	1073775616
 2541              		.section	.text.HAL_RCCEx_CRSSoftwareSynchronizationGenerate,"ax",%progbits
 2542              		.align	1
 2543              		.p2align 2,,3
 2544              		.global	HAL_RCCEx_CRSSoftwareSynchronizationGenerate
ARM GAS  C:\Users\Brandon\AppData\Local\Temp\cc15zA07.s 			page 45


 2545              		.syntax unified
 2546              		.thumb
 2547              		.thumb_func
 2548              		.fpu fpv5-d16
 2550              	HAL_RCCEx_CRSSoftwareSynchronizationGenerate:
 2551              		@ args = 0, pretend = 0, frame = 0
 2552              		@ frame_needed = 0, uses_anonymous_args = 0
 2553              		@ link register save eliminated.
 2554 0000 024A     		ldr	r2, .L594
 2555 0002 1368     		ldr	r3, [r2]
 2556 0004 43F08003 		orr	r3, r3, #128
 2557 0008 1360     		str	r3, [r2]
 2558 000a 7047     		bx	lr
 2559              	.L595:
 2560              		.align	2
 2561              	.L594:
 2562 000c 00840040 		.word	1073775616
 2564              		.section	.text.HAL_RCCEx_CRSGetSynchronizationInfo,"ax",%progbits
 2565              		.align	1
 2566              		.p2align 2,,3
 2567              		.global	HAL_RCCEx_CRSGetSynchronizationInfo
 2568              		.syntax unified
 2569              		.thumb
 2570              		.thumb_func
 2571              		.fpu fpv5-d16
 2573              	HAL_RCCEx_CRSGetSynchronizationInfo:
 2574              		@ args = 0, pretend = 0, frame = 0
 2575              		@ frame_needed = 0, uses_anonymous_args = 0
 2576              		@ link register save eliminated.
 2577 0000 074B     		ldr	r3, .L597
 2578 0002 5A68     		ldr	r2, [r3, #4]
 2579 0004 92B2     		uxth	r2, r2
 2580 0006 0260     		str	r2, [r0]
 2581 0008 1A68     		ldr	r2, [r3]
 2582 000a C2F30522 		ubfx	r2, r2, #8, #6
 2583 000e 4260     		str	r2, [r0, #4]
 2584 0010 9A68     		ldr	r2, [r3, #8]
 2585 0012 120C     		lsrs	r2, r2, #16
 2586 0014 8260     		str	r2, [r0, #8]
 2587 0016 9B68     		ldr	r3, [r3, #8]
 2588 0018 03F40043 		and	r3, r3, #32768
 2589 001c C360     		str	r3, [r0, #12]
 2590 001e 7047     		bx	lr
 2591              	.L598:
 2592              		.align	2
 2593              	.L597:
 2594 0020 00840040 		.word	1073775616
 2596              		.section	.text.HAL_RCCEx_CRSWaitSynchronization,"ax",%progbits
 2597              		.align	1
 2598              		.p2align 2,,3
 2599              		.global	HAL_RCCEx_CRSWaitSynchronization
 2600              		.syntax unified
 2601              		.thumb
 2602              		.thumb_func
 2603              		.fpu fpv5-d16
 2605              	HAL_RCCEx_CRSWaitSynchronization:
 2606              		@ args = 0, pretend = 0, frame = 0
ARM GAS  C:\Users\Brandon\AppData\Local\Temp\cc15zA07.s 			page 46


 2607              		@ frame_needed = 0, uses_anonymous_args = 0
 2608 0000 2DE9F041 		push	{r4, r5, r6, r7, r8, lr}
 2609 0004 0546     		mov	r5, r0
 2610 0006 234C     		ldr	r4, .L630
 2611 0008 FFF7FEFF 		bl	HAL_GetTick
 2612 000c 4FF00108 		mov	r8, #1
 2613 0010 0227     		movs	r7, #2
 2614 0012 0646     		mov	r6, r0
 2615              	.L609:
 2616 0014 6A1C     		adds	r2, r5, #1
 2617 0016 35D0     		beq	.L610
 2618 0018 FFF7FEFF 		bl	HAL_GetTick
 2619 001c B5FA85F2 		clz	r2, r5
 2620 0020 801B     		subs	r0, r0, r6
 2621 0022 5209     		lsrs	r2, r2, #5
 2622 0024 A842     		cmp	r0, r5
 2623 0026 94BF     		ite	ls
 2624 0028 1046     		movls	r0, r2
 2625 002a 42F00100 		orrhi	r0, r2, #1
 2626              	.L600:
 2627 002e A268     		ldr	r2, [r4, #8]
 2628 0030 D307     		lsls	r3, r2, #31
 2629 0032 03D5     		bpl	.L601
 2630 0034 40F00200 		orr	r0, r0, #2
 2631 0038 C4F80C80 		str	r8, [r4, #12]
 2632              	.L601:
 2633 003c A268     		ldr	r2, [r4, #8]
 2634 003e 9107     		lsls	r1, r2, #30
 2635 0040 02D5     		bpl	.L602
 2636 0042 40F00400 		orr	r0, r0, #4
 2637 0046 E760     		str	r7, [r4, #12]
 2638              	.L602:
 2639 0048 A268     		ldr	r2, [r4, #8]
 2640 004a 5205     		lsls	r2, r2, #21
 2641 004c 03D5     		bpl	.L603
 2642 004e 0422     		movs	r2, #4
 2643 0050 40F02000 		orr	r0, r0, #32
 2644 0054 E260     		str	r2, [r4, #12]
 2645              	.L603:
 2646 0056 A268     		ldr	r2, [r4, #8]
 2647 0058 D305     		lsls	r3, r2, #23
 2648 005a 03D5     		bpl	.L604
 2649 005c 0422     		movs	r2, #4
 2650 005e 40F00800 		orr	r0, r0, #8
 2651 0062 E260     		str	r2, [r4, #12]
 2652              	.L604:
 2653 0064 A268     		ldr	r2, [r4, #8]
 2654 0066 9105     		lsls	r1, r2, #22
 2655 0068 0ED5     		bpl	.L605
 2656 006a 0422     		movs	r2, #4
 2657 006c 40F01000 		orr	r0, r0, #16
 2658 0070 E260     		str	r2, [r4, #12]
 2659 0072 A268     		ldr	r2, [r4, #8]
 2660 0074 1207     		lsls	r2, r2, #28
 2661 0076 03D5     		bpl	.L599
 2662              	.L606:
 2663 0078 0822     		movs	r2, #8
ARM GAS  C:\Users\Brandon\AppData\Local\Temp\cc15zA07.s 			page 47


 2664 007a E260     		str	r2, [r4, #12]
 2665 007c 0028     		cmp	r0, #0
 2666 007e C9D0     		beq	.L609
 2667              	.L599:
 2668 0080 BDE8F081 		pop	{r4, r5, r6, r7, r8, pc}
 2669              	.L610:
 2670 0084 0020     		movs	r0, #0
 2671 0086 D2E7     		b	.L600
 2672              	.L605:
 2673 0088 A268     		ldr	r2, [r4, #8]
 2674 008a 1307     		lsls	r3, r2, #28
 2675 008c F4D4     		bmi	.L606
 2676 008e 0028     		cmp	r0, #0
 2677 0090 C0D0     		beq	.L609
 2678 0092 F5E7     		b	.L599
 2679              	.L631:
 2680              		.align	2
 2681              	.L630:
 2682 0094 00840040 		.word	1073775616
 2684              		.section	.text.HAL_RCCEx_CRS_SyncOkCallback,"ax",%progbits
 2685              		.align	1
 2686              		.p2align 2,,3
 2687              		.weak	HAL_RCCEx_CRS_SyncOkCallback
 2688              		.syntax unified
 2689              		.thumb
 2690              		.thumb_func
 2691              		.fpu fpv5-d16
 2693              	HAL_RCCEx_CRS_SyncOkCallback:
 2694              		@ args = 0, pretend = 0, frame = 0
 2695              		@ frame_needed = 0, uses_anonymous_args = 0
 2696              		@ link register save eliminated.
 2697 0000 7047     		bx	lr
 2699 0002 00BF     		.section	.text.HAL_RCCEx_CRS_SyncWarnCallback,"ax",%progbits
 2700              		.align	1
 2701              		.p2align 2,,3
 2702              		.weak	HAL_RCCEx_CRS_SyncWarnCallback
 2703              		.syntax unified
 2704              		.thumb
 2705              		.thumb_func
 2706              		.fpu fpv5-d16
 2708              	HAL_RCCEx_CRS_SyncWarnCallback:
 2709              		@ args = 0, pretend = 0, frame = 0
 2710              		@ frame_needed = 0, uses_anonymous_args = 0
 2711              		@ link register save eliminated.
 2712 0000 7047     		bx	lr
 2714 0002 00BF     		.section	.text.HAL_RCCEx_CRS_ExpectedSyncCallback,"ax",%progbits
 2715              		.align	1
 2716              		.p2align 2,,3
 2717              		.weak	HAL_RCCEx_CRS_ExpectedSyncCallback
 2718              		.syntax unified
 2719              		.thumb
 2720              		.thumb_func
 2721              		.fpu fpv5-d16
 2723              	HAL_RCCEx_CRS_ExpectedSyncCallback:
 2724              		@ args = 0, pretend = 0, frame = 0
 2725              		@ frame_needed = 0, uses_anonymous_args = 0
 2726              		@ link register save eliminated.
ARM GAS  C:\Users\Brandon\AppData\Local\Temp\cc15zA07.s 			page 48


 2727 0000 7047     		bx	lr
 2729 0002 00BF     		.section	.text.HAL_RCCEx_CRS_ErrorCallback,"ax",%progbits
 2730              		.align	1
 2731              		.p2align 2,,3
 2732              		.weak	HAL_RCCEx_CRS_ErrorCallback
 2733              		.syntax unified
 2734              		.thumb
 2735              		.thumb_func
 2736              		.fpu fpv5-d16
 2738              	HAL_RCCEx_CRS_ErrorCallback:
 2739              		@ args = 0, pretend = 0, frame = 0
 2740              		@ frame_needed = 0, uses_anonymous_args = 0
 2741              		@ link register save eliminated.
 2742 0000 7047     		bx	lr
 2744 0002 00BF     		.section	.text.HAL_RCCEx_CRS_IRQHandler,"ax",%progbits
 2745              		.align	1
 2746              		.p2align 2,,3
 2747              		.global	HAL_RCCEx_CRS_IRQHandler
 2748              		.syntax unified
 2749              		.thumb
 2750              		.thumb_func
 2751              		.fpu fpv5-d16
 2753              	HAL_RCCEx_CRS_IRQHandler:
 2754              		@ args = 0, pretend = 0, frame = 0
 2755              		@ frame_needed = 0, uses_anonymous_args = 0
 2756 0000 1B4A     		ldr	r2, .L680
 2757 0002 08B5     		push	{r3, lr}
 2758 0004 9368     		ldr	r3, [r2, #8]
 2759 0006 1168     		ldr	r1, [r2]
 2760 0008 D807     		lsls	r0, r3, #31
 2761 000a 01D5     		bpl	.L637
 2762 000c C807     		lsls	r0, r1, #31
 2763 000e 1ED4     		bmi	.L677
 2764              	.L637:
 2765 0010 9807     		lsls	r0, r3, #30
 2766 0012 01D5     		bpl	.L639
 2767 0014 8A07     		lsls	r2, r1, #30
 2768 0016 1FD4     		bmi	.L678
 2769              	.L639:
 2770 0018 1807     		lsls	r0, r3, #28
 2771 001a 01D5     		bpl	.L640
 2772 001c 0A07     		lsls	r2, r1, #28
 2773 001e 21D4     		bmi	.L679
 2774              	.L640:
 2775 0020 5807     		lsls	r0, r3, #29
 2776 0022 13D5     		bpl	.L636
 2777 0024 4907     		lsls	r1, r1, #29
 2778 0026 11D5     		bpl	.L636
 2779 0028 13F48070 		ands	r0, r3, #256
 2780 002c 18BF     		it	ne
 2781 002e 0820     		movne	r0, #8
 2782 0030 9A05     		lsls	r2, r3, #22
 2783 0032 4FF00402 		mov	r2, #4
 2784 0036 48BF     		it	mi
 2785 0038 40F01000 		orrmi	r0, r0, #16
 2786 003c 5B05     		lsls	r3, r3, #21
 2787 003e 0C4B     		ldr	r3, .L680
ARM GAS  C:\Users\Brandon\AppData\Local\Temp\cc15zA07.s 			page 49


 2788 0040 48BF     		it	mi
 2789 0042 40F02000 		orrmi	r0, r0, #32
 2790 0046 DA60     		str	r2, [r3, #12]
 2791 0048 FFF7FEFF 		bl	HAL_RCCEx_CRS_ErrorCallback
 2792              	.L636:
 2793 004c 08BD     		pop	{r3, pc}
 2794              	.L677:
 2795 004e 0123     		movs	r3, #1
 2796 0050 D360     		str	r3, [r2, #12]
 2797 0052 FFF7FEFF 		bl	HAL_RCCEx_CRS_SyncOkCallback
 2798 0056 08BD     		pop	{r3, pc}
 2799              	.L678:
 2800 0058 054B     		ldr	r3, .L680
 2801 005a 0222     		movs	r2, #2
 2802 005c DA60     		str	r2, [r3, #12]
 2803 005e FFF7FEFF 		bl	HAL_RCCEx_CRS_SyncWarnCallback
 2804 0062 08BD     		pop	{r3, pc}
 2805              	.L679:
 2806 0064 024B     		ldr	r3, .L680
 2807 0066 0822     		movs	r2, #8
 2808 0068 DA60     		str	r2, [r3, #12]
 2809 006a FFF7FEFF 		bl	HAL_RCCEx_CRS_ExpectedSyncCallback
 2810 006e 08BD     		pop	{r3, pc}
 2811              	.L681:
 2812              		.align	2
 2813              	.L680:
 2814 0070 00840040 		.word	1073775616
 2816              		.section	.text.HAL_RCCEx_LSECSS_Callback,"ax",%progbits
 2817              		.align	1
 2818              		.p2align 2,,3
 2819              		.weak	HAL_RCCEx_LSECSS_Callback
 2820              		.syntax unified
 2821              		.thumb
 2822              		.thumb_func
 2823              		.fpu fpv5-d16
 2825              	HAL_RCCEx_LSECSS_Callback:
 2826              		@ args = 0, pretend = 0, frame = 0
 2827              		@ frame_needed = 0, uses_anonymous_args = 0
 2828              		@ link register save eliminated.
 2829 0000 7047     		bx	lr
 2831 0002 00BF     		.section	.text.HAL_RCCEx_LSECSS_IRQHandler,"ax",%progbits
 2832              		.align	1
 2833              		.p2align 2,,3
 2834              		.global	HAL_RCCEx_LSECSS_IRQHandler
 2835              		.syntax unified
 2836              		.thumb
 2837              		.thumb_func
 2838              		.fpu fpv5-d16
 2840              	HAL_RCCEx_LSECSS_IRQHandler:
 2841              		@ args = 0, pretend = 0, frame = 0
 2842              		@ frame_needed = 0, uses_anonymous_args = 0
 2843 0000 08B5     		push	{r3, lr}
 2844 0002 054B     		ldr	r3, .L690
 2845 0004 5A6E     		ldr	r2, [r3, #100]
 2846 0006 9205     		lsls	r2, r2, #22
 2847 0008 00D4     		bmi	.L689
 2848 000a 08BD     		pop	{r3, pc}
ARM GAS  C:\Users\Brandon\AppData\Local\Temp\cc15zA07.s 			page 50


 2849              	.L689:
 2850 000c 4FF40072 		mov	r2, #512
 2851 0010 9A66     		str	r2, [r3, #104]
 2852 0012 FFF7FEFF 		bl	HAL_RCCEx_LSECSS_Callback
 2853 0016 08BD     		pop	{r3, pc}
 2854              	.L691:
 2855              		.align	2
 2856              	.L690:
 2857 0018 00440258 		.word	1476543488
 2859              		.ident	"GCC: (GNU Arm Embedded Toolchain 9-2020-q2-update) 9.3.1 20200408 (release)"
ARM GAS  C:\Users\Brandon\AppData\Local\Temp\cc15zA07.s 			page 51

