ARM GAS  C:\Users\Brandon\AppData\Local\Temp\ccWwFbJH.s 			page 1


   1              		.cpu cortex-m7
   2              		.eabi_attribute 28, 1
   3              		.eabi_attribute 20, 1
   4              		.eabi_attribute 21, 1
   5              		.eabi_attribute 23, 3
   6              		.eabi_attribute 24, 1
   7              		.eabi_attribute 25, 1
   8              		.eabi_attribute 26, 1
   9              		.eabi_attribute 30, 2
  10              		.eabi_attribute 34, 1
  11              		.eabi_attribute 18, 4
  12              		.file	"stm32h7xx_hal_hsem.c"
  13              		.text
  14              		.section	.text.HAL_HSEM_Take,"ax",%progbits
  15              		.align	1
  16              		.p2align 2,,3
  17              		.global	HAL_HSEM_Take
  18              		.arch armv7e-m
  19              		.syntax unified
  20              		.thumb
  21              		.thumb_func
  22              		.fpu fpv5-d16
  24              	HAL_HSEM_Take:
  25              		@ args = 0, pretend = 0, frame = 0
  26              		@ frame_needed = 0, uses_anonymous_args = 0
  27              		@ link register save eliminated.
  28 0000 054B     		ldr	r3, .L3
  29 0002 064A     		ldr	r2, .L3+4
  30 0004 0B43     		orrs	r3, r3, r1
  31 0006 42F82030 		str	r3, [r2, r0, lsl #2]
  32 000a 52F82000 		ldr	r0, [r2, r0, lsl #2]
  33 000e 181A     		subs	r0, r3, r0
  34 0010 18BF     		it	ne
  35 0012 0120     		movne	r0, #1
  36 0014 7047     		bx	lr
  37              	.L4:
  38 0016 00BF     		.align	2
  39              	.L3:
  40 0018 00030080 		.word	-2147482880
  41 001c 00640258 		.word	1476551680
  43              		.section	.text.HAL_HSEM_FastTake,"ax",%progbits
  44              		.align	1
  45              		.p2align 2,,3
  46              		.global	HAL_HSEM_FastTake
  47              		.syntax unified
  48              		.thumb
  49              		.thumb_func
  50              		.fpu fpv5-d16
  52              	HAL_HSEM_FastTake:
  53              		@ args = 0, pretend = 0, frame = 0
  54              		@ frame_needed = 0, uses_anonymous_args = 0
  55              		@ link register save eliminated.
  56 0000 044A     		ldr	r2, .L6
  57 0002 2030     		adds	r0, r0, #32
  58 0004 044B     		ldr	r3, .L6+4
  59 0006 52F82000 		ldr	r0, [r2, r0, lsl #2]
  60 000a C01A     		subs	r0, r0, r3
ARM GAS  C:\Users\Brandon\AppData\Local\Temp\ccWwFbJH.s 			page 2


  61 000c 18BF     		it	ne
  62 000e 0120     		movne	r0, #1
  63 0010 7047     		bx	lr
  64              	.L7:
  65 0012 00BF     		.align	2
  66              	.L6:
  67 0014 00640258 		.word	1476551680
  68 0018 00030080 		.word	-2147482880
  70              		.section	.text.HAL_HSEM_IsSemTaken,"ax",%progbits
  71              		.align	1
  72              		.p2align 2,,3
  73              		.global	HAL_HSEM_IsSemTaken
  74              		.syntax unified
  75              		.thumb
  76              		.thumb_func
  77              		.fpu fpv5-d16
  79              	HAL_HSEM_IsSemTaken:
  80              		@ args = 0, pretend = 0, frame = 0
  81              		@ frame_needed = 0, uses_anonymous_args = 0
  82              		@ link register save eliminated.
  83 0000 024B     		ldr	r3, .L9
  84 0002 53F82000 		ldr	r0, [r3, r0, lsl #2]
  85 0006 C00F     		lsrs	r0, r0, #31
  86 0008 7047     		bx	lr
  87              	.L10:
  88 000a 00BF     		.align	2
  89              	.L9:
  90 000c 00640258 		.word	1476551680
  92              		.section	.text.HAL_HSEM_Release,"ax",%progbits
  93              		.align	1
  94              		.p2align 2,,3
  95              		.global	HAL_HSEM_Release
  96              		.syntax unified
  97              		.thumb
  98              		.thumb_func
  99              		.fpu fpv5-d16
 101              	HAL_HSEM_Release:
 102              		@ args = 0, pretend = 0, frame = 0
 103              		@ frame_needed = 0, uses_anonymous_args = 0
 104              		@ link register save eliminated.
 105 0000 024B     		ldr	r3, .L12
 106 0002 41F44071 		orr	r1, r1, #768
 107 0006 43F82010 		str	r1, [r3, r0, lsl #2]
 108 000a 7047     		bx	lr
 109              	.L13:
 110              		.align	2
 111              	.L12:
 112 000c 00640258 		.word	1476551680
 114              		.section	.text.HAL_HSEM_ReleaseAll,"ax",%progbits
 115              		.align	1
 116              		.p2align 2,,3
 117              		.global	HAL_HSEM_ReleaseAll
 118              		.syntax unified
 119              		.thumb
 120              		.thumb_func
 121              		.fpu fpv5-d16
 123              	HAL_HSEM_ReleaseAll:
ARM GAS  C:\Users\Brandon\AppData\Local\Temp\ccWwFbJH.s 			page 3


 124              		@ args = 0, pretend = 0, frame = 0
 125              		@ frame_needed = 0, uses_anonymous_args = 0
 126              		@ link register save eliminated.
 127 0000 0902     		lsls	r1, r1, #8
 128 0002 034B     		ldr	r3, .L15
 129 0004 41EA0041 		orr	r1, r1, r0, lsl #16
 130 0008 C3F84011 		str	r1, [r3, #320]
 131 000c 7047     		bx	lr
 132              	.L16:
 133 000e 00BF     		.align	2
 134              	.L15:
 135 0010 00640258 		.word	1476551680
 137              		.section	.text.HAL_HSEM_SetClearKey,"ax",%progbits
 138              		.align	1
 139              		.p2align 2,,3
 140              		.global	HAL_HSEM_SetClearKey
 141              		.syntax unified
 142              		.thumb
 143              		.thumb_func
 144              		.fpu fpv5-d16
 146              	HAL_HSEM_SetClearKey:
 147              		@ args = 0, pretend = 0, frame = 0
 148              		@ frame_needed = 0, uses_anonymous_args = 0
 149              		@ link register save eliminated.
 150 0000 044A     		ldr	r2, .L18
 151 0002 D2F84431 		ldr	r3, [r2, #324]
 152 0006 9BB2     		uxth	r3, r3
 153 0008 43EA0040 		orr	r0, r3, r0, lsl #16
 154 000c C2F84401 		str	r0, [r2, #324]
 155 0010 7047     		bx	lr
 156              	.L19:
 157 0012 00BF     		.align	2
 158              	.L18:
 159 0014 00640258 		.word	1476551680
 161              		.section	.text.HAL_HSEM_GetClearKey,"ax",%progbits
 162              		.align	1
 163              		.p2align 2,,3
 164              		.global	HAL_HSEM_GetClearKey
 165              		.syntax unified
 166              		.thumb
 167              		.thumb_func
 168              		.fpu fpv5-d16
 170              	HAL_HSEM_GetClearKey:
 171              		@ args = 0, pretend = 0, frame = 0
 172              		@ frame_needed = 0, uses_anonymous_args = 0
 173              		@ link register save eliminated.
 174 0000 024B     		ldr	r3, .L21
 175 0002 D3F84401 		ldr	r0, [r3, #324]
 176 0006 000C     		lsrs	r0, r0, #16
 177 0008 7047     		bx	lr
 178              	.L22:
 179 000a 00BF     		.align	2
 180              	.L21:
 181 000c 00640258 		.word	1476551680
 183              		.section	.text.HAL_HSEM_ActivateNotification,"ax",%progbits
 184              		.align	1
 185              		.p2align 2,,3
ARM GAS  C:\Users\Brandon\AppData\Local\Temp\ccWwFbJH.s 			page 4


 186              		.global	HAL_HSEM_ActivateNotification
 187              		.syntax unified
 188              		.thumb
 189              		.thumb_func
 190              		.fpu fpv5-d16
 192              	HAL_HSEM_ActivateNotification:
 193              		@ args = 0, pretend = 0, frame = 0
 194              		@ frame_needed = 0, uses_anonymous_args = 0
 195              		@ link register save eliminated.
 196 0000 024A     		ldr	r2, .L24
 197 0002 1368     		ldr	r3, [r2]
 198 0004 1843     		orrs	r0, r0, r3
 199 0006 1060     		str	r0, [r2]
 200 0008 7047     		bx	lr
 201              	.L25:
 202 000a 00BF     		.align	2
 203              	.L24:
 204 000c 00650258 		.word	1476551936
 206              		.section	.text.HAL_HSEM_DeactivateNotification,"ax",%progbits
 207              		.align	1
 208              		.p2align 2,,3
 209              		.global	HAL_HSEM_DeactivateNotification
 210              		.syntax unified
 211              		.thumb
 212              		.thumb_func
 213              		.fpu fpv5-d16
 215              	HAL_HSEM_DeactivateNotification:
 216              		@ args = 0, pretend = 0, frame = 0
 217              		@ frame_needed = 0, uses_anonymous_args = 0
 218              		@ link register save eliminated.
 219 0000 024A     		ldr	r2, .L27
 220 0002 1368     		ldr	r3, [r2]
 221 0004 23EA0000 		bic	r0, r3, r0
 222 0008 1060     		str	r0, [r2]
 223 000a 7047     		bx	lr
 224              	.L28:
 225              		.align	2
 226              	.L27:
 227 000c 00650258 		.word	1476551936
 229              		.section	.text.HAL_HSEM_FreeCallback,"ax",%progbits
 230              		.align	1
 231              		.p2align 2,,3
 232              		.weak	HAL_HSEM_FreeCallback
 233              		.syntax unified
 234              		.thumb
 235              		.thumb_func
 236              		.fpu fpv5-d16
 238              	HAL_HSEM_FreeCallback:
 239              		@ args = 0, pretend = 0, frame = 0
 240              		@ frame_needed = 0, uses_anonymous_args = 0
 241              		@ link register save eliminated.
 242 0000 7047     		bx	lr
 244 0002 00BF     		.section	.text.HAL_HSEM_IRQHandler,"ax",%progbits
 245              		.align	1
 246              		.p2align 2,,3
 247              		.global	HAL_HSEM_IRQHandler
 248              		.syntax unified
ARM GAS  C:\Users\Brandon\AppData\Local\Temp\ccWwFbJH.s 			page 5


 249              		.thumb
 250              		.thumb_func
 251              		.fpu fpv5-d16
 253              	HAL_HSEM_IRQHandler:
 254              		@ args = 0, pretend = 0, frame = 0
 255              		@ frame_needed = 0, uses_anonymous_args = 0
 256 0000 08B5     		push	{r3, lr}
 257 0002 054B     		ldr	r3, .L32
 258 0004 D868     		ldr	r0, [r3, #12]
 259 0006 1A68     		ldr	r2, [r3]
 260 0008 22EA0002 		bic	r2, r2, r0
 261 000c 1A60     		str	r2, [r3]
 262 000e 5860     		str	r0, [r3, #4]
 263 0010 FFF7FEFF 		bl	HAL_HSEM_FreeCallback
 264 0014 08BD     		pop	{r3, pc}
 265              	.L33:
 266 0016 00BF     		.align	2
 267              	.L32:
 268 0018 00650258 		.word	1476551936
 270              		.ident	"GCC: (GNU Arm Embedded Toolchain 9-2020-q2-update) 9.3.1 20200408 (release)"
ARM GAS  C:\Users\Brandon\AppData\Local\Temp\ccWwFbJH.s 			page 6

