ARM GAS  C:\Users\Brandon\AppData\Local\Temp\cc6V39Lz.s 			page 1


   1              		.cpu cortex-m7
   2              		.eabi_attribute 28, 1
   3              		.eabi_attribute 20, 1
   4              		.eabi_attribute 21, 1
   5              		.eabi_attribute 23, 3
   6              		.eabi_attribute 24, 1
   7              		.eabi_attribute 25, 1
   8              		.eabi_attribute 26, 1
   9              		.eabi_attribute 30, 2
  10              		.eabi_attribute 34, 1
  11              		.eabi_attribute 18, 4
  12              		.file	"stm32h7xx_hal_pwr_ex.c"
  13              		.text
  14              		.section	.text.HAL_PWREx_ConfigSupply,"ax",%progbits
  15              		.align	1
  16              		.p2align 2,,3
  17              		.global	HAL_PWREx_ConfigSupply
  18              		.arch armv7e-m
  19              		.syntax unified
  20              		.thumb
  21              		.thumb_func
  22              		.fpu fpv5-d16
  24              	HAL_PWREx_ConfigSupply:
  25              		@ args = 0, pretend = 0, frame = 0
  26              		@ frame_needed = 0, uses_anonymous_args = 0
  27 0000 1D4A     		ldr	r2, .L14
  28 0002 D368     		ldr	r3, [r2, #12]
  29 0004 03F00703 		and	r3, r3, #7
  30 0008 062B     		cmp	r3, #6
  31 000a D368     		ldr	r3, [r2, #12]
  32 000c 70B5     		push	{r4, r5, r6, lr}
  33 000e 0446     		mov	r4, r0
  34 0010 05D0     		beq	.L2
  35 0012 03F03F03 		and	r3, r3, #63
  36 0016 181A     		subs	r0, r3, r0
  37 0018 18BF     		it	ne
  38 001a 0120     		movne	r0, #1
  39 001c 70BD     		pop	{r4, r5, r6, pc}
  40              	.L2:
  41 001e 23F03F03 		bic	r3, r3, #63
  42 0022 1646     		mov	r6, r2
  43 0024 0343     		orrs	r3, r3, r0
  44 0026 D360     		str	r3, [r2, #12]
  45 0028 FFF7FEFF 		bl	HAL_GetTick
  46 002c 0546     		mov	r5, r0
  47 002e 05E0     		b	.L4
  48              	.L5:
  49 0030 FFF7FEFF 		bl	HAL_GetTick
  50 0034 431B     		subs	r3, r0, r5
  51 0036 B3F57A7F 		cmp	r3, #1000
  52 003a 1BD8     		bhi	.L8
  53              	.L4:
  54 003c 7368     		ldr	r3, [r6, #4]
  55 003e 9B04     		lsls	r3, r3, #18
  56 0040 F6D5     		bpl	.L5
  57 0042 A4F11D03 		sub	r3, r4, #29
  58 0046 012B     		cmp	r3, #1
ARM GAS  C:\Users\Brandon\AppData\Local\Temp\cc6V39Lz.s 			page 2


  59 0048 05D9     		bls	.L6
  60 004a A4F12D00 		sub	r0, r4, #45
  61 004e 0128     		cmp	r0, #1
  62 0050 01D9     		bls	.L6
  63              	.L10:
  64 0052 0020     		movs	r0, #0
  65 0054 70BD     		pop	{r4, r5, r6, pc}
  66              	.L6:
  67 0056 FFF7FEFF 		bl	HAL_GetTick
  68 005a 074D     		ldr	r5, .L14
  69 005c 0446     		mov	r4, r0
  70              	.L7:
  71 005e EB68     		ldr	r3, [r5, #12]
  72 0060 03F01103 		and	r3, r3, #17
  73 0064 112B     		cmp	r3, #17
  74 0066 F4D0     		beq	.L10
  75 0068 FFF7FEFF 		bl	HAL_GetTick
  76 006c 001B     		subs	r0, r0, r4
  77 006e B0F57A7F 		cmp	r0, #1000
  78 0072 F4D9     		bls	.L7
  79              	.L8:
  80 0074 0120     		movs	r0, #1
  81 0076 70BD     		pop	{r4, r5, r6, pc}
  82              	.L15:
  83              		.align	2
  84              	.L14:
  85 0078 00480258 		.word	1476544512
  87              		.section	.text.HAL_PWREx_GetSupplyConfig,"ax",%progbits
  88              		.align	1
  89              		.p2align 2,,3
  90              		.global	HAL_PWREx_GetSupplyConfig
  91              		.syntax unified
  92              		.thumb
  93              		.thumb_func
  94              		.fpu fpv5-d16
  96              	HAL_PWREx_GetSupplyConfig:
  97              		@ args = 0, pretend = 0, frame = 0
  98              		@ frame_needed = 0, uses_anonymous_args = 0
  99              		@ link register save eliminated.
 100 0000 024B     		ldr	r3, .L17
 101 0002 D868     		ldr	r0, [r3, #12]
 102 0004 00F03F00 		and	r0, r0, #63
 103 0008 7047     		bx	lr
 104              	.L18:
 105 000a 00BF     		.align	2
 106              	.L17:
 107 000c 00480258 		.word	1476544512
 109              		.section	.text.HAL_PWREx_ControlVoltageScaling,"ax",%progbits
 110              		.align	1
 111              		.p2align 2,,3
 112              		.global	HAL_PWREx_ControlVoltageScaling
 113              		.syntax unified
 114              		.thumb
 115              		.thumb_func
 116              		.fpu fpv5-d16
 118              	HAL_PWREx_ControlVoltageScaling:
 119              		@ args = 0, pretend = 0, frame = 0
ARM GAS  C:\Users\Brandon\AppData\Local\Temp\cc6V39Lz.s 			page 3


 120              		@ frame_needed = 0, uses_anonymous_args = 0
 121 0000 0E4A     		ldr	r2, .L27
 122 0002 38B5     		push	{r3, r4, r5, lr}
 123 0004 5368     		ldr	r3, [r2, #4]
 124 0006 03F44043 		and	r3, r3, #49152
 125 000a 8342     		cmp	r3, r0
 126 000c 12D0     		beq	.L24
 127 000e 9369     		ldr	r3, [r2, #24]
 128 0010 1546     		mov	r5, r2
 129 0012 23F44043 		bic	r3, r3, #49152
 130 0016 1843     		orrs	r0, r0, r3
 131 0018 9061     		str	r0, [r2, #24]
 132 001a FFF7FEFF 		bl	HAL_GetTick
 133 001e 0446     		mov	r4, r0
 134 0020 05E0     		b	.L22
 135              	.L23:
 136 0022 FFF7FEFF 		bl	HAL_GetTick
 137 0026 001B     		subs	r0, r0, r4
 138 0028 B0F57A7F 		cmp	r0, #1000
 139 002c 04D8     		bhi	.L25
 140              	.L22:
 141 002e 6B68     		ldr	r3, [r5, #4]
 142 0030 9B04     		lsls	r3, r3, #18
 143 0032 F6D5     		bpl	.L23
 144              	.L24:
 145 0034 0020     		movs	r0, #0
 146 0036 38BD     		pop	{r3, r4, r5, pc}
 147              	.L25:
 148 0038 0120     		movs	r0, #1
 149 003a 38BD     		pop	{r3, r4, r5, pc}
 150              	.L28:
 151              		.align	2
 152              	.L27:
 153 003c 00480258 		.word	1476544512
 155              		.section	.text.HAL_PWREx_GetVoltageRange,"ax",%progbits
 156              		.align	1
 157              		.p2align 2,,3
 158              		.global	HAL_PWREx_GetVoltageRange
 159              		.syntax unified
 160              		.thumb
 161              		.thumb_func
 162              		.fpu fpv5-d16
 164              	HAL_PWREx_GetVoltageRange:
 165              		@ args = 0, pretend = 0, frame = 0
 166              		@ frame_needed = 0, uses_anonymous_args = 0
 167              		@ link register save eliminated.
 168 0000 024B     		ldr	r3, .L30
 169 0002 5868     		ldr	r0, [r3, #4]
 170 0004 00F44040 		and	r0, r0, #49152
 171 0008 7047     		bx	lr
 172              	.L31:
 173 000a 00BF     		.align	2
 174              	.L30:
 175 000c 00480258 		.word	1476544512
 177              		.section	.text.HAL_PWREx_ControlStopModeVoltageScaling,"ax",%progbits
 178              		.align	1
 179              		.p2align 2,,3
ARM GAS  C:\Users\Brandon\AppData\Local\Temp\cc6V39Lz.s 			page 4


 180              		.global	HAL_PWREx_ControlStopModeVoltageScaling
 181              		.syntax unified
 182              		.thumb
 183              		.thumb_func
 184              		.fpu fpv5-d16
 186              	HAL_PWREx_ControlStopModeVoltageScaling:
 187              		@ args = 0, pretend = 0, frame = 0
 188              		@ frame_needed = 0, uses_anonymous_args = 0
 189              		@ link register save eliminated.
 190 0000 0449     		ldr	r1, .L33
 191 0002 0346     		mov	r3, r0
 192 0004 0020     		movs	r0, #0
 193 0006 0A68     		ldr	r2, [r1]
 194 0008 22F44042 		bic	r2, r2, #49152
 195 000c 1343     		orrs	r3, r3, r2
 196 000e 0B60     		str	r3, [r1]
 197 0010 7047     		bx	lr
 198              	.L34:
 199 0012 00BF     		.align	2
 200              	.L33:
 201 0014 00480258 		.word	1476544512
 203              		.section	.text.HAL_PWREx_GetStopModeVoltageRange,"ax",%progbits
 204              		.align	1
 205              		.p2align 2,,3
 206              		.global	HAL_PWREx_GetStopModeVoltageRange
 207              		.syntax unified
 208              		.thumb
 209              		.thumb_func
 210              		.fpu fpv5-d16
 212              	HAL_PWREx_GetStopModeVoltageRange:
 213              		@ args = 0, pretend = 0, frame = 0
 214              		@ frame_needed = 0, uses_anonymous_args = 0
 215              		@ link register save eliminated.
 216 0000 024B     		ldr	r3, .L36
 217 0002 1868     		ldr	r0, [r3]
 218 0004 00F44040 		and	r0, r0, #49152
 219 0008 7047     		bx	lr
 220              	.L37:
 221 000a 00BF     		.align	2
 222              	.L36:
 223 000c 00480258 		.word	1476544512
 225              		.section	.text.HAL_PWREx_EnterSTOPMode,"ax",%progbits
 226              		.align	1
 227              		.p2align 2,,3
 228              		.global	HAL_PWREx_EnterSTOPMode
 229              		.syntax unified
 230              		.thumb
 231              		.thumb_func
 232              		.fpu fpv5-d16
 234              	HAL_PWREx_EnterSTOPMode:
 235              		@ args = 0, pretend = 0, frame = 0
 236              		@ frame_needed = 0, uses_anonymous_args = 0
 237              		@ link register save eliminated.
 238 0000 10B4     		push	{r4}
 239 0002 154C     		ldr	r4, .L46
 240 0004 2368     		ldr	r3, [r4]
 241 0006 23F00103 		bic	r3, r3, #1
ARM GAS  C:\Users\Brandon\AppData\Local\Temp\cc6V39Lz.s 			page 5


 242 000a 0343     		orrs	r3, r3, r0
 243 000c 2360     		str	r3, [r4]
 244 000e 2369     		ldr	r3, [r4, #16]
 245 0010 B2B9     		cbnz	r2, .L39
 246 0012 124A     		ldr	r2, .L46+4
 247 0014 23F00103 		bic	r3, r3, #1
 248 0018 2361     		str	r3, [r4, #16]
 249 001a 1369     		ldr	r3, [r2, #16]
 250 001c 43F00403 		orr	r3, r3, #4
 251 0020 1361     		str	r3, [r2, #16]
 252              		.syntax unified
 253              	@ 879 "Drivers/CMSIS/Include/cmsis_gcc.h" 1
 254 0022 BFF34F8F 		dsb 0xF
 255              	@ 0 "" 2
 256              	@ 868 "Drivers/CMSIS/Include/cmsis_gcc.h" 1
 257 0026 BFF36F8F 		isb 0xF
 258              	@ 0 "" 2
 259              		.thumb
 260              		.syntax unified
 261 002a 0129     		cmp	r1, #1
 262 002c 12D0     		beq	.L45
 263              		.syntax unified
 264              	@ 861 "Drivers/STM32H7xx_HAL_Driver/Src/stm32h7xx_hal_pwr_ex.c" 1
 265 002e 20BF     		wfe
 266              	@ 0 "" 2
 267              		.thumb
 268              		.syntax unified
 269              	.L41:
 270 0030 0A4A     		ldr	r2, .L46+4
 271 0032 5DF8044B 		ldr	r4, [sp], #4
 272 0036 1369     		ldr	r3, [r2, #16]
 273 0038 23F00403 		bic	r3, r3, #4
 274 003c 1361     		str	r3, [r2, #16]
 275 003e 7047     		bx	lr
 276              	.L39:
 277 0040 012A     		cmp	r2, #1
 278 0042 0CBF     		ite	eq
 279 0044 23F00203 		biceq	r3, r3, #2
 280 0048 23F00403 		bicne	r3, r3, #4
 281 004c 2361     		str	r3, [r4, #16]
 282 004e 5DF8044B 		ldr	r4, [sp], #4
 283 0052 7047     		bx	lr
 284              	.L45:
 285              		.syntax unified
 286              	@ 856 "Drivers/STM32H7xx_HAL_Driver/Src/stm32h7xx_hal_pwr_ex.c" 1
 287 0054 30BF     		wfi
 288              	@ 0 "" 2
 289              		.thumb
 290              		.syntax unified
 291 0056 EBE7     		b	.L41
 292              	.L47:
 293              		.align	2
 294              	.L46:
 295 0058 00480258 		.word	1476544512
 296 005c 00ED00E0 		.word	-536810240
 298              		.section	.text.HAL_PWREx_ClearPendingEvent,"ax",%progbits
 299              		.align	1
ARM GAS  C:\Users\Brandon\AppData\Local\Temp\cc6V39Lz.s 			page 6


 300              		.p2align 2,,3
 301              		.global	HAL_PWREx_ClearPendingEvent
 302              		.syntax unified
 303              		.thumb
 304              		.thumb_func
 305              		.fpu fpv5-d16
 307              	HAL_PWREx_ClearPendingEvent:
 308              		@ args = 0, pretend = 0, frame = 0
 309              		@ frame_needed = 0, uses_anonymous_args = 0
 310              		@ link register save eliminated.
 311              		.syntax unified
 312              	@ 954 "Drivers/STM32H7xx_HAL_Driver/Src/stm32h7xx_hal_pwr_ex.c" 1
 313 0000 20BF     		wfe
 314              	@ 0 "" 2
 315              		.thumb
 316              		.syntax unified
 317 0002 7047     		bx	lr
 319              		.section	.text.HAL_PWREx_EnterSTANDBYMode,"ax",%progbits
 320              		.align	1
 321              		.p2align 2,,3
 322              		.global	HAL_PWREx_EnterSTANDBYMode
 323              		.syntax unified
 324              		.thumb
 325              		.thumb_func
 326              		.fpu fpv5-d16
 328              	HAL_PWREx_EnterSTANDBYMode:
 329              		@ args = 0, pretend = 0, frame = 0
 330              		@ frame_needed = 0, uses_anonymous_args = 0
 331              		@ link register save eliminated.
 332 0000 58B9     		cbnz	r0, .L50
 333 0002 0B49     		ldr	r1, .L53
 334 0004 0B4A     		ldr	r2, .L53+4
 335 0006 0B69     		ldr	r3, [r1, #16]
 336 0008 43F00103 		orr	r3, r3, #1
 337 000c 0B61     		str	r3, [r1, #16]
 338 000e 1369     		ldr	r3, [r2, #16]
 339 0010 43F00403 		orr	r3, r3, #4
 340 0014 1361     		str	r3, [r2, #16]
 341              		.syntax unified
 342              	@ 1024 "Drivers/STM32H7xx_HAL_Driver/Src/stm32h7xx_hal_pwr_ex.c" 1
 343 0016 30BF     		wfi
 344              	@ 0 "" 2
 345              		.thumb
 346              		.syntax unified
 347 0018 7047     		bx	lr
 348              	.L50:
 349 001a 054A     		ldr	r2, .L53
 350 001c 0128     		cmp	r0, #1
 351 001e 1369     		ldr	r3, [r2, #16]
 352 0020 0CBF     		ite	eq
 353 0022 43F00203 		orreq	r3, r3, #2
 354 0026 43F00403 		orrne	r3, r3, #4
 355 002a 1361     		str	r3, [r2, #16]
 356 002c 7047     		bx	lr
 357              	.L54:
 358 002e 00BF     		.align	2
 359              	.L53:
ARM GAS  C:\Users\Brandon\AppData\Local\Temp\cc6V39Lz.s 			page 7


 360 0030 00480258 		.word	1476544512
 361 0034 00ED00E0 		.word	-536810240
 363              		.section	.text.HAL_PWREx_ConfigD3Domain,"ax",%progbits
 364              		.align	1
 365              		.p2align 2,,3
 366              		.global	HAL_PWREx_ConfigD3Domain
 367              		.syntax unified
 368              		.thumb
 369              		.thumb_func
 370              		.fpu fpv5-d16
 372              	HAL_PWREx_ConfigD3Domain:
 373              		@ args = 0, pretend = 0, frame = 0
 374              		@ frame_needed = 0, uses_anonymous_args = 0
 375              		@ link register save eliminated.
 376 0000 034A     		ldr	r2, .L56
 377 0002 1369     		ldr	r3, [r2, #16]
 378 0004 23F40063 		bic	r3, r3, #2048
 379 0008 1843     		orrs	r0, r0, r3
 380 000a 1061     		str	r0, [r2, #16]
 381 000c 7047     		bx	lr
 382              	.L57:
 383 000e 00BF     		.align	2
 384              	.L56:
 385 0010 00480258 		.word	1476544512
 387              		.section	.text.HAL_PWREx_EnableFlashPowerDown,"ax",%progbits
 388              		.align	1
 389              		.p2align 2,,3
 390              		.global	HAL_PWREx_EnableFlashPowerDown
 391              		.syntax unified
 392              		.thumb
 393              		.thumb_func
 394              		.fpu fpv5-d16
 396              	HAL_PWREx_EnableFlashPowerDown:
 397              		@ args = 0, pretend = 0, frame = 0
 398              		@ frame_needed = 0, uses_anonymous_args = 0
 399              		@ link register save eliminated.
 400 0000 024A     		ldr	r2, .L59
 401 0002 1368     		ldr	r3, [r2]
 402 0004 43F40073 		orr	r3, r3, #512
 403 0008 1360     		str	r3, [r2]
 404 000a 7047     		bx	lr
 405              	.L60:
 406              		.align	2
 407              	.L59:
 408 000c 00480258 		.word	1476544512
 410              		.section	.text.HAL_PWREx_DisableFlashPowerDown,"ax",%progbits
 411              		.align	1
 412              		.p2align 2,,3
 413              		.global	HAL_PWREx_DisableFlashPowerDown
 414              		.syntax unified
 415              		.thumb
 416              		.thumb_func
 417              		.fpu fpv5-d16
 419              	HAL_PWREx_DisableFlashPowerDown:
 420              		@ args = 0, pretend = 0, frame = 0
 421              		@ frame_needed = 0, uses_anonymous_args = 0
 422              		@ link register save eliminated.
ARM GAS  C:\Users\Brandon\AppData\Local\Temp\cc6V39Lz.s 			page 8


 423 0000 024A     		ldr	r2, .L62
 424 0002 1368     		ldr	r3, [r2]
 425 0004 23F40073 		bic	r3, r3, #512
 426 0008 1360     		str	r3, [r2]
 427 000a 7047     		bx	lr
 428              	.L63:
 429              		.align	2
 430              	.L62:
 431 000c 00480258 		.word	1476544512
 433              		.section	.text.HAL_PWREx_EnableWakeUpPin,"ax",%progbits
 434              		.align	1
 435              		.p2align 2,,3
 436              		.global	HAL_PWREx_EnableWakeUpPin
 437              		.syntax unified
 438              		.thumb
 439              		.thumb_func
 440              		.fpu fpv5-d16
 442              	HAL_PWREx_EnableWakeUpPin:
 443              		@ args = 0, pretend = 0, frame = 0
 444              		@ frame_needed = 0, uses_anonymous_args = 0
 445              		@ link register save eliminated.
 446 0000 F0B4     		push	{r4, r5, r6, r7}
 447 0002 0168     		ldr	r1, [r0]
 448              		.syntax unified
 449              	@ 988 "Drivers/CMSIS/Include/cmsis_gcc.h" 1
 450 0004 91FAA1F3 		rbit r3, r1
 451              	@ 0 "" 2
 452              		.thumb
 453              		.syntax unified
 454 0008 B3FA83F3 		clz	r3, r3
 455              		.syntax unified
 456              	@ 988 "Drivers/CMSIS/Include/cmsis_gcc.h" 1
 457 000c 91FAA1F2 		rbit r2, r1
 458              	@ 0 "" 2
 459              		.thumb
 460              		.syntax unified
 461 0010 B2FA82F2 		clz	r2, r2
 462              		.syntax unified
 463              	@ 988 "Drivers/CMSIS/Include/cmsis_gcc.h" 1
 464 0014 91FAA1F4 		rbit r4, r1
 465              	@ 0 "" 2
 466              		.thumb
 467              		.syntax unified
 468 0018 B4FA84F4 		clz	r4, r4
 469              		.syntax unified
 470              	@ 988 "Drivers/CMSIS/Include/cmsis_gcc.h" 1
 471 001c 91FAA1F5 		rbit r5, r1
 472              	@ 0 "" 2
 473              		.thumb
 474              		.syntax unified
 475 0020 B5FA85F5 		clz	r5, r5
 476 0024 04F01F07 		and	r7, r4, #31
 477 0028 0833     		adds	r3, r3, #8
 478 002a 0832     		adds	r2, r2, #8
 479 002c 6D00     		lsls	r5, r5, #1
 480 002e 4FF48074 		mov	r4, #256
 481 0032 03F01F06 		and	r6, r3, #31
ARM GAS  C:\Users\Brandon\AppData\Local\Temp\cc6V39Lz.s 			page 9


 482 0036 5200     		lsls	r2, r2, #1
 483 0038 4368     		ldr	r3, [r0, #4]
 484 003a 05F01E05 		and	r5, r5, #30
 485 003e BC40     		lsls	r4, r4, r7
 486 0040 4FF4403C 		mov	ip, #196608
 487 0044 0F4F     		ldr	r7, .L66
 488 0046 B340     		lsls	r3, r3, r6
 489 0048 0C43     		orrs	r4, r4, r1
 490 004a 0CFA05FC 		lsl	ip, ip, r5
 491 004e 02F01E02 		and	r2, r2, #30
 492 0052 8568     		ldr	r5, [r0, #8]
 493 0054 0B43     		orrs	r3, r3, r1
 494 0056 44EA0C00 		orr	r0, r4, ip
 495 005a 05FA02F2 		lsl	r2, r5, r2
 496 005e BC6A     		ldr	r4, [r7, #40]
 497 0060 1343     		orrs	r3, r3, r2
 498 0062 24EA0000 		bic	r0, r4, r0
 499 0066 4FF0B044 		mov	r4, #1476395008
 500 006a 0343     		orrs	r3, r3, r0
 501 006c BB62     		str	r3, [r7, #40]
 502 006e D4F89030 		ldr	r3, [r4, #144]
 503 0072 23F0AC53 		bic	r3, r3, #360710144
 504 0076 43EAC151 		orr	r1, r3, r1, lsl #23
 505 007a C4F89010 		str	r1, [r4, #144]
 506 007e F0BC     		pop	{r4, r5, r6, r7}
 507 0080 7047     		bx	lr
 508              	.L67:
 509 0082 00BF     		.align	2
 510              	.L66:
 511 0084 00480258 		.word	1476544512
 513              		.section	.text.HAL_PWREx_DisableWakeUpPin,"ax",%progbits
 514              		.align	1
 515              		.p2align 2,,3
 516              		.global	HAL_PWREx_DisableWakeUpPin
 517              		.syntax unified
 518              		.thumb
 519              		.thumb_func
 520              		.fpu fpv5-d16
 522              	HAL_PWREx_DisableWakeUpPin:
 523              		@ args = 0, pretend = 0, frame = 0
 524              		@ frame_needed = 0, uses_anonymous_args = 0
 525              		@ link register save eliminated.
 526 0000 024A     		ldr	r2, .L69
 527 0002 936A     		ldr	r3, [r2, #40]
 528 0004 23EA0000 		bic	r0, r3, r0
 529 0008 9062     		str	r0, [r2, #40]
 530 000a 7047     		bx	lr
 531              	.L70:
 532              		.align	2
 533              	.L69:
 534 000c 00480258 		.word	1476544512
 536              		.section	.text.HAL_PWREx_GetWakeupFlag,"ax",%progbits
 537              		.align	1
 538              		.p2align 2,,3
 539              		.global	HAL_PWREx_GetWakeupFlag
 540              		.syntax unified
 541              		.thumb
ARM GAS  C:\Users\Brandon\AppData\Local\Temp\cc6V39Lz.s 			page 10


 542              		.thumb_func
 543              		.fpu fpv5-d16
 545              	HAL_PWREx_GetWakeupFlag:
 546              		@ args = 0, pretend = 0, frame = 0
 547              		@ frame_needed = 0, uses_anonymous_args = 0
 548              		@ link register save eliminated.
 549 0000 014B     		ldr	r3, .L72
 550 0002 5B6A     		ldr	r3, [r3, #36]
 551 0004 1840     		ands	r0, r0, r3
 552 0006 7047     		bx	lr
 553              	.L73:
 554              		.align	2
 555              	.L72:
 556 0008 00480258 		.word	1476544512
 558              		.section	.text.HAL_PWREx_ClearWakeupFlag,"ax",%progbits
 559              		.align	1
 560              		.p2align 2,,3
 561              		.global	HAL_PWREx_ClearWakeupFlag
 562              		.syntax unified
 563              		.thumb
 564              		.thumb_func
 565              		.fpu fpv5-d16
 567              	HAL_PWREx_ClearWakeupFlag:
 568              		@ args = 0, pretend = 0, frame = 0
 569              		@ frame_needed = 0, uses_anonymous_args = 0
 570              		@ link register save eliminated.
 571 0000 044B     		ldr	r3, .L75
 572 0002 1A6A     		ldr	r2, [r3, #32]
 573 0004 0243     		orrs	r2, r2, r0
 574 0006 1A62     		str	r2, [r3, #32]
 575 0008 5B6A     		ldr	r3, [r3, #36]
 576 000a 0342     		tst	r3, r0
 577 000c 14BF     		ite	ne
 578 000e 0120     		movne	r0, #1
 579 0010 0020     		moveq	r0, #0
 580 0012 7047     		bx	lr
 581              	.L76:
 582              		.align	2
 583              	.L75:
 584 0014 00480258 		.word	1476544512
 586              		.section	.text.HAL_PWREx_WKUP1_Callback,"ax",%progbits
 587              		.align	1
 588              		.p2align 2,,3
 589              		.weak	HAL_PWREx_WKUP1_Callback
 590              		.syntax unified
 591              		.thumb
 592              		.thumb_func
 593              		.fpu fpv5-d16
 595              	HAL_PWREx_WKUP1_Callback:
 596              		@ args = 0, pretend = 0, frame = 0
 597              		@ frame_needed = 0, uses_anonymous_args = 0
 598              		@ link register save eliminated.
 599 0000 7047     		bx	lr
 601 0002 00BF     		.section	.text.HAL_PWREx_WKUP2_Callback,"ax",%progbits
 602              		.align	1
 603              		.p2align 2,,3
 604              		.weak	HAL_PWREx_WKUP2_Callback
ARM GAS  C:\Users\Brandon\AppData\Local\Temp\cc6V39Lz.s 			page 11


 605              		.syntax unified
 606              		.thumb
 607              		.thumb_func
 608              		.fpu fpv5-d16
 610              	HAL_PWREx_WKUP2_Callback:
 611              		@ args = 0, pretend = 0, frame = 0
 612              		@ frame_needed = 0, uses_anonymous_args = 0
 613              		@ link register save eliminated.
 614 0000 7047     		bx	lr
 616 0002 00BF     		.section	.text.HAL_PWREx_WKUP4_Callback,"ax",%progbits
 617              		.align	1
 618              		.p2align 2,,3
 619              		.weak	HAL_PWREx_WKUP4_Callback
 620              		.syntax unified
 621              		.thumb
 622              		.thumb_func
 623              		.fpu fpv5-d16
 625              	HAL_PWREx_WKUP4_Callback:
 626              		@ args = 0, pretend = 0, frame = 0
 627              		@ frame_needed = 0, uses_anonymous_args = 0
 628              		@ link register save eliminated.
 629 0000 7047     		bx	lr
 631 0002 00BF     		.section	.text.HAL_PWREx_WKUP6_Callback,"ax",%progbits
 632              		.align	1
 633              		.p2align 2,,3
 634              		.weak	HAL_PWREx_WKUP6_Callback
 635              		.syntax unified
 636              		.thumb
 637              		.thumb_func
 638              		.fpu fpv5-d16
 640              	HAL_PWREx_WKUP6_Callback:
 641              		@ args = 0, pretend = 0, frame = 0
 642              		@ frame_needed = 0, uses_anonymous_args = 0
 643              		@ link register save eliminated.
 644 0000 7047     		bx	lr
 646 0002 00BF     		.section	.text.HAL_PWREx_WAKEUP_PIN_IRQHandler,"ax",%progbits
 647              		.align	1
 648              		.p2align 2,,3
 649              		.global	HAL_PWREx_WAKEUP_PIN_IRQHandler
 650              		.syntax unified
 651              		.thumb
 652              		.thumb_func
 653              		.fpu fpv5-d16
 655              	HAL_PWREx_WAKEUP_PIN_IRQHandler:
 656              		@ args = 0, pretend = 0, frame = 0
 657              		@ frame_needed = 0, uses_anonymous_args = 0
 658 0000 08B5     		push	{r3, lr}
 659 0002 134B     		ldr	r3, .L89
 660 0004 5A6A     		ldr	r2, [r3, #36]
 661 0006 D107     		lsls	r1, r2, #31
 662 0008 14D4     		bmi	.L87
 663 000a 5A6A     		ldr	r2, [r3, #36]
 664 000c 9207     		lsls	r2, r2, #30
 665 000e 0AD4     		bmi	.L88
 666 0010 5A6A     		ldr	r2, [r3, #36]
 667 0012 12F0080F 		tst	r2, #8
 668 0016 1A6A     		ldr	r2, [r3, #32]
ARM GAS  C:\Users\Brandon\AppData\Local\Temp\cc6V39Lz.s 			page 12


 669 0018 13D0     		beq	.L85
 670 001a 42F00802 		orr	r2, r2, #8
 671 001e 1A62     		str	r2, [r3, #32]
 672 0020 FFF7FEFF 		bl	HAL_PWREx_WKUP4_Callback
 673 0024 08BD     		pop	{r3, pc}
 674              	.L88:
 675 0026 1A6A     		ldr	r2, [r3, #32]
 676 0028 42F00202 		orr	r2, r2, #2
 677 002c 1A62     		str	r2, [r3, #32]
 678 002e FFF7FEFF 		bl	HAL_PWREx_WKUP2_Callback
 679 0032 08BD     		pop	{r3, pc}
 680              	.L87:
 681 0034 1A6A     		ldr	r2, [r3, #32]
 682 0036 42F00102 		orr	r2, r2, #1
 683 003a 1A62     		str	r2, [r3, #32]
 684 003c FFF7FEFF 		bl	HAL_PWREx_WKUP1_Callback
 685 0040 08BD     		pop	{r3, pc}
 686              	.L85:
 687 0042 42F02002 		orr	r2, r2, #32
 688 0046 1A62     		str	r2, [r3, #32]
 689 0048 FFF7FEFF 		bl	HAL_PWREx_WKUP6_Callback
 690 004c 08BD     		pop	{r3, pc}
 691              	.L90:
 692 004e 00BF     		.align	2
 693              	.L89:
 694 0050 00480258 		.word	1476544512
 696              		.section	.text.HAL_PWREx_EnableBkUpReg,"ax",%progbits
 697              		.align	1
 698              		.p2align 2,,3
 699              		.global	HAL_PWREx_EnableBkUpReg
 700              		.syntax unified
 701              		.thumb
 702              		.thumb_func
 703              		.fpu fpv5-d16
 705              	HAL_PWREx_EnableBkUpReg:
 706              		@ args = 0, pretend = 0, frame = 0
 707              		@ frame_needed = 0, uses_anonymous_args = 0
 708 0000 38B5     		push	{r3, r4, r5, lr}
 709 0002 0B4B     		ldr	r3, .L97
 710 0004 9A68     		ldr	r2, [r3, #8]
 711 0006 1D46     		mov	r5, r3
 712 0008 42F00102 		orr	r2, r2, #1
 713 000c 9A60     		str	r2, [r3, #8]
 714 000e FFF7FEFF 		bl	HAL_GetTick
 715 0012 0446     		mov	r4, r0
 716 0014 05E0     		b	.L92
 717              	.L94:
 718 0016 FFF7FEFF 		bl	HAL_GetTick
 719 001a 001B     		subs	r0, r0, r4
 720 001c B0F57A7F 		cmp	r0, #1000
 721 0020 04D8     		bhi	.L95
 722              	.L92:
 723 0022 AB68     		ldr	r3, [r5, #8]
 724 0024 DB03     		lsls	r3, r3, #15
 725 0026 F6D5     		bpl	.L94
 726 0028 0020     		movs	r0, #0
 727 002a 38BD     		pop	{r3, r4, r5, pc}
ARM GAS  C:\Users\Brandon\AppData\Local\Temp\cc6V39Lz.s 			page 13


 728              	.L95:
 729 002c 0120     		movs	r0, #1
 730 002e 38BD     		pop	{r3, r4, r5, pc}
 731              	.L98:
 732              		.align	2
 733              	.L97:
 734 0030 00480258 		.word	1476544512
 736              		.section	.text.HAL_PWREx_DisableBkUpReg,"ax",%progbits
 737              		.align	1
 738              		.p2align 2,,3
 739              		.global	HAL_PWREx_DisableBkUpReg
 740              		.syntax unified
 741              		.thumb
 742              		.thumb_func
 743              		.fpu fpv5-d16
 745              	HAL_PWREx_DisableBkUpReg:
 746              		@ args = 0, pretend = 0, frame = 0
 747              		@ frame_needed = 0, uses_anonymous_args = 0
 748 0000 38B5     		push	{r3, r4, r5, lr}
 749 0002 0C4B     		ldr	r3, .L105
 750 0004 9A68     		ldr	r2, [r3, #8]
 751 0006 1D46     		mov	r5, r3
 752 0008 22F00102 		bic	r2, r2, #1
 753 000c 9A60     		str	r2, [r3, #8]
 754 000e FFF7FEFF 		bl	HAL_GetTick
 755 0012 0446     		mov	r4, r0
 756 0014 05E0     		b	.L100
 757              	.L102:
 758 0016 FFF7FEFF 		bl	HAL_GetTick
 759 001a 001B     		subs	r0, r0, r4
 760 001c B0F57A7F 		cmp	r0, #1000
 761 0020 05D8     		bhi	.L103
 762              	.L100:
 763 0022 AB68     		ldr	r3, [r5, #8]
 764 0024 13F48033 		ands	r3, r3, #65536
 765 0028 F5D1     		bne	.L102
 766 002a 1846     		mov	r0, r3
 767 002c 38BD     		pop	{r3, r4, r5, pc}
 768              	.L103:
 769 002e 0120     		movs	r0, #1
 770 0030 38BD     		pop	{r3, r4, r5, pc}
 771              	.L106:
 772 0032 00BF     		.align	2
 773              	.L105:
 774 0034 00480258 		.word	1476544512
 776              		.section	.text.HAL_PWREx_EnableUSBReg,"ax",%progbits
 777              		.align	1
 778              		.p2align 2,,3
 779              		.global	HAL_PWREx_EnableUSBReg
 780              		.syntax unified
 781              		.thumb
 782              		.thumb_func
 783              		.fpu fpv5-d16
 785              	HAL_PWREx_EnableUSBReg:
 786              		@ args = 0, pretend = 0, frame = 0
 787              		@ frame_needed = 0, uses_anonymous_args = 0
 788 0000 38B5     		push	{r3, r4, r5, lr}
ARM GAS  C:\Users\Brandon\AppData\Local\Temp\cc6V39Lz.s 			page 14


 789 0002 0B4B     		ldr	r3, .L113
 790 0004 DA68     		ldr	r2, [r3, #12]
 791 0006 1D46     		mov	r5, r3
 792 0008 42F00072 		orr	r2, r2, #33554432
 793 000c DA60     		str	r2, [r3, #12]
 794 000e FFF7FEFF 		bl	HAL_GetTick
 795 0012 0446     		mov	r4, r0
 796 0014 05E0     		b	.L108
 797              	.L110:
 798 0016 FFF7FEFF 		bl	HAL_GetTick
 799 001a 001B     		subs	r0, r0, r4
 800 001c B0F57A7F 		cmp	r0, #1000
 801 0020 04D8     		bhi	.L111
 802              	.L108:
 803 0022 EB68     		ldr	r3, [r5, #12]
 804 0024 5B01     		lsls	r3, r3, #5
 805 0026 F6D5     		bpl	.L110
 806 0028 0020     		movs	r0, #0
 807 002a 38BD     		pop	{r3, r4, r5, pc}
 808              	.L111:
 809 002c 0120     		movs	r0, #1
 810 002e 38BD     		pop	{r3, r4, r5, pc}
 811              	.L114:
 812              		.align	2
 813              	.L113:
 814 0030 00480258 		.word	1476544512
 816              		.section	.text.HAL_PWREx_DisableUSBReg,"ax",%progbits
 817              		.align	1
 818              		.p2align 2,,3
 819              		.global	HAL_PWREx_DisableUSBReg
 820              		.syntax unified
 821              		.thumb
 822              		.thumb_func
 823              		.fpu fpv5-d16
 825              	HAL_PWREx_DisableUSBReg:
 826              		@ args = 0, pretend = 0, frame = 0
 827              		@ frame_needed = 0, uses_anonymous_args = 0
 828 0000 38B5     		push	{r3, r4, r5, lr}
 829 0002 0C4B     		ldr	r3, .L121
 830 0004 DA68     		ldr	r2, [r3, #12]
 831 0006 1D46     		mov	r5, r3
 832 0008 22F00072 		bic	r2, r2, #33554432
 833 000c DA60     		str	r2, [r3, #12]
 834 000e FFF7FEFF 		bl	HAL_GetTick
 835 0012 0446     		mov	r4, r0
 836 0014 05E0     		b	.L116
 837              	.L118:
 838 0016 FFF7FEFF 		bl	HAL_GetTick
 839 001a 001B     		subs	r0, r0, r4
 840 001c B0F57A7F 		cmp	r0, #1000
 841 0020 05D8     		bhi	.L119
 842              	.L116:
 843 0022 EB68     		ldr	r3, [r5, #12]
 844 0024 13F08063 		ands	r3, r3, #67108864
 845 0028 F5D1     		bne	.L118
 846 002a 1846     		mov	r0, r3
 847 002c 38BD     		pop	{r3, r4, r5, pc}
ARM GAS  C:\Users\Brandon\AppData\Local\Temp\cc6V39Lz.s 			page 15


 848              	.L119:
 849 002e 0120     		movs	r0, #1
 850 0030 38BD     		pop	{r3, r4, r5, pc}
 851              	.L122:
 852 0032 00BF     		.align	2
 853              	.L121:
 854 0034 00480258 		.word	1476544512
 856              		.section	.text.HAL_PWREx_EnableUSBVoltageDetector,"ax",%progbits
 857              		.align	1
 858              		.p2align 2,,3
 859              		.global	HAL_PWREx_EnableUSBVoltageDetector
 860              		.syntax unified
 861              		.thumb
 862              		.thumb_func
 863              		.fpu fpv5-d16
 865              	HAL_PWREx_EnableUSBVoltageDetector:
 866              		@ args = 0, pretend = 0, frame = 0
 867              		@ frame_needed = 0, uses_anonymous_args = 0
 868              		@ link register save eliminated.
 869 0000 024A     		ldr	r2, .L124
 870 0002 D368     		ldr	r3, [r2, #12]
 871 0004 43F08073 		orr	r3, r3, #16777216
 872 0008 D360     		str	r3, [r2, #12]
 873 000a 7047     		bx	lr
 874              	.L125:
 875              		.align	2
 876              	.L124:
 877 000c 00480258 		.word	1476544512
 879              		.section	.text.HAL_PWREx_DisableUSBVoltageDetector,"ax",%progbits
 880              		.align	1
 881              		.p2align 2,,3
 882              		.global	HAL_PWREx_DisableUSBVoltageDetector
 883              		.syntax unified
 884              		.thumb
 885              		.thumb_func
 886              		.fpu fpv5-d16
 888              	HAL_PWREx_DisableUSBVoltageDetector:
 889              		@ args = 0, pretend = 0, frame = 0
 890              		@ frame_needed = 0, uses_anonymous_args = 0
 891              		@ link register save eliminated.
 892 0000 024A     		ldr	r2, .L127
 893 0002 D368     		ldr	r3, [r2, #12]
 894 0004 23F08073 		bic	r3, r3, #16777216
 895 0008 D360     		str	r3, [r2, #12]
 896 000a 7047     		bx	lr
 897              	.L128:
 898              		.align	2
 899              	.L127:
 900 000c 00480258 		.word	1476544512
 902              		.section	.text.HAL_PWREx_EnableBatteryCharging,"ax",%progbits
 903              		.align	1
 904              		.p2align 2,,3
 905              		.global	HAL_PWREx_EnableBatteryCharging
 906              		.syntax unified
 907              		.thumb
 908              		.thumb_func
 909              		.fpu fpv5-d16
ARM GAS  C:\Users\Brandon\AppData\Local\Temp\cc6V39Lz.s 			page 16


 911              	HAL_PWREx_EnableBatteryCharging:
 912              		@ args = 0, pretend = 0, frame = 0
 913              		@ frame_needed = 0, uses_anonymous_args = 0
 914              		@ link register save eliminated.
 915 0000 054A     		ldr	r2, .L130
 916 0002 D368     		ldr	r3, [r2, #12]
 917 0004 23F40073 		bic	r3, r3, #512
 918 0008 1843     		orrs	r0, r0, r3
 919 000a D060     		str	r0, [r2, #12]
 920 000c D368     		ldr	r3, [r2, #12]
 921 000e 43F48073 		orr	r3, r3, #256
 922 0012 D360     		str	r3, [r2, #12]
 923 0014 7047     		bx	lr
 924              	.L131:
 925 0016 00BF     		.align	2
 926              	.L130:
 927 0018 00480258 		.word	1476544512
 929              		.section	.text.HAL_PWREx_DisableBatteryCharging,"ax",%progbits
 930              		.align	1
 931              		.p2align 2,,3
 932              		.global	HAL_PWREx_DisableBatteryCharging
 933              		.syntax unified
 934              		.thumb
 935              		.thumb_func
 936              		.fpu fpv5-d16
 938              	HAL_PWREx_DisableBatteryCharging:
 939              		@ args = 0, pretend = 0, frame = 0
 940              		@ frame_needed = 0, uses_anonymous_args = 0
 941              		@ link register save eliminated.
 942 0000 024A     		ldr	r2, .L133
 943 0002 D368     		ldr	r3, [r2, #12]
 944 0004 23F48073 		bic	r3, r3, #256
 945 0008 D360     		str	r3, [r2, #12]
 946 000a 7047     		bx	lr
 947              	.L134:
 948              		.align	2
 949              	.L133:
 950 000c 00480258 		.word	1476544512
 952              		.section	.text.HAL_PWREx_EnableMonitoring,"ax",%progbits
 953              		.align	1
 954              		.p2align 2,,3
 955              		.global	HAL_PWREx_EnableMonitoring
 956              		.syntax unified
 957              		.thumb
 958              		.thumb_func
 959              		.fpu fpv5-d16
 961              	HAL_PWREx_EnableMonitoring:
 962              		@ args = 0, pretend = 0, frame = 0
 963              		@ frame_needed = 0, uses_anonymous_args = 0
 964              		@ link register save eliminated.
 965 0000 024A     		ldr	r2, .L136
 966 0002 9368     		ldr	r3, [r2, #8]
 967 0004 43F01003 		orr	r3, r3, #16
 968 0008 9360     		str	r3, [r2, #8]
 969 000a 7047     		bx	lr
 970              	.L137:
 971              		.align	2
ARM GAS  C:\Users\Brandon\AppData\Local\Temp\cc6V39Lz.s 			page 17


 972              	.L136:
 973 000c 00480258 		.word	1476544512
 975              		.section	.text.HAL_PWREx_DisableMonitoring,"ax",%progbits
 976              		.align	1
 977              		.p2align 2,,3
 978              		.global	HAL_PWREx_DisableMonitoring
 979              		.syntax unified
 980              		.thumb
 981              		.thumb_func
 982              		.fpu fpv5-d16
 984              	HAL_PWREx_DisableMonitoring:
 985              		@ args = 0, pretend = 0, frame = 0
 986              		@ frame_needed = 0, uses_anonymous_args = 0
 987              		@ link register save eliminated.
 988 0000 024A     		ldr	r2, .L139
 989 0002 9368     		ldr	r3, [r2, #8]
 990 0004 23F01003 		bic	r3, r3, #16
 991 0008 9360     		str	r3, [r2, #8]
 992 000a 7047     		bx	lr
 993              	.L140:
 994              		.align	2
 995              	.L139:
 996 000c 00480258 		.word	1476544512
 998              		.section	.text.HAL_PWREx_GetTemperatureLevel,"ax",%progbits
 999              		.align	1
 1000              		.p2align 2,,3
 1001              		.global	HAL_PWREx_GetTemperatureLevel
 1002              		.syntax unified
 1003              		.thumb
 1004              		.thumb_func
 1005              		.fpu fpv5-d16
 1007              	HAL_PWREx_GetTemperatureLevel:
 1008              		@ args = 0, pretend = 0, frame = 0
 1009              		@ frame_needed = 0, uses_anonymous_args = 0
 1010              		@ link register save eliminated.
 1011 0000 054B     		ldr	r3, .L148
 1012 0002 9868     		ldr	r0, [r3, #8]
 1013 0004 00F44000 		and	r0, r0, #12582912
 1014 0008 B0F5800F 		cmp	r0, #4194304
 1015 000c 03D0     		beq	.L141
 1016 000e B0F5000F 		cmp	r0, #8388608
 1017 0012 18BF     		it	ne
 1018 0014 0020     		movne	r0, #0
 1019              	.L141:
 1020 0016 7047     		bx	lr
 1021              	.L149:
 1022              		.align	2
 1023              	.L148:
 1024 0018 00480258 		.word	1476544512
 1026              		.section	.text.HAL_PWREx_GetVBATLevel,"ax",%progbits
 1027              		.align	1
 1028              		.p2align 2,,3
 1029              		.global	HAL_PWREx_GetVBATLevel
 1030              		.syntax unified
 1031              		.thumb
 1032              		.thumb_func
 1033              		.fpu fpv5-d16
ARM GAS  C:\Users\Brandon\AppData\Local\Temp\cc6V39Lz.s 			page 18


 1035              	HAL_PWREx_GetVBATLevel:
 1036              		@ args = 0, pretend = 0, frame = 0
 1037              		@ frame_needed = 0, uses_anonymous_args = 0
 1038              		@ link register save eliminated.
 1039 0000 054B     		ldr	r3, .L157
 1040 0002 9868     		ldr	r0, [r3, #8]
 1041 0004 00F44010 		and	r0, r0, #3145728
 1042 0008 B0F5801F 		cmp	r0, #1048576
 1043 000c 03D0     		beq	.L150
 1044 000e B0F5001F 		cmp	r0, #2097152
 1045 0012 18BF     		it	ne
 1046 0014 0020     		movne	r0, #0
 1047              	.L150:
 1048 0016 7047     		bx	lr
 1049              	.L158:
 1050              		.align	2
 1051              	.L157:
 1052 0018 00480258 		.word	1476544512
 1054              		.section	.text.HAL_PWREx_ConfigAVD,"ax",%progbits
 1055              		.align	1
 1056              		.p2align 2,,3
 1057              		.global	HAL_PWREx_ConfigAVD
 1058              		.syntax unified
 1059              		.thumb
 1060              		.thumb_func
 1061              		.fpu fpv5-d16
 1063              	HAL_PWREx_ConfigAVD:
 1064              		@ args = 0, pretend = 0, frame = 0
 1065              		@ frame_needed = 0, uses_anonymous_args = 0
 1066              		@ link register save eliminated.
 1067 0000 2149     		ldr	r1, .L177
 1068 0002 4FF0B043 		mov	r3, #1476395008
 1069 0006 0A68     		ldr	r2, [r1]
 1070 0008 10B4     		push	{r4}
 1071 000a 22F4C022 		bic	r2, r2, #393216
 1072 000e 0468     		ldr	r4, [r0]
 1073 0010 2243     		orrs	r2, r2, r4
 1074 0012 0A60     		str	r2, [r1]
 1075 0014 D3F88420 		ldr	r2, [r3, #132]
 1076 0018 22F48032 		bic	r2, r2, #65536
 1077 001c C3F88420 		str	r2, [r3, #132]
 1078 0020 D3F88020 		ldr	r2, [r3, #128]
 1079 0024 22F48032 		bic	r2, r2, #65536
 1080 0028 C3F88020 		str	r2, [r3, #128]
 1081 002c 1A68     		ldr	r2, [r3]
 1082 002e 22F48032 		bic	r2, r2, #65536
 1083 0032 1A60     		str	r2, [r3]
 1084 0034 5A68     		ldr	r2, [r3, #4]
 1085 0036 22F48032 		bic	r2, r2, #65536
 1086 003a 5A60     		str	r2, [r3, #4]
 1087 003c 4268     		ldr	r2, [r0, #4]
 1088 003e D403     		lsls	r4, r2, #15
 1089 0040 05D5     		bpl	.L160
 1090 0042 D3F88010 		ldr	r1, [r3, #128]
 1091 0046 41F48031 		orr	r1, r1, #65536
 1092 004a C3F88010 		str	r1, [r3, #128]
 1093              	.L160:
ARM GAS  C:\Users\Brandon\AppData\Local\Temp\cc6V39Lz.s 			page 19


 1094 004e 9003     		lsls	r0, r2, #14
 1095 0050 07D5     		bpl	.L161
 1096 0052 4FF0B041 		mov	r1, #1476395008
 1097 0056 D1F88430 		ldr	r3, [r1, #132]
 1098 005a 43F48033 		orr	r3, r3, #65536
 1099 005e C1F88430 		str	r3, [r1, #132]
 1100              	.L161:
 1101 0062 D107     		lsls	r1, r2, #31
 1102 0064 05D5     		bpl	.L162
 1103 0066 4FF0B041 		mov	r1, #1476395008
 1104 006a 0B68     		ldr	r3, [r1]
 1105 006c 43F48033 		orr	r3, r3, #65536
 1106 0070 0B60     		str	r3, [r1]
 1107              	.L162:
 1108 0072 9307     		lsls	r3, r2, #30
 1109 0074 05D5     		bpl	.L159
 1110 0076 4FF0B042 		mov	r2, #1476395008
 1111 007a 5368     		ldr	r3, [r2, #4]
 1112 007c 43F48033 		orr	r3, r3, #65536
 1113 0080 5360     		str	r3, [r2, #4]
 1114              	.L159:
 1115 0082 5DF8044B 		ldr	r4, [sp], #4
 1116 0086 7047     		bx	lr
 1117              	.L178:
 1118              		.align	2
 1119              	.L177:
 1120 0088 00480258 		.word	1476544512
 1122              		.section	.text.HAL_PWREx_EnableAVD,"ax",%progbits
 1123              		.align	1
 1124              		.p2align 2,,3
 1125              		.global	HAL_PWREx_EnableAVD
 1126              		.syntax unified
 1127              		.thumb
 1128              		.thumb_func
 1129              		.fpu fpv5-d16
 1131              	HAL_PWREx_EnableAVD:
 1132              		@ args = 0, pretend = 0, frame = 0
 1133              		@ frame_needed = 0, uses_anonymous_args = 0
 1134              		@ link register save eliminated.
 1135 0000 024A     		ldr	r2, .L180
 1136 0002 1368     		ldr	r3, [r2]
 1137 0004 43F48033 		orr	r3, r3, #65536
 1138 0008 1360     		str	r3, [r2]
 1139 000a 7047     		bx	lr
 1140              	.L181:
 1141              		.align	2
 1142              	.L180:
 1143 000c 00480258 		.word	1476544512
 1145              		.section	.text.HAL_PWREx_DisableAVD,"ax",%progbits
 1146              		.align	1
 1147              		.p2align 2,,3
 1148              		.global	HAL_PWREx_DisableAVD
 1149              		.syntax unified
 1150              		.thumb
 1151              		.thumb_func
 1152              		.fpu fpv5-d16
 1154              	HAL_PWREx_DisableAVD:
ARM GAS  C:\Users\Brandon\AppData\Local\Temp\cc6V39Lz.s 			page 20


 1155              		@ args = 0, pretend = 0, frame = 0
 1156              		@ frame_needed = 0, uses_anonymous_args = 0
 1157              		@ link register save eliminated.
 1158 0000 024A     		ldr	r2, .L183
 1159 0002 1368     		ldr	r3, [r2]
 1160 0004 23F48033 		bic	r3, r3, #65536
 1161 0008 1360     		str	r3, [r2]
 1162 000a 7047     		bx	lr
 1163              	.L184:
 1164              		.align	2
 1165              	.L183:
 1166 000c 00480258 		.word	1476544512
 1168              		.section	.text.HAL_PWREx_AVDCallback,"ax",%progbits
 1169              		.align	1
 1170              		.p2align 2,,3
 1171              		.weak	HAL_PWREx_AVDCallback
 1172              		.syntax unified
 1173              		.thumb
 1174              		.thumb_func
 1175              		.fpu fpv5-d16
 1177              	HAL_PWREx_AVDCallback:
 1178              		@ args = 0, pretend = 0, frame = 0
 1179              		@ frame_needed = 0, uses_anonymous_args = 0
 1180              		@ link register save eliminated.
 1181 0000 7047     		bx	lr
 1183 0002 00BF     		.section	.text.HAL_PWREx_PVD_AVD_IRQHandler,"ax",%progbits
 1184              		.align	1
 1185              		.p2align 2,,3
 1186              		.global	HAL_PWREx_PVD_AVD_IRQHandler
 1187              		.syntax unified
 1188              		.thumb
 1189              		.thumb_func
 1190              		.fpu fpv5-d16
 1192              	HAL_PWREx_PVD_AVD_IRQHandler:
 1193              		@ args = 0, pretend = 0, frame = 0
 1194              		@ frame_needed = 0, uses_anonymous_args = 0
 1195 0000 134B     		ldr	r3, .L204
 1196 0002 1B68     		ldr	r3, [r3]
 1197 0004 D806     		lsls	r0, r3, #27
 1198 0006 10B5     		push	{r4, lr}
 1199 0008 05D5     		bpl	.L187
 1200 000a 4FF0B044 		mov	r4, #1476395008
 1201 000e D4F88830 		ldr	r3, [r4, #136]
 1202 0012 D903     		lsls	r1, r3, #15
 1203 0014 13D4     		bmi	.L202
 1204              	.L187:
 1205 0016 0E4B     		ldr	r3, .L204
 1206 0018 1B68     		ldr	r3, [r3]
 1207 001a DA03     		lsls	r2, r3, #15
 1208 001c 05D5     		bpl	.L186
 1209 001e 4FF0B044 		mov	r4, #1476395008
 1210 0022 D4F88830 		ldr	r3, [r4, #136]
 1211 0026 DB03     		lsls	r3, r3, #15
 1212 0028 00D4     		bmi	.L203
 1213              	.L186:
 1214 002a 10BD     		pop	{r4, pc}
 1215              	.L203:
ARM GAS  C:\Users\Brandon\AppData\Local\Temp\cc6V39Lz.s 			page 21


 1216 002c FFF7FEFF 		bl	HAL_PWREx_AVDCallback
 1217 0030 D4F88830 		ldr	r3, [r4, #136]
 1218 0034 43F48033 		orr	r3, r3, #65536
 1219 0038 C4F88830 		str	r3, [r4, #136]
 1220 003c 10BD     		pop	{r4, pc}
 1221              	.L202:
 1222 003e FFF7FEFF 		bl	HAL_PWR_PVDCallback
 1223 0042 D4F88830 		ldr	r3, [r4, #136]
 1224 0046 43F48033 		orr	r3, r3, #65536
 1225 004a C4F88830 		str	r3, [r4, #136]
 1226 004e E2E7     		b	.L187
 1227              	.L205:
 1228              		.align	2
 1229              	.L204:
 1230 0050 00480258 		.word	1476544512
 1232              		.ident	"GCC: (GNU Arm Embedded Toolchain 9-2020-q2-update) 9.3.1 20200408 (release)"
ARM GAS  C:\Users\Brandon\AppData\Local\Temp\cc6V39Lz.s 			page 22

