ARM GAS  C:\Users\Brandon\AppData\Local\Temp\cc9dcMXB.s 			page 1


   1              		.cpu cortex-m7
   2              		.eabi_attribute 28, 1
   3              		.eabi_attribute 20, 1
   4              		.eabi_attribute 21, 1
   5              		.eabi_attribute 23, 3
   6              		.eabi_attribute 24, 1
   7              		.eabi_attribute 25, 1
   8              		.eabi_attribute 26, 1
   9              		.eabi_attribute 30, 2
  10              		.eabi_attribute 34, 1
  11              		.eabi_attribute 18, 4
  12              		.file	"stm32h7xx_hal_dma_ex.c"
  13              		.text
  14              		.section	.text.DMA_MultiBufferSetConfig,"ax",%progbits
  15              		.align	1
  16              		.p2align 2,,3
  17              		.arch armv7e-m
  18              		.syntax unified
  19              		.thumb
  20              		.thumb_func
  21              		.fpu fpv5-d16
  23              	DMA_MultiBufferSetConfig:
  24              		@ args = 0, pretend = 0, frame = 0
  25              		@ frame_needed = 0, uses_anonymous_args = 0
  26              		@ link register save eliminated.
  27 0000 F0B4     		push	{r4, r5, r6, r7}
  28 0002 0568     		ldr	r5, [r0]
  29 0004 8068     		ldr	r0, [r0, #8]
  30 0006 6B60     		str	r3, [r5, #4]
  31 0008 4028     		cmp	r0, #64
  32 000a 03D0     		beq	.L11
  33 000c A960     		str	r1, [r5, #8]
  34 000e EA60     		str	r2, [r5, #12]
  35 0010 F0BC     		pop	{r4, r5, r6, r7}
  36 0012 7047     		bx	lr
  37              	.L11:
  38 0014 AA60     		str	r2, [r5, #8]
  39 0016 E960     		str	r1, [r5, #12]
  40 0018 F0BC     		pop	{r4, r5, r6, r7}
  41 001a 7047     		bx	lr
  43              		.section	.text.HAL_DMAEx_MultiBufferStart,"ax",%progbits
  44              		.align	1
  45              		.p2align 2,,3
  46              		.global	HAL_DMAEx_MultiBufferStart
  47              		.syntax unified
  48              		.thumb
  49              		.thumb_func
  50              		.fpu fpv5-d16
  52              	HAL_DMAEx_MultiBufferStart:
  53              		@ args = 4, pretend = 0, frame = 0
  54              		@ frame_needed = 0, uses_anonymous_args = 0
  55 0000 2DE9F041 		push	{r4, r5, r6, r7, r8, lr}
  56 0004 0446     		mov	r4, r0
  57 0006 8068     		ldr	r0, [r0, #8]
  58 0008 8028     		cmp	r0, #128
  59 000a 11D0     		beq	.L33
  60 000c 94F83400 		ldrb	r0, [r4, #52]	@ zero_extendqisi2
ARM GAS  C:\Users\Brandon\AppData\Local\Temp\cc9dcMXB.s 			page 2


  61 0010 0128     		cmp	r0, #1
  62 0012 00F08F80 		beq	.L22
  63 0016 0120     		movs	r0, #1
  64 0018 94F83550 		ldrb	r5, [r4, #53]	@ zero_extendqisi2
  65 001c 8542     		cmp	r5, r0
  66 001e EEB2     		uxtb	r6, r5
  67 0020 84F83400 		strb	r0, [r4, #52]
  68 0024 0AD0     		beq	.L34
  69 0026 4FF40063 		mov	r3, #2048
  70 002a 6365     		str	r3, [r4, #84]
  71              	.L30:
  72 002c BDE8F081 		pop	{r4, r5, r6, r7, r8, pc}
  73              	.L33:
  74 0030 4FF48073 		mov	r3, #256
  75 0034 0120     		movs	r0, #1
  76 0036 6365     		str	r3, [r4, #84]
  77 0038 BDE8F081 		pop	{r4, r5, r6, r7, r8, pc}
  78              	.L34:
  79 003c 2568     		ldr	r5, [r4]
  80 003e 4FF0020C 		mov	ip, #2
  81 0042 5B48     		ldr	r0, .L36
  82 0044 5B4F     		ldr	r7, .L36+4
  83 0046 84F835C0 		strb	ip, [r4, #53]
  84 004a 4FF0000C 		mov	ip, #0
  85 004e BD42     		cmp	r5, r7
  86 0050 18BF     		it	ne
  87 0052 8542     		cmpne	r5, r0
  88 0054 07F11807 		add	r7, r7, #24
  89 0058 C4F854C0 		str	ip, [r4, #84]
  90 005c 0CBF     		ite	eq
  91 005e 0120     		moveq	r0, #1
  92 0060 0020     		movne	r0, #0
  93 0062 DFF864C1 		ldr	ip, .L36+24
  94 0066 BD42     		cmp	r5, r7
  95 0068 08BF     		it	eq
  96 006a 40F00100 		orreq	r0, r0, #1
  97 006e 1837     		adds	r7, r7, #24
  98 0070 BD42     		cmp	r5, r7
  99 0072 08BF     		it	eq
 100 0074 40F00100 		orreq	r0, r0, #1
 101 0078 3037     		adds	r7, r7, #48
 102 007a 6545     		cmp	r5, ip
 103 007c 08BF     		it	eq
 104 007e 40F00100 		orreq	r0, r0, #1
 105 0082 0CF55C7C 		add	ip, ip, #880
 106 0086 BD42     		cmp	r5, r7
 107 0088 08BF     		it	eq
 108 008a 40F00100 		orreq	r0, r0, #1
 109 008e 07F55C77 		add	r7, r7, #880
 110 0092 6545     		cmp	r5, ip
 111 0094 08BF     		it	eq
 112 0096 40F00100 		orreq	r0, r0, #1
 113 009a 0CF1300C 		add	ip, ip, #48
 114 009e BD42     		cmp	r5, r7
 115 00a0 08BF     		it	eq
 116 00a2 40F00100 		orreq	r0, r0, #1
 117 00a6 3037     		adds	r7, r7, #48
ARM GAS  C:\Users\Brandon\AppData\Local\Temp\cc9dcMXB.s 			page 3


 118 00a8 6545     		cmp	r5, ip
 119 00aa 08BF     		it	eq
 120 00ac 40F00100 		orreq	r0, r0, #1
 121 00b0 0CF1300C 		add	ip, ip, #48
 122 00b4 BD42     		cmp	r5, r7
 123 00b6 08BF     		it	eq
 124 00b8 40F00100 		orreq	r0, r0, #1
 125 00bc 3037     		adds	r7, r7, #48
 126 00be 6545     		cmp	r5, ip
 127 00c0 08BF     		it	eq
 128 00c2 40F00100 		orreq	r0, r0, #1
 129 00c6 0CF1300C 		add	ip, ip, #48
 130 00ca BD42     		cmp	r5, r7
 131 00cc 08BF     		it	eq
 132 00ce 40F00100 		orreq	r0, r0, #1
 133 00d2 3037     		adds	r7, r7, #48
 134 00d4 6545     		cmp	r5, ip
 135 00d6 08BF     		it	eq
 136 00d8 40F00100 		orreq	r0, r0, #1
 137 00dc BD42     		cmp	r5, r7
 138 00de 08BF     		it	eq
 139 00e0 40F00100 		orreq	r0, r0, #1
 140 00e4 30B9     		cbnz	r0, .L16
 141 00e6 A7F59567 		sub	r7, r7, #1192
 142 00ea 3348     		ldr	r0, .L36+8
 143 00ec 8542     		cmp	r5, r0
 144 00ee 18BF     		it	ne
 145 00f0 BD42     		cmpne	r5, r7
 146 00f2 21D1     		bne	.L35
 147              	.L16:
 148 00f4 E76D     		ldr	r7, [r4, #92]
 149 00f6 3F20     		movs	r0, #63
 150 00f8 2E68     		ldr	r6, [r5]
 151 00fa 07F01F07 		and	r7, r7, #31
 152 00fe 46F48026 		orr	r6, r6, #262144
 153 0102 B840     		lsls	r0, r0, r7
 154 0104 A76D     		ldr	r7, [r4, #88]
 155 0106 2E60     		str	r6, [r5]
 156 0108 2B61     		str	r3, [r5, #16]
 157 010a B860     		str	r0, [r7, #8]
 158              	.L17:
 159 010c 069B     		ldr	r3, [sp, #24]
 160 010e 2046     		mov	r0, r4
 161 0110 FFF7FEFF 		bl	DMA_MultiBufferSetConfig
 162 0114 E36E     		ldr	r3, [r4, #108]
 163 0116 D4E91921 		ldrd	r2, r1, [r4, #100]
 164 011a 5160     		str	r1, [r2, #4]
 165 011c 13B1     		cbz	r3, .L19
 166 011e D4E91C32 		ldrd	r3, r2, [r4, #112]
 167 0122 5A60     		str	r2, [r3, #4]
 168              	.L19:
 169 0124 2368     		ldr	r3, [r4]
 170              	.L20:
 171 0126 1A68     		ldr	r2, [r3]
 172 0128 0020     		movs	r0, #0
 173 012a 42F00102 		orr	r2, r2, #1
 174 012e 1A60     		str	r2, [r3]
ARM GAS  C:\Users\Brandon\AppData\Local\Temp\cc9dcMXB.s 			page 4


 175 0130 BDE8F081 		pop	{r4, r5, r6, r7, r8, pc}
 176              	.L22:
 177 0134 0220     		movs	r0, #2
 178 0136 79E7     		b	.L30
 179              	.L35:
 180 0138 2048     		ldr	r0, .L36+12
 181 013a 48F2200C 		movw	ip, #32800
 182 013e DFF88CE0 		ldr	lr, .L36+28
 183 0142 1F4F     		ldr	r7, .L36+16
 184 0144 7545     		cmp	r5, lr
 185 0146 18BF     		it	ne
 186 0148 8542     		cmpne	r5, r0
 187 014a 0EF13C0E 		add	lr, lr, #60
 188 014e DFF88080 		ldr	r8, .L36+32
 189 0152 0CBF     		ite	eq
 190 0154 0120     		moveq	r0, #1
 191 0156 0020     		movne	r0, #0
 192 0158 BD42     		cmp	r5, r7
 193 015a 08BF     		it	eq
 194 015c 40F00100 		orreq	r0, r0, #1
 195 0160 2837     		adds	r7, r7, #40
 196 0162 7545     		cmp	r5, lr
 197 0164 08BF     		it	eq
 198 0166 40F00100 		orreq	r0, r0, #1
 199 016a 0EF1280E 		add	lr, lr, #40
 200 016e BD42     		cmp	r5, r7
 201 0170 08BF     		it	eq
 202 0172 40F00100 		orreq	r0, r0, #1
 203 0176 E76D     		ldr	r7, [r4, #92]
 204 0178 7545     		cmp	r5, lr
 205 017a 08BF     		it	eq
 206 017c 40F00100 		orreq	r0, r0, #1
 207 0180 07F01F07 		and	r7, r7, #31
 208 0184 D5F800E0 		ldr	lr, [r5]
 209 0188 BE40     		lsls	r6, r6, r7
 210 018a 4545     		cmp	r5, r8
 211 018c 08BF     		it	eq
 212 018e 40F00100 		orreq	r0, r0, #1
 213 0192 A76D     		ldr	r7, [r4, #88]
 214 0194 4EEA0C0C 		orr	ip, lr, ip
 215 0198 C5F800C0 		str	ip, [r5]
 216 019c 2B61     		str	r3, [r5, #16]
 217 019e 7E60     		str	r6, [r7, #4]
 218 01a0 0028     		cmp	r0, #0
 219 01a2 B3D1     		bne	.L17
 220 01a4 074B     		ldr	r3, .L36+20
 221 01a6 9D42     		cmp	r5, r3
 222 01a8 B0D0     		beq	.L17
 223 01aa 2B46     		mov	r3, r5
 224 01ac BBE7     		b	.L20
 225              	.L37:
 226 01ae 00BF     		.align	2
 227              	.L36:
 228 01b0 40000240 		.word	1073872960
 229 01b4 58000240 		.word	1073872984
 230 01b8 28000240 		.word	1073872936
 231 01bc 1C540258 		.word	1476547612
ARM GAS  C:\Users\Brandon\AppData\Local\Temp\cc9dcMXB.s 			page 5


 232 01c0 30540258 		.word	1476547632
 233 01c4 94540258 		.word	1476547732
 234 01c8 A0000240 		.word	1073873056
 235 01cc 08540258 		.word	1476547592
 236 01d0 80540258 		.word	1476547712
 238              		.section	.text.HAL_DMAEx_MultiBufferStart_IT,"ax",%progbits
 239              		.align	1
 240              		.p2align 2,,3
 241              		.global	HAL_DMAEx_MultiBufferStart_IT
 242              		.syntax unified
 243              		.thumb
 244              		.thumb_func
 245              		.fpu fpv5-d16
 247              	HAL_DMAEx_MultiBufferStart_IT:
 248              		@ args = 4, pretend = 0, frame = 0
 249              		@ frame_needed = 0, uses_anonymous_args = 0
 250 0000 F8B5     		push	{r3, r4, r5, r6, r7, lr}
 251 0002 0446     		mov	r4, r0
 252 0004 8068     		ldr	r0, [r0, #8]
 253 0006 8028     		cmp	r0, #128
 254 0008 00F09081 		beq	.L88
 255 000c 94F83400 		ldrb	r0, [r4, #52]	@ zero_extendqisi2
 256 0010 0128     		cmp	r0, #1
 257 0012 00F01882 		beq	.L64
 258 0016 0120     		movs	r0, #1
 259 0018 94F83550 		ldrb	r5, [r4, #53]	@ zero_extendqisi2
 260 001c 8542     		cmp	r5, r0
 261 001e EEB2     		uxtb	r6, r5
 262 0020 84F83400 		strb	r0, [r4, #52]
 263 0024 03D0     		beq	.L89
 264 0026 4FF40063 		mov	r3, #2048
 265 002a 6365     		str	r3, [r4, #84]
 266 002c F8BD     		pop	{r3, r4, r5, r6, r7, pc}
 267              	.L89:
 268 002e 2568     		ldr	r5, [r4]
 269 0030 4FF0020C 		mov	ip, #2
 270 0034 A048     		ldr	r0, .L95
 271 0036 A14F     		ldr	r7, .L95+4
 272 0038 84F835C0 		strb	ip, [r4, #53]
 273 003c 4FF0000C 		mov	ip, #0
 274 0040 BD42     		cmp	r5, r7
 275 0042 18BF     		it	ne
 276 0044 8542     		cmpne	r5, r0
 277 0046 07F11807 		add	r7, r7, #24
 278 004a C4F854C0 		str	ip, [r4, #84]
 279 004e 0CBF     		ite	eq
 280 0050 0120     		moveq	r0, #1
 281 0052 0020     		movne	r0, #0
 282 0054 DFF86CC2 		ldr	ip, .L95+12
 283 0058 BD42     		cmp	r5, r7
 284 005a 08BF     		it	eq
 285 005c 40F00100 		orreq	r0, r0, #1
 286 0060 3037     		adds	r7, r7, #48
 287 0062 6545     		cmp	r5, ip
 288 0064 08BF     		it	eq
 289 0066 40F00100 		orreq	r0, r0, #1
 290 006a 0CF1300C 		add	ip, ip, #48
ARM GAS  C:\Users\Brandon\AppData\Local\Temp\cc9dcMXB.s 			page 6


 291 006e BD42     		cmp	r5, r7
 292 0070 08BF     		it	eq
 293 0072 40F00100 		orreq	r0, r0, #1
 294 0076 3037     		adds	r7, r7, #48
 295 0078 6545     		cmp	r5, ip
 296 007a 08BF     		it	eq
 297 007c 40F00100 		orreq	r0, r0, #1
 298 0080 0CF1300C 		add	ip, ip, #48
 299 0084 BD42     		cmp	r5, r7
 300 0086 08BF     		it	eq
 301 0088 40F00100 		orreq	r0, r0, #1
 302 008c 07F55C77 		add	r7, r7, #880
 303 0090 6545     		cmp	r5, ip
 304 0092 08BF     		it	eq
 305 0094 40F00100 		orreq	r0, r0, #1
 306 0098 0CF55C7C 		add	ip, ip, #880
 307 009c BD42     		cmp	r5, r7
 308 009e 08BF     		it	eq
 309 00a0 40F00100 		orreq	r0, r0, #1
 310 00a4 3037     		adds	r7, r7, #48
 311 00a6 6545     		cmp	r5, ip
 312 00a8 08BF     		it	eq
 313 00aa 40F00100 		orreq	r0, r0, #1
 314 00ae 0CF1300C 		add	ip, ip, #48
 315 00b2 BD42     		cmp	r5, r7
 316 00b4 08BF     		it	eq
 317 00b6 40F00100 		orreq	r0, r0, #1
 318 00ba 3037     		adds	r7, r7, #48
 319 00bc 6545     		cmp	r5, ip
 320 00be 08BF     		it	eq
 321 00c0 40F00100 		orreq	r0, r0, #1
 322 00c4 0CF1300C 		add	ip, ip, #48
 323 00c8 BD42     		cmp	r5, r7
 324 00ca 08BF     		it	eq
 325 00cc 40F00100 		orreq	r0, r0, #1
 326 00d0 3037     		adds	r7, r7, #48
 327 00d2 6545     		cmp	r5, ip
 328 00d4 08BF     		it	eq
 329 00d6 40F00100 		orreq	r0, r0, #1
 330 00da BD42     		cmp	r5, r7
 331 00dc 08BF     		it	eq
 332 00de 40F00100 		orreq	r0, r0, #1
 333 00e2 E76D     		ldr	r7, [r4, #92]
 334 00e4 18B9     		cbnz	r0, .L42
 335 00e6 7648     		ldr	r0, .L95+8
 336 00e8 8542     		cmp	r5, r0
 337 00ea 40F0B381 		bne	.L90
 338              	.L42:
 339 00ee 2E68     		ldr	r6, [r5]
 340 00f0 07F01F07 		and	r7, r7, #31
 341 00f4 3F20     		movs	r0, #63
 342 00f6 46F48026 		orr	r6, r6, #262144
 343 00fa B840     		lsls	r0, r0, r7
 344 00fc A76D     		ldr	r7, [r4, #88]
 345 00fe 2E60     		str	r6, [r5]
 346 0100 2B61     		str	r3, [r5, #16]
 347 0102 B860     		str	r0, [r7, #8]
ARM GAS  C:\Users\Brandon\AppData\Local\Temp\cc9dcMXB.s 			page 7


 348              	.L43:
 349 0104 069B     		ldr	r3, [sp, #24]
 350 0106 2046     		mov	r0, r4
 351 0108 FFF7FEFF 		bl	DMA_MultiBufferSetConfig
 352 010c 6A49     		ldr	r1, .L95
 353 010e 2368     		ldr	r3, [r4]
 354 0110 6A4A     		ldr	r2, .L95+4
 355 0112 9342     		cmp	r3, r2
 356 0114 18BF     		it	ne
 357 0116 8B42     		cmpne	r3, r1
 358 0118 0CBF     		ite	eq
 359 011a 0121     		moveq	r1, #1
 360 011c 0021     		movne	r1, #0
 361 011e 40F00A81 		bne	.L91
 362 0122 E06E     		ldr	r0, [r4, #108]
 363 0124 D4E91925 		ldrd	r2, r5, [r4, #100]
 364 0128 5560     		str	r5, [r2, #4]
 365 012a 10B1     		cbz	r0, .L63
 366 012c D4E91C25 		ldrd	r2, r5, [r4, #112]
 367 0130 5560     		str	r5, [r2, #4]
 368              	.L63:
 369 0132 1A68     		ldr	r2, [r3]
 370 0134 256C     		ldr	r5, [r4, #64]
 371 0136 22F01E02 		bic	r2, r2, #30
 372 013a 42F01602 		orr	r2, r2, #22
 373 013e 1A60     		str	r2, [r3]
 374 0140 5A69     		ldr	r2, [r3, #20]
 375 0142 42F08002 		orr	r2, r2, #128
 376 0146 5A61     		str	r2, [r3, #20]
 377 0148 002D     		cmp	r5, #0
 378 014a 00F07E81 		beq	.L92
 379              	.L50:
 380 014e 1A68     		ldr	r2, [r3]
 381 0150 42F00802 		orr	r2, r2, #8
 382 0154 1A60     		str	r2, [r3]
 383              	.L51:
 384 0156 0029     		cmp	r1, #0
 385 0158 6ED1     		bne	.L56
 386              	.L52:
 387 015a 5A4A     		ldr	r2, .L95+12
 388 015c 5A4D     		ldr	r5, .L95+16
 389 015e 5B48     		ldr	r0, .L95+20
 390 0160 AB42     		cmp	r3, r5
 391 0162 18BF     		it	ne
 392 0164 9342     		cmpne	r3, r2
 393 0166 05F14805 		add	r5, r5, #72
 394 016a 0CBF     		ite	eq
 395 016c 0122     		moveq	r2, #1
 396 016e 0022     		movne	r2, #0
 397 0170 8342     		cmp	r3, r0
 398 0172 08BF     		it	eq
 399 0174 42F00102 		orreq	r2, r2, #1
 400 0178 3030     		adds	r0, r0, #48
 401 017a AB42     		cmp	r3, r5
 402 017c 08BF     		it	eq
 403 017e 42F00102 		orreq	r2, r2, #1
 404 0182 3035     		adds	r5, r5, #48
ARM GAS  C:\Users\Brandon\AppData\Local\Temp\cc9dcMXB.s 			page 8


 405 0184 8342     		cmp	r3, r0
 406 0186 08BF     		it	eq
 407 0188 42F00102 		orreq	r2, r2, #1
 408 018c 00F55C70 		add	r0, r0, #880
 409 0190 AB42     		cmp	r3, r5
 410 0192 08BF     		it	eq
 411 0194 42F00102 		orreq	r2, r2, #1
 412 0198 05F55C75 		add	r5, r5, #880
 413 019c 8342     		cmp	r3, r0
 414 019e 08BF     		it	eq
 415 01a0 42F00102 		orreq	r2, r2, #1
 416 01a4 3030     		adds	r0, r0, #48
 417 01a6 AB42     		cmp	r3, r5
 418 01a8 08BF     		it	eq
 419 01aa 42F00102 		orreq	r2, r2, #1
 420 01ae 3035     		adds	r5, r5, #48
 421 01b0 8342     		cmp	r3, r0
 422 01b2 08BF     		it	eq
 423 01b4 42F00102 		orreq	r2, r2, #1
 424 01b8 3030     		adds	r0, r0, #48
 425 01ba AB42     		cmp	r3, r5
 426 01bc 08BF     		it	eq
 427 01be 42F00102 		orreq	r2, r2, #1
 428 01c2 3035     		adds	r5, r5, #48
 429 01c4 8342     		cmp	r3, r0
 430 01c6 08BF     		it	eq
 431 01c8 42F00102 		orreq	r2, r2, #1
 432 01cc 3030     		adds	r0, r0, #48
 433 01ce AB42     		cmp	r3, r5
 434 01d0 08BF     		it	eq
 435 01d2 42F00102 		orreq	r2, r2, #1
 436 01d6 3035     		adds	r5, r5, #48
 437 01d8 8342     		cmp	r3, r0
 438 01da 08BF     		it	eq
 439 01dc 42F00102 		orreq	r2, r2, #1
 440 01e0 3B48     		ldr	r0, .L95+24
 441 01e2 AB42     		cmp	r3, r5
 442 01e4 08BF     		it	eq
 443 01e6 42F00102 		orreq	r2, r2, #1
 444 01ea 3A4D     		ldr	r5, .L95+28
 445 01ec 8342     		cmp	r3, r0
 446 01ee 08BF     		it	eq
 447 01f0 42F00102 		orreq	r2, r2, #1
 448 01f4 2830     		adds	r0, r0, #40
 449 01f6 AB42     		cmp	r3, r5
 450 01f8 08BF     		it	eq
 451 01fa 42F00102 		orreq	r2, r2, #1
 452 01fe 2835     		adds	r5, r5, #40
 453 0200 8342     		cmp	r3, r0
 454 0202 08BF     		it	eq
 455 0204 42F00102 		orreq	r2, r2, #1
 456 0208 2830     		adds	r0, r0, #40
 457 020a AB42     		cmp	r3, r5
 458 020c 08BF     		it	eq
 459 020e 42F00102 		orreq	r2, r2, #1
 460 0212 2835     		adds	r5, r5, #40
 461 0214 8342     		cmp	r3, r0
ARM GAS  C:\Users\Brandon\AppData\Local\Temp\cc9dcMXB.s 			page 9


 462 0216 08BF     		it	eq
 463 0218 42F00102 		orreq	r2, r2, #1
 464 021c 2830     		adds	r0, r0, #40
 465 021e AB42     		cmp	r3, r5
 466 0220 08BF     		it	eq
 467 0222 42F00102 		orreq	r2, r2, #1
 468 0226 8342     		cmp	r3, r0
 469 0228 08BF     		it	eq
 470 022a 42F00102 		orreq	r2, r2, #1
 471 022e 12B9     		cbnz	r2, .L87
 472 0230 294A     		ldr	r2, .L95+32
 473 0232 9342     		cmp	r3, r2
 474 0234 0FD1     		bne	.L60
 475              	.L87:
 476 0236 E06E     		ldr	r0, [r4, #108]
 477              	.L56:
 478 0238 226E     		ldr	r2, [r4, #96]
 479 023a 1468     		ldr	r4, [r2]
 480 023c E403     		lsls	r4, r4, #15
 481 023e 03D5     		bpl	.L55
 482 0240 1468     		ldr	r4, [r2]
 483 0242 44F48074 		orr	r4, r4, #256
 484 0246 1460     		str	r4, [r2]
 485              	.L55:
 486 0248 18B1     		cbz	r0, .L59
 487 024a 0268     		ldr	r2, [r0]
 488 024c 42F48072 		orr	r2, r2, #256
 489 0250 0260     		str	r2, [r0]
 490              	.L59:
 491 0252 0029     		cmp	r1, #0
 492 0254 64D1     		bne	.L57
 493              	.L60:
 494 0256 1C4A     		ldr	r2, .L95+16
 495 0258 1A49     		ldr	r1, .L95+12
 496 025a 1C4C     		ldr	r4, .L95+20
 497 025c 8B42     		cmp	r3, r1
 498 025e 18BF     		it	ne
 499 0260 9342     		cmpne	r3, r2
 500 0262 1E48     		ldr	r0, .L95+36
 501 0264 01F14801 		add	r1, r1, #72
 502 0268 1D4D     		ldr	r5, .L95+40
 503 026a 0CBF     		ite	eq
 504 026c 0122     		moveq	r2, #1
 505 026e 0022     		movne	r2, #0
 506 0270 A342     		cmp	r3, r4
 507 0272 08BF     		it	eq
 508 0274 42F00102 		orreq	r2, r2, #1
 509 0278 04F56874 		add	r4, r4, #928
 510 027c 8342     		cmp	r3, r0
 511 027e 08BF     		it	eq
 512 0280 42F00102 		orreq	r2, r2, #1
 513 0284 00F56870 		add	r0, r0, #928
 514 0288 8B42     		cmp	r3, r1
 515 028a 08BF     		it	eq
 516 028c 42F00102 		orreq	r2, r2, #1
 517 0290 01F56871 		add	r1, r1, #928
 518 0294 AB42     		cmp	r3, r5
ARM GAS  C:\Users\Brandon\AppData\Local\Temp\cc9dcMXB.s 			page 10


 519 0296 08BF     		it	eq
 520 0298 42F00102 		orreq	r2, r2, #1
 521 029c 05F56875 		add	r5, r5, #928
 522 02a0 A342     		cmp	r3, r4
 523 02a2 08BF     		it	eq
 524 02a4 42F00102 		orreq	r2, r2, #1
 525 02a8 6034     		adds	r4, r4, #96
 526 02aa 8342     		cmp	r3, r0
 527 02ac 08BF     		it	eq
 528 02ae 42F00102 		orreq	r2, r2, #1
 529 02b2 6030     		adds	r0, r0, #96
 530 02b4 16E0     		b	.L96
 531              	.L97:
 532 02b6 00BF     		.align	2
 533              	.L95:
 534 02b8 10000240 		.word	1073872912
 535 02bc 28000240 		.word	1073872936
 536 02c0 B8040240 		.word	1073874104
 537 02c4 58000240 		.word	1073872984
 538 02c8 40000240 		.word	1073872960
 539 02cc 70000240 		.word	1073873008
 540 02d0 08540258 		.word	1476547592
 541 02d4 1C540258 		.word	1476547612
 542 02d8 94540258 		.word	1476547732
 543 02dc 88000240 		.word	1073873032
 544 02e0 B8000240 		.word	1073873080
 545              	.L96:
 546 02e4 8B42     		cmp	r3, r1
 547 02e6 08BF     		it	eq
 548 02e8 42F00102 		orreq	r2, r2, #1
 549 02ec 6031     		adds	r1, r1, #96
 550 02ee AB42     		cmp	r3, r5
 551 02f0 08BF     		it	eq
 552 02f2 42F00102 		orreq	r2, r2, #1
 553 02f6 A342     		cmp	r3, r4
 554 02f8 08BF     		it	eq
 555 02fa 42F00102 		orreq	r2, r2, #1
 556 02fe 8342     		cmp	r3, r0
 557 0300 08BF     		it	eq
 558 0302 42F00102 		orreq	r2, r2, #1
 559 0306 8B42     		cmp	r3, r1
 560 0308 08BF     		it	eq
 561 030a 42F00102 		orreq	r2, r2, #1
 562 030e 3AB9     		cbnz	r2, .L57
 563 0310 3030     		adds	r0, r0, #48
 564 0312 181A     		subs	r0, r3, r0
 565 0314 B0FA80F0 		clz	r0, r0
 566 0318 4009     		lsrs	r0, r0, #5
 567 031a 0028     		cmp	r0, #0
 568 031c 00F0AA80 		beq	.L93
 569              	.L57:
 570 0320 1A68     		ldr	r2, [r3]
 571 0322 0020     		movs	r0, #0
 572 0324 42F00102 		orr	r2, r2, #1
 573 0328 1A60     		str	r2, [r3]
 574 032a F8BD     		pop	{r3, r4, r5, r6, r7, pc}
 575              	.L88:
ARM GAS  C:\Users\Brandon\AppData\Local\Temp\cc9dcMXB.s 			page 11


 576 032c 4FF48073 		mov	r3, #256
 577 0330 0120     		movs	r0, #1
 578 0332 6365     		str	r3, [r4, #84]
 579 0334 F8BD     		pop	{r3, r4, r5, r6, r7, pc}
 580              	.L91:
 581 0336 1832     		adds	r2, r2, #24
 582 0338 5348     		ldr	r0, .L98
 583 033a 544E     		ldr	r6, .L98+4
 584 033c 8342     		cmp	r3, r0
 585 033e 18BF     		it	ne
 586 0340 9342     		cmpne	r3, r2
 587 0342 534D     		ldr	r5, .L98+8
 588 0344 00F14800 		add	r0, r0, #72
 589 0348 0CBF     		ite	eq
 590 034a 0122     		moveq	r2, #1
 591 034c 0022     		movne	r2, #0
 592 034e B342     		cmp	r3, r6
 593 0350 08BF     		it	eq
 594 0352 42F00102 		orreq	r2, r2, #1
 595 0356 4836     		adds	r6, r6, #72
 596 0358 AB42     		cmp	r3, r5
 597 035a 08BF     		it	eq
 598 035c 42F00102 		orreq	r2, r2, #1
 599 0360 05F56275 		add	r5, r5, #904
 600 0364 8342     		cmp	r3, r0
 601 0366 08BF     		it	eq
 602 0368 42F00102 		orreq	r2, r2, #1
 603 036c 4948     		ldr	r0, .L98+12
 604 036e B342     		cmp	r3, r6
 605 0370 08BF     		it	eq
 606 0372 42F00102 		orreq	r2, r2, #1
 607 0376 484E     		ldr	r6, .L98+16
 608 0378 AB42     		cmp	r3, r5
 609 037a 08BF     		it	eq
 610 037c 42F00102 		orreq	r2, r2, #1
 611 0380 B342     		cmp	r3, r6
 612 0382 18BF     		it	ne
 613 0384 8342     		cmpne	r3, r0
 614 0386 05F11805 		add	r5, r5, #24
 615 038a 06F12806 		add	r6, r6, #40
 616 038e 0CBF     		ite	eq
 617 0390 0120     		moveq	r0, #1
 618 0392 0020     		movne	r0, #0
 619 0394 AB42     		cmp	r3, r5
 620 0396 08BF     		it	eq
 621 0398 42F00102 		orreq	r2, r2, #1
 622 039c 1835     		adds	r5, r5, #24
 623 039e B342     		cmp	r3, r6
 624 03a0 08BF     		it	eq
 625 03a2 40F00100 		orreq	r0, r0, #1
 626 03a6 1436     		adds	r6, r6, #20
 627 03a8 AB42     		cmp	r3, r5
 628 03aa 08BF     		it	eq
 629 03ac 42F00102 		orreq	r2, r2, #1
 630 03b0 1835     		adds	r5, r5, #24
 631 03b2 B342     		cmp	r3, r6
 632 03b4 08BF     		it	eq
ARM GAS  C:\Users\Brandon\AppData\Local\Temp\cc9dcMXB.s 			page 12


 633 03b6 40F00100 		orreq	r0, r0, #1
 634 03ba 1436     		adds	r6, r6, #20
 635 03bc AB42     		cmp	r3, r5
 636 03be 08BF     		it	eq
 637 03c0 42F00102 		orreq	r2, r2, #1
 638 03c4 1835     		adds	r5, r5, #24
 639 03c6 B342     		cmp	r3, r6
 640 03c8 08BF     		it	eq
 641 03ca 40F00100 		orreq	r0, r0, #1
 642 03ce 1436     		adds	r6, r6, #20
 643 03d0 AB42     		cmp	r3, r5
 644 03d2 08BF     		it	eq
 645 03d4 42F00102 		orreq	r2, r2, #1
 646 03d8 1835     		adds	r5, r5, #24
 647 03da B342     		cmp	r3, r6
 648 03dc 08BF     		it	eq
 649 03de 40F00100 		orreq	r0, r0, #1
 650 03e2 1436     		adds	r6, r6, #20
 651 03e4 AB42     		cmp	r3, r5
 652 03e6 08BF     		it	eq
 653 03e8 42F00102 		orreq	r2, r2, #1
 654 03ec 1835     		adds	r5, r5, #24
 655 03ee B342     		cmp	r3, r6
 656 03f0 08BF     		it	eq
 657 03f2 40F00100 		orreq	r0, r0, #1
 658 03f6 1436     		adds	r6, r6, #20
 659 03f8 AB42     		cmp	r3, r5
 660 03fa 08BF     		it	eq
 661 03fc 42F00102 		orreq	r2, r2, #1
 662 0400 1835     		adds	r5, r5, #24
 663 0402 B342     		cmp	r3, r6
 664 0404 08BF     		it	eq
 665 0406 40F00100 		orreq	r0, r0, #1
 666 040a AB42     		cmp	r3, r5
 667 040c 08BF     		it	eq
 668 040e 42F00102 		orreq	r2, r2, #1
 669 0412 00B9     		cbnz	r0, .L45
 670 0414 52B1     		cbz	r2, .L46
 671              	.L45:
 672 0416 E06E     		ldr	r0, [r4, #108]
 673 0418 D4E91956 		ldrd	r5, r6, [r4, #100]
 674 041c 6E60     		str	r6, [r5, #4]
 675 041e 10B1     		cbz	r0, .L62
 676 0420 D4E91C56 		ldrd	r5, r6, [r4, #112]
 677 0424 6E60     		str	r6, [r5, #4]
 678              	.L62:
 679 0426 002A     		cmp	r2, #0
 680 0428 7FF483AE 		bne	.L63
 681              	.L46:
 682 042c 1A68     		ldr	r2, [r3]
 683 042e 206C     		ldr	r0, [r4, #64]
 684 0430 22F00E02 		bic	r2, r2, #14
 685 0434 42F00A02 		orr	r2, r2, #10
 686 0438 1A60     		str	r2, [r3]
 687 043a 00B3     		cbz	r0, .L94
 688              	.L48:
 689 043c 1A68     		ldr	r2, [r3]
ARM GAS  C:\Users\Brandon\AppData\Local\Temp\cc9dcMXB.s 			page 13


 690 043e 42F00402 		orr	r2, r2, #4
 691 0442 1A60     		str	r2, [r3]
 692 0444 89E6     		b	.L52
 693              	.L64:
 694 0446 0220     		movs	r0, #2
 695 0448 F8BD     		pop	{r3, r4, r5, r6, r7, pc}
 696              	.L92:
 697 044a A26C     		ldr	r2, [r4, #72]
 698 044c 002A     		cmp	r2, #0
 699 044e 7FF47EAE 		bne	.L50
 700 0452 80E6     		b	.L51
 701              	.L90:
 702 0454 D5F800C0 		ldr	ip, [r5]
 703 0458 48F22000 		movw	r0, #32800
 704 045c 07F01F07 		and	r7, r7, #31
 705 0460 4CEA0000 		orr	r0, ip, r0
 706 0464 D4F858C0 		ldr	ip, [r4, #88]
 707 0468 BE40     		lsls	r6, r6, r7
 708 046a 2860     		str	r0, [r5]
 709 046c 2B61     		str	r3, [r5, #16]
 710 046e CCF80460 		str	r6, [ip, #4]
 711 0472 47E6     		b	.L43
 712              	.L93:
 713 0474 1A68     		ldr	r2, [r3]
 714 0476 42F00102 		orr	r2, r2, #1
 715 047a 1A60     		str	r2, [r3]
 716 047c F8BD     		pop	{r3, r4, r5, r6, r7, pc}
 717              	.L94:
 718 047e A26C     		ldr	r2, [r4, #72]
 719 0480 002A     		cmp	r2, #0
 720 0482 DBD1     		bne	.L48
 721 0484 69E6     		b	.L52
 722              	.L99:
 723 0486 00BF     		.align	2
 724              	.L98:
 725 0488 58000240 		.word	1073872984
 726 048c 70000240 		.word	1073873008
 727 0490 88000240 		.word	1073873032
 728 0494 1C540258 		.word	1476547612
 729 0498 08540258 		.word	1476547592
 731              		.section	.text.HAL_DMAEx_ChangeMemory,"ax",%progbits
 732              		.align	1
 733              		.p2align 2,,3
 734              		.global	HAL_DMAEx_ChangeMemory
 735              		.syntax unified
 736              		.thumb
 737              		.thumb_func
 738              		.fpu fpv5-d16
 740              	HAL_DMAEx_ChangeMemory:
 741              		@ args = 0, pretend = 0, frame = 0
 742              		@ frame_needed = 0, uses_anonymous_args = 0
 743              		@ link register save eliminated.
 744 0000 0068     		ldr	r0, [r0]
 745 0002 30B4     		push	{r4, r5}
 746 0004 1AB9     		cbnz	r2, .L106
 747 0006 C160     		str	r1, [r0, #12]
 748 0008 0020     		movs	r0, #0
ARM GAS  C:\Users\Brandon\AppData\Local\Temp\cc9dcMXB.s 			page 14


 749 000a 30BC     		pop	{r4, r5}
 750 000c 7047     		bx	lr
 751              	.L106:
 752 000e 0161     		str	r1, [r0, #16]
 753 0010 0020     		movs	r0, #0
 754 0012 30BC     		pop	{r4, r5}
 755 0014 7047     		bx	lr
 757 0016 00BF     		.section	.text.HAL_DMAEx_ConfigMuxSync,"ax",%progbits
 758              		.align	1
 759              		.p2align 2,,3
 760              		.global	HAL_DMAEx_ConfigMuxSync
 761              		.syntax unified
 762              		.thumb
 763              		.thumb_func
 764              		.fpu fpv5-d16
 766              	HAL_DMAEx_ConfigMuxSync:
 767              		@ args = 0, pretend = 0, frame = 0
 768              		@ frame_needed = 0, uses_anonymous_args = 0
 769 0000 F0B5     		push	{r4, r5, r6, r7, lr}
 770 0002 0B7A     		ldrb	r3, [r1, #8]	@ zero_extendqisi2
 771 0004 0246     		mov	r2, r0
 772 0006 012B     		cmp	r3, #1
 773 0008 2AD0     		beq	.L115
 774 000a 0024     		movs	r4, #0
 775 000c 2646     		mov	r6, r4
 776              	.L109:
 777 000e 92F83500 		ldrb	r0, [r2, #53]	@ zero_extendqisi2
 778 0012 0128     		cmp	r0, #1
 779 0014 1FD1     		bne	.L110
 780 0016 92F83400 		ldrb	r0, [r2, #52]	@ zero_extendqisi2
 781 001a 0128     		cmp	r0, #1
 782 001c 23D0     		beq	.L113
 783 001e 156E     		ldr	r5, [r2, #96]
 784 0020 4FEA034E 		lsl	lr, r3, #16
 785 0024 CB68     		ldr	r3, [r1, #12]
 786 0026 0027     		movs	r7, #0
 787 0028 2868     		ldr	r0, [r5]
 788 002a 03F1FF3C 		add	ip, r3, #-1
 789 002e 20F48130 		bic	r0, r0, #66048
 790 0032 4EEACC43 		orr	r3, lr, ip, lsl #19
 791 0036 2860     		str	r0, [r5]
 792 0038 2868     		ldr	r0, [r5]
 793 003a 91F809C0 		ldrb	ip, [r1, #9]	@ zero_extendqisi2
 794 003e C1B2     		uxtb	r1, r0
 795 0040 3846     		mov	r0, r7
 796 0042 0B43     		orrs	r3, r3, r1
 797 0044 43EA4C23 		orr	r3, r3, ip, lsl #9
 798 0048 2343     		orrs	r3, r3, r4
 799 004a 43EA0663 		orr	r3, r3, r6, lsl #24
 800 004e 2B60     		str	r3, [r5]
 801 0050 82F83470 		strb	r7, [r2, #52]
 802 0054 F0BD     		pop	{r4, r5, r6, r7, pc}
 803              	.L110:
 804 0056 4FF40063 		mov	r3, #2048
 805 005a 0120     		movs	r0, #1
 806 005c 5365     		str	r3, [r2, #84]
 807 005e F0BD     		pop	{r4, r5, r6, r7, pc}
ARM GAS  C:\Users\Brandon\AppData\Local\Temp\cc9dcMXB.s 			page 15


 808              	.L115:
 809 0060 D1E90064 		ldrd	r6, r4, [r1]
 810 0064 D3E7     		b	.L109
 811              	.L113:
 812 0066 0220     		movs	r0, #2
 813 0068 F0BD     		pop	{r4, r5, r6, r7, pc}
 815 006a 00BF     		.section	.text.HAL_DMAEx_ConfigMuxRequestGenerator,"ax",%progbits
 816              		.align	1
 817              		.p2align 2,,3
 818              		.global	HAL_DMAEx_ConfigMuxRequestGenerator
 819              		.syntax unified
 820              		.thumb
 821              		.thumb_func
 822              		.fpu fpv5-d16
 824              	HAL_DMAEx_ConfigMuxRequestGenerator:
 825              		@ args = 0, pretend = 0, frame = 0
 826              		@ frame_needed = 0, uses_anonymous_args = 0
 827              		@ link register save eliminated.
 828 0000 70B4     		push	{r4, r5, r6}
 829 0002 C46E     		ldr	r4, [r0, #108]
 830 0004 0346     		mov	r3, r0
 831 0006 90F83520 		ldrb	r2, [r0, #53]	@ zero_extendqisi2
 832 000a 5CB1     		cbz	r4, .L128
 833 000c 2068     		ldr	r0, [r4]
 834 000e C003     		lsls	r0, r0, #15
 835 0010 02D4     		bmi	.L119
 836 0012 D2B2     		uxtb	r2, r2
 837 0014 012A     		cmp	r2, #1
 838 0016 0AD0     		beq	.L129
 839              	.L119:
 840 0018 4FF40062 		mov	r2, #2048
 841 001c 0120     		movs	r0, #1
 842 001e 5A65     		str	r2, [r3, #84]
 843              	.L118:
 844 0020 70BC     		pop	{r4, r5, r6}
 845 0022 7047     		bx	lr
 846              	.L128:
 847 0024 4022     		movs	r2, #64
 848 0026 0120     		movs	r0, #1
 849 0028 70BC     		pop	{r4, r5, r6}
 850 002a 5A65     		str	r2, [r3, #84]
 851 002c 7047     		bx	lr
 852              	.L129:
 853 002e 93F83420 		ldrb	r2, [r3, #52]	@ zero_extendqisi2
 854 0032 012A     		cmp	r2, #1
 855 0034 0CD0     		beq	.L120
 856 0036 8868     		ldr	r0, [r1, #8]
 857 0038 0025     		movs	r5, #0
 858 003a D1E90026 		ldrd	r2, r6, [r1]
 859 003e 411E     		subs	r1, r0, #1
 860 0040 2846     		mov	r0, r5
 861 0042 3243     		orrs	r2, r2, r6
 862 0044 42EAC142 		orr	r2, r2, r1, lsl #19
 863 0048 2260     		str	r2, [r4]
 864 004a 83F83450 		strb	r5, [r3, #52]
 865 004e E7E7     		b	.L118
 866              	.L120:
ARM GAS  C:\Users\Brandon\AppData\Local\Temp\cc9dcMXB.s 			page 16


 867 0050 0220     		movs	r0, #2
 868 0052 E5E7     		b	.L118
 870              		.section	.text.HAL_DMAEx_EnableMuxRequestGenerator,"ax",%progbits
 871              		.align	1
 872              		.p2align 2,,3
 873              		.global	HAL_DMAEx_EnableMuxRequestGenerator
 874              		.syntax unified
 875              		.thumb
 876              		.thumb_func
 877              		.fpu fpv5-d16
 879              	HAL_DMAEx_EnableMuxRequestGenerator:
 880              		@ args = 0, pretend = 0, frame = 0
 881              		@ frame_needed = 0, uses_anonymous_args = 0
 882              		@ link register save eliminated.
 883 0000 90F83530 		ldrb	r3, [r0, #53]	@ zero_extendqisi2
 884 0004 3BB1     		cbz	r3, .L133
 885 0006 C36E     		ldr	r3, [r0, #108]
 886 0008 2BB1     		cbz	r3, .L133
 887 000a 1A68     		ldr	r2, [r3]
 888 000c 0020     		movs	r0, #0
 889 000e 42F48032 		orr	r2, r2, #65536
 890 0012 1A60     		str	r2, [r3]
 891 0014 7047     		bx	lr
 892              	.L133:
 893 0016 0120     		movs	r0, #1
 894 0018 7047     		bx	lr
 896 001a 00BF     		.section	.text.HAL_DMAEx_DisableMuxRequestGenerator,"ax",%progbits
 897              		.align	1
 898              		.p2align 2,,3
 899              		.global	HAL_DMAEx_DisableMuxRequestGenerator
 900              		.syntax unified
 901              		.thumb
 902              		.thumb_func
 903              		.fpu fpv5-d16
 905              	HAL_DMAEx_DisableMuxRequestGenerator:
 906              		@ args = 0, pretend = 0, frame = 0
 907              		@ frame_needed = 0, uses_anonymous_args = 0
 908              		@ link register save eliminated.
 909 0000 90F83530 		ldrb	r3, [r0, #53]	@ zero_extendqisi2
 910 0004 3BB1     		cbz	r3, .L137
 911 0006 C36E     		ldr	r3, [r0, #108]
 912 0008 2BB1     		cbz	r3, .L137
 913 000a 1A68     		ldr	r2, [r3]
 914 000c 0020     		movs	r0, #0
 915 000e 22F48032 		bic	r2, r2, #65536
 916 0012 1A60     		str	r2, [r3]
 917 0014 7047     		bx	lr
 918              	.L137:
 919 0016 0120     		movs	r0, #1
 920 0018 7047     		bx	lr
 922 001a 00BF     		.section	.text.HAL_DMAEx_MUX_IRQHandler,"ax",%progbits
 923              		.align	1
 924              		.p2align 2,,3
 925              		.global	HAL_DMAEx_MUX_IRQHandler
 926              		.syntax unified
 927              		.thumb
 928              		.thumb_func
ARM GAS  C:\Users\Brandon\AppData\Local\Temp\cc9dcMXB.s 			page 17


 929              		.fpu fpv5-d16
 931              	HAL_DMAEx_MUX_IRQHandler:
 932              		@ args = 0, pretend = 0, frame = 0
 933              		@ frame_needed = 0, uses_anonymous_args = 0
 934 0000 D0E91932 		ldrd	r3, r2, [r0, #100]
 935 0004 70B5     		push	{r4, r5, r6, lr}
 936 0006 1968     		ldr	r1, [r3]
 937 0008 0446     		mov	r4, r0
 938 000a 1142     		tst	r1, r2
 939 000c 0CD0     		beq	.L140
 940 000e 056E     		ldr	r5, [r0, #96]
 941 0010 C66C     		ldr	r6, [r0, #76]
 942 0012 2968     		ldr	r1, [r5]
 943 0014 21F48071 		bic	r1, r1, #256
 944 0018 2960     		str	r1, [r5]
 945 001a 5A60     		str	r2, [r3, #4]
 946 001c 436D     		ldr	r3, [r0, #84]
 947 001e 43F40073 		orr	r3, r3, #512
 948 0022 4365     		str	r3, [r0, #84]
 949 0024 06B1     		cbz	r6, .L140
 950 0026 B047     		blx	r6
 951              	.L140:
 952 0028 E36E     		ldr	r3, [r4, #108]
 953 002a A3B1     		cbz	r3, .L138
 954 002c D4E91C21 		ldrd	r2, r1, [r4, #112]
 955 0030 1068     		ldr	r0, [r2]
 956 0032 0842     		tst	r0, r1
 957 0034 0FD0     		beq	.L138
 958 0036 1868     		ldr	r0, [r3]
 959 0038 E56C     		ldr	r5, [r4, #76]
 960 003a 20F48070 		bic	r0, r0, #256
 961 003e 1860     		str	r0, [r3]
 962 0040 5160     		str	r1, [r2, #4]
 963 0042 636D     		ldr	r3, [r4, #84]
 964 0044 43F48063 		orr	r3, r3, #1024
 965 0048 6365     		str	r3, [r4, #84]
 966 004a 25B1     		cbz	r5, .L138
 967 004c 2046     		mov	r0, r4
 968 004e 2B46     		mov	r3, r5
 969 0050 BDE87040 		pop	{r4, r5, r6, lr}
 970 0054 1847     		bx	r3	@ indirect register sibling call
 971              	.L138:
 972 0056 70BD     		pop	{r4, r5, r6, pc}
 974              		.ident	"GCC: (GNU Arm Embedded Toolchain 9-2020-q2-update) 9.3.1 20200408 (release)"
ARM GAS  C:\Users\Brandon\AppData\Local\Temp\cc9dcMXB.s 			page 18

