ARM GAS  C:\Users\Brandon\AppData\Local\Temp\ccohPh8d.s 			page 1


   1              		.cpu cortex-m7
   2              		.eabi_attribute 28, 1
   3              		.eabi_attribute 20, 1
   4              		.eabi_attribute 21, 1
   5              		.eabi_attribute 23, 3
   6              		.eabi_attribute 24, 1
   7              		.eabi_attribute 25, 1
   8              		.eabi_attribute 26, 1
   9              		.eabi_attribute 30, 2
  10              		.eabi_attribute 34, 1
  11              		.eabi_attribute 18, 4
  12              		.file	"stm32h7xx_hal_i2c.c"
  13              		.text
  14              		.section	.text.I2C_IsAcknowledgeFailed.part.0,"ax",%progbits
  15              		.align	1
  16              		.p2align 2,,3
  17              		.arch armv7e-m
  18              		.syntax unified
  19              		.thumb
  20              		.thumb_func
  21              		.fpu fpv5-d16
  23              	I2C_IsAcknowledgeFailed.part.0:
  24              		@ args = 0, pretend = 0, frame = 0
  25              		@ frame_needed = 0, uses_anonymous_args = 0
  26 0000 F8B5     		push	{r3, r4, r5, r6, r7, lr}
  27 0002 0646     		mov	r6, r0
  28 0004 0D46     		mov	r5, r1
  29 0006 1746     		mov	r7, r2
  30              	.L4:
  31 0008 3468     		ldr	r4, [r6]
  32 000a 01E0     		b	.L3
  33              	.L7:
  34 000c 681C     		adds	r0, r5, #1
  35 000e 20D1     		bne	.L20
  36              	.L3:
  37 0010 A369     		ldr	r3, [r4, #24]
  38 0012 9906     		lsls	r1, r3, #26
  39 0014 FAD5     		bpl	.L7
  40 0016 1022     		movs	r2, #16
  41 0018 2023     		movs	r3, #32
  42 001a E261     		str	r2, [r4, #28]
  43 001c E361     		str	r3, [r4, #28]
  44 001e A369     		ldr	r3, [r4, #24]
  45 0020 9A07     		lsls	r2, r3, #30
  46 0022 01D5     		bpl	.L8
  47 0024 0023     		movs	r3, #0
  48 0026 A362     		str	r3, [r4, #40]
  49              	.L8:
  50 0028 A369     		ldr	r3, [r4, #24]
  51 002a DB07     		lsls	r3, r3, #31
  52 002c 24D5     		bpl	.L21
  53              	.L9:
  54 002e 6368     		ldr	r3, [r4, #4]
  55 0030 0022     		movs	r2, #0
  56 0032 1448     		ldr	r0, .L22
  57 0034 2021     		movs	r1, #32
  58 0036 0340     		ands	r3, r3, r0
ARM GAS  C:\Users\Brandon\AppData\Local\Temp\ccohPh8d.s 			page 2


  59 0038 6360     		str	r3, [r4, #4]
  60 003a 736C     		ldr	r3, [r6, #68]
  61 003c 86F84020 		strb	r2, [r6, #64]
  62 0040 43F00403 		orr	r3, r3, #4
  63 0044 7364     		str	r3, [r6, #68]
  64 0046 86F84110 		strb	r1, [r6, #65]
  65 004a 86F84220 		strb	r2, [r6, #66]
  66              	.L6:
  67 004e 0120     		movs	r0, #1
  68 0050 F8BD     		pop	{r3, r4, r5, r6, r7, pc}
  69              	.L20:
  70 0052 FFF7FEFF 		bl	HAL_GetTick
  71 0056 C01B     		subs	r0, r0, r7
  72 0058 8542     		cmp	r5, r0
  73 005a 01D3     		bcc	.L10
  74 005c 002D     		cmp	r5, #0
  75 005e D3D1     		bne	.L4
  76              	.L10:
  77 0060 736C     		ldr	r3, [r6, #68]
  78 0062 2021     		movs	r1, #32
  79 0064 0022     		movs	r2, #0
  80 0066 0B43     		orrs	r3, r3, r1
  81 0068 86F84020 		strb	r2, [r6, #64]
  82 006c 7364     		str	r3, [r6, #68]
  83 006e 86F84110 		strb	r1, [r6, #65]
  84 0072 86F84220 		strb	r2, [r6, #66]
  85 0076 EAE7     		b	.L6
  86              	.L21:
  87 0078 A369     		ldr	r3, [r4, #24]
  88 007a 43F00103 		orr	r3, r3, #1
  89 007e A361     		str	r3, [r4, #24]
  90 0080 D5E7     		b	.L9
  91              	.L23:
  92 0082 00BF     		.align	2
  93              	.L22:
  94 0084 00E800FE 		.word	-33495040
  96              		.section	.text.I2C_WaitOnRXNEFlagUntilTimeout,"ax",%progbits
  97              		.align	1
  98              		.p2align 2,,3
  99              		.syntax unified
 100              		.thumb
 101              		.thumb_func
 102              		.fpu fpv5-d16
 104              	I2C_WaitOnRXNEFlagUntilTimeout:
 105              		@ args = 0, pretend = 0, frame = 0
 106              		@ frame_needed = 0, uses_anonymous_args = 0
 107 0000 F8B5     		push	{r3, r4, r5, r6, r7, lr}
 108 0002 0546     		mov	r5, r0
 109 0004 0C46     		mov	r4, r1
 110 0006 1646     		mov	r6, r2
 111 0008 10E0     		b	.L25
 112              	.L31:
 113 000a 9F69     		ldr	r7, [r3, #24]
 114 000c FF06     		lsls	r7, r7, #27
 115 000e 04D5     		bpl	.L26
 116 0010 FFF7FEFF 		bl	I2C_IsAcknowledgeFailed.part.0
 117 0014 0028     		cmp	r0, #0
ARM GAS  C:\Users\Brandon\AppData\Local\Temp\ccohPh8d.s 			page 3


 118 0016 33D1     		bne	.L33
 119 0018 2B68     		ldr	r3, [r5]
 120              	.L26:
 121 001a 9A69     		ldr	r2, [r3, #24]
 122 001c 9106     		lsls	r1, r2, #26
 123 001e 19D4     		bmi	.L47
 124 0020 FFF7FEFF 		bl	HAL_GetTick
 125 0024 801B     		subs	r0, r0, r6
 126 0026 A042     		cmp	r0, r4
 127 0028 09D8     		bhi	.L34
 128 002a 44B1     		cbz	r4, .L34
 129              	.L25:
 130 002c 2B68     		ldr	r3, [r5]
 131 002e 3246     		mov	r2, r6
 132 0030 2146     		mov	r1, r4
 133 0032 2846     		mov	r0, r5
 134 0034 9F69     		ldr	r7, [r3, #24]
 135 0036 7F07     		lsls	r7, r7, #29
 136 0038 E7D5     		bpl	.L31
 137              	.L32:
 138 003a 0020     		movs	r0, #0
 139 003c F8BD     		pop	{r3, r4, r5, r6, r7, pc}
 140              	.L34:
 141 003e 6B6C     		ldr	r3, [r5, #68]
 142 0040 2022     		movs	r2, #32
 143 0042 0021     		movs	r1, #0
 144 0044 0120     		movs	r0, #1
 145 0046 1343     		orrs	r3, r3, r2
 146 0048 85F84010 		strb	r1, [r5, #64]
 147 004c 6B64     		str	r3, [r5, #68]
 148 004e 85F84120 		strb	r2, [r5, #65]
 149 0052 F8BD     		pop	{r3, r4, r5, r6, r7, pc}
 150              	.L47:
 151 0054 9A69     		ldr	r2, [r3, #24]
 152 0056 5207     		lsls	r2, r2, #29
 153 0058 02D5     		bpl	.L29
 154 005a 2A8D     		ldrh	r2, [r5, #40]
 155 005c 002A     		cmp	r2, #0
 156 005e ECD1     		bne	.L32
 157              	.L29:
 158 0060 2024     		movs	r4, #32
 159 0062 084E     		ldr	r6, .L48
 160 0064 0022     		movs	r2, #0
 161 0066 0120     		movs	r0, #1
 162 0068 DC61     		str	r4, [r3, #28]
 163 006a 5968     		ldr	r1, [r3, #4]
 164 006c 3140     		ands	r1, r1, r6
 165 006e 5960     		str	r1, [r3, #4]
 166 0070 6A64     		str	r2, [r5, #68]
 167 0072 85F84020 		strb	r2, [r5, #64]
 168 0076 85F84140 		strb	r4, [r5, #65]
 169 007a 85F84220 		strb	r2, [r5, #66]
 170 007e F8BD     		pop	{r3, r4, r5, r6, r7, pc}
 171              	.L33:
 172 0080 0120     		movs	r0, #1
 173 0082 F8BD     		pop	{r3, r4, r5, r6, r7, pc}
 174              	.L49:
ARM GAS  C:\Users\Brandon\AppData\Local\Temp\ccohPh8d.s 			page 4


 175              		.align	2
 176              	.L48:
 177 0084 00E800FE 		.word	-33495040
 179              		.section	.text.I2C_WaitOnTXISFlagUntilTimeout,"ax",%progbits
 180              		.align	1
 181              		.p2align 2,,3
 182              		.syntax unified
 183              		.thumb
 184              		.thumb_func
 185              		.fpu fpv5-d16
 187              	I2C_WaitOnTXISFlagUntilTimeout:
 188              		@ args = 0, pretend = 0, frame = 0
 189              		@ frame_needed = 0, uses_anonymous_args = 0
 190 0000 F8B5     		push	{r3, r4, r5, r6, r7, lr}
 191 0002 0546     		mov	r5, r0
 192 0004 0C46     		mov	r4, r1
 193 0006 1746     		mov	r7, r2
 194 0008 07E0     		b	.L54
 195              	.L58:
 196 000a 9B69     		ldr	r3, [r3, #24]
 197 000c DE06     		lsls	r6, r3, #27
 198 000e 02D5     		bpl	.L56
 199 0010 FFF7FEFF 		bl	I2C_IsAcknowledgeFailed.part.0
 200 0014 F0B9     		cbnz	r0, .L64
 201              	.L56:
 202 0016 631C     		adds	r3, r4, #1
 203 0018 08D1     		bne	.L65
 204              	.L54:
 205 001a 2B68     		ldr	r3, [r5]
 206 001c 3A46     		mov	r2, r7
 207 001e 2146     		mov	r1, r4
 208 0020 2846     		mov	r0, r5
 209 0022 9E69     		ldr	r6, [r3, #24]
 210 0024 B607     		lsls	r6, r6, #30
 211 0026 F0D5     		bpl	.L58
 212 0028 0020     		movs	r0, #0
 213 002a F8BD     		pop	{r3, r4, r5, r6, r7, pc}
 214              	.L65:
 215 002c FFF7FEFF 		bl	HAL_GetTick
 216 0030 C01B     		subs	r0, r0, r7
 217 0032 A042     		cmp	r0, r4
 218 0034 01D8     		bhi	.L60
 219 0036 002C     		cmp	r4, #0
 220 0038 EFD1     		bne	.L54
 221              	.L60:
 222 003a 6B6C     		ldr	r3, [r5, #68]
 223 003c 2021     		movs	r1, #32
 224 003e 0022     		movs	r2, #0
 225 0040 0120     		movs	r0, #1
 226 0042 0B43     		orrs	r3, r3, r1
 227 0044 85F84020 		strb	r2, [r5, #64]
 228 0048 6B64     		str	r3, [r5, #68]
 229 004a 85F84110 		strb	r1, [r5, #65]
 230 004e 85F84220 		strb	r2, [r5, #66]
 231 0052 F8BD     		pop	{r3, r4, r5, r6, r7, pc}
 232              	.L64:
 233 0054 0120     		movs	r0, #1
ARM GAS  C:\Users\Brandon\AppData\Local\Temp\ccohPh8d.s 			page 5


 234 0056 F8BD     		pop	{r3, r4, r5, r6, r7, pc}
 236              		.section	.text.I2C_WaitOnSTOPFlagUntilTimeout,"ax",%progbits
 237              		.align	1
 238              		.p2align 2,,3
 239              		.syntax unified
 240              		.thumb
 241              		.thumb_func
 242              		.fpu fpv5-d16
 244              	I2C_WaitOnSTOPFlagUntilTimeout:
 245              		@ args = 0, pretend = 0, frame = 0
 246              		@ frame_needed = 0, uses_anonymous_args = 0
 247 0000 F8B5     		push	{r3, r4, r5, r6, r7, lr}
 248 0002 0546     		mov	r5, r0
 249 0004 0C46     		mov	r4, r1
 250 0006 1646     		mov	r6, r2
 251 0008 0BE0     		b	.L67
 252              	.L72:
 253 000a 9B69     		ldr	r3, [r3, #24]
 254 000c DB06     		lsls	r3, r3, #27
 255 000e 02D5     		bpl	.L71
 256 0010 FFF7FEFF 		bl	I2C_IsAcknowledgeFailed.part.0
 257 0014 D8B9     		cbnz	r0, .L75
 258              	.L71:
 259 0016 FFF7FEFF 		bl	HAL_GetTick
 260 001a 801B     		subs	r0, r0, r6
 261 001c A042     		cmp	r0, r4
 262 001e 09D8     		bhi	.L69
 263 0020 44B1     		cbz	r4, .L69
 264              	.L67:
 265 0022 2B68     		ldr	r3, [r5]
 266 0024 3246     		mov	r2, r6
 267 0026 2146     		mov	r1, r4
 268 0028 2846     		mov	r0, r5
 269 002a 9F69     		ldr	r7, [r3, #24]
 270 002c BF06     		lsls	r7, r7, #26
 271 002e ECD5     		bpl	.L72
 272 0030 0020     		movs	r0, #0
 273 0032 F8BD     		pop	{r3, r4, r5, r6, r7, pc}
 274              	.L69:
 275 0034 6B6C     		ldr	r3, [r5, #68]
 276 0036 2021     		movs	r1, #32
 277 0038 0022     		movs	r2, #0
 278 003a 0120     		movs	r0, #1
 279 003c 0B43     		orrs	r3, r3, r1
 280 003e 85F84020 		strb	r2, [r5, #64]
 281 0042 6B64     		str	r3, [r5, #68]
 282 0044 85F84110 		strb	r1, [r5, #65]
 283 0048 85F84220 		strb	r2, [r5, #66]
 284 004c F8BD     		pop	{r3, r4, r5, r6, r7, pc}
 285              	.L75:
 286 004e 0120     		movs	r0, #1
 287 0050 F8BD     		pop	{r3, r4, r5, r6, r7, pc}
 289 0052 00BF     		.section	.text.I2C_WaitOnFlagUntilTimeout,"ax",%progbits
 290              		.align	1
 291              		.p2align 2,,3
 292              		.syntax unified
 293              		.thumb
ARM GAS  C:\Users\Brandon\AppData\Local\Temp\ccohPh8d.s 			page 6


 294              		.thumb_func
 295              		.fpu fpv5-d16
 297              	I2C_WaitOnFlagUntilTimeout:
 298              		@ args = 4, pretend = 0, frame = 0
 299              		@ frame_needed = 0, uses_anonymous_args = 0
 300 0000 2DE9F041 		push	{r4, r5, r6, r7, r8, lr}
 301 0004 8046     		mov	r8, r0
 302 0006 0F46     		mov	r7, r1
 303 0008 1646     		mov	r6, r2
 304 000a 1D46     		mov	r5, r3
 305              	.L77:
 306 000c D8F80030 		ldr	r3, [r8]
 307 0010 01E0     		b	.L78
 308              	.L81:
 309 0012 6A1C     		adds	r2, r5, #1
 310 0014 0AD1     		bne	.L88
 311              	.L78:
 312 0016 9C69     		ldr	r4, [r3, #24]
 313 0018 37EA0402 		bics	r2, r7, r4
 314 001c 0CBF     		ite	eq
 315 001e 0124     		moveq	r4, #1
 316 0020 0024     		movne	r4, #0
 317 0022 B442     		cmp	r4, r6
 318 0024 F5D0     		beq	.L81
 319 0026 0020     		movs	r0, #0
 320              	.L80:
 321 0028 BDE8F081 		pop	{r4, r5, r6, r7, r8, pc}
 322              	.L88:
 323 002c FFF7FEFF 		bl	HAL_GetTick
 324 0030 069B     		ldr	r3, [sp, #24]
 325 0032 C01A     		subs	r0, r0, r3
 326 0034 A842     		cmp	r0, r5
 327 0036 01D8     		bhi	.L82
 328 0038 002D     		cmp	r5, #0
 329 003a E7D1     		bne	.L77
 330              	.L82:
 331 003c D8F84430 		ldr	r3, [r8, #68]
 332 0040 2021     		movs	r1, #32
 333 0042 0022     		movs	r2, #0
 334 0044 0120     		movs	r0, #1
 335 0046 0B43     		orrs	r3, r3, r1
 336 0048 88F84020 		strb	r2, [r8, #64]
 337 004c C8F84430 		str	r3, [r8, #68]
 338 0050 88F84110 		strb	r1, [r8, #65]
 339 0054 88F84220 		strb	r2, [r8, #66]
 340 0058 E6E7     		b	.L80
 342 005a 00BF     		.section	.text.I2C_RequestMemoryWrite,"ax",%progbits
 343              		.align	1
 344              		.p2align 2,,3
 345              		.syntax unified
 346              		.thumb
 347              		.thumb_func
 348              		.fpu fpv5-d16
 350              	I2C_RequestMemoryWrite:
 351              		@ args = 8, pretend = 0, frame = 0
 352              		@ frame_needed = 0, uses_anonymous_args = 0
 353 0000 D0F800C0 		ldr	ip, [r0]
ARM GAS  C:\Users\Brandon\AppData\Local\Temp\ccohPh8d.s 			page 7


 354 0004 C1F30901 		ubfx	r1, r1, #0, #10
 355 0008 2DE9F041 		push	{r4, r5, r6, r7, r8, lr}
 356 000c 1C4F     		ldr	r7, .L97
 357 000e 5FFA83FE 		uxtb	lr, r3
 358 0012 1546     		mov	r5, r2
 359 0014 DCF80420 		ldr	r2, [ip, #4]
 360 0018 41EA0E41 		orr	r1, r1, lr, lsl #16
 361 001c 82B0     		sub	sp, sp, #8
 362 001e 3A40     		ands	r2, r2, r7
 363 0020 1E46     		mov	r6, r3
 364 0022 184B     		ldr	r3, .L97+4
 365 0024 0446     		mov	r4, r0
 366 0026 1143     		orrs	r1, r1, r2
 367 0028 089F     		ldr	r7, [sp, #32]
 368 002a DDF82480 		ldr	r8, [sp, #36]
 369 002e 0B43     		orrs	r3, r3, r1
 370 0030 3946     		mov	r1, r7
 371 0032 4246     		mov	r2, r8
 372 0034 CCF80430 		str	r3, [ip, #4]
 373 0038 FFF7FEFF 		bl	I2C_WaitOnTXISFlagUntilTimeout
 374 003c E0B9     		cbnz	r0, .L94
 375 003e 012E     		cmp	r6, #1
 376 0040 10D1     		bne	.L92
 377              	.L96:
 378 0042 2368     		ldr	r3, [r4]
 379 0044 EDB2     		uxtb	r5, r5
 380 0046 2046     		mov	r0, r4
 381 0048 0022     		movs	r2, #0
 382 004a 9D62     		str	r5, [r3, #40]
 383 004c 8021     		movs	r1, #128
 384 004e 3B46     		mov	r3, r7
 385 0050 CDF80080 		str	r8, [sp]
 386 0054 FFF7FEFF 		bl	I2C_WaitOnFlagUntilTimeout
 387 0058 0038     		subs	r0, r0, #0
 388 005a 18BF     		it	ne
 389 005c 0120     		movne	r0, #1
 390 005e 02B0     		add	sp, sp, #8
 391              		@ sp needed
 392 0060 BDE8F081 		pop	{r4, r5, r6, r7, r8, pc}
 393              	.L92:
 394 0064 2068     		ldr	r0, [r4]
 395 0066 2B0A     		lsrs	r3, r5, #8
 396 0068 4246     		mov	r2, r8
 397 006a 3946     		mov	r1, r7
 398 006c 8362     		str	r3, [r0, #40]
 399 006e 2046     		mov	r0, r4
 400 0070 FFF7FEFF 		bl	I2C_WaitOnTXISFlagUntilTimeout
 401 0074 0028     		cmp	r0, #0
 402 0076 E4D0     		beq	.L96
 403              	.L94:
 404 0078 0120     		movs	r0, #1
 405 007a 02B0     		add	sp, sp, #8
 406              		@ sp needed
 407 007c BDE8F081 		pop	{r4, r5, r6, r7, r8, pc}
 408              	.L98:
 409              		.align	2
 410              	.L97:
ARM GAS  C:\Users\Brandon\AppData\Local\Temp\ccohPh8d.s 			page 8


 411 0080 009800FC 		.word	-67069952
 412 0084 00200081 		.word	-2130698240
 414              		.section	.text.I2C_RequestMemoryRead,"ax",%progbits
 415              		.align	1
 416              		.p2align 2,,3
 417              		.syntax unified
 418              		.thumb
 419              		.thumb_func
 420              		.fpu fpv5-d16
 422              	I2C_RequestMemoryRead:
 423              		@ args = 8, pretend = 0, frame = 0
 424              		@ frame_needed = 0, uses_anonymous_args = 0
 425 0000 D0F800C0 		ldr	ip, [r0]
 426 0004 C1F30901 		ubfx	r1, r1, #0, #10
 427 0008 2DE9F041 		push	{r4, r5, r6, r7, r8, lr}
 428 000c 1C4F     		ldr	r7, .L107
 429 000e 5FFA83FE 		uxtb	lr, r3
 430 0012 1546     		mov	r5, r2
 431 0014 DCF80420 		ldr	r2, [ip, #4]
 432 0018 41EA0E41 		orr	r1, r1, lr, lsl #16
 433 001c 82B0     		sub	sp, sp, #8
 434 001e 3A40     		ands	r2, r2, r7
 435 0020 1E46     		mov	r6, r3
 436 0022 184B     		ldr	r3, .L107+4
 437 0024 0446     		mov	r4, r0
 438 0026 1143     		orrs	r1, r1, r2
 439 0028 089F     		ldr	r7, [sp, #32]
 440 002a DDF82480 		ldr	r8, [sp, #36]
 441 002e 0B43     		orrs	r3, r3, r1
 442 0030 3946     		mov	r1, r7
 443 0032 4246     		mov	r2, r8
 444 0034 CCF80430 		str	r3, [ip, #4]
 445 0038 FFF7FEFF 		bl	I2C_WaitOnTXISFlagUntilTimeout
 446 003c E0B9     		cbnz	r0, .L104
 447 003e 012E     		cmp	r6, #1
 448 0040 10D1     		bne	.L102
 449              	.L106:
 450 0042 2368     		ldr	r3, [r4]
 451 0044 EDB2     		uxtb	r5, r5
 452 0046 2046     		mov	r0, r4
 453 0048 0022     		movs	r2, #0
 454 004a 9D62     		str	r5, [r3, #40]
 455 004c 4021     		movs	r1, #64
 456 004e 3B46     		mov	r3, r7
 457 0050 CDF80080 		str	r8, [sp]
 458 0054 FFF7FEFF 		bl	I2C_WaitOnFlagUntilTimeout
 459 0058 0038     		subs	r0, r0, #0
 460 005a 18BF     		it	ne
 461 005c 0120     		movne	r0, #1
 462 005e 02B0     		add	sp, sp, #8
 463              		@ sp needed
 464 0060 BDE8F081 		pop	{r4, r5, r6, r7, r8, pc}
 465              	.L102:
 466 0064 2068     		ldr	r0, [r4]
 467 0066 2B0A     		lsrs	r3, r5, #8
 468 0068 4246     		mov	r2, r8
 469 006a 3946     		mov	r1, r7
ARM GAS  C:\Users\Brandon\AppData\Local\Temp\ccohPh8d.s 			page 9


 470 006c 8362     		str	r3, [r0, #40]
 471 006e 2046     		mov	r0, r4
 472 0070 FFF7FEFF 		bl	I2C_WaitOnTXISFlagUntilTimeout
 473 0074 0028     		cmp	r0, #0
 474 0076 E4D0     		beq	.L106
 475              	.L104:
 476 0078 0120     		movs	r0, #1
 477 007a 02B0     		add	sp, sp, #8
 478              		@ sp needed
 479 007c BDE8F081 		pop	{r4, r5, r6, r7, r8, pc}
 480              	.L108:
 481              		.align	2
 482              	.L107:
 483 0080 009800FC 		.word	-67069952
 484 0084 00200080 		.word	-2147475456
 486              		.section	.text.HAL_I2C_MspInit,"ax",%progbits
 487              		.align	1
 488              		.p2align 2,,3
 489              		.weak	HAL_I2C_MspInit
 490              		.syntax unified
 491              		.thumb
 492              		.thumb_func
 493              		.fpu fpv5-d16
 495              	HAL_I2C_MspInit:
 496              		@ args = 0, pretend = 0, frame = 0
 497              		@ frame_needed = 0, uses_anonymous_args = 0
 498              		@ link register save eliminated.
 499 0000 7047     		bx	lr
 501 0002 00BF     		.section	.text.HAL_I2C_Init,"ax",%progbits
 502              		.align	1
 503              		.p2align 2,,3
 504              		.global	HAL_I2C_Init
 505              		.syntax unified
 506              		.thumb
 507              		.thumb_func
 508              		.fpu fpv5-d16
 510              	HAL_I2C_Init:
 511              		@ args = 0, pretend = 0, frame = 0
 512              		@ frame_needed = 0, uses_anonymous_args = 0
 513 0000 0028     		cmp	r0, #0
 514 0002 4DD0     		beq	.L115
 515 0004 F8B5     		push	{r3, r4, r5, r6, r7, lr}
 516 0006 90F84130 		ldrb	r3, [r0, #65]	@ zero_extendqisi2
 517 000a 0446     		mov	r4, r0
 518 000c 03F0FF02 		and	r2, r3, #255
 519 0010 002B     		cmp	r3, #0
 520 0012 40D0     		beq	.L120
 521              	.L112:
 522 0014 2421     		movs	r1, #36
 523 0016 E068     		ldr	r0, [r4, #12]
 524 0018 D4E90032 		ldrd	r3, r2, [r4]
 525 001c 84F84110 		strb	r1, [r4, #65]
 526 0020 0128     		cmp	r0, #1
 527 0022 1968     		ldr	r1, [r3]
 528 0024 22F07062 		bic	r2, r2, #251658240
 529 0028 21F00101 		bic	r1, r1, #1
 530 002c 1960     		str	r1, [r3]
ARM GAS  C:\Users\Brandon\AppData\Local\Temp\ccohPh8d.s 			page 10


 531 002e 1A61     		str	r2, [r3, #16]
 532 0030 9A68     		ldr	r2, [r3, #8]
 533 0032 22F40042 		bic	r2, r2, #32768
 534 0036 9A60     		str	r2, [r3, #8]
 535 0038 A268     		ldr	r2, [r4, #8]
 536 003a 28D0     		beq	.L121
 537 003c 42F40442 		orr	r2, r2, #33792
 538 0040 0228     		cmp	r0, #2
 539 0042 9A60     		str	r2, [r3, #8]
 540 0044 02D1     		bne	.L114
 541 0046 4FF40062 		mov	r2, #2048
 542 004a 5A60     		str	r2, [r3, #4]
 543              	.L114:
 544 004c 5A68     		ldr	r2, [r3, #4]
 545 004e 0021     		movs	r1, #0
 546 0050 1448     		ldr	r0, .L122
 547 0052 2027     		movs	r7, #32
 548 0054 A669     		ldr	r6, [r4, #24]
 549 0056 1043     		orrs	r0, r0, r2
 550 0058 D4E90425 		ldrd	r2, r5, [r4, #16]
 551 005c 5860     		str	r0, [r3, #4]
 552 005e 2A43     		orrs	r2, r2, r5
 553 0060 D868     		ldr	r0, [r3, #12]
 554 0062 E569     		ldr	r5, [r4, #28]
 555 0064 42EA0622 		orr	r2, r2, r6, lsl #8
 556 0068 266A     		ldr	r6, [r4, #32]
 557 006a 20F40040 		bic	r0, r0, #32768
 558 006e 3543     		orrs	r5, r5, r6
 559 0070 D860     		str	r0, [r3, #12]
 560 0072 0846     		mov	r0, r1
 561 0074 DA60     		str	r2, [r3, #12]
 562 0076 1D60     		str	r5, [r3]
 563 0078 1A68     		ldr	r2, [r3]
 564 007a 42F00102 		orr	r2, r2, #1
 565 007e 1A60     		str	r2, [r3]
 566 0080 6164     		str	r1, [r4, #68]
 567 0082 84F84170 		strb	r7, [r4, #65]
 568 0086 2163     		str	r1, [r4, #48]
 569 0088 84F84210 		strb	r1, [r4, #66]
 570 008c F8BD     		pop	{r3, r4, r5, r6, r7, pc}
 571              	.L121:
 572 008e 42F40042 		orr	r2, r2, #32768
 573 0092 9A60     		str	r2, [r3, #8]
 574 0094 DAE7     		b	.L114
 575              	.L120:
 576 0096 80F84020 		strb	r2, [r0, #64]
 577 009a FFF7FEFF 		bl	HAL_I2C_MspInit
 578 009e B9E7     		b	.L112
 579              	.L115:
 580 00a0 0120     		movs	r0, #1
 581 00a2 7047     		bx	lr
 582              	.L123:
 583              		.align	2
 584              	.L122:
 585 00a4 00800002 		.word	33587200
 587              		.section	.text.HAL_I2C_MspDeInit,"ax",%progbits
 588              		.align	1
ARM GAS  C:\Users\Brandon\AppData\Local\Temp\ccohPh8d.s 			page 11


 589              		.p2align 2,,3
 590              		.weak	HAL_I2C_MspDeInit
 591              		.syntax unified
 592              		.thumb
 593              		.thumb_func
 594              		.fpu fpv5-d16
 596              	HAL_I2C_MspDeInit:
 597              		@ args = 0, pretend = 0, frame = 0
 598              		@ frame_needed = 0, uses_anonymous_args = 0
 599              		@ link register save eliminated.
 600 0000 7047     		bx	lr
 602 0002 00BF     		.section	.text.HAL_I2C_DeInit,"ax",%progbits
 603              		.align	1
 604              		.p2align 2,,3
 605              		.global	HAL_I2C_DeInit
 606              		.syntax unified
 607              		.thumb
 608              		.thumb_func
 609              		.fpu fpv5-d16
 611              	HAL_I2C_DeInit:
 612              		@ args = 0, pretend = 0, frame = 0
 613              		@ frame_needed = 0, uses_anonymous_args = 0
 614 0000 B0B1     		cbz	r0, .L127
 615 0002 0268     		ldr	r2, [r0]
 616 0004 2423     		movs	r3, #36
 617 0006 10B5     		push	{r4, lr}
 618 0008 80F84130 		strb	r3, [r0, #65]
 619 000c 0446     		mov	r4, r0
 620 000e 1368     		ldr	r3, [r2]
 621 0010 23F00103 		bic	r3, r3, #1
 622 0014 1360     		str	r3, [r2]
 623 0016 FFF7FEFF 		bl	HAL_I2C_MspDeInit
 624 001a 0023     		movs	r3, #0
 625 001c 6364     		str	r3, [r4, #68]
 626 001e 1846     		mov	r0, r3
 627 0020 84F84130 		strb	r3, [r4, #65]
 628 0024 84F84030 		strb	r3, [r4, #64]
 629 0028 2363     		str	r3, [r4, #48]
 630 002a 84F84230 		strb	r3, [r4, #66]
 631 002e 10BD     		pop	{r4, pc}
 632              	.L127:
 633 0030 0120     		movs	r0, #1
 634 0032 7047     		bx	lr
 636              		.section	.text.HAL_I2C_Master_Transmit,"ax",%progbits
 637              		.align	1
 638              		.p2align 2,,3
 639              		.global	HAL_I2C_Master_Transmit
 640              		.syntax unified
 641              		.thumb
 642              		.thumb_func
 643              		.fpu fpv5-d16
 645              	HAL_I2C_Master_Transmit:
 646              		@ args = 4, pretend = 0, frame = 0
 647              		@ frame_needed = 0, uses_anonymous_args = 0
 648 0000 2DE9F047 		push	{r4, r5, r6, r7, r8, r9, r10, lr}
 649 0004 9846     		mov	r8, r3
 650 0006 90F84130 		ldrb	r3, [r0, #65]	@ zero_extendqisi2
ARM GAS  C:\Users\Brandon\AppData\Local\Temp\ccohPh8d.s 			page 12


 651 000a 82B0     		sub	sp, sp, #8
 652 000c 202B     		cmp	r3, #32
 653 000e 0A9E     		ldr	r6, [sp, #40]
 654 0010 40F09380 		bne	.L144
 655 0014 90F84030 		ldrb	r3, [r0, #64]	@ zero_extendqisi2
 656 0018 0446     		mov	r4, r0
 657 001a 012B     		cmp	r3, #1
 658 001c 00F08D80 		beq	.L144
 659 0020 4FF0010A 		mov	r10, #1
 660 0024 0F46     		mov	r7, r1
 661 0026 9146     		mov	r9, r2
 662 0028 80F840A0 		strb	r10, [r0, #64]
 663 002c FFF7FEFF 		bl	HAL_GetTick
 664 0030 0546     		mov	r5, r0
 665 0032 5246     		mov	r2, r10
 666 0034 1923     		movs	r3, #25
 667 0036 4FF40041 		mov	r1, #32768
 668 003a 2046     		mov	r0, r4
 669 003c 0095     		str	r5, [sp]
 670 003e FFF7FEFF 		bl	I2C_WaitOnFlagUntilTimeout
 671 0042 0028     		cmp	r0, #0
 672 0044 75D1     		bne	.L138
 673 0046 1023     		movs	r3, #16
 674 0048 2122     		movs	r2, #33
 675 004a C4F82490 		str	r9, [r4, #36]
 676 004e 84F84120 		strb	r2, [r4, #65]
 677 0052 84F84230 		strb	r3, [r4, #66]
 678 0056 6064     		str	r0, [r4, #68]
 679 0058 A4F82A80 		strh	r8, [r4, #42]	@ movhi
 680 005c 638D     		ldrh	r3, [r4, #42]
 681 005e 6063     		str	r0, [r4, #52]
 682 0060 9BB2     		uxth	r3, r3
 683 0062 FF2B     		cmp	r3, #255
 684 0064 6DD8     		bhi	.L151
 685 0066 628D     		ldrh	r2, [r4, #42]
 686 0068 C7F30903 		ubfx	r3, r7, #0, #10
 687 006c 2068     		ldr	r0, [r4]
 688 006e 92B2     		uxth	r2, r2
 689 0070 DFF818E1 		ldr	lr, .L153+12
 690 0074 4168     		ldr	r1, [r0, #4]
 691 0076 9A46     		mov	r10, r3
 692 0078 5FFA82FC 		uxtb	ip, r2
 693 007c 2285     		strh	r2, [r4, #40]	@ movhi
 694 007e 01EA0E01 		and	r1, r1, lr
 695 0082 3F4A     		ldr	r2, .L153
 696 0084 43EA0C43 		orr	r3, r3, ip, lsl #16
 697 0088 0B43     		orrs	r3, r3, r1
 698 008a 1A43     		orrs	r2, r2, r3
 699 008c 4260     		str	r2, [r0, #4]
 700              	.L136:
 701 008e DFF80081 		ldr	r8, .L153+16
 702 0092 DFF80091 		ldr	r9, .L153+20
 703              	.L147:
 704 0096 638D     		ldrh	r3, [r4, #42]
 705 0098 2A46     		mov	r2, r5
 706 009a 3146     		mov	r1, r6
 707 009c 2046     		mov	r0, r4
ARM GAS  C:\Users\Brandon\AppData\Local\Temp\ccohPh8d.s 			page 13


 708 009e 9BB2     		uxth	r3, r3
 709 00a0 002B     		cmp	r3, #0
 710 00a2 35D0     		beq	.L152
 711              	.L142:
 712 00a4 FFF7FEFF 		bl	I2C_WaitOnTXISFlagUntilTimeout
 713 00a8 0028     		cmp	r0, #0
 714 00aa 42D1     		bne	.L138
 715 00ac 626A     		ldr	r2, [r4, #36]
 716 00ae 2768     		ldr	r7, [r4]
 717 00b0 12F8011B 		ldrb	r1, [r2], #1	@ zero_extendqisi2
 718 00b4 238D     		ldrh	r3, [r4, #40]
 719 00b6 B962     		str	r1, [r7, #40]
 720 00b8 618D     		ldrh	r1, [r4, #42]
 721 00ba 013B     		subs	r3, r3, #1
 722 00bc 6262     		str	r2, [r4, #36]
 723 00be 0139     		subs	r1, r1, #1
 724 00c0 9BB2     		uxth	r3, r3
 725 00c2 89B2     		uxth	r1, r1
 726 00c4 2385     		strh	r3, [r4, #40]	@ movhi
 727 00c6 6185     		strh	r1, [r4, #42]	@ movhi
 728 00c8 628D     		ldrh	r2, [r4, #42]
 729 00ca 92B2     		uxth	r2, r2
 730 00cc 002B     		cmp	r3, #0
 731 00ce E2D1     		bne	.L147
 732 00d0 002A     		cmp	r2, #0
 733 00d2 E0D0     		beq	.L147
 734 00d4 0246     		mov	r2, r0
 735 00d6 3346     		mov	r3, r6
 736 00d8 8021     		movs	r1, #128
 737 00da 2046     		mov	r0, r4
 738 00dc 0095     		str	r5, [sp]
 739 00de FFF7FEFF 		bl	I2C_WaitOnFlagUntilTimeout
 740 00e2 FF22     		movs	r2, #255
 741 00e4 28BB     		cbnz	r0, .L138
 742 00e6 638D     		ldrh	r3, [r4, #42]
 743 00e8 9BB2     		uxth	r3, r3
 744 00ea 9342     		cmp	r3, r2
 745 00ec 39D9     		bls	.L140
 746 00ee 2168     		ldr	r1, [r4]
 747 00f0 2046     		mov	r0, r4
 748 00f2 2285     		strh	r2, [r4, #40]	@ movhi
 749 00f4 2A46     		mov	r2, r5
 750 00f6 4B68     		ldr	r3, [r1, #4]
 751 00f8 03EA0803 		and	r3, r3, r8
 752 00fc 43EA0A03 		orr	r3, r3, r10
 753 0100 43EA0903 		orr	r3, r3, r9
 754 0104 4B60     		str	r3, [r1, #4]
 755 0106 3146     		mov	r1, r6
 756 0108 638D     		ldrh	r3, [r4, #42]
 757 010a 9BB2     		uxth	r3, r3
 758 010c 002B     		cmp	r3, #0
 759 010e C9D1     		bne	.L142
 760              	.L152:
 761 0110 FFF7FEFF 		bl	I2C_WaitOnSTOPFlagUntilTimeout
 762 0114 68B9     		cbnz	r0, .L138
 763 0116 2368     		ldr	r3, [r4]
 764 0118 2021     		movs	r1, #32
ARM GAS  C:\Users\Brandon\AppData\Local\Temp\ccohPh8d.s 			page 14


 765 011a 1A4D     		ldr	r5, .L153+4
 766 011c D961     		str	r1, [r3, #28]
 767 011e 5A68     		ldr	r2, [r3, #4]
 768 0120 2A40     		ands	r2, r2, r5
 769 0122 5A60     		str	r2, [r3, #4]
 770 0124 84F84110 		strb	r1, [r4, #65]
 771 0128 84F84000 		strb	r0, [r4, #64]
 772 012c 84F84200 		strb	r0, [r4, #66]
 773 0130 00E0     		b	.L133
 774              	.L138:
 775 0132 0120     		movs	r0, #1
 776              	.L133:
 777 0134 02B0     		add	sp, sp, #8
 778              		@ sp needed
 779 0136 BDE8F087 		pop	{r4, r5, r6, r7, r8, r9, r10, pc}
 780              	.L144:
 781 013a 0220     		movs	r0, #2
 782 013c 02B0     		add	sp, sp, #8
 783              		@ sp needed
 784 013e BDE8F087 		pop	{r4, r5, r6, r7, r8, r9, r10, pc}
 785              	.L151:
 786 0142 2168     		ldr	r1, [r4]
 787 0144 C7F30900 		ubfx	r0, r7, #0, #10
 788 0148 DFF840C0 		ldr	ip, .L153+12
 789 014c FF22     		movs	r2, #255
 790 014e 4B68     		ldr	r3, [r1, #4]
 791 0150 8246     		mov	r10, r0
 792 0152 2285     		strh	r2, [r4, #40]	@ movhi
 793 0154 03EA0C03 		and	r3, r3, ip
 794 0158 0B4A     		ldr	r2, .L153+8
 795 015a 0343     		orrs	r3, r3, r0
 796 015c 1A43     		orrs	r2, r2, r3
 797 015e 4A60     		str	r2, [r1, #4]
 798 0160 95E7     		b	.L136
 799              	.L140:
 800 0162 628D     		ldrh	r2, [r4, #42]
 801 0164 2168     		ldr	r1, [r4]
 802 0166 92B2     		uxth	r2, r2
 803 0168 4868     		ldr	r0, [r1, #4]
 804 016a D3B2     		uxtb	r3, r2
 805 016c 2285     		strh	r2, [r4, #40]	@ movhi
 806 016e 00EA0802 		and	r2, r0, r8
 807 0172 4AEA0343 		orr	r3, r10, r3, lsl #16
 808 0176 1343     		orrs	r3, r3, r2
 809 0178 43F00073 		orr	r3, r3, #33554432
 810 017c 4B60     		str	r3, [r1, #4]
 811 017e 8AE7     		b	.L147
 812              	.L154:
 813              		.align	2
 814              	.L153:
 815 0180 00200082 		.word	-2113921024
 816 0184 00E800FE 		.word	-33495040
 817 0188 0020FF81 		.word	-2113986560
 818 018c 009800FC 		.word	-67069952
 819 0190 009C00FC 		.word	-67068928
 820 0194 0000FF01 		.word	33488896
 822              		.section	.text.HAL_I2C_Master_Receive,"ax",%progbits
ARM GAS  C:\Users\Brandon\AppData\Local\Temp\ccohPh8d.s 			page 15


 823              		.align	1
 824              		.p2align 2,,3
 825              		.global	HAL_I2C_Master_Receive
 826              		.syntax unified
 827              		.thumb
 828              		.thumb_func
 829              		.fpu fpv5-d16
 831              	HAL_I2C_Master_Receive:
 832              		@ args = 4, pretend = 0, frame = 0
 833              		@ frame_needed = 0, uses_anonymous_args = 0
 834 0000 2DE9F047 		push	{r4, r5, r6, r7, r8, r9, r10, lr}
 835 0004 9846     		mov	r8, r3
 836 0006 90F84130 		ldrb	r3, [r0, #65]	@ zero_extendqisi2
 837 000a 82B0     		sub	sp, sp, #8
 838 000c 202B     		cmp	r3, #32
 839 000e 0A9E     		ldr	r6, [sp, #40]
 840 0010 40F09380 		bne	.L167
 841 0014 90F84030 		ldrb	r3, [r0, #64]	@ zero_extendqisi2
 842 0018 0446     		mov	r4, r0
 843 001a 012B     		cmp	r3, #1
 844 001c 00F08D80 		beq	.L167
 845 0020 4FF0010A 		mov	r10, #1
 846 0024 0F46     		mov	r7, r1
 847 0026 9146     		mov	r9, r2
 848 0028 80F840A0 		strb	r10, [r0, #64]
 849 002c FFF7FEFF 		bl	HAL_GetTick
 850 0030 0546     		mov	r5, r0
 851 0032 5246     		mov	r2, r10
 852 0034 1923     		movs	r3, #25
 853 0036 4FF40041 		mov	r1, #32768
 854 003a 2046     		mov	r0, r4
 855 003c 0095     		str	r5, [sp]
 856 003e FFF7FEFF 		bl	I2C_WaitOnFlagUntilTimeout
 857 0042 0028     		cmp	r0, #0
 858 0044 75D1     		bne	.L161
 859 0046 1023     		movs	r3, #16
 860 0048 2222     		movs	r2, #34
 861 004a C4F82490 		str	r9, [r4, #36]
 862 004e 84F84120 		strb	r2, [r4, #65]
 863 0052 84F84230 		strb	r3, [r4, #66]
 864 0056 6064     		str	r0, [r4, #68]
 865 0058 A4F82A80 		strh	r8, [r4, #42]	@ movhi
 866 005c 638D     		ldrh	r3, [r4, #42]
 867 005e 6063     		str	r0, [r4, #52]
 868 0060 9BB2     		uxth	r3, r3
 869 0062 FF2B     		cmp	r3, #255
 870 0064 6DD8     		bhi	.L174
 871 0066 628D     		ldrh	r2, [r4, #42]
 872 0068 C7F30903 		ubfx	r3, r7, #0, #10
 873 006c 2068     		ldr	r0, [r4]
 874 006e 92B2     		uxth	r2, r2
 875 0070 DFF818E1 		ldr	lr, .L176+12
 876 0074 4168     		ldr	r1, [r0, #4]
 877 0076 1F46     		mov	r7, r3
 878 0078 5FFA82FC 		uxtb	ip, r2
 879 007c 2285     		strh	r2, [r4, #40]	@ movhi
 880 007e 01EA0E01 		and	r1, r1, lr
ARM GAS  C:\Users\Brandon\AppData\Local\Temp\ccohPh8d.s 			page 16


 881 0082 3F4A     		ldr	r2, .L176
 882 0084 43EA0C43 		orr	r3, r3, ip, lsl #16
 883 0088 0B43     		orrs	r3, r3, r1
 884 008a 1A43     		orrs	r2, r2, r3
 885 008c 4260     		str	r2, [r0, #4]
 886              	.L159:
 887 008e DFF80081 		ldr	r8, .L176+16
 888 0092 DFF80091 		ldr	r9, .L176+20
 889              	.L170:
 890 0096 638D     		ldrh	r3, [r4, #42]
 891 0098 2A46     		mov	r2, r5
 892 009a 3146     		mov	r1, r6
 893 009c 2046     		mov	r0, r4
 894 009e 9BB2     		uxth	r3, r3
 895 00a0 002B     		cmp	r3, #0
 896 00a2 35D0     		beq	.L175
 897              	.L165:
 898 00a4 FFF7FEFF 		bl	I2C_WaitOnRXNEFlagUntilTimeout
 899 00a8 0028     		cmp	r0, #0
 900 00aa 42D1     		bne	.L161
 901 00ac 2268     		ldr	r2, [r4]
 902 00ae 636A     		ldr	r3, [r4, #36]
 903 00b0 526A     		ldr	r2, [r2, #36]
 904 00b2 1A70     		strb	r2, [r3]
 905 00b4 618D     		ldrh	r1, [r4, #42]
 906 00b6 238D     		ldrh	r3, [r4, #40]
 907 00b8 0139     		subs	r1, r1, #1
 908 00ba 626A     		ldr	r2, [r4, #36]
 909 00bc 013B     		subs	r3, r3, #1
 910 00be 89B2     		uxth	r1, r1
 911 00c0 0132     		adds	r2, r2, #1
 912 00c2 9BB2     		uxth	r3, r3
 913 00c4 6185     		strh	r1, [r4, #42]	@ movhi
 914 00c6 618D     		ldrh	r1, [r4, #42]
 915 00c8 2385     		strh	r3, [r4, #40]	@ movhi
 916 00ca 89B2     		uxth	r1, r1
 917 00cc 6262     		str	r2, [r4, #36]
 918 00ce 002B     		cmp	r3, #0
 919 00d0 E1D1     		bne	.L170
 920 00d2 0029     		cmp	r1, #0
 921 00d4 DFD0     		beq	.L170
 922 00d6 0246     		mov	r2, r0
 923 00d8 3346     		mov	r3, r6
 924 00da 8021     		movs	r1, #128
 925 00dc 2046     		mov	r0, r4
 926 00de 0095     		str	r5, [sp]
 927 00e0 FFF7FEFF 		bl	I2C_WaitOnFlagUntilTimeout
 928 00e4 FF22     		movs	r2, #255
 929 00e6 20BB     		cbnz	r0, .L161
 930 00e8 638D     		ldrh	r3, [r4, #42]
 931 00ea 9BB2     		uxth	r3, r3
 932 00ec 9342     		cmp	r3, r2
 933 00ee 38D9     		bls	.L163
 934 00f0 2168     		ldr	r1, [r4]
 935 00f2 2046     		mov	r0, r4
 936 00f4 2285     		strh	r2, [r4, #40]	@ movhi
 937 00f6 2A46     		mov	r2, r5
ARM GAS  C:\Users\Brandon\AppData\Local\Temp\ccohPh8d.s 			page 17


 938 00f8 4B68     		ldr	r3, [r1, #4]
 939 00fa 03EA0803 		and	r3, r3, r8
 940 00fe 3B43     		orrs	r3, r3, r7
 941 0100 43EA0903 		orr	r3, r3, r9
 942 0104 4B60     		str	r3, [r1, #4]
 943 0106 3146     		mov	r1, r6
 944 0108 638D     		ldrh	r3, [r4, #42]
 945 010a 9BB2     		uxth	r3, r3
 946 010c 002B     		cmp	r3, #0
 947 010e C9D1     		bne	.L165
 948              	.L175:
 949 0110 FFF7FEFF 		bl	I2C_WaitOnSTOPFlagUntilTimeout
 950 0114 68B9     		cbnz	r0, .L161
 951 0116 2368     		ldr	r3, [r4]
 952 0118 2021     		movs	r1, #32
 953 011a 1A4D     		ldr	r5, .L176+4
 954 011c D961     		str	r1, [r3, #28]
 955 011e 5A68     		ldr	r2, [r3, #4]
 956 0120 2A40     		ands	r2, r2, r5
 957 0122 5A60     		str	r2, [r3, #4]
 958 0124 84F84110 		strb	r1, [r4, #65]
 959 0128 84F84000 		strb	r0, [r4, #64]
 960 012c 84F84200 		strb	r0, [r4, #66]
 961 0130 00E0     		b	.L156
 962              	.L161:
 963 0132 0120     		movs	r0, #1
 964              	.L156:
 965 0134 02B0     		add	sp, sp, #8
 966              		@ sp needed
 967 0136 BDE8F087 		pop	{r4, r5, r6, r7, r8, r9, r10, pc}
 968              	.L167:
 969 013a 0220     		movs	r0, #2
 970 013c 02B0     		add	sp, sp, #8
 971              		@ sp needed
 972 013e BDE8F087 		pop	{r4, r5, r6, r7, r8, r9, r10, pc}
 973              	.L174:
 974 0142 2168     		ldr	r1, [r4]
 975 0144 C7F30900 		ubfx	r0, r7, #0, #10
 976 0148 DFF840C0 		ldr	ip, .L176+12
 977 014c FF22     		movs	r2, #255
 978 014e 4B68     		ldr	r3, [r1, #4]
 979 0150 0746     		mov	r7, r0
 980 0152 2285     		strh	r2, [r4, #40]	@ movhi
 981 0154 03EA0C03 		and	r3, r3, ip
 982 0158 0B4A     		ldr	r2, .L176+8
 983 015a 0343     		orrs	r3, r3, r0
 984 015c 1A43     		orrs	r2, r2, r3
 985 015e 4A60     		str	r2, [r1, #4]
 986 0160 95E7     		b	.L159
 987              	.L163:
 988 0162 628D     		ldrh	r2, [r4, #42]
 989 0164 2168     		ldr	r1, [r4]
 990 0166 92B2     		uxth	r2, r2
 991 0168 4868     		ldr	r0, [r1, #4]
 992 016a D3B2     		uxtb	r3, r2
 993 016c 2285     		strh	r2, [r4, #40]	@ movhi
 994 016e 00EA0802 		and	r2, r0, r8
ARM GAS  C:\Users\Brandon\AppData\Local\Temp\ccohPh8d.s 			page 18


 995 0172 47EA0343 		orr	r3, r7, r3, lsl #16
 996 0176 1343     		orrs	r3, r3, r2
 997 0178 43F00073 		orr	r3, r3, #33554432
 998 017c 4B60     		str	r3, [r1, #4]
 999 017e 8AE7     		b	.L170
 1000              	.L177:
 1001              		.align	2
 1002              	.L176:
 1003 0180 00240082 		.word	-2113920000
 1004 0184 00E800FE 		.word	-33495040
 1005 0188 0024FF81 		.word	-2113985536
 1006 018c 009800FC 		.word	-67069952
 1007 0190 009C00FC 		.word	-67068928
 1008 0194 0000FF01 		.word	33488896
 1010              		.section	.text.HAL_I2C_Slave_Transmit,"ax",%progbits
 1011              		.align	1
 1012              		.p2align 2,,3
 1013              		.global	HAL_I2C_Slave_Transmit
 1014              		.syntax unified
 1015              		.thumb
 1016              		.thumb_func
 1017              		.fpu fpv5-d16
 1019              	HAL_I2C_Slave_Transmit:
 1020              		@ args = 0, pretend = 0, frame = 0
 1021              		@ frame_needed = 0, uses_anonymous_args = 0
 1022 0000 2DE9F04F 		push	{r4, r5, r6, r7, r8, r9, r10, fp, lr}
 1023 0004 1D46     		mov	r5, r3
 1024 0006 90F84130 		ldrb	r3, [r0, #65]	@ zero_extendqisi2
 1025 000a 83B0     		sub	sp, sp, #12
 1026 000c 202B     		cmp	r3, #32
 1027 000e 40F08980 		bne	.L194
 1028 0012 0446     		mov	r4, r0
 1029 0014 8946     		mov	r9, r1
 1030 0016 0029     		cmp	r1, #0
 1031 0018 7DD0     		beq	.L196
 1032 001a B2FA82F8 		clz	r8, r2
 1033 001e 1646     		mov	r6, r2
 1034 0020 4FEA5818 		lsr	r8, r8, #5
 1035 0024 002A     		cmp	r2, #0
 1036 0026 76D0     		beq	.L196
 1037 0028 5FFA83FB 		uxtb	fp, r3
 1038 002c 90F84030 		ldrb	r3, [r0, #64]	@ zero_extendqisi2
 1039 0030 012B     		cmp	r3, #1
 1040 0032 77D0     		beq	.L194
 1041 0034 4FF0010A 		mov	r10, #1
 1042 0038 80F840A0 		strb	r10, [r0, #64]
 1043 003c FFF7FEFF 		bl	HAL_GetTick
 1044 0040 D4F800C0 		ldr	ip, [r4]
 1045 0044 2123     		movs	r3, #33
 1046 0046 0746     		mov	r7, r0
 1047 0048 C4F82490 		str	r9, [r4, #36]
 1048 004c 4246     		mov	r2, r8
 1049 004e 84F84130 		strb	r3, [r4, #65]
 1050 0052 0821     		movs	r1, #8
 1051 0054 84F842B0 		strb	fp, [r4, #66]
 1052 0058 2B46     		mov	r3, r5
 1053 005a C4F84480 		str	r8, [r4, #68]
ARM GAS  C:\Users\Brandon\AppData\Local\Temp\ccohPh8d.s 			page 19


 1054 005e 2046     		mov	r0, r4
 1055 0060 6685     		strh	r6, [r4, #42]	@ movhi
 1056 0062 DCF80460 		ldr	r6, [ip, #4]
 1057 0066 C4F83480 		str	r8, [r4, #52]
 1058 006a 26F40046 		bic	r6, r6, #32768
 1059 006e CCF80460 		str	r6, [ip, #4]
 1060 0072 0097     		str	r7, [sp]
 1061 0074 FFF7FEFF 		bl	I2C_WaitOnFlagUntilTimeout
 1062 0078 2268     		ldr	r2, [r4]
 1063 007a 0028     		cmp	r0, #0
 1064 007c 61D1     		bne	.L202
 1065 007e E368     		ldr	r3, [r4, #12]
 1066 0080 0826     		movs	r6, #8
 1067 0082 022B     		cmp	r3, #2
 1068 0084 D661     		str	r6, [r2, #28]
 1069 0086 51D0     		beq	.L204
 1070              	.L183:
 1071 0088 2B46     		mov	r3, r5
 1072 008a 0022     		movs	r2, #0
 1073 008c 4FF48031 		mov	r1, #65536
 1074 0090 2046     		mov	r0, r4
 1075 0092 0097     		str	r7, [sp]
 1076 0094 FFF7FEFF 		bl	I2C_WaitOnFlagUntilTimeout
 1077 0098 88B1     		cbz	r0, .L201
 1078 009a 5AE0     		b	.L203
 1079              	.L186:
 1080 009c 3A46     		mov	r2, r7
 1081 009e 2946     		mov	r1, r5
 1082 00a0 2046     		mov	r0, r4
 1083 00a2 FFF7FEFF 		bl	I2C_WaitOnTXISFlagUntilTimeout
 1084 00a6 0028     		cmp	r0, #0
 1085 00a8 53D1     		bne	.L203
 1086 00aa 636A     		ldr	r3, [r4, #36]
 1087 00ac 2268     		ldr	r2, [r4]
 1088 00ae 13F8011B 		ldrb	r1, [r3], #1	@ zero_extendqisi2
 1089 00b2 9162     		str	r1, [r2, #40]
 1090 00b4 628D     		ldrh	r2, [r4, #42]
 1091 00b6 6362     		str	r3, [r4, #36]
 1092 00b8 013A     		subs	r2, r2, #1
 1093 00ba 92B2     		uxth	r2, r2
 1094 00bc 6285     		strh	r2, [r4, #42]	@ movhi
 1095              	.L201:
 1096 00be 638D     		ldrh	r3, [r4, #42]
 1097 00c0 9BB2     		uxth	r3, r3
 1098 00c2 002B     		cmp	r3, #0
 1099 00c4 EAD1     		bne	.L186
 1100 00c6 3A46     		mov	r2, r7
 1101 00c8 2946     		mov	r1, r5
 1102 00ca 2046     		mov	r0, r4
 1103 00cc FFF7FEFF 		bl	I2C_WaitOnSTOPFlagUntilTimeout
 1104 00d0 0028     		cmp	r0, #0
 1105 00d2 4ED0     		beq	.L205
 1106 00d4 2068     		ldr	r0, [r4]
 1107 00d6 4368     		ldr	r3, [r0, #4]
 1108 00d8 43F40043 		orr	r3, r3, #32768
 1109 00dc 4360     		str	r3, [r0, #4]
 1110 00de 636C     		ldr	r3, [r4, #68]
ARM GAS  C:\Users\Brandon\AppData\Local\Temp\ccohPh8d.s 			page 20


 1111 00e0 042B     		cmp	r3, #4
 1112 00e2 48D1     		bne	.L195
 1113 00e4 0023     		movs	r3, #0
 1114 00e6 6364     		str	r3, [r4, #68]
 1115              	.L191:
 1116 00e8 2026     		movs	r6, #32
 1117 00ea 0122     		movs	r2, #1
 1118 00ec 2B46     		mov	r3, r5
 1119 00ee 4FF40041 		mov	r1, #32768
 1120 00f2 C661     		str	r6, [r0, #28]
 1121 00f4 2046     		mov	r0, r4
 1122 00f6 0097     		str	r7, [sp]
 1123 00f8 FFF7FEFF 		bl	I2C_WaitOnFlagUntilTimeout
 1124 00fc 2268     		ldr	r2, [r4]
 1125 00fe 00BB     		cbnz	r0, .L202
 1126 0100 5368     		ldr	r3, [r2, #4]
 1127 0102 43F40043 		orr	r3, r3, #32768
 1128 0106 5360     		str	r3, [r2, #4]
 1129 0108 84F84160 		strb	r6, [r4, #65]
 1130 010c 84F84000 		strb	r0, [r4, #64]
 1131 0110 84F84200 		strb	r0, [r4, #66]
 1132 0114 03E0     		b	.L179
 1133              	.L196:
 1134 0116 4FF40073 		mov	r3, #512
 1135 011a 0120     		movs	r0, #1
 1136 011c 6364     		str	r3, [r4, #68]
 1137              	.L179:
 1138 011e 03B0     		add	sp, sp, #12
 1139              		@ sp needed
 1140 0120 BDE8F08F 		pop	{r4, r5, r6, r7, r8, r9, r10, fp, pc}
 1141              	.L194:
 1142 0124 0220     		movs	r0, #2
 1143 0126 03B0     		add	sp, sp, #12
 1144              		@ sp needed
 1145 0128 BDE8F08F 		pop	{r4, r5, r6, r7, r8, r9, r10, fp, pc}
 1146              	.L204:
 1147 012c 0246     		mov	r2, r0
 1148 012e 2B46     		mov	r3, r5
 1149 0130 3146     		mov	r1, r6
 1150 0132 2046     		mov	r0, r4
 1151 0134 0097     		str	r7, [sp]
 1152 0136 FFF7FEFF 		bl	I2C_WaitOnFlagUntilTimeout
 1153 013a 98B9     		cbnz	r0, .L206
 1154 013c 2368     		ldr	r3, [r4]
 1155 013e DE61     		str	r6, [r3, #28]
 1156 0140 A2E7     		b	.L183
 1157              	.L202:
 1158 0142 5368     		ldr	r3, [r2, #4]
 1159 0144 0120     		movs	r0, #1
 1160 0146 43F40043 		orr	r3, r3, #32768
 1161 014a 5360     		str	r3, [r2, #4]
 1162 014c 03B0     		add	sp, sp, #12
 1163              		@ sp needed
 1164 014e BDE8F08F 		pop	{r4, r5, r6, r7, r8, r9, r10, fp, pc}
 1165              	.L203:
 1166 0152 2268     		ldr	r2, [r4]
 1167 0154 0120     		movs	r0, #1
ARM GAS  C:\Users\Brandon\AppData\Local\Temp\ccohPh8d.s 			page 21


 1168 0156 5368     		ldr	r3, [r2, #4]
 1169 0158 43F40043 		orr	r3, r3, #32768
 1170 015c 5360     		str	r3, [r2, #4]
 1171 015e 03B0     		add	sp, sp, #12
 1172              		@ sp needed
 1173 0160 BDE8F08F 		pop	{r4, r5, r6, r7, r8, r9, r10, fp, pc}
 1174              	.L206:
 1175 0164 2268     		ldr	r2, [r4]
 1176 0166 5046     		mov	r0, r10
 1177 0168 5368     		ldr	r3, [r2, #4]
 1178 016a 43F40043 		orr	r3, r3, #32768
 1179 016e 5360     		str	r3, [r2, #4]
 1180 0170 D5E7     		b	.L179
 1181              	.L205:
 1182 0172 2068     		ldr	r0, [r4]
 1183 0174 B8E7     		b	.L191
 1184              	.L195:
 1185 0176 0120     		movs	r0, #1
 1186 0178 D1E7     		b	.L179
 1188 017a 00BF     		.section	.text.HAL_I2C_Slave_Receive,"ax",%progbits
 1189              		.align	1
 1190              		.p2align 2,,3
 1191              		.global	HAL_I2C_Slave_Receive
 1192              		.syntax unified
 1193              		.thumb
 1194              		.thumb_func
 1195              		.fpu fpv5-d16
 1197              	HAL_I2C_Slave_Receive:
 1198              		@ args = 0, pretend = 0, frame = 0
 1199              		@ frame_needed = 0, uses_anonymous_args = 0
 1200 0000 2DE9F04F 		push	{r4, r5, r6, r7, r8, r9, r10, fp, lr}
 1201 0004 1D46     		mov	r5, r3
 1202 0006 90F84130 		ldrb	r3, [r0, #65]	@ zero_extendqisi2
 1203 000a 83B0     		sub	sp, sp, #12
 1204 000c 202B     		cmp	r3, #32
 1205 000e 41D1     		bne	.L219
 1206 0010 0446     		mov	r4, r0
 1207 0012 8946     		mov	r9, r1
 1208 0014 B9B3     		cbz	r1, .L221
 1209 0016 B2FA82F8 		clz	r8, r2
 1210 001a 1646     		mov	r6, r2
 1211 001c 4FEA5818 		lsr	r8, r8, #5
 1212 0020 8AB3     		cbz	r2, .L221
 1213 0022 5FFA83FB 		uxtb	fp, r3
 1214 0026 90F84030 		ldrb	r3, [r0, #64]	@ zero_extendqisi2
 1215 002a 012B     		cmp	r3, #1
 1216 002c 32D0     		beq	.L219
 1217 002e 4FF0010A 		mov	r10, #1
 1218 0032 80F840A0 		strb	r10, [r0, #64]
 1219 0036 FFF7FEFF 		bl	HAL_GetTick
 1220 003a D4F800C0 		ldr	ip, [r4]
 1221 003e 2223     		movs	r3, #34
 1222 0040 0746     		mov	r7, r0
 1223 0042 C4F82490 		str	r9, [r4, #36]
 1224 0046 4246     		mov	r2, r8
 1225 0048 84F84130 		strb	r3, [r4, #65]
 1226 004c 0821     		movs	r1, #8
ARM GAS  C:\Users\Brandon\AppData\Local\Temp\ccohPh8d.s 			page 22


 1227 004e 84F842B0 		strb	fp, [r4, #66]
 1228 0052 2B46     		mov	r3, r5
 1229 0054 C4F84480 		str	r8, [r4, #68]
 1230 0058 2046     		mov	r0, r4
 1231 005a 6685     		strh	r6, [r4, #42]	@ movhi
 1232 005c DCF80460 		ldr	r6, [ip, #4]
 1233 0060 C4F83480 		str	r8, [r4, #52]
 1234 0064 26F40046 		bic	r6, r6, #32768
 1235 0068 CCF80460 		str	r6, [ip, #4]
 1236 006c 0097     		str	r7, [sp]
 1237 006e FFF7FEFF 		bl	I2C_WaitOnFlagUntilTimeout
 1238 0072 98B1     		cbz	r0, .L211
 1239              	.L212:
 1240 0074 2268     		ldr	r2, [r4]
 1241 0076 5046     		mov	r0, r10
 1242 0078 5368     		ldr	r3, [r2, #4]
 1243 007a 43F40043 		orr	r3, r3, #32768
 1244 007e 5360     		str	r3, [r2, #4]
 1245              	.L208:
 1246 0080 03B0     		add	sp, sp, #12
 1247              		@ sp needed
 1248 0082 BDE8F08F 		pop	{r4, r5, r6, r7, r8, r9, r10, fp, pc}
 1249              	.L221:
 1250 0086 4FF40073 		mov	r3, #512
 1251 008a 0120     		movs	r0, #1
 1252 008c 6364     		str	r3, [r4, #68]
 1253 008e 03B0     		add	sp, sp, #12
 1254              		@ sp needed
 1255 0090 BDE8F08F 		pop	{r4, r5, r6, r7, r8, r9, r10, fp, pc}
 1256              	.L219:
 1257 0094 0220     		movs	r0, #2
 1258 0096 03B0     		add	sp, sp, #12
 1259              		@ sp needed
 1260 0098 BDE8F08F 		pop	{r4, r5, r6, r7, r8, r9, r10, fp, pc}
 1261              	.L211:
 1262 009c 2168     		ldr	r1, [r4]
 1263 009e 0820     		movs	r0, #8
 1264 00a0 2B46     		mov	r3, r5
 1265 00a2 5246     		mov	r2, r10
 1266 00a4 C861     		str	r0, [r1, #28]
 1267 00a6 4FF48031 		mov	r1, #65536
 1268 00aa 2046     		mov	r0, r4
 1269 00ac 0097     		str	r7, [sp]
 1270 00ae FFF7FEFF 		bl	I2C_WaitOnFlagUntilTimeout
 1271 00b2 70B1     		cbz	r0, .L225
 1272 00b4 DEE7     		b	.L212
 1273              	.L213:
 1274 00b6 FFF7FEFF 		bl	I2C_WaitOnRXNEFlagUntilTimeout
 1275 00ba D8B9     		cbnz	r0, .L226
 1276 00bc 2268     		ldr	r2, [r4]
 1277 00be 636A     		ldr	r3, [r4, #36]
 1278 00c0 526A     		ldr	r2, [r2, #36]
 1279 00c2 1A70     		strb	r2, [r3]
 1280 00c4 628D     		ldrh	r2, [r4, #42]
 1281 00c6 636A     		ldr	r3, [r4, #36]
 1282 00c8 013A     		subs	r2, r2, #1
 1283 00ca 0133     		adds	r3, r3, #1
ARM GAS  C:\Users\Brandon\AppData\Local\Temp\ccohPh8d.s 			page 23


 1284 00cc 92B2     		uxth	r2, r2
 1285 00ce 6362     		str	r3, [r4, #36]
 1286 00d0 6285     		strh	r2, [r4, #42]	@ movhi
 1287              	.L225:
 1288 00d2 638D     		ldrh	r3, [r4, #42]
 1289 00d4 3A46     		mov	r2, r7
 1290 00d6 2946     		mov	r1, r5
 1291 00d8 2046     		mov	r0, r4
 1292 00da 9BB2     		uxth	r3, r3
 1293 00dc 002B     		cmp	r3, #0
 1294 00de EAD1     		bne	.L213
 1295 00e0 FFF7FEFF 		bl	I2C_WaitOnSTOPFlagUntilTimeout
 1296 00e4 D0B1     		cbz	r0, .L216
 1297 00e6 2268     		ldr	r2, [r4]
 1298 00e8 0120     		movs	r0, #1
 1299 00ea 5368     		ldr	r3, [r2, #4]
 1300 00ec 43F40043 		orr	r3, r3, #32768
 1301 00f0 5360     		str	r3, [r2, #4]
 1302 00f2 C5E7     		b	.L208
 1303              	.L226:
 1304 00f4 2368     		ldr	r3, [r4]
 1305 00f6 5A68     		ldr	r2, [r3, #4]
 1306 00f8 42F40042 		orr	r2, r2, #32768
 1307 00fc 5A60     		str	r2, [r3, #4]
 1308 00fe 9A69     		ldr	r2, [r3, #24]
 1309 0100 5207     		lsls	r2, r2, #29
 1310 0102 1ED5     		bpl	.L220
 1311 0104 5A6A     		ldr	r2, [r3, #36]
 1312 0106 0120     		movs	r0, #1
 1313 0108 636A     		ldr	r3, [r4, #36]
 1314 010a 1A70     		strb	r2, [r3]
 1315 010c 638D     		ldrh	r3, [r4, #42]
 1316 010e 626A     		ldr	r2, [r4, #36]
 1317 0110 013B     		subs	r3, r3, #1
 1318 0112 0244     		add	r2, r2, r0
 1319 0114 9BB2     		uxth	r3, r3
 1320 0116 6262     		str	r2, [r4, #36]
 1321 0118 6385     		strh	r3, [r4, #42]	@ movhi
 1322 011a B1E7     		b	.L208
 1323              	.L216:
 1324 011c 2168     		ldr	r1, [r4]
 1325 011e 2026     		movs	r6, #32
 1326 0120 0122     		movs	r2, #1
 1327 0122 2B46     		mov	r3, r5
 1328 0124 CE61     		str	r6, [r1, #28]
 1329 0126 2046     		mov	r0, r4
 1330 0128 4FF40041 		mov	r1, #32768
 1331 012c 0097     		str	r7, [sp]
 1332 012e FFF7FEFF 		bl	I2C_WaitOnFlagUntilTimeout
 1333 0132 2268     		ldr	r2, [r4]
 1334 0134 38B1     		cbz	r0, .L217
 1335 0136 5368     		ldr	r3, [r2, #4]
 1336 0138 0120     		movs	r0, #1
 1337 013a 43F40043 		orr	r3, r3, #32768
 1338 013e 5360     		str	r3, [r2, #4]
 1339 0140 9EE7     		b	.L208
 1340              	.L220:
ARM GAS  C:\Users\Brandon\AppData\Local\Temp\ccohPh8d.s 			page 24


 1341 0142 0120     		movs	r0, #1
 1342 0144 9CE7     		b	.L208
 1343              	.L217:
 1344 0146 5368     		ldr	r3, [r2, #4]
 1345 0148 43F40043 		orr	r3, r3, #32768
 1346 014c 5360     		str	r3, [r2, #4]
 1347 014e 84F84160 		strb	r6, [r4, #65]
 1348 0152 84F84000 		strb	r0, [r4, #64]
 1349 0156 84F84200 		strb	r0, [r4, #66]
 1350 015a 91E7     		b	.L208
 1352              		.section	.text.HAL_I2C_Master_Transmit_IT,"ax",%progbits
 1353              		.align	1
 1354              		.p2align 2,,3
 1355              		.global	HAL_I2C_Master_Transmit_IT
 1356              		.syntax unified
 1357              		.thumb
 1358              		.thumb_func
 1359              		.fpu fpv5-d16
 1361              	HAL_I2C_Master_Transmit_IT:
 1362              		@ args = 0, pretend = 0, frame = 0
 1363              		@ frame_needed = 0, uses_anonymous_args = 0
 1364              		@ link register save eliminated.
 1365 0000 F0B4     		push	{r4, r5, r6, r7}
 1366 0002 0446     		mov	r4, r0
 1367 0004 90F84100 		ldrb	r0, [r0, #65]	@ zero_extendqisi2
 1368 0008 2028     		cmp	r0, #32
 1369 000a 36D1     		bne	.L232
 1370 000c 2568     		ldr	r5, [r4]
 1371 000e A869     		ldr	r0, [r5, #24]
 1372 0010 10F40040 		ands	r0, r0, #32768
 1373 0014 31D1     		bne	.L232
 1374 0016 94F84060 		ldrb	r6, [r4, #64]	@ zero_extendqisi2
 1375 001a 012E     		cmp	r6, #1
 1376 001c 2DD0     		beq	.L232
 1377 001e 2127     		movs	r7, #33
 1378 0020 1026     		movs	r6, #16
 1379 0022 6262     		str	r2, [r4, #36]
 1380 0024 194A     		ldr	r2, .L235
 1381 0026 84F84170 		strb	r7, [r4, #65]
 1382 002a 84F84260 		strb	r6, [r4, #66]
 1383 002e 6064     		str	r0, [r4, #68]
 1384 0030 6385     		strh	r3, [r4, #42]	@ movhi
 1385 0032 E262     		str	r2, [r4, #44]
 1386 0034 638D     		ldrh	r3, [r4, #42]
 1387 0036 164A     		ldr	r2, .L235+4
 1388 0038 9BB2     		uxth	r3, r3
 1389 003a 6263     		str	r2, [r4, #52]
 1390 003c FF2B     		cmp	r3, #255
 1391 003e 1FD8     		bhi	.L233
 1392 0040 608D     		ldrh	r0, [r4, #42]
 1393 0042 4FF00077 		mov	r7, #33554432
 1394 0046 C3B2     		uxtb	r3, r0
 1395 0048 80B2     		uxth	r0, r0
 1396 004a B340     		lsls	r3, r3, r6
 1397              	.L229:
 1398 004c 6A68     		ldr	r2, [r5, #4]
 1399 004e C1F30901 		ubfx	r1, r1, #0, #10
ARM GAS  C:\Users\Brandon\AppData\Local\Temp\ccohPh8d.s 			page 25


 1400 0052 104E     		ldr	r6, .L235+8
 1401 0054 0B43     		orrs	r3, r3, r1
 1402 0056 2085     		strh	r0, [r4, #40]	@ movhi
 1403 0058 02EA0601 		and	r1, r2, r6
 1404 005c 0E4A     		ldr	r2, .L235+12
 1405 005e 0026     		movs	r6, #0
 1406 0060 0B43     		orrs	r3, r3, r1
 1407 0062 3046     		mov	r0, r6
 1408 0064 3B43     		orrs	r3, r3, r7
 1409 0066 1A43     		orrs	r2, r2, r3
 1410 0068 6A60     		str	r2, [r5, #4]
 1411 006a 84F84060 		strb	r6, [r4, #64]
 1412 006e 2B68     		ldr	r3, [r5]
 1413 0070 43F0F203 		orr	r3, r3, #242
 1414 0074 2B60     		str	r3, [r5]
 1415 0076 F0BC     		pop	{r4, r5, r6, r7}
 1416 0078 7047     		bx	lr
 1417              	.L232:
 1418 007a 0220     		movs	r0, #2
 1419 007c F0BC     		pop	{r4, r5, r6, r7}
 1420 007e 7047     		bx	lr
 1421              	.L233:
 1422 0080 4FF47F03 		mov	r3, #16711680
 1423 0084 FF20     		movs	r0, #255
 1424 0086 4FF08077 		mov	r7, #16777216
 1425 008a DFE7     		b	.L229
 1426              	.L236:
 1427              		.align	2
 1428              	.L235:
 1429 008c 0000FFFF 		.word	-65536
 1430 0090 00000000 		.word	I2C_Master_ISR_IT
 1431 0094 009800FC 		.word	-67069952
 1432 0098 00200080 		.word	-2147475456
 1434              		.section	.text.HAL_I2C_Master_Receive_IT,"ax",%progbits
 1435              		.align	1
 1436              		.p2align 2,,3
 1437              		.global	HAL_I2C_Master_Receive_IT
 1438              		.syntax unified
 1439              		.thumb
 1440              		.thumb_func
 1441              		.fpu fpv5-d16
 1443              	HAL_I2C_Master_Receive_IT:
 1444              		@ args = 0, pretend = 0, frame = 0
 1445              		@ frame_needed = 0, uses_anonymous_args = 0
 1446              		@ link register save eliminated.
 1447 0000 F0B4     		push	{r4, r5, r6, r7}
 1448 0002 0446     		mov	r4, r0
 1449 0004 90F84100 		ldrb	r0, [r0, #65]	@ zero_extendqisi2
 1450 0008 2028     		cmp	r0, #32
 1451 000a 36D1     		bne	.L242
 1452 000c 2568     		ldr	r5, [r4]
 1453 000e A869     		ldr	r0, [r5, #24]
 1454 0010 10F40040 		ands	r0, r0, #32768
 1455 0014 31D1     		bne	.L242
 1456 0016 94F84060 		ldrb	r6, [r4, #64]	@ zero_extendqisi2
 1457 001a 012E     		cmp	r6, #1
 1458 001c 2DD0     		beq	.L242
ARM GAS  C:\Users\Brandon\AppData\Local\Temp\ccohPh8d.s 			page 26


 1459 001e 2227     		movs	r7, #34
 1460 0020 1026     		movs	r6, #16
 1461 0022 6262     		str	r2, [r4, #36]
 1462 0024 194A     		ldr	r2, .L245
 1463 0026 84F84170 		strb	r7, [r4, #65]
 1464 002a 84F84260 		strb	r6, [r4, #66]
 1465 002e 6064     		str	r0, [r4, #68]
 1466 0030 6385     		strh	r3, [r4, #42]	@ movhi
 1467 0032 E262     		str	r2, [r4, #44]
 1468 0034 638D     		ldrh	r3, [r4, #42]
 1469 0036 164A     		ldr	r2, .L245+4
 1470 0038 9BB2     		uxth	r3, r3
 1471 003a 6263     		str	r2, [r4, #52]
 1472 003c FF2B     		cmp	r3, #255
 1473 003e 1FD8     		bhi	.L243
 1474 0040 608D     		ldrh	r0, [r4, #42]
 1475 0042 4FF00077 		mov	r7, #33554432
 1476 0046 C3B2     		uxtb	r3, r0
 1477 0048 80B2     		uxth	r0, r0
 1478 004a B340     		lsls	r3, r3, r6
 1479              	.L239:
 1480 004c 6A68     		ldr	r2, [r5, #4]
 1481 004e C1F30901 		ubfx	r1, r1, #0, #10
 1482 0052 104E     		ldr	r6, .L245+8
 1483 0054 0B43     		orrs	r3, r3, r1
 1484 0056 2085     		strh	r0, [r4, #40]	@ movhi
 1485 0058 02EA0601 		and	r1, r2, r6
 1486 005c 0E4A     		ldr	r2, .L245+12
 1487 005e 0026     		movs	r6, #0
 1488 0060 0B43     		orrs	r3, r3, r1
 1489 0062 3046     		mov	r0, r6
 1490 0064 3B43     		orrs	r3, r3, r7
 1491 0066 1A43     		orrs	r2, r2, r3
 1492 0068 6A60     		str	r2, [r5, #4]
 1493 006a 84F84060 		strb	r6, [r4, #64]
 1494 006e 2B68     		ldr	r3, [r5]
 1495 0070 43F0F403 		orr	r3, r3, #244
 1496 0074 2B60     		str	r3, [r5]
 1497 0076 F0BC     		pop	{r4, r5, r6, r7}
 1498 0078 7047     		bx	lr
 1499              	.L242:
 1500 007a 0220     		movs	r0, #2
 1501 007c F0BC     		pop	{r4, r5, r6, r7}
 1502 007e 7047     		bx	lr
 1503              	.L243:
 1504 0080 4FF47F03 		mov	r3, #16711680
 1505 0084 FF20     		movs	r0, #255
 1506 0086 4FF08077 		mov	r7, #16777216
 1507 008a DFE7     		b	.L239
 1508              	.L246:
 1509              		.align	2
 1510              	.L245:
 1511 008c 0000FFFF 		.word	-65536
 1512 0090 00000000 		.word	I2C_Master_ISR_IT
 1513 0094 009800FC 		.word	-67069952
 1514 0098 00240080 		.word	-2147474432
 1516              		.section	.text.HAL_I2C_Slave_Transmit_IT,"ax",%progbits
ARM GAS  C:\Users\Brandon\AppData\Local\Temp\ccohPh8d.s 			page 27


 1517              		.align	1
 1518              		.p2align 2,,3
 1519              		.global	HAL_I2C_Slave_Transmit_IT
 1520              		.syntax unified
 1521              		.thumb
 1522              		.thumb_func
 1523              		.fpu fpv5-d16
 1525              	HAL_I2C_Slave_Transmit_IT:
 1526              		@ args = 0, pretend = 0, frame = 0
 1527              		@ frame_needed = 0, uses_anonymous_args = 0
 1528              		@ link register save eliminated.
 1529 0000 0346     		mov	r3, r0
 1530 0002 90F84100 		ldrb	r0, [r0, #65]	@ zero_extendqisi2
 1531 0006 2028     		cmp	r0, #32
 1532 0008 22D1     		bne	.L249
 1533 000a F0B4     		push	{r4, r5, r6, r7}
 1534 000c C6B2     		uxtb	r6, r0
 1535 000e 93F84000 		ldrb	r0, [r3, #64]	@ zero_extendqisi2
 1536 0012 0128     		cmp	r0, #1
 1537 0014 1ED0     		beq	.L250
 1538 0016 1C68     		ldr	r4, [r3]
 1539 0018 0025     		movs	r5, #0
 1540 001a 2120     		movs	r0, #33
 1541 001c 0F4F     		ldr	r7, .L255
 1542 001e 83F84100 		strb	r0, [r3, #65]
 1543 0022 2846     		mov	r0, r5
 1544 0024 83F84260 		strb	r6, [r3, #66]
 1545 0028 5D64     		str	r5, [r3, #68]
 1546 002a 6668     		ldr	r6, [r4, #4]
 1547 002c 26F40046 		bic	r6, r6, #32768
 1548 0030 6660     		str	r6, [r4, #4]
 1549 0032 5A85     		strh	r2, [r3, #42]	@ movhi
 1550 0034 83F84050 		strb	r5, [r3, #64]
 1551 0038 5E8D     		ldrh	r6, [r3, #42]
 1552 003a DF62     		str	r7, [r3, #44]
 1553 003c 2268     		ldr	r2, [r4]
 1554 003e 084D     		ldr	r5, .L255+4
 1555 0040 42F0FA02 		orr	r2, r2, #250
 1556 0044 1E85     		strh	r6, [r3, #40]	@ movhi
 1557 0046 5D63     		str	r5, [r3, #52]
 1558 0048 5962     		str	r1, [r3, #36]
 1559 004a 2260     		str	r2, [r4]
 1560 004c F0BC     		pop	{r4, r5, r6, r7}
 1561 004e 7047     		bx	lr
 1562              	.L249:
 1563 0050 0220     		movs	r0, #2
 1564 0052 7047     		bx	lr
 1565              	.L250:
 1566 0054 0220     		movs	r0, #2
 1567 0056 F0BC     		pop	{r4, r5, r6, r7}
 1568 0058 7047     		bx	lr
 1569              	.L256:
 1570 005a 00BF     		.align	2
 1571              	.L255:
 1572 005c 0000FFFF 		.word	-65536
 1573 0060 00000000 		.word	I2C_Slave_ISR_IT
 1575              		.section	.text.HAL_I2C_Slave_Receive_IT,"ax",%progbits
ARM GAS  C:\Users\Brandon\AppData\Local\Temp\ccohPh8d.s 			page 28


 1576              		.align	1
 1577              		.p2align 2,,3
 1578              		.global	HAL_I2C_Slave_Receive_IT
 1579              		.syntax unified
 1580              		.thumb
 1581              		.thumb_func
 1582              		.fpu fpv5-d16
 1584              	HAL_I2C_Slave_Receive_IT:
 1585              		@ args = 0, pretend = 0, frame = 0
 1586              		@ frame_needed = 0, uses_anonymous_args = 0
 1587              		@ link register save eliminated.
 1588 0000 0346     		mov	r3, r0
 1589 0002 90F84100 		ldrb	r0, [r0, #65]	@ zero_extendqisi2
 1590 0006 2028     		cmp	r0, #32
 1591 0008 22D1     		bne	.L259
 1592 000a F0B4     		push	{r4, r5, r6, r7}
 1593 000c C6B2     		uxtb	r6, r0
 1594 000e 93F84000 		ldrb	r0, [r3, #64]	@ zero_extendqisi2
 1595 0012 0128     		cmp	r0, #1
 1596 0014 1ED0     		beq	.L260
 1597 0016 1C68     		ldr	r4, [r3]
 1598 0018 0025     		movs	r5, #0
 1599 001a 2220     		movs	r0, #34
 1600 001c 0F4F     		ldr	r7, .L265
 1601 001e 83F84100 		strb	r0, [r3, #65]
 1602 0022 2846     		mov	r0, r5
 1603 0024 83F84260 		strb	r6, [r3, #66]
 1604 0028 5D64     		str	r5, [r3, #68]
 1605 002a 6668     		ldr	r6, [r4, #4]
 1606 002c 26F40046 		bic	r6, r6, #32768
 1607 0030 6660     		str	r6, [r4, #4]
 1608 0032 5A85     		strh	r2, [r3, #42]	@ movhi
 1609 0034 83F84050 		strb	r5, [r3, #64]
 1610 0038 5E8D     		ldrh	r6, [r3, #42]
 1611 003a DF62     		str	r7, [r3, #44]
 1612 003c 2268     		ldr	r2, [r4]
 1613 003e 084D     		ldr	r5, .L265+4
 1614 0040 42F0FC02 		orr	r2, r2, #252
 1615 0044 1E85     		strh	r6, [r3, #40]	@ movhi
 1616 0046 5D63     		str	r5, [r3, #52]
 1617 0048 5962     		str	r1, [r3, #36]
 1618 004a 2260     		str	r2, [r4]
 1619 004c F0BC     		pop	{r4, r5, r6, r7}
 1620 004e 7047     		bx	lr
 1621              	.L259:
 1622 0050 0220     		movs	r0, #2
 1623 0052 7047     		bx	lr
 1624              	.L260:
 1625 0054 0220     		movs	r0, #2
 1626 0056 F0BC     		pop	{r4, r5, r6, r7}
 1627 0058 7047     		bx	lr
 1628              	.L266:
 1629 005a 00BF     		.align	2
 1630              	.L265:
 1631 005c 0000FFFF 		.word	-65536
 1632 0060 00000000 		.word	I2C_Slave_ISR_IT
 1634              		.section	.text.HAL_I2C_Master_Transmit_DMA,"ax",%progbits
ARM GAS  C:\Users\Brandon\AppData\Local\Temp\ccohPh8d.s 			page 29


 1635              		.align	1
 1636              		.p2align 2,,3
 1637              		.global	HAL_I2C_Master_Transmit_DMA
 1638              		.syntax unified
 1639              		.thumb
 1640              		.thumb_func
 1641              		.fpu fpv5-d16
 1643              	HAL_I2C_Master_Transmit_DMA:
 1644              		@ args = 0, pretend = 0, frame = 0
 1645              		@ frame_needed = 0, uses_anonymous_args = 0
 1646 0000 2DE9F843 		push	{r3, r4, r5, r6, r7, r8, r9, lr}
 1647 0004 0D46     		mov	r5, r1
 1648 0006 1146     		mov	r1, r2
 1649 0008 90F84120 		ldrb	r2, [r0, #65]	@ zero_extendqisi2
 1650 000c 202A     		cmp	r2, #32
 1651 000e 37D1     		bne	.L278
 1652 0010 0268     		ldr	r2, [r0]
 1653 0012 0446     		mov	r4, r0
 1654 0014 9669     		ldr	r6, [r2, #24]
 1655 0016 16F40046 		ands	r6, r6, #32768
 1656 001a 31D1     		bne	.L278
 1657 001c 90F84000 		ldrb	r0, [r0, #64]	@ zero_extendqisi2
 1658 0020 0128     		cmp	r0, #1
 1659 0022 2DD0     		beq	.L278
 1660 0024 1020     		movs	r0, #16
 1661 0026 4B4F     		ldr	r7, .L285
 1662 0028 4FF0210C 		mov	ip, #33
 1663 002c 6162     		str	r1, [r4, #36]
 1664 002e 84F841C0 		strb	ip, [r4, #65]
 1665 0032 84F84200 		strb	r0, [r4, #66]
 1666 0036 0120     		movs	r0, #1
 1667 0038 6664     		str	r6, [r4, #68]
 1668 003a 6385     		strh	r3, [r4, #42]	@ movhi
 1669 003c E762     		str	r7, [r4, #44]
 1670 003e 638D     		ldrh	r3, [r4, #42]
 1671 0040 454F     		ldr	r7, .L285+4
 1672 0042 9BB2     		uxth	r3, r3
 1673 0044 84F84000 		strb	r0, [r4, #64]
 1674 0048 6763     		str	r7, [r4, #52]
 1675 004a FF2B     		cmp	r3, #255
 1676 004c 1BD8     		bhi	.L269
 1677 004e 638D     		ldrh	r3, [r4, #42]
 1678 0050 9BB2     		uxth	r3, r3
 1679 0052 2385     		strh	r3, [r4, #40]	@ movhi
 1680 0054 002B     		cmp	r3, #0
 1681 0056 6BD1     		bne	.L283
 1682 0058 5668     		ldr	r6, [r2, #4]
 1683 005a C5F30901 		ubfx	r1, r5, #0, #10
 1684 005e 3F4D     		ldr	r5, .L285+8
 1685 0060 1846     		mov	r0, r3
 1686 0062 3540     		ands	r5, r5, r6
 1687 0064 3E4E     		ldr	r6, .L285+12
 1688 0066 0D43     		orrs	r5, r5, r1
 1689 0068 3E49     		ldr	r1, .L285+16
 1690 006a 2E43     		orrs	r6, r6, r5
 1691 006c 6163     		str	r1, [r4, #52]
 1692 006e 5660     		str	r6, [r2, #4]
ARM GAS  C:\Users\Brandon\AppData\Local\Temp\ccohPh8d.s 			page 30


 1693 0070 84F84030 		strb	r3, [r4, #64]
 1694 0074 1368     		ldr	r3, [r2]
 1695 0076 43F0F203 		orr	r3, r3, #242
 1696 007a 1360     		str	r3, [r2]
 1697 007c BDE8F883 		pop	{r3, r4, r5, r6, r7, r8, r9, pc}
 1698              	.L278:
 1699 0080 0220     		movs	r0, #2
 1700              	.L281:
 1701 0082 BDE8F883 		pop	{r3, r4, r5, r6, r7, r8, r9, pc}
 1702              	.L269:
 1703 0086 FF23     		movs	r3, #255
 1704 0088 4FF08079 		mov	r9, #16777216
 1705 008c 2385     		strh	r3, [r4, #40]	@ movhi
 1706              	.L275:
 1707 008e D4F838C0 		ldr	ip, [r4, #56]
 1708 0092 BCF1000F 		cmp	ip, #0
 1709 0096 50D0     		beq	.L271
 1710 0098 4FF00008 		mov	r8, #0
 1711 009c 3248     		ldr	r0, .L285+20
 1712 009e DFF8D0E0 		ldr	lr, .L285+28
 1713 00a2 2832     		adds	r2, r2, #40
 1714 00a4 CCF84C00 		str	r0, [ip, #76]
 1715 00a8 6046     		mov	r0, ip
 1716 00aa CCF83CE0 		str	lr, [ip, #60]
 1717 00ae CCF84080 		str	r8, [ip, #64]
 1718 00b2 CCF85080 		str	r8, [ip, #80]
 1719 00b6 FFF7FEFF 		bl	HAL_DMA_Start_IT
 1720 00ba 58BB     		cbnz	r0, .L284
 1721 00bc 2368     		ldr	r3, [r4]
 1722 00be C5F30905 		ubfx	r5, r5, #0, #10
 1723 00c2 264A     		ldr	r2, .L285+8
 1724 00c4 5968     		ldr	r1, [r3, #4]
 1725 00c6 45EA0909 		orr	r9, r5, r9
 1726 00ca B4F828C0 		ldrh	ip, [r4, #40]
 1727 00ce 01EA0205 		and	r5, r1, r2
 1728 00d2 2649     		ldr	r1, .L285+24
 1729 00d4 5FFA8CF2 		uxtb	r2, ip
 1730 00d8 DFF898E0 		ldr	lr, .L285+32
 1731 00dc 49EA0509 		orr	r9, r9, r5
 1732 00e0 656B     		ldr	r5, [r4, #52]
 1733 00e2 49EA0249 		orr	r9, r9, r2, lsl #16
 1734 00e6 7545     		cmp	r5, lr
 1735 00e8 49EA0101 		orr	r1, r9, r1
 1736 00ec 5960     		str	r1, [r3, #4]
 1737 00ee 628D     		ldrh	r2, [r4, #42]
 1738 00f0 84F84000 		strb	r0, [r4, #64]
 1739 00f4 A2EB0C02 		sub	r2, r2, ip
 1740 00f8 92B2     		uxth	r2, r2
 1741 00fa 6285     		strh	r2, [r4, #42]	@ movhi
 1742 00fc 1BD0     		beq	.L279
 1743 00fe BD42     		cmp	r5, r7
 1744 0100 19D0     		beq	.L279
 1745              	.L274:
 1746 0102 1A68     		ldr	r2, [r3]
 1747 0104 1643     		orrs	r6, r6, r2
 1748 0106 1E60     		str	r6, [r3]
 1749 0108 1A68     		ldr	r2, [r3]
ARM GAS  C:\Users\Brandon\AppData\Local\Temp\ccohPh8d.s 			page 31


 1750 010a 42F48042 		orr	r2, r2, #16384
 1751 010e 1A60     		str	r2, [r3]
 1752 0110 BDE8F883 		pop	{r3, r4, r5, r6, r7, r8, r9, pc}
 1753              	.L284:
 1754 0114 2023     		movs	r3, #32
 1755 0116 0120     		movs	r0, #1
 1756 0118 84F84080 		strb	r8, [r4, #64]
 1757 011c 84F84130 		strb	r3, [r4, #65]
 1758 0120 84F84280 		strb	r8, [r4, #66]
 1759 0124 636C     		ldr	r3, [r4, #68]
 1760 0126 43F01003 		orr	r3, r3, #16
 1761 012a 6364     		str	r3, [r4, #68]
 1762 012c BDE8F883 		pop	{r3, r4, r5, r6, r7, r8, r9, pc}
 1763              	.L283:
 1764 0130 4FF00079 		mov	r9, #33554432
 1765 0134 ABE7     		b	.L275
 1766              	.L279:
 1767 0136 9026     		movs	r6, #144
 1768 0138 E3E7     		b	.L274
 1769              	.L271:
 1770 013a 2023     		movs	r3, #32
 1771 013c 0120     		movs	r0, #1
 1772 013e 84F840C0 		strb	ip, [r4, #64]
 1773 0142 84F84130 		strb	r3, [r4, #65]
 1774 0146 84F842C0 		strb	ip, [r4, #66]
 1775 014a 636C     		ldr	r3, [r4, #68]
 1776 014c 43F08003 		orr	r3, r3, #128
 1777 0150 6364     		str	r3, [r4, #68]
 1778 0152 96E7     		b	.L281
 1779              	.L286:
 1780              		.align	2
 1781              	.L285:
 1782 0154 0000FFFF 		.word	-65536
 1783 0158 00000000 		.word	I2C_Master_ISR_DMA
 1784 015c 009800FC 		.word	-67069952
 1785 0160 00200082 		.word	-2113921024
 1786 0164 00000000 		.word	I2C_Master_ISR_IT
 1787 0168 00000000 		.word	I2C_DMAError
 1788 016c 00200080 		.word	-2147475456
 1789 0170 00000000 		.word	I2C_DMAMasterTransmitCplt
 1790 0174 00000000 		.word	I2C_Slave_ISR_DMA
 1792              		.section	.text.HAL_I2C_Master_Receive_DMA,"ax",%progbits
 1793              		.align	1
 1794              		.p2align 2,,3
 1795              		.global	HAL_I2C_Master_Receive_DMA
 1796              		.syntax unified
 1797              		.thumb
 1798              		.thumb_func
 1799              		.fpu fpv5-d16
 1801              	HAL_I2C_Master_Receive_DMA:
 1802              		@ args = 0, pretend = 0, frame = 0
 1803              		@ frame_needed = 0, uses_anonymous_args = 0
 1804 0000 2DE9F843 		push	{r3, r4, r5, r6, r7, r8, r9, lr}
 1805 0004 0D46     		mov	r5, r1
 1806 0006 90F84110 		ldrb	r1, [r0, #65]	@ zero_extendqisi2
 1807 000a 2029     		cmp	r1, #32
 1808 000c 37D1     		bne	.L298
ARM GAS  C:\Users\Brandon\AppData\Local\Temp\ccohPh8d.s 			page 32


 1809 000e 0168     		ldr	r1, [r0]
 1810 0010 0446     		mov	r4, r0
 1811 0012 8E69     		ldr	r6, [r1, #24]
 1812 0014 16F40046 		ands	r6, r6, #32768
 1813 0018 31D1     		bne	.L298
 1814 001a 90F84000 		ldrb	r0, [r0, #64]	@ zero_extendqisi2
 1815 001e 0128     		cmp	r0, #1
 1816 0020 2DD0     		beq	.L298
 1817 0022 1020     		movs	r0, #16
 1818 0024 4B4F     		ldr	r7, .L305
 1819 0026 4FF0220C 		mov	ip, #34
 1820 002a 6262     		str	r2, [r4, #36]
 1821 002c 84F841C0 		strb	ip, [r4, #65]
 1822 0030 84F84200 		strb	r0, [r4, #66]
 1823 0034 0120     		movs	r0, #1
 1824 0036 6664     		str	r6, [r4, #68]
 1825 0038 6385     		strh	r3, [r4, #42]	@ movhi
 1826 003a E762     		str	r7, [r4, #44]
 1827 003c 638D     		ldrh	r3, [r4, #42]
 1828 003e 464F     		ldr	r7, .L305+4
 1829 0040 9BB2     		uxth	r3, r3
 1830 0042 84F84000 		strb	r0, [r4, #64]
 1831 0046 6763     		str	r7, [r4, #52]
 1832 0048 FF2B     		cmp	r3, #255
 1833 004a 1BD8     		bhi	.L289
 1834 004c 638D     		ldrh	r3, [r4, #42]
 1835 004e 9BB2     		uxth	r3, r3
 1836 0050 2385     		strh	r3, [r4, #40]	@ movhi
 1837 0052 002B     		cmp	r3, #0
 1838 0054 6BD1     		bne	.L303
 1839 0056 4A68     		ldr	r2, [r1, #4]
 1840 0058 C5F30905 		ubfx	r5, r5, #0, #10
 1841 005c 3F4E     		ldr	r6, .L305+8
 1842 005e 1846     		mov	r0, r3
 1843 0060 3240     		ands	r2, r2, r6
 1844 0062 3F4E     		ldr	r6, .L305+12
 1845 0064 1543     		orrs	r5, r5, r2
 1846 0066 3F4A     		ldr	r2, .L305+16
 1847 0068 2E43     		orrs	r6, r6, r5
 1848 006a 6263     		str	r2, [r4, #52]
 1849 006c 4E60     		str	r6, [r1, #4]
 1850 006e 84F84030 		strb	r3, [r4, #64]
 1851 0072 0B68     		ldr	r3, [r1]
 1852 0074 43F0F203 		orr	r3, r3, #242
 1853 0078 0B60     		str	r3, [r1]
 1854 007a BDE8F883 		pop	{r3, r4, r5, r6, r7, r8, r9, pc}
 1855              	.L298:
 1856 007e 0220     		movs	r0, #2
 1857              	.L301:
 1858 0080 BDE8F883 		pop	{r3, r4, r5, r6, r7, r8, r9, pc}
 1859              	.L289:
 1860 0084 FF23     		movs	r3, #255
 1861 0086 4FF08079 		mov	r9, #16777216
 1862 008a 2385     		strh	r3, [r4, #40]	@ movhi
 1863              	.L295:
 1864 008c D4F83CC0 		ldr	ip, [r4, #60]
 1865 0090 BCF1000F 		cmp	ip, #0
ARM GAS  C:\Users\Brandon\AppData\Local\Temp\ccohPh8d.s 			page 33


 1866 0094 50D0     		beq	.L291
 1867 0096 4FF00008 		mov	r8, #0
 1868 009a 3348     		ldr	r0, .L305+20
 1869 009c DFF8D0E0 		ldr	lr, .L305+28
 1870 00a0 2431     		adds	r1, r1, #36
 1871 00a2 CCF84C00 		str	r0, [ip, #76]
 1872 00a6 6046     		mov	r0, ip
 1873 00a8 CCF83CE0 		str	lr, [ip, #60]
 1874 00ac CCF84080 		str	r8, [ip, #64]
 1875 00b0 CCF85080 		str	r8, [ip, #80]
 1876 00b4 FFF7FEFF 		bl	HAL_DMA_Start_IT
 1877 00b8 58BB     		cbnz	r0, .L304
 1878 00ba 2368     		ldr	r3, [r4]
 1879 00bc C5F30905 		ubfx	r5, r5, #0, #10
 1880 00c0 264A     		ldr	r2, .L305+8
 1881 00c2 5968     		ldr	r1, [r3, #4]
 1882 00c4 45EA0909 		orr	r9, r5, r9
 1883 00c8 B4F828C0 		ldrh	ip, [r4, #40]
 1884 00cc 01EA0205 		and	r5, r1, r2
 1885 00d0 2649     		ldr	r1, .L305+24
 1886 00d2 5FFA8CF2 		uxtb	r2, ip
 1887 00d6 DFF89CE0 		ldr	lr, .L305+32
 1888 00da 49EA0509 		orr	r9, r9, r5
 1889 00de 656B     		ldr	r5, [r4, #52]
 1890 00e0 49EA0249 		orr	r9, r9, r2, lsl #16
 1891 00e4 7545     		cmp	r5, lr
 1892 00e6 49EA0101 		orr	r1, r9, r1
 1893 00ea 5960     		str	r1, [r3, #4]
 1894 00ec 628D     		ldrh	r2, [r4, #42]
 1895 00ee 84F84000 		strb	r0, [r4, #64]
 1896 00f2 A2EB0C02 		sub	r2, r2, ip
 1897 00f6 92B2     		uxth	r2, r2
 1898 00f8 6285     		strh	r2, [r4, #42]	@ movhi
 1899 00fa 1BD0     		beq	.L299
 1900 00fc BD42     		cmp	r5, r7
 1901 00fe 19D0     		beq	.L299
 1902              	.L294:
 1903 0100 1A68     		ldr	r2, [r3]
 1904 0102 1643     		orrs	r6, r6, r2
 1905 0104 1E60     		str	r6, [r3]
 1906 0106 1A68     		ldr	r2, [r3]
 1907 0108 42F40042 		orr	r2, r2, #32768
 1908 010c 1A60     		str	r2, [r3]
 1909 010e BDE8F883 		pop	{r3, r4, r5, r6, r7, r8, r9, pc}
 1910              	.L304:
 1911 0112 2023     		movs	r3, #32
 1912 0114 0120     		movs	r0, #1
 1913 0116 84F84080 		strb	r8, [r4, #64]
 1914 011a 84F84130 		strb	r3, [r4, #65]
 1915 011e 84F84280 		strb	r8, [r4, #66]
 1916 0122 636C     		ldr	r3, [r4, #68]
 1917 0124 43F01003 		orr	r3, r3, #16
 1918 0128 6364     		str	r3, [r4, #68]
 1919 012a BDE8F883 		pop	{r3, r4, r5, r6, r7, r8, r9, pc}
 1920              	.L303:
 1921 012e 4FF00079 		mov	r9, #33554432
 1922 0132 ABE7     		b	.L295
ARM GAS  C:\Users\Brandon\AppData\Local\Temp\ccohPh8d.s 			page 34


 1923              	.L299:
 1924 0134 9026     		movs	r6, #144
 1925 0136 E3E7     		b	.L294
 1926              	.L291:
 1927 0138 2023     		movs	r3, #32
 1928 013a 0120     		movs	r0, #1
 1929 013c 84F840C0 		strb	ip, [r4, #64]
 1930 0140 84F84130 		strb	r3, [r4, #65]
 1931 0144 84F842C0 		strb	ip, [r4, #66]
 1932 0148 636C     		ldr	r3, [r4, #68]
 1933 014a 43F08003 		orr	r3, r3, #128
 1934 014e 6364     		str	r3, [r4, #68]
 1935 0150 96E7     		b	.L301
 1936              	.L306:
 1937 0152 00BF     		.align	2
 1938              	.L305:
 1939 0154 0000FFFF 		.word	-65536
 1940 0158 00000000 		.word	I2C_Master_ISR_DMA
 1941 015c 009800FC 		.word	-67069952
 1942 0160 00240082 		.word	-2113920000
 1943 0164 00000000 		.word	I2C_Master_ISR_IT
 1944 0168 00000000 		.word	I2C_DMAError
 1945 016c 00240080 		.word	-2147474432
 1946 0170 00000000 		.word	I2C_DMAMasterReceiveCplt
 1947 0174 00000000 		.word	I2C_Slave_ISR_DMA
 1949              		.section	.text.HAL_I2C_Slave_Transmit_DMA,"ax",%progbits
 1950              		.align	1
 1951              		.p2align 2,,3
 1952              		.global	HAL_I2C_Slave_Transmit_DMA
 1953              		.syntax unified
 1954              		.thumb
 1955              		.thumb_func
 1956              		.fpu fpv5-d16
 1958              	HAL_I2C_Slave_Transmit_DMA:
 1959              		@ args = 0, pretend = 0, frame = 0
 1960              		@ frame_needed = 0, uses_anonymous_args = 0
 1961 0000 F8B5     		push	{r3, r4, r5, r6, r7, lr}
 1962 0002 0446     		mov	r4, r0
 1963 0004 90F84100 		ldrb	r0, [r0, #65]	@ zero_extendqisi2
 1964 0008 2028     		cmp	r0, #32
 1965 000a 41D1     		bne	.L315
 1966 000c 0029     		cmp	r1, #0
 1967 000e 3AD0     		beq	.L316
 1968 0010 B2FA82F5 		clz	r5, r2
 1969 0014 6D09     		lsrs	r5, r5, #5
 1970 0016 002A     		cmp	r2, #0
 1971 0018 35D0     		beq	.L316
 1972 001a C7B2     		uxtb	r7, r0
 1973 001c 94F84000 		ldrb	r0, [r4, #64]	@ zero_extendqisi2
 1974 0020 0128     		cmp	r0, #1
 1975 0022 35D0     		beq	.L315
 1976 0024 2120     		movs	r0, #33
 1977 0026 0126     		movs	r6, #1
 1978 0028 6162     		str	r1, [r4, #36]
 1979 002a 84F84100 		strb	r0, [r4, #65]
 1980 002e 84F84270 		strb	r7, [r4, #66]
 1981 0032 6564     		str	r5, [r4, #68]
ARM GAS  C:\Users\Brandon\AppData\Local\Temp\ccohPh8d.s 			page 35


 1982 0034 6285     		strh	r2, [r4, #42]	@ movhi
 1983 0036 244A     		ldr	r2, .L320
 1984 0038 638D     		ldrh	r3, [r4, #42]
 1985 003a 2448     		ldr	r0, .L320+4
 1986 003c 9BB2     		uxth	r3, r3
 1987 003e E262     		str	r2, [r4, #44]
 1988 0040 A26B     		ldr	r2, [r4, #56]
 1989 0042 84F84060 		strb	r6, [r4, #64]
 1990 0046 2385     		strh	r3, [r4, #40]	@ movhi
 1991 0048 6063     		str	r0, [r4, #52]
 1992 004a 002A     		cmp	r2, #0
 1993 004c 2FD0     		beq	.L311
 1994 004e 2048     		ldr	r0, .L320+8
 1995 0050 204F     		ldr	r7, .L320+12
 1996 0052 D063     		str	r0, [r2, #60]
 1997 0054 1046     		mov	r0, r2
 1998 0056 1564     		str	r5, [r2, #64]
 1999 0058 1565     		str	r5, [r2, #80]
 2000 005a D764     		str	r7, [r2, #76]
 2001 005c 2268     		ldr	r2, [r4]
 2002 005e 2832     		adds	r2, r2, #40
 2003 0060 FFF7FEFF 		bl	HAL_DMA_Start_IT
 2004 0064 B0B9     		cbnz	r0, .L319
 2005 0066 2368     		ldr	r3, [r4]
 2006 0068 5A68     		ldr	r2, [r3, #4]
 2007 006a 22F40042 		bic	r2, r2, #32768
 2008 006e 5A60     		str	r2, [r3, #4]
 2009 0070 84F84000 		strb	r0, [r4, #64]
 2010 0074 1A68     		ldr	r2, [r3]
 2011 0076 42F0B802 		orr	r2, r2, #184
 2012 007a 1A60     		str	r2, [r3]
 2013 007c 1A68     		ldr	r2, [r3]
 2014 007e 42F48042 		orr	r2, r2, #16384
 2015 0082 1A60     		str	r2, [r3]
 2016 0084 F8BD     		pop	{r3, r4, r5, r6, r7, pc}
 2017              	.L316:
 2018 0086 4FF40073 		mov	r3, #512
 2019 008a 0120     		movs	r0, #1
 2020 008c 6364     		str	r3, [r4, #68]
 2021 008e F8BD     		pop	{r3, r4, r5, r6, r7, pc}
 2022              	.L315:
 2023 0090 0220     		movs	r0, #2
 2024 0092 F8BD     		pop	{r3, r4, r5, r6, r7, pc}
 2025              	.L319:
 2026 0094 2823     		movs	r3, #40
 2027 0096 3046     		mov	r0, r6
 2028 0098 84F84050 		strb	r5, [r4, #64]
 2029 009c 84F84130 		strb	r3, [r4, #65]
 2030 00a0 84F84250 		strb	r5, [r4, #66]
 2031 00a4 636C     		ldr	r3, [r4, #68]
 2032 00a6 43F01003 		orr	r3, r3, #16
 2033 00aa 6364     		str	r3, [r4, #68]
 2034 00ac F8BD     		pop	{r3, r4, r5, r6, r7, pc}
 2035              	.L311:
 2036 00ae 2823     		movs	r3, #40
 2037 00b0 3046     		mov	r0, r6
 2038 00b2 84F84020 		strb	r2, [r4, #64]
ARM GAS  C:\Users\Brandon\AppData\Local\Temp\ccohPh8d.s 			page 36


 2039 00b6 84F84130 		strb	r3, [r4, #65]
 2040 00ba 84F84220 		strb	r2, [r4, #66]
 2041 00be 636C     		ldr	r3, [r4, #68]
 2042 00c0 43F08003 		orr	r3, r3, #128
 2043 00c4 6364     		str	r3, [r4, #68]
 2044 00c6 F8BD     		pop	{r3, r4, r5, r6, r7, pc}
 2045              	.L321:
 2046              		.align	2
 2047              	.L320:
 2048 00c8 0000FFFF 		.word	-65536
 2049 00cc 00000000 		.word	I2C_Slave_ISR_DMA
 2050 00d0 00000000 		.word	I2C_DMASlaveTransmitCplt
 2051 00d4 00000000 		.word	I2C_DMAError
 2053              		.section	.text.HAL_I2C_Slave_Receive_DMA,"ax",%progbits
 2054              		.align	1
 2055              		.p2align 2,,3
 2056              		.global	HAL_I2C_Slave_Receive_DMA
 2057              		.syntax unified
 2058              		.thumb
 2059              		.thumb_func
 2060              		.fpu fpv5-d16
 2062              	HAL_I2C_Slave_Receive_DMA:
 2063              		@ args = 0, pretend = 0, frame = 0
 2064              		@ frame_needed = 0, uses_anonymous_args = 0
 2065 0000 F8B5     		push	{r3, r4, r5, r6, r7, lr}
 2066 0002 90F84130 		ldrb	r3, [r0, #65]	@ zero_extendqisi2
 2067 0006 202B     		cmp	r3, #32
 2068 0008 45D1     		bne	.L330
 2069 000a 0446     		mov	r4, r0
 2070 000c 0029     		cmp	r1, #0
 2071 000e 3DD0     		beq	.L331
 2072 0010 B2FA82F6 		clz	r6, r2
 2073 0014 7609     		lsrs	r6, r6, #5
 2074 0016 002A     		cmp	r2, #0
 2075 0018 38D0     		beq	.L331
 2076 001a D8B2     		uxtb	r0, r3
 2077 001c 94F84030 		ldrb	r3, [r4, #64]	@ zero_extendqisi2
 2078 0020 012B     		cmp	r3, #1
 2079 0022 38D0     		beq	.L330
 2080 0024 2223     		movs	r3, #34
 2081 0026 0127     		movs	r7, #1
 2082 0028 E56B     		ldr	r5, [r4, #60]
 2083 002a 84F84130 		strb	r3, [r4, #65]
 2084 002e 84F84200 		strb	r0, [r4, #66]
 2085 0032 6664     		str	r6, [r4, #68]
 2086 0034 6285     		strh	r2, [r4, #42]	@ movhi
 2087 0036 638D     		ldrh	r3, [r4, #42]
 2088 0038 2548     		ldr	r0, .L335
 2089 003a 9BB2     		uxth	r3, r3
 2090 003c 254A     		ldr	r2, .L335+4
 2091 003e 6162     		str	r1, [r4, #36]
 2092 0040 84F84070 		strb	r7, [r4, #64]
 2093 0044 2385     		strh	r3, [r4, #40]	@ movhi
 2094 0046 E062     		str	r0, [r4, #44]
 2095 0048 6263     		str	r2, [r4, #52]
 2096 004a 002D     		cmp	r5, #0
 2097 004c 32D0     		beq	.L326
ARM GAS  C:\Users\Brandon\AppData\Local\Temp\ccohPh8d.s 			page 37


 2098 004e 2248     		ldr	r0, .L335+8
 2099 0050 0A46     		mov	r2, r1
 2100 0052 DFF888C0 		ldr	ip, .L335+12
 2101 0056 2168     		ldr	r1, [r4]
 2102 0058 E863     		str	r0, [r5, #60]
 2103 005a 2846     		mov	r0, r5
 2104 005c 2431     		adds	r1, r1, #36
 2105 005e 2E64     		str	r6, [r5, #64]
 2106 0060 2E65     		str	r6, [r5, #80]
 2107 0062 C5F84CC0 		str	ip, [r5, #76]
 2108 0066 FFF7FEFF 		bl	HAL_DMA_Start_IT
 2109 006a B0B9     		cbnz	r0, .L334
 2110 006c 2368     		ldr	r3, [r4]
 2111 006e 5A68     		ldr	r2, [r3, #4]
 2112 0070 22F40042 		bic	r2, r2, #32768
 2113 0074 5A60     		str	r2, [r3, #4]
 2114 0076 84F84000 		strb	r0, [r4, #64]
 2115 007a 1A68     		ldr	r2, [r3]
 2116 007c 42F0B802 		orr	r2, r2, #184
 2117 0080 1A60     		str	r2, [r3]
 2118 0082 1A68     		ldr	r2, [r3]
 2119 0084 42F40042 		orr	r2, r2, #32768
 2120 0088 1A60     		str	r2, [r3]
 2121 008a F8BD     		pop	{r3, r4, r5, r6, r7, pc}
 2122              	.L331:
 2123 008c 4FF40073 		mov	r3, #512
 2124 0090 0120     		movs	r0, #1
 2125 0092 6364     		str	r3, [r4, #68]
 2126 0094 F8BD     		pop	{r3, r4, r5, r6, r7, pc}
 2127              	.L330:
 2128 0096 0220     		movs	r0, #2
 2129 0098 F8BD     		pop	{r3, r4, r5, r6, r7, pc}
 2130              	.L334:
 2131 009a 2823     		movs	r3, #40
 2132 009c 3846     		mov	r0, r7
 2133 009e 84F84060 		strb	r6, [r4, #64]
 2134 00a2 84F84130 		strb	r3, [r4, #65]
 2135 00a6 84F84260 		strb	r6, [r4, #66]
 2136 00aa 636C     		ldr	r3, [r4, #68]
 2137 00ac 43F01003 		orr	r3, r3, #16
 2138 00b0 6364     		str	r3, [r4, #68]
 2139 00b2 F8BD     		pop	{r3, r4, r5, r6, r7, pc}
 2140              	.L326:
 2141 00b4 2823     		movs	r3, #40
 2142 00b6 3846     		mov	r0, r7
 2143 00b8 84F84050 		strb	r5, [r4, #64]
 2144 00bc 84F84130 		strb	r3, [r4, #65]
 2145 00c0 84F84250 		strb	r5, [r4, #66]
 2146 00c4 636C     		ldr	r3, [r4, #68]
 2147 00c6 43F08003 		orr	r3, r3, #128
 2148 00ca 6364     		str	r3, [r4, #68]
 2149 00cc F8BD     		pop	{r3, r4, r5, r6, r7, pc}
 2150              	.L336:
 2151 00ce 00BF     		.align	2
 2152              	.L335:
 2153 00d0 0000FFFF 		.word	-65536
 2154 00d4 00000000 		.word	I2C_Slave_ISR_DMA
ARM GAS  C:\Users\Brandon\AppData\Local\Temp\ccohPh8d.s 			page 38


 2155 00d8 00000000 		.word	I2C_DMASlaveReceiveCplt
 2156 00dc 00000000 		.word	I2C_DMAError
 2158              		.section	.text.HAL_I2C_Mem_Write,"ax",%progbits
 2159              		.align	1
 2160              		.p2align 2,,3
 2161              		.global	HAL_I2C_Mem_Write
 2162              		.syntax unified
 2163              		.thumb
 2164              		.thumb_func
 2165              		.fpu fpv5-d16
 2167              	HAL_I2C_Mem_Write:
 2168              		@ args = 12, pretend = 0, frame = 8
 2169              		@ frame_needed = 0, uses_anonymous_args = 0
 2170 0000 2DE9F04F 		push	{r4, r5, r6, r7, r8, r9, r10, fp, lr}
 2171 0004 1F46     		mov	r7, r3
 2172 0006 90F84130 		ldrb	r3, [r0, #65]	@ zero_extendqisi2
 2173 000a 85B0     		sub	sp, sp, #20
 2174 000c 202B     		cmp	r3, #32
 2175 000e BDF83CB0 		ldrh	fp, [sp, #60]
 2176 0012 DDF84090 		ldr	r9, [sp, #64]
 2177 0016 28D1     		bne	.L350
 2178 0018 0E9B     		ldr	r3, [sp, #56]
 2179 001a 0446     		mov	r4, r0
 2180 001c F3B1     		cbz	r3, .L351
 2181 001e BBF1000F 		cmp	fp, #0
 2182 0022 1BD0     		beq	.L351
 2183 0024 90F84030 		ldrb	r3, [r0, #64]	@ zero_extendqisi2
 2184 0028 012B     		cmp	r3, #1
 2185 002a 1ED0     		beq	.L350
 2186 002c 4FF0010A 		mov	r10, #1
 2187 0030 0D46     		mov	r5, r1
 2188 0032 1646     		mov	r6, r2
 2189 0034 80F840A0 		strb	r10, [r0, #64]
 2190 0038 FFF7FEFF 		bl	HAL_GetTick
 2191 003c 8046     		mov	r8, r0
 2192 003e 5246     		mov	r2, r10
 2193 0040 1923     		movs	r3, #25
 2194 0042 4FF40041 		mov	r1, #32768
 2195 0046 2046     		mov	r0, r4
 2196 0048 CDF80080 		str	r8, [sp]
 2197 004c FFF7FEFF 		bl	I2C_WaitOnFlagUntilTimeout
 2198 0050 0390     		str	r0, [sp, #12]
 2199 0052 70B1     		cbz	r0, .L341
 2200              	.L345:
 2201 0054 0120     		movs	r0, #1
 2202              	.L338:
 2203 0056 05B0     		add	sp, sp, #20
 2204              		@ sp needed
 2205 0058 BDE8F08F 		pop	{r4, r5, r6, r7, r8, r9, r10, fp, pc}
 2206              	.L351:
 2207 005c 4FF40073 		mov	r3, #512
 2208 0060 0120     		movs	r0, #1
 2209 0062 6364     		str	r3, [r4, #68]
 2210 0064 05B0     		add	sp, sp, #20
 2211              		@ sp needed
 2212 0066 BDE8F08F 		pop	{r4, r5, r6, r7, r8, r9, r10, fp, pc}
 2213              	.L350:
ARM GAS  C:\Users\Brandon\AppData\Local\Temp\ccohPh8d.s 			page 39


 2214 006a 0220     		movs	r0, #2
 2215 006c 05B0     		add	sp, sp, #20
 2216              		@ sp needed
 2217 006e BDE8F08F 		pop	{r4, r5, r6, r7, r8, r9, r10, fp, pc}
 2218              	.L341:
 2219 0072 0E9B     		ldr	r3, [sp, #56]
 2220 0074 2121     		movs	r1, #33
 2221 0076 4020     		movs	r0, #64
 2222 0078 3246     		mov	r2, r6
 2223 007a 6362     		str	r3, [r4, #36]
 2224 007c 3B46     		mov	r3, r7
 2225 007e 039F     		ldr	r7, [sp, #12]
 2226 0080 6763     		str	r7, [r4, #52]
 2227 0082 CDE90098 		strd	r9, r8, [sp]
 2228 0086 84F84110 		strb	r1, [r4, #65]
 2229 008a 2946     		mov	r1, r5
 2230 008c 84F84200 		strb	r0, [r4, #66]
 2231 0090 2046     		mov	r0, r4
 2232 0092 6764     		str	r7, [r4, #68]
 2233 0094 A4F82AB0 		strh	fp, [r4, #42]	@ movhi
 2234 0098 FFF7FEFF 		bl	I2C_RequestMemoryWrite
 2235 009c 0028     		cmp	r0, #0
 2236 009e 5AD1     		bne	.L360
 2237 00a0 638D     		ldrh	r3, [r4, #42]
 2238 00a2 9BB2     		uxth	r3, r3
 2239 00a4 FF2B     		cmp	r3, #255
 2240 00a6 5BD9     		bls	.L343
 2241 00a8 2168     		ldr	r1, [r4]
 2242 00aa C5F30900 		ubfx	r0, r5, #0, #10
 2243 00ae 414E     		ldr	r6, .L362
 2244 00b0 FF22     		movs	r2, #255
 2245 00b2 4B68     		ldr	r3, [r1, #4]
 2246 00b4 0546     		mov	r5, r0
 2247 00b6 2285     		strh	r2, [r4, #40]	@ movhi
 2248 00b8 3340     		ands	r3, r3, r6
 2249 00ba 3F4A     		ldr	r2, .L362+4
 2250 00bc 0343     		orrs	r3, r3, r0
 2251 00be 1A43     		orrs	r2, r2, r3
 2252 00c0 4A60     		str	r2, [r1, #4]
 2253              	.L344:
 2254 00c2 3C4E     		ldr	r6, .L362
 2255 00c4 DFF8F0A0 		ldr	r10, .L362+4
 2256 00c8 03E0     		b	.L348
 2257              	.L346:
 2258 00ca 638D     		ldrh	r3, [r4, #42]
 2259 00cc 9BB2     		uxth	r3, r3
 2260 00ce 002B     		cmp	r3, #0
 2261 00d0 59D0     		beq	.L361
 2262              	.L348:
 2263 00d2 4246     		mov	r2, r8
 2264 00d4 4946     		mov	r1, r9
 2265 00d6 2046     		mov	r0, r4
 2266 00d8 FFF7FEFF 		bl	I2C_WaitOnTXISFlagUntilTimeout
 2267 00dc 0028     		cmp	r0, #0
 2268 00de B9D1     		bne	.L345
 2269 00e0 626A     		ldr	r2, [r4, #36]
 2270 00e2 2768     		ldr	r7, [r4]
ARM GAS  C:\Users\Brandon\AppData\Local\Temp\ccohPh8d.s 			page 40


 2271 00e4 12F8011B 		ldrb	r1, [r2], #1	@ zero_extendqisi2
 2272 00e8 238D     		ldrh	r3, [r4, #40]
 2273 00ea B962     		str	r1, [r7, #40]
 2274 00ec 618D     		ldrh	r1, [r4, #42]
 2275 00ee 013B     		subs	r3, r3, #1
 2276 00f0 6262     		str	r2, [r4, #36]
 2277 00f2 0139     		subs	r1, r1, #1
 2278 00f4 9BB2     		uxth	r3, r3
 2279 00f6 89B2     		uxth	r1, r1
 2280 00f8 2385     		strh	r3, [r4, #40]	@ movhi
 2281 00fa 6185     		strh	r1, [r4, #42]	@ movhi
 2282 00fc 628D     		ldrh	r2, [r4, #42]
 2283 00fe 92B2     		uxth	r2, r2
 2284 0100 002B     		cmp	r3, #0
 2285 0102 E2D1     		bne	.L346
 2286 0104 002A     		cmp	r2, #0
 2287 0106 E0D0     		beq	.L346
 2288 0108 0246     		mov	r2, r0
 2289 010a 4B46     		mov	r3, r9
 2290 010c 8021     		movs	r1, #128
 2291 010e 2046     		mov	r0, r4
 2292 0110 CDF80080 		str	r8, [sp]
 2293 0114 FFF7FEFF 		bl	I2C_WaitOnFlagUntilTimeout
 2294 0118 FF22     		movs	r2, #255
 2295 011a 0028     		cmp	r0, #0
 2296 011c 9AD1     		bne	.L345
 2297 011e 638D     		ldrh	r3, [r4, #42]
 2298 0120 9BB2     		uxth	r3, r3
 2299 0122 9342     		cmp	r3, r2
 2300 0124 08D9     		bls	.L347
 2301 0126 2168     		ldr	r1, [r4]
 2302 0128 2285     		strh	r2, [r4, #40]	@ movhi
 2303 012a 4B68     		ldr	r3, [r1, #4]
 2304 012c 3340     		ands	r3, r3, r6
 2305 012e 2B43     		orrs	r3, r3, r5
 2306 0130 43EA0A03 		orr	r3, r3, r10
 2307 0134 4B60     		str	r3, [r1, #4]
 2308 0136 C8E7     		b	.L346
 2309              	.L347:
 2310 0138 628D     		ldrh	r2, [r4, #42]
 2311 013a 2168     		ldr	r1, [r4]
 2312 013c 92B2     		uxth	r2, r2
 2313 013e 4868     		ldr	r0, [r1, #4]
 2314 0140 D3B2     		uxtb	r3, r2
 2315 0142 2285     		strh	r2, [r4, #40]	@ movhi
 2316 0144 00EA0602 		and	r2, r0, r6
 2317 0148 45EA0343 		orr	r3, r5, r3, lsl #16
 2318 014c 1343     		orrs	r3, r3, r2
 2319 014e 43F00073 		orr	r3, r3, #33554432
 2320 0152 4B60     		str	r3, [r1, #4]
 2321 0154 B9E7     		b	.L346
 2322              	.L360:
 2323 0156 039B     		ldr	r3, [sp, #12]
 2324 0158 5046     		mov	r0, r10
 2325 015a 84F84030 		strb	r3, [r4, #64]
 2326 015e 7AE7     		b	.L338
 2327              	.L343:
ARM GAS  C:\Users\Brandon\AppData\Local\Temp\ccohPh8d.s 			page 41


 2328 0160 628D     		ldrh	r2, [r4, #42]
 2329 0162 C5F30903 		ubfx	r3, r5, #0, #10
 2330 0166 2068     		ldr	r0, [r4]
 2331 0168 92B2     		uxth	r2, r2
 2332 016a 124F     		ldr	r7, .L362
 2333 016c 4168     		ldr	r1, [r0, #4]
 2334 016e 1D46     		mov	r5, r3
 2335 0170 D6B2     		uxtb	r6, r2
 2336 0172 2285     		strh	r2, [r4, #40]	@ movhi
 2337 0174 01EA0702 		and	r2, r1, r7
 2338 0178 43EA0643 		orr	r3, r3, r6, lsl #16
 2339 017c 1343     		orrs	r3, r3, r2
 2340 017e 43F00073 		orr	r3, r3, #33554432
 2341 0182 4360     		str	r3, [r0, #4]
 2342 0184 9DE7     		b	.L344
 2343              	.L361:
 2344 0186 4246     		mov	r2, r8
 2345 0188 4946     		mov	r1, r9
 2346 018a 2046     		mov	r0, r4
 2347 018c FFF7FEFF 		bl	I2C_WaitOnSTOPFlagUntilTimeout
 2348 0190 0028     		cmp	r0, #0
 2349 0192 7FF45FAF 		bne	.L345
 2350 0196 2368     		ldr	r3, [r4]
 2351 0198 2021     		movs	r1, #32
 2352 019a 084D     		ldr	r5, .L362+8
 2353 019c D961     		str	r1, [r3, #28]
 2354 019e 5A68     		ldr	r2, [r3, #4]
 2355 01a0 2A40     		ands	r2, r2, r5
 2356 01a2 5A60     		str	r2, [r3, #4]
 2357 01a4 84F84110 		strb	r1, [r4, #65]
 2358 01a8 84F84000 		strb	r0, [r4, #64]
 2359 01ac 84F84200 		strb	r0, [r4, #66]
 2360 01b0 51E7     		b	.L338
 2361              	.L363:
 2362 01b2 00BF     		.align	2
 2363              	.L362:
 2364 01b4 009C00FC 		.word	-67068928
 2365 01b8 0000FF01 		.word	33488896
 2366 01bc 00E800FE 		.word	-33495040
 2368              		.section	.text.HAL_I2C_Mem_Read,"ax",%progbits
 2369              		.align	1
 2370              		.p2align 2,,3
 2371              		.global	HAL_I2C_Mem_Read
 2372              		.syntax unified
 2373              		.thumb
 2374              		.thumb_func
 2375              		.fpu fpv5-d16
 2377              	HAL_I2C_Mem_Read:
 2378              		@ args = 12, pretend = 0, frame = 8
 2379              		@ frame_needed = 0, uses_anonymous_args = 0
 2380 0000 2DE9F04F 		push	{r4, r5, r6, r7, r8, r9, r10, fp, lr}
 2381 0004 1F46     		mov	r7, r3
 2382 0006 90F84130 		ldrb	r3, [r0, #65]	@ zero_extendqisi2
 2383 000a 85B0     		sub	sp, sp, #20
 2384 000c 202B     		cmp	r3, #32
 2385 000e BDF83CB0 		ldrh	fp, [sp, #60]
 2386 0012 DDF84090 		ldr	r9, [sp, #64]
ARM GAS  C:\Users\Brandon\AppData\Local\Temp\ccohPh8d.s 			page 42


 2387 0016 28D1     		bne	.L377
 2388 0018 0E9B     		ldr	r3, [sp, #56]
 2389 001a 0446     		mov	r4, r0
 2390 001c F3B1     		cbz	r3, .L378
 2391 001e BBF1000F 		cmp	fp, #0
 2392 0022 1BD0     		beq	.L378
 2393 0024 90F84030 		ldrb	r3, [r0, #64]	@ zero_extendqisi2
 2394 0028 012B     		cmp	r3, #1
 2395 002a 1ED0     		beq	.L377
 2396 002c 4FF0010A 		mov	r10, #1
 2397 0030 0D46     		mov	r5, r1
 2398 0032 1646     		mov	r6, r2
 2399 0034 80F840A0 		strb	r10, [r0, #64]
 2400 0038 FFF7FEFF 		bl	HAL_GetTick
 2401 003c 8046     		mov	r8, r0
 2402 003e 5246     		mov	r2, r10
 2403 0040 1923     		movs	r3, #25
 2404 0042 4FF40041 		mov	r1, #32768
 2405 0046 2046     		mov	r0, r4
 2406 0048 CDF80080 		str	r8, [sp]
 2407 004c FFF7FEFF 		bl	I2C_WaitOnFlagUntilTimeout
 2408 0050 0390     		str	r0, [sp, #12]
 2409 0052 70B1     		cbz	r0, .L368
 2410              	.L372:
 2411 0054 0120     		movs	r0, #1
 2412              	.L365:
 2413 0056 05B0     		add	sp, sp, #20
 2414              		@ sp needed
 2415 0058 BDE8F08F 		pop	{r4, r5, r6, r7, r8, r9, r10, fp, pc}
 2416              	.L378:
 2417 005c 4FF40073 		mov	r3, #512
 2418 0060 0120     		movs	r0, #1
 2419 0062 6364     		str	r3, [r4, #68]
 2420 0064 05B0     		add	sp, sp, #20
 2421              		@ sp needed
 2422 0066 BDE8F08F 		pop	{r4, r5, r6, r7, r8, r9, r10, fp, pc}
 2423              	.L377:
 2424 006a 0220     		movs	r0, #2
 2425 006c 05B0     		add	sp, sp, #20
 2426              		@ sp needed
 2427 006e BDE8F08F 		pop	{r4, r5, r6, r7, r8, r9, r10, fp, pc}
 2428              	.L368:
 2429 0072 0E9B     		ldr	r3, [sp, #56]
 2430 0074 2221     		movs	r1, #34
 2431 0076 4020     		movs	r0, #64
 2432 0078 3246     		mov	r2, r6
 2433 007a 6362     		str	r3, [r4, #36]
 2434 007c 3B46     		mov	r3, r7
 2435 007e 039F     		ldr	r7, [sp, #12]
 2436 0080 6763     		str	r7, [r4, #52]
 2437 0082 CDE90098 		strd	r9, r8, [sp]
 2438 0086 84F84110 		strb	r1, [r4, #65]
 2439 008a 2946     		mov	r1, r5
 2440 008c 84F84200 		strb	r0, [r4, #66]
 2441 0090 2046     		mov	r0, r4
 2442 0092 6764     		str	r7, [r4, #68]
 2443 0094 A4F82AB0 		strh	fp, [r4, #42]	@ movhi
ARM GAS  C:\Users\Brandon\AppData\Local\Temp\ccohPh8d.s 			page 43


 2444 0098 FFF7FEFF 		bl	I2C_RequestMemoryRead
 2445 009c 0028     		cmp	r0, #0
 2446 009e 5CD1     		bne	.L387
 2447 00a0 638D     		ldrh	r3, [r4, #42]
 2448 00a2 9BB2     		uxth	r3, r3
 2449 00a4 FF2B     		cmp	r3, #255
 2450 00a6 5DD9     		bls	.L370
 2451 00a8 2168     		ldr	r1, [r4]
 2452 00aa C5F30900 		ubfx	r0, r5, #0, #10
 2453 00ae 414E     		ldr	r6, .L389
 2454 00b0 FF22     		movs	r2, #255
 2455 00b2 4B68     		ldr	r3, [r1, #4]
 2456 00b4 0546     		mov	r5, r0
 2457 00b6 2285     		strh	r2, [r4, #40]	@ movhi
 2458 00b8 3340     		ands	r3, r3, r6
 2459 00ba 3F4A     		ldr	r2, .L389+4
 2460 00bc 0343     		orrs	r3, r3, r0
 2461 00be 1A43     		orrs	r2, r2, r3
 2462 00c0 4A60     		str	r2, [r1, #4]
 2463              	.L371:
 2464 00c2 3E4E     		ldr	r6, .L389+8
 2465 00c4 3E4F     		ldr	r7, .L389+12
 2466 00c6 03E0     		b	.L375
 2467              	.L373:
 2468 00c8 638D     		ldrh	r3, [r4, #42]
 2469 00ca 9BB2     		uxth	r3, r3
 2470 00cc 002B     		cmp	r3, #0
 2471 00ce 5BD0     		beq	.L388
 2472              	.L375:
 2473 00d0 4B46     		mov	r3, r9
 2474 00d2 0022     		movs	r2, #0
 2475 00d4 0421     		movs	r1, #4
 2476 00d6 2046     		mov	r0, r4
 2477 00d8 CDF80080 		str	r8, [sp]
 2478 00dc FFF7FEFF 		bl	I2C_WaitOnFlagUntilTimeout
 2479 00e0 0028     		cmp	r0, #0
 2480 00e2 B7D1     		bne	.L372
 2481 00e4 2268     		ldr	r2, [r4]
 2482 00e6 636A     		ldr	r3, [r4, #36]
 2483 00e8 526A     		ldr	r2, [r2, #36]
 2484 00ea 1A70     		strb	r2, [r3]
 2485 00ec 618D     		ldrh	r1, [r4, #42]
 2486 00ee 238D     		ldrh	r3, [r4, #40]
 2487 00f0 0139     		subs	r1, r1, #1
 2488 00f2 626A     		ldr	r2, [r4, #36]
 2489 00f4 013B     		subs	r3, r3, #1
 2490 00f6 89B2     		uxth	r1, r1
 2491 00f8 0132     		adds	r2, r2, #1
 2492 00fa 9BB2     		uxth	r3, r3
 2493 00fc 6185     		strh	r1, [r4, #42]	@ movhi
 2494 00fe 618D     		ldrh	r1, [r4, #42]
 2495 0100 2385     		strh	r3, [r4, #40]	@ movhi
 2496 0102 89B2     		uxth	r1, r1
 2497 0104 6262     		str	r2, [r4, #36]
 2498 0106 002B     		cmp	r3, #0
 2499 0108 DED1     		bne	.L373
 2500 010a 0029     		cmp	r1, #0
ARM GAS  C:\Users\Brandon\AppData\Local\Temp\ccohPh8d.s 			page 44


 2501 010c DCD0     		beq	.L373
 2502 010e 0246     		mov	r2, r0
 2503 0110 4B46     		mov	r3, r9
 2504 0112 8021     		movs	r1, #128
 2505 0114 2046     		mov	r0, r4
 2506 0116 CDF80080 		str	r8, [sp]
 2507 011a FFF7FEFF 		bl	I2C_WaitOnFlagUntilTimeout
 2508 011e FF22     		movs	r2, #255
 2509 0120 0028     		cmp	r0, #0
 2510 0122 97D1     		bne	.L372
 2511 0124 638D     		ldrh	r3, [r4, #42]
 2512 0126 9BB2     		uxth	r3, r3
 2513 0128 9342     		cmp	r3, r2
 2514 012a 07D9     		bls	.L374
 2515 012c 2168     		ldr	r1, [r4]
 2516 012e 2285     		strh	r2, [r4, #40]	@ movhi
 2517 0130 4B68     		ldr	r3, [r1, #4]
 2518 0132 3340     		ands	r3, r3, r6
 2519 0134 2B43     		orrs	r3, r3, r5
 2520 0136 3B43     		orrs	r3, r3, r7
 2521 0138 4B60     		str	r3, [r1, #4]
 2522 013a C5E7     		b	.L373
 2523              	.L374:
 2524 013c 628D     		ldrh	r2, [r4, #42]
 2525 013e 2168     		ldr	r1, [r4]
 2526 0140 92B2     		uxth	r2, r2
 2527 0142 4868     		ldr	r0, [r1, #4]
 2528 0144 D3B2     		uxtb	r3, r2
 2529 0146 2285     		strh	r2, [r4, #40]	@ movhi
 2530 0148 00EA0602 		and	r2, r0, r6
 2531 014c 45EA0343 		orr	r3, r5, r3, lsl #16
 2532 0150 1343     		orrs	r3, r3, r2
 2533 0152 43F00073 		orr	r3, r3, #33554432
 2534 0156 4B60     		str	r3, [r1, #4]
 2535 0158 B6E7     		b	.L373
 2536              	.L387:
 2537 015a 039B     		ldr	r3, [sp, #12]
 2538 015c 5046     		mov	r0, r10
 2539 015e 84F84030 		strb	r3, [r4, #64]
 2540 0162 78E7     		b	.L365
 2541              	.L370:
 2542 0164 628D     		ldrh	r2, [r4, #42]
 2543 0166 C5F30903 		ubfx	r3, r5, #0, #10
 2544 016a 2068     		ldr	r0, [r4]
 2545 016c 92B2     		uxth	r2, r2
 2546 016e 114F     		ldr	r7, .L389
 2547 0170 4168     		ldr	r1, [r0, #4]
 2548 0172 1D46     		mov	r5, r3
 2549 0174 D6B2     		uxtb	r6, r2
 2550 0176 2285     		strh	r2, [r4, #40]	@ movhi
 2551 0178 3940     		ands	r1, r1, r7
 2552 017a 124A     		ldr	r2, .L389+16
 2553 017c 43EA0643 		orr	r3, r3, r6, lsl #16
 2554 0180 0B43     		orrs	r3, r3, r1
 2555 0182 1A43     		orrs	r2, r2, r3
 2556 0184 4260     		str	r2, [r0, #4]
 2557 0186 9CE7     		b	.L371
ARM GAS  C:\Users\Brandon\AppData\Local\Temp\ccohPh8d.s 			page 45


 2558              	.L388:
 2559 0188 4246     		mov	r2, r8
 2560 018a 4946     		mov	r1, r9
 2561 018c 2046     		mov	r0, r4
 2562 018e FFF7FEFF 		bl	I2C_WaitOnSTOPFlagUntilTimeout
 2563 0192 0028     		cmp	r0, #0
 2564 0194 7FF45EAF 		bne	.L372
 2565 0198 2368     		ldr	r3, [r4]
 2566 019a 2021     		movs	r1, #32
 2567 019c 0A4D     		ldr	r5, .L389+20
 2568 019e D961     		str	r1, [r3, #28]
 2569 01a0 5A68     		ldr	r2, [r3, #4]
 2570 01a2 2A40     		ands	r2, r2, r5
 2571 01a4 5A60     		str	r2, [r3, #4]
 2572 01a6 84F84110 		strb	r1, [r4, #65]
 2573 01aa 84F84000 		strb	r0, [r4, #64]
 2574 01ae 84F84200 		strb	r0, [r4, #66]
 2575 01b2 50E7     		b	.L365
 2576              	.L390:
 2577              		.align	2
 2578              	.L389:
 2579 01b4 009800FC 		.word	-67069952
 2580 01b8 0024FF81 		.word	-2113985536
 2581 01bc 009C00FC 		.word	-67068928
 2582 01c0 0000FF01 		.word	33488896
 2583 01c4 00240082 		.word	-2113920000
 2584 01c8 00E800FE 		.word	-33495040
 2586              		.section	.text.HAL_I2C_Mem_Write_IT,"ax",%progbits
 2587              		.align	1
 2588              		.p2align 2,,3
 2589              		.global	HAL_I2C_Mem_Write_IT
 2590              		.syntax unified
 2591              		.thumb
 2592              		.thumb_func
 2593              		.fpu fpv5-d16
 2595              	HAL_I2C_Mem_Write_IT:
 2596              		@ args = 8, pretend = 0, frame = 0
 2597              		@ frame_needed = 0, uses_anonymous_args = 0
 2598 0000 2DE9F043 		push	{r4, r5, r6, r7, r8, r9, lr}
 2599 0004 0446     		mov	r4, r0
 2600 0006 90F84100 		ldrb	r0, [r0, #65]	@ zero_extendqisi2
 2601 000a 83B0     		sub	sp, sp, #12
 2602 000c 2028     		cmp	r0, #32
 2603 000e BDF82C90 		ldrh	r9, [sp, #44]
 2604 0012 3FD1     		bne	.L400
 2605 0014 1D46     		mov	r5, r3
 2606 0016 0A9B     		ldr	r3, [sp, #40]
 2607 0018 002B     		cmp	r3, #0
 2608 001a 3FD0     		beq	.L402
 2609 001c B9F1000F 		cmp	r9, #0
 2610 0020 3CD0     		beq	.L402
 2611 0022 2368     		ldr	r3, [r4]
 2612 0024 9F69     		ldr	r7, [r3, #24]
 2613 0026 17F40047 		ands	r7, r7, #32768
 2614 002a 33D1     		bne	.L400
 2615 002c 94F84030 		ldrb	r3, [r4, #64]	@ zero_extendqisi2
 2616 0030 012B     		cmp	r3, #1
ARM GAS  C:\Users\Brandon\AppData\Local\Temp\ccohPh8d.s 			page 46


 2617 0032 2FD0     		beq	.L400
 2618 0034 0123     		movs	r3, #1
 2619 0036 8846     		mov	r8, r1
 2620 0038 1646     		mov	r6, r2
 2621 003a 84F84030 		strb	r3, [r4, #64]
 2622 003e FFF7FEFF 		bl	HAL_GetTick
 2623 0042 2121     		movs	r1, #33
 2624 0044 4022     		movs	r2, #64
 2625 0046 2B4B     		ldr	r3, .L404
 2626 0048 84F84110 		strb	r1, [r4, #65]
 2627 004c 84F84220 		strb	r2, [r4, #66]
 2628 0050 6764     		str	r7, [r4, #68]
 2629 0052 A4F82A90 		strh	r9, [r4, #42]	@ movhi
 2630 0056 E362     		str	r3, [r4, #44]
 2631 0058 638D     		ldrh	r3, [r4, #42]
 2632 005a 274A     		ldr	r2, .L404+4
 2633 005c 9BB2     		uxth	r3, r3
 2634 005e 0A99     		ldr	r1, [sp, #40]
 2635 0060 6263     		str	r2, [r4, #52]
 2636 0062 FF2B     		cmp	r3, #255
 2637 0064 6162     		str	r1, [r4, #36]
 2638 0066 20D8     		bhi	.L401
 2639 0068 638D     		ldrh	r3, [r4, #42]
 2640 006a 4FF00079 		mov	r9, #33554432
 2641 006e 9BB2     		uxth	r3, r3
 2642              	.L395:
 2643 0070 1921     		movs	r1, #25
 2644 0072 2385     		strh	r3, [r4, #40]	@ movhi
 2645 0074 3246     		mov	r2, r6
 2646 0076 0190     		str	r0, [sp, #4]
 2647 0078 0091     		str	r1, [sp]
 2648 007a 2B46     		mov	r3, r5
 2649 007c 4146     		mov	r1, r8
 2650 007e 2046     		mov	r0, r4
 2651 0080 FFF7FEFF 		bl	I2C_RequestMemoryWrite
 2652 0084 A8B1     		cbz	r0, .L396
 2653 0086 0023     		movs	r3, #0
 2654 0088 0120     		movs	r0, #1
 2655 008a 84F84030 		strb	r3, [r4, #64]
 2656 008e 03B0     		add	sp, sp, #12
 2657              		@ sp needed
 2658 0090 BDE8F083 		pop	{r4, r5, r6, r7, r8, r9, pc}
 2659              	.L400:
 2660 0094 0220     		movs	r0, #2
 2661 0096 03B0     		add	sp, sp, #12
 2662              		@ sp needed
 2663 0098 BDE8F083 		pop	{r4, r5, r6, r7, r8, r9, pc}
 2664              	.L402:
 2665 009c 4FF40073 		mov	r3, #512
 2666 00a0 0120     		movs	r0, #1
 2667 00a2 6364     		str	r3, [r4, #68]
 2668 00a4 03B0     		add	sp, sp, #12
 2669              		@ sp needed
 2670 00a6 BDE8F083 		pop	{r4, r5, r6, r7, r8, r9, pc}
 2671              	.L401:
 2672 00aa FF23     		movs	r3, #255
 2673 00ac 4FF08079 		mov	r9, #16777216
ARM GAS  C:\Users\Brandon\AppData\Local\Temp\ccohPh8d.s 			page 47


 2674 00b0 DEE7     		b	.L395
 2675              	.L396:
 2676 00b2 2268     		ldr	r2, [r4]
 2677 00b4 C8F30901 		ubfx	r1, r8, #0, #10
 2678 00b8 104D     		ldr	r5, .L404+8
 2679 00ba 5368     		ldr	r3, [r2, #4]
 2680 00bc 94F82860 		ldrb	r6, [r4, #40]	@ zero_extendqisi2
 2681 00c0 03EA0508 		and	r8, r3, r5
 2682 00c4 636B     		ldr	r3, [r4, #52]
 2683 00c6 0E4D     		ldr	r5, .L404+12
 2684 00c8 48EA0101 		orr	r1, r8, r1
 2685 00cc AB42     		cmp	r3, r5
 2686 00ce 41EA0641 		orr	r1, r1, r6, lsl #16
 2687 00d2 41EA0901 		orr	r1, r1, r9
 2688 00d6 5160     		str	r1, [r2, #4]
 2689 00d8 84F84000 		strb	r0, [r4, #64]
 2690 00dc 03D0     		beq	.L397
 2691 00de 0949     		ldr	r1, .L404+16
 2692 00e0 8B42     		cmp	r3, r1
 2693 00e2 18BF     		it	ne
 2694 00e4 F227     		movne	r7, #242
 2695              	.L397:
 2696 00e6 1368     		ldr	r3, [r2]
 2697 00e8 1F43     		orrs	r7, r7, r3
 2698 00ea 1760     		str	r7, [r2]
 2699 00ec 03B0     		add	sp, sp, #12
 2700              		@ sp needed
 2701 00ee BDE8F083 		pop	{r4, r5, r6, r7, r8, r9, pc}
 2702              	.L405:
 2703 00f2 00BF     		.align	2
 2704              	.L404:
 2705 00f4 0000FFFF 		.word	-65536
 2706 00f8 00000000 		.word	I2C_Master_ISR_IT
 2707 00fc 009C00FC 		.word	-67068928
 2708 0100 00000000 		.word	I2C_Slave_ISR_DMA
 2709 0104 00000000 		.word	I2C_Master_ISR_DMA
 2711              		.section	.text.HAL_I2C_Mem_Read_IT,"ax",%progbits
 2712              		.align	1
 2713              		.p2align 2,,3
 2714              		.global	HAL_I2C_Mem_Read_IT
 2715              		.syntax unified
 2716              		.thumb
 2717              		.thumb_func
 2718              		.fpu fpv5-d16
 2720              	HAL_I2C_Mem_Read_IT:
 2721              		@ args = 8, pretend = 0, frame = 0
 2722              		@ frame_needed = 0, uses_anonymous_args = 0
 2723 0000 2DE9F043 		push	{r4, r5, r6, r7, r8, r9, lr}
 2724 0004 0446     		mov	r4, r0
 2725 0006 90F84100 		ldrb	r0, [r0, #65]	@ zero_extendqisi2
 2726 000a 83B0     		sub	sp, sp, #12
 2727 000c 2028     		cmp	r0, #32
 2728 000e BDF82C90 		ldrh	r9, [sp, #44]
 2729 0012 3FD1     		bne	.L415
 2730 0014 1D46     		mov	r5, r3
 2731 0016 0A9B     		ldr	r3, [sp, #40]
 2732 0018 002B     		cmp	r3, #0
ARM GAS  C:\Users\Brandon\AppData\Local\Temp\ccohPh8d.s 			page 48


 2733 001a 3FD0     		beq	.L417
 2734 001c B9F1000F 		cmp	r9, #0
 2735 0020 3CD0     		beq	.L417
 2736 0022 2368     		ldr	r3, [r4]
 2737 0024 9E69     		ldr	r6, [r3, #24]
 2738 0026 16F40046 		ands	r6, r6, #32768
 2739 002a 33D1     		bne	.L415
 2740 002c 94F84030 		ldrb	r3, [r4, #64]	@ zero_extendqisi2
 2741 0030 012B     		cmp	r3, #1
 2742 0032 2FD0     		beq	.L415
 2743 0034 0123     		movs	r3, #1
 2744 0036 8846     		mov	r8, r1
 2745 0038 1746     		mov	r7, r2
 2746 003a 84F84030 		strb	r3, [r4, #64]
 2747 003e FFF7FEFF 		bl	HAL_GetTick
 2748 0042 2221     		movs	r1, #34
 2749 0044 4022     		movs	r2, #64
 2750 0046 2C4B     		ldr	r3, .L419
 2751 0048 84F84110 		strb	r1, [r4, #65]
 2752 004c 84F84220 		strb	r2, [r4, #66]
 2753 0050 6664     		str	r6, [r4, #68]
 2754 0052 A4F82A90 		strh	r9, [r4, #42]	@ movhi
 2755 0056 E362     		str	r3, [r4, #44]
 2756 0058 638D     		ldrh	r3, [r4, #42]
 2757 005a 284A     		ldr	r2, .L419+4
 2758 005c 9BB2     		uxth	r3, r3
 2759 005e 0A99     		ldr	r1, [sp, #40]
 2760 0060 6263     		str	r2, [r4, #52]
 2761 0062 FF2B     		cmp	r3, #255
 2762 0064 6162     		str	r1, [r4, #36]
 2763 0066 20D8     		bhi	.L416
 2764 0068 638D     		ldrh	r3, [r4, #42]
 2765 006a 4FF00079 		mov	r9, #33554432
 2766 006e 9BB2     		uxth	r3, r3
 2767              	.L410:
 2768 0070 1921     		movs	r1, #25
 2769 0072 2385     		strh	r3, [r4, #40]	@ movhi
 2770 0074 3A46     		mov	r2, r7
 2771 0076 0190     		str	r0, [sp, #4]
 2772 0078 0091     		str	r1, [sp]
 2773 007a 2B46     		mov	r3, r5
 2774 007c 4146     		mov	r1, r8
 2775 007e 2046     		mov	r0, r4
 2776 0080 FFF7FEFF 		bl	I2C_RequestMemoryRead
 2777 0084 A8B1     		cbz	r0, .L411
 2778 0086 0023     		movs	r3, #0
 2779 0088 0120     		movs	r0, #1
 2780 008a 84F84030 		strb	r3, [r4, #64]
 2781 008e 03B0     		add	sp, sp, #12
 2782              		@ sp needed
 2783 0090 BDE8F083 		pop	{r4, r5, r6, r7, r8, r9, pc}
 2784              	.L415:
 2785 0094 0220     		movs	r0, #2
 2786 0096 03B0     		add	sp, sp, #12
 2787              		@ sp needed
 2788 0098 BDE8F083 		pop	{r4, r5, r6, r7, r8, r9, pc}
 2789              	.L417:
ARM GAS  C:\Users\Brandon\AppData\Local\Temp\ccohPh8d.s 			page 49


 2790 009c 4FF40073 		mov	r3, #512
 2791 00a0 0120     		movs	r0, #1
 2792 00a2 6364     		str	r3, [r4, #68]
 2793 00a4 03B0     		add	sp, sp, #12
 2794              		@ sp needed
 2795 00a6 BDE8F083 		pop	{r4, r5, r6, r7, r8, r9, pc}
 2796              	.L416:
 2797 00aa FF23     		movs	r3, #255
 2798 00ac 4FF08079 		mov	r9, #16777216
 2799 00b0 DEE7     		b	.L410
 2800              	.L411:
 2801 00b2 2268     		ldr	r2, [r4]
 2802 00b4 C8F30901 		ubfx	r1, r8, #0, #10
 2803 00b8 DFF850C0 		ldr	ip, .L419+20
 2804 00bc 5568     		ldr	r5, [r2, #4]
 2805 00be 41EA0903 		orr	r3, r1, r9
 2806 00c2 94F82870 		ldrb	r7, [r4, #40]	@ zero_extendqisi2
 2807 00c6 05EA0C05 		and	r5, r5, ip
 2808 00ca 0D49     		ldr	r1, .L419+8
 2809 00cc 2B43     		orrs	r3, r3, r5
 2810 00ce 656B     		ldr	r5, [r4, #52]
 2811 00d0 43EA0743 		orr	r3, r3, r7, lsl #16
 2812 00d4 0B4F     		ldr	r7, .L419+12
 2813 00d6 1943     		orrs	r1, r1, r3
 2814 00d8 BD42     		cmp	r5, r7
 2815 00da 5160     		str	r1, [r2, #4]
 2816 00dc 84F84000 		strb	r0, [r4, #64]
 2817 00e0 03D0     		beq	.L412
 2818 00e2 094B     		ldr	r3, .L419+16
 2819 00e4 9D42     		cmp	r5, r3
 2820 00e6 18BF     		it	ne
 2821 00e8 F426     		movne	r6, #244
 2822              	.L412:
 2823 00ea 1368     		ldr	r3, [r2]
 2824 00ec 1E43     		orrs	r6, r6, r3
 2825 00ee 1660     		str	r6, [r2]
 2826 00f0 03B0     		add	sp, sp, #12
 2827              		@ sp needed
 2828 00f2 BDE8F083 		pop	{r4, r5, r6, r7, r8, r9, pc}
 2829              	.L420:
 2830 00f6 00BF     		.align	2
 2831              	.L419:
 2832 00f8 0000FFFF 		.word	-65536
 2833 00fc 00000000 		.word	I2C_Master_ISR_IT
 2834 0100 00240080 		.word	-2147474432
 2835 0104 00000000 		.word	I2C_Slave_ISR_DMA
 2836 0108 00000000 		.word	I2C_Master_ISR_DMA
 2837 010c 009800FC 		.word	-67069952
 2839              		.section	.text.HAL_I2C_Mem_Write_DMA,"ax",%progbits
 2840              		.align	1
 2841              		.p2align 2,,3
 2842              		.global	HAL_I2C_Mem_Write_DMA
 2843              		.syntax unified
 2844              		.thumb
 2845              		.thumb_func
 2846              		.fpu fpv5-d16
 2848              	HAL_I2C_Mem_Write_DMA:
ARM GAS  C:\Users\Brandon\AppData\Local\Temp\ccohPh8d.s 			page 50


 2849              		@ args = 8, pretend = 0, frame = 0
 2850              		@ frame_needed = 0, uses_anonymous_args = 0
 2851 0000 2DE9F04F 		push	{r4, r5, r6, r7, r8, r9, r10, fp, lr}
 2852 0004 0D46     		mov	r5, r1
 2853 0006 90F84110 		ldrb	r1, [r0, #65]	@ zero_extendqisi2
 2854 000a 83B0     		sub	sp, sp, #12
 2855 000c 2029     		cmp	r1, #32
 2856 000e 0C9E     		ldr	r6, [sp, #48]
 2857 0010 BDF834A0 		ldrh	r10, [sp, #52]
 2858 0014 71D1     		bne	.L433
 2859 0016 0446     		mov	r4, r0
 2860 0018 002E     		cmp	r6, #0
 2861 001a 72D0     		beq	.L436
 2862 001c BAF1000F 		cmp	r10, #0
 2863 0020 6FD0     		beq	.L436
 2864 0022 1F46     		mov	r7, r3
 2865 0024 0368     		ldr	r3, [r0]
 2866 0026 9B69     		ldr	r3, [r3, #24]
 2867 0028 13F40048 		ands	r8, r3, #32768
 2868 002c 65D1     		bne	.L433
 2869 002e 90F84030 		ldrb	r3, [r0, #64]	@ zero_extendqisi2
 2870 0032 012B     		cmp	r3, #1
 2871 0034 61D0     		beq	.L433
 2872 0036 0123     		movs	r3, #1
 2873 0038 9346     		mov	fp, r2
 2874 003a DFF83491 		ldr	r9, .L441+20
 2875 003e 80F84030 		strb	r3, [r0, #64]
 2876 0042 FFF7FEFF 		bl	HAL_GetTick
 2877 0046 4023     		movs	r3, #64
 2878 0048 2122     		movs	r2, #33
 2879 004a 6662     		str	r6, [r4, #36]
 2880 004c C4F83490 		str	r9, [r4, #52]
 2881 0050 84F84120 		strb	r2, [r4, #65]
 2882 0054 84F84230 		strb	r3, [r4, #66]
 2883 0058 404B     		ldr	r3, .L441
 2884 005a C4F84480 		str	r8, [r4, #68]
 2885 005e A4F82AA0 		strh	r10, [r4, #42]	@ movhi
 2886 0062 E362     		str	r3, [r4, #44]
 2887 0064 638D     		ldrh	r3, [r4, #42]
 2888 0066 9BB2     		uxth	r3, r3
 2889 0068 FF2B     		cmp	r3, #255
 2890 006a 51D8     		bhi	.L434
 2891 006c 638D     		ldrh	r3, [r4, #42]
 2892 006e 4FF0007A 		mov	r10, #33554432
 2893 0072 9BB2     		uxth	r3, r3
 2894              	.L425:
 2895 0074 1921     		movs	r1, #25
 2896 0076 2385     		strh	r3, [r4, #40]	@ movhi
 2897 0078 5A46     		mov	r2, fp
 2898 007a 3B46     		mov	r3, r7
 2899 007c 0190     		str	r0, [sp, #4]
 2900 007e 2046     		mov	r0, r4
 2901 0080 0091     		str	r1, [sp]
 2902 0082 2946     		mov	r1, r5
 2903 0084 FFF7FEFF 		bl	I2C_RequestMemoryWrite
 2904 0088 0746     		mov	r7, r0
 2905 008a 0028     		cmp	r0, #0
ARM GAS  C:\Users\Brandon\AppData\Local\Temp\ccohPh8d.s 			page 51


 2906 008c 44D1     		bne	.L439
 2907 008e A36B     		ldr	r3, [r4, #56]
 2908 0090 002B     		cmp	r3, #0
 2909 0092 53D0     		beq	.L427
 2910 0094 324A     		ldr	r2, .L441+4
 2911 0096 3146     		mov	r1, r6
 2912 0098 324E     		ldr	r6, .L441+8
 2913 009a 1846     		mov	r0, r3
 2914 009c DA63     		str	r2, [r3, #60]
 2915 009e 2268     		ldr	r2, [r4]
 2916 00a0 1F64     		str	r7, [r3, #64]
 2917 00a2 1F65     		str	r7, [r3, #80]
 2918 00a4 2832     		adds	r2, r2, #40
 2919 00a6 DE64     		str	r6, [r3, #76]
 2920 00a8 238D     		ldrh	r3, [r4, #40]
 2921 00aa FFF7FEFF 		bl	HAL_DMA_Start_IT
 2922 00ae 0028     		cmp	r0, #0
 2923 00b0 37D1     		bne	.L440
 2924 00b2 2268     		ldr	r2, [r4]
 2925 00b4 C5F30905 		ubfx	r5, r5, #0, #10
 2926 00b8 2B49     		ldr	r1, .L441+12
 2927 00ba 5368     		ldr	r3, [r2, #4]
 2928 00bc 268D     		ldrh	r6, [r4, #40]
 2929 00be 0B40     		ands	r3, r3, r1
 2930 00c0 616B     		ldr	r1, [r4, #52]
 2931 00c2 1D43     		orrs	r5, r5, r3
 2932 00c4 F3B2     		uxtb	r3, r6
 2933 00c6 45EA0343 		orr	r3, r5, r3, lsl #16
 2934 00ca 284D     		ldr	r5, .L441+16
 2935 00cc 43EA0A03 		orr	r3, r3, r10
 2936 00d0 A942     		cmp	r1, r5
 2937 00d2 5360     		str	r3, [r2, #4]
 2938 00d4 638D     		ldrh	r3, [r4, #42]
 2939 00d6 84F84000 		strb	r0, [r4, #64]
 2940 00da A3EB0603 		sub	r3, r3, r6
 2941 00de 9BB2     		uxth	r3, r3
 2942 00e0 6385     		strh	r3, [r4, #42]	@ movhi
 2943 00e2 38D0     		beq	.L435
 2944 00e4 4945     		cmp	r1, r9
 2945 00e6 36D0     		beq	.L435
 2946              	.L430:
 2947 00e8 1368     		ldr	r3, [r2]
 2948 00ea 43EA0803 		orr	r3, r3, r8
 2949 00ee 1360     		str	r3, [r2]
 2950 00f0 1368     		ldr	r3, [r2]
 2951 00f2 43F48043 		orr	r3, r3, #16384
 2952 00f6 1360     		str	r3, [r2]
 2953 00f8 00E0     		b	.L422
 2954              	.L433:
 2955 00fa 0220     		movs	r0, #2
 2956              	.L422:
 2957 00fc 03B0     		add	sp, sp, #12
 2958              		@ sp needed
 2959 00fe BDE8F08F 		pop	{r4, r5, r6, r7, r8, r9, r10, fp, pc}
 2960              	.L436:
 2961 0102 4FF40073 		mov	r3, #512
 2962 0106 0120     		movs	r0, #1
ARM GAS  C:\Users\Brandon\AppData\Local\Temp\ccohPh8d.s 			page 52


 2963 0108 6364     		str	r3, [r4, #68]
 2964 010a 03B0     		add	sp, sp, #12
 2965              		@ sp needed
 2966 010c BDE8F08F 		pop	{r4, r5, r6, r7, r8, r9, r10, fp, pc}
 2967              	.L434:
 2968 0110 FF23     		movs	r3, #255
 2969 0112 4FF0807A 		mov	r10, #16777216
 2970 0116 ADE7     		b	.L425
 2971              	.L439:
 2972 0118 0023     		movs	r3, #0
 2973 011a 0120     		movs	r0, #1
 2974 011c 84F84030 		strb	r3, [r4, #64]
 2975 0120 ECE7     		b	.L422
 2976              	.L440:
 2977 0122 2023     		movs	r3, #32
 2978 0124 0120     		movs	r0, #1
 2979 0126 84F84070 		strb	r7, [r4, #64]
 2980 012a 84F84130 		strb	r3, [r4, #65]
 2981 012e 84F84270 		strb	r7, [r4, #66]
 2982 0132 636C     		ldr	r3, [r4, #68]
 2983 0134 43F01003 		orr	r3, r3, #16
 2984 0138 6364     		str	r3, [r4, #68]
 2985 013a DFE7     		b	.L422
 2986              	.L427:
 2987 013c 2022     		movs	r2, #32
 2988 013e 84F84030 		strb	r3, [r4, #64]
 2989 0142 0120     		movs	r0, #1
 2990 0144 84F84120 		strb	r2, [r4, #65]
 2991 0148 84F84230 		strb	r3, [r4, #66]
 2992 014c 636C     		ldr	r3, [r4, #68]
 2993 014e 43F08003 		orr	r3, r3, #128
 2994 0152 6364     		str	r3, [r4, #68]
 2995 0154 D2E7     		b	.L422
 2996              	.L435:
 2997 0156 4FF09008 		mov	r8, #144
 2998 015a C5E7     		b	.L430
 2999              	.L442:
 3000              		.align	2
 3001              	.L441:
 3002 015c 0000FFFF 		.word	-65536
 3003 0160 00000000 		.word	I2C_DMAMasterTransmitCplt
 3004 0164 00000000 		.word	I2C_DMAError
 3005 0168 009C00FC 		.word	-67068928
 3006 016c 00000000 		.word	I2C_Slave_ISR_DMA
 3007 0170 00000000 		.word	I2C_Master_ISR_DMA
 3009              		.section	.text.HAL_I2C_Mem_Read_DMA,"ax",%progbits
 3010              		.align	1
 3011              		.p2align 2,,3
 3012              		.global	HAL_I2C_Mem_Read_DMA
 3013              		.syntax unified
 3014              		.thumb
 3015              		.thumb_func
 3016              		.fpu fpv5-d16
 3018              	HAL_I2C_Mem_Read_DMA:
 3019              		@ args = 8, pretend = 0, frame = 0
 3020              		@ frame_needed = 0, uses_anonymous_args = 0
 3021 0000 2DE9F04F 		push	{r4, r5, r6, r7, r8, r9, r10, fp, lr}
ARM GAS  C:\Users\Brandon\AppData\Local\Temp\ccohPh8d.s 			page 53


 3022 0004 0D46     		mov	r5, r1
 3023 0006 90F84110 		ldrb	r1, [r0, #65]	@ zero_extendqisi2
 3024 000a 83B0     		sub	sp, sp, #12
 3025 000c 2029     		cmp	r1, #32
 3026 000e 0C9E     		ldr	r6, [sp, #48]
 3027 0010 BDF834A0 		ldrh	r10, [sp, #52]
 3028 0014 75D1     		bne	.L455
 3029 0016 0446     		mov	r4, r0
 3030 0018 002E     		cmp	r6, #0
 3031 001a 76D0     		beq	.L458
 3032 001c BAF1000F 		cmp	r10, #0
 3033 0020 73D0     		beq	.L458
 3034 0022 1F46     		mov	r7, r3
 3035 0024 0368     		ldr	r3, [r0]
 3036 0026 9B69     		ldr	r3, [r3, #24]
 3037 0028 13F40048 		ands	r8, r3, #32768
 3038 002c 69D1     		bne	.L455
 3039 002e 90F84030 		ldrb	r3, [r0, #64]	@ zero_extendqisi2
 3040 0032 012B     		cmp	r3, #1
 3041 0034 65D0     		beq	.L455
 3042 0036 0123     		movs	r3, #1
 3043 0038 9346     		mov	fp, r2
 3044 003a DFF84091 		ldr	r9, .L463+24
 3045 003e 80F84030 		strb	r3, [r0, #64]
 3046 0042 FFF7FEFF 		bl	HAL_GetTick
 3047 0046 4023     		movs	r3, #64
 3048 0048 2222     		movs	r2, #34
 3049 004a 6662     		str	r6, [r4, #36]
 3050 004c C4F83490 		str	r9, [r4, #52]
 3051 0050 84F84120 		strb	r2, [r4, #65]
 3052 0054 84F84230 		strb	r3, [r4, #66]
 3053 0058 424B     		ldr	r3, .L463
 3054 005a C4F84480 		str	r8, [r4, #68]
 3055 005e A4F82AA0 		strh	r10, [r4, #42]	@ movhi
 3056 0062 E362     		str	r3, [r4, #44]
 3057 0064 638D     		ldrh	r3, [r4, #42]
 3058 0066 9BB2     		uxth	r3, r3
 3059 0068 FF2B     		cmp	r3, #255
 3060 006a 55D8     		bhi	.L456
 3061 006c 638D     		ldrh	r3, [r4, #42]
 3062 006e 4FF0007A 		mov	r10, #33554432
 3063 0072 9BB2     		uxth	r3, r3
 3064              	.L447:
 3065 0074 1921     		movs	r1, #25
 3066 0076 2385     		strh	r3, [r4, #40]	@ movhi
 3067 0078 5A46     		mov	r2, fp
 3068 007a 3B46     		mov	r3, r7
 3069 007c 0190     		str	r0, [sp, #4]
 3070 007e 2046     		mov	r0, r4
 3071 0080 0091     		str	r1, [sp]
 3072 0082 2946     		mov	r1, r5
 3073 0084 FFF7FEFF 		bl	I2C_RequestMemoryRead
 3074 0088 0746     		mov	r7, r0
 3075 008a 0028     		cmp	r0, #0
 3076 008c 48D1     		bne	.L461
 3077 008e E36B     		ldr	r3, [r4, #60]
 3078 0090 002B     		cmp	r3, #0
ARM GAS  C:\Users\Brandon\AppData\Local\Temp\ccohPh8d.s 			page 54


 3079 0092 57D0     		beq	.L449
 3080 0094 3449     		ldr	r1, .L463+4
 3081 0096 3246     		mov	r2, r6
 3082 0098 344E     		ldr	r6, .L463+8
 3083 009a 1846     		mov	r0, r3
 3084 009c D963     		str	r1, [r3, #60]
 3085 009e 2168     		ldr	r1, [r4]
 3086 00a0 1F64     		str	r7, [r3, #64]
 3087 00a2 1F65     		str	r7, [r3, #80]
 3088 00a4 2431     		adds	r1, r1, #36
 3089 00a6 DE64     		str	r6, [r3, #76]
 3090 00a8 238D     		ldrh	r3, [r4, #40]
 3091 00aa FFF7FEFF 		bl	HAL_DMA_Start_IT
 3092 00ae 0028     		cmp	r0, #0
 3093 00b0 3BD1     		bne	.L462
 3094 00b2 2268     		ldr	r2, [r4]
 3095 00b4 C5F30903 		ubfx	r3, r5, #0, #10
 3096 00b8 2D4E     		ldr	r6, .L463+12
 3097 00ba 5168     		ldr	r1, [r2, #4]
 3098 00bc 43EA0A03 		orr	r3, r3, r10
 3099 00c0 258D     		ldrh	r5, [r4, #40]
 3100 00c2 01EA060A 		and	r10, r1, r6
 3101 00c6 2B49     		ldr	r1, .L463+16
 3102 00c8 EEB2     		uxtb	r6, r5
 3103 00ca 2B4F     		ldr	r7, .L463+20
 3104 00cc 43EA0A03 		orr	r3, r3, r10
 3105 00d0 43EA0643 		orr	r3, r3, r6, lsl #16
 3106 00d4 666B     		ldr	r6, [r4, #52]
 3107 00d6 1943     		orrs	r1, r1, r3
 3108 00d8 BE42     		cmp	r6, r7
 3109 00da 5160     		str	r1, [r2, #4]
 3110 00dc 638D     		ldrh	r3, [r4, #42]
 3111 00de 84F84000 		strb	r0, [r4, #64]
 3112 00e2 A3EB0503 		sub	r3, r3, r5
 3113 00e6 9BB2     		uxth	r3, r3
 3114 00e8 6385     		strh	r3, [r4, #42]	@ movhi
 3115 00ea 38D0     		beq	.L457
 3116 00ec 4E45     		cmp	r6, r9
 3117 00ee 36D0     		beq	.L457
 3118              	.L452:
 3119 00f0 1368     		ldr	r3, [r2]
 3120 00f2 43EA0803 		orr	r3, r3, r8
 3121 00f6 1360     		str	r3, [r2]
 3122 00f8 1368     		ldr	r3, [r2]
 3123 00fa 43F40043 		orr	r3, r3, #32768
 3124 00fe 1360     		str	r3, [r2]
 3125 0100 00E0     		b	.L444
 3126              	.L455:
 3127 0102 0220     		movs	r0, #2
 3128              	.L444:
 3129 0104 03B0     		add	sp, sp, #12
 3130              		@ sp needed
 3131 0106 BDE8F08F 		pop	{r4, r5, r6, r7, r8, r9, r10, fp, pc}
 3132              	.L458:
 3133 010a 4FF40073 		mov	r3, #512
 3134 010e 0120     		movs	r0, #1
 3135 0110 6364     		str	r3, [r4, #68]
ARM GAS  C:\Users\Brandon\AppData\Local\Temp\ccohPh8d.s 			page 55


 3136 0112 03B0     		add	sp, sp, #12
 3137              		@ sp needed
 3138 0114 BDE8F08F 		pop	{r4, r5, r6, r7, r8, r9, r10, fp, pc}
 3139              	.L456:
 3140 0118 FF23     		movs	r3, #255
 3141 011a 4FF0807A 		mov	r10, #16777216
 3142 011e A9E7     		b	.L447
 3143              	.L461:
 3144 0120 0023     		movs	r3, #0
 3145 0122 0120     		movs	r0, #1
 3146 0124 84F84030 		strb	r3, [r4, #64]
 3147 0128 ECE7     		b	.L444
 3148              	.L462:
 3149 012a 2023     		movs	r3, #32
 3150 012c 0120     		movs	r0, #1
 3151 012e 84F84070 		strb	r7, [r4, #64]
 3152 0132 84F84130 		strb	r3, [r4, #65]
 3153 0136 84F84270 		strb	r7, [r4, #66]
 3154 013a 636C     		ldr	r3, [r4, #68]
 3155 013c 43F01003 		orr	r3, r3, #16
 3156 0140 6364     		str	r3, [r4, #68]
 3157 0142 DFE7     		b	.L444
 3158              	.L449:
 3159 0144 2022     		movs	r2, #32
 3160 0146 84F84030 		strb	r3, [r4, #64]
 3161 014a 0120     		movs	r0, #1
 3162 014c 84F84120 		strb	r2, [r4, #65]
 3163 0150 84F84230 		strb	r3, [r4, #66]
 3164 0154 636C     		ldr	r3, [r4, #68]
 3165 0156 43F08003 		orr	r3, r3, #128
 3166 015a 6364     		str	r3, [r4, #68]
 3167 015c D2E7     		b	.L444
 3168              	.L457:
 3169 015e 4FF09008 		mov	r8, #144
 3170 0162 C5E7     		b	.L452
 3171              	.L464:
 3172              		.align	2
 3173              	.L463:
 3174 0164 0000FFFF 		.word	-65536
 3175 0168 00000000 		.word	I2C_DMAMasterReceiveCplt
 3176 016c 00000000 		.word	I2C_DMAError
 3177 0170 009800FC 		.word	-67069952
 3178 0174 00240080 		.word	-2147474432
 3179 0178 00000000 		.word	I2C_Slave_ISR_DMA
 3180 017c 00000000 		.word	I2C_Master_ISR_DMA
 3182              		.section	.text.HAL_I2C_IsDeviceReady,"ax",%progbits
 3183              		.align	1
 3184              		.p2align 2,,3
 3185              		.global	HAL_I2C_IsDeviceReady
 3186              		.syntax unified
 3187              		.thumb
 3188              		.thumb_func
 3189              		.fpu fpv5-d16
 3191              	HAL_I2C_IsDeviceReady:
 3192              		@ args = 0, pretend = 0, frame = 8
 3193              		@ frame_needed = 0, uses_anonymous_args = 0
 3194 0000 2DE9F047 		push	{r4, r5, r6, r7, r8, r9, r10, lr}
ARM GAS  C:\Users\Brandon\AppData\Local\Temp\ccohPh8d.s 			page 56


 3195 0004 0024     		movs	r4, #0
 3196 0006 84B0     		sub	sp, sp, #16
 3197 0008 0546     		mov	r5, r0
 3198 000a 0394     		str	r4, [sp, #12]
 3199 000c 90F84100 		ldrb	r0, [r0, #65]	@ zero_extendqisi2
 3200 0010 2028     		cmp	r0, #32
 3201 0012 64D1     		bne	.L481
 3202 0014 9046     		mov	r8, r2
 3203 0016 2A68     		ldr	r2, [r5]
 3204 0018 1F46     		mov	r7, r3
 3205 001a 9369     		ldr	r3, [r2, #24]
 3206 001c 13F40043 		ands	r3, r3, #32768
 3207 0020 5DD1     		bne	.L481
 3208 0022 95F84000 		ldrb	r0, [r5, #64]	@ zero_extendqisi2
 3209 0026 0128     		cmp	r0, #1
 3210 0028 59D0     		beq	.L481
 3211 002a C1F30904 		ubfx	r4, r1, #0, #10
 3212 002e DFF81891 		ldr	r9, .L493
 3213 0032 2420     		movs	r0, #36
 3214 0034 0121     		movs	r1, #1
 3215 0036 A246     		mov	r10, r4
 3216 0038 44EA0909 		orr	r9, r4, r9
 3217 003c 85F84100 		strb	r0, [r5, #65]
 3218 0040 85F84010 		strb	r1, [r5, #64]
 3219 0044 6B64     		str	r3, [r5, #68]
 3220              	.L478:
 3221 0046 EB68     		ldr	r3, [r5, #12]
 3222 0048 012B     		cmp	r3, #1
 3223 004a 0CBF     		ite	eq
 3224 004c 4B46     		moveq	r3, r9
 3225 004e 4AF42053 		orrne	r3, r10, #10240
 3226 0052 5360     		str	r3, [r2, #4]
 3227 0054 FFF7FEFF 		bl	HAL_GetTick
 3228 0058 D5F800C0 		ldr	ip, [r5]
 3229 005c 0646     		mov	r6, r0
 3230 005e DCF81820 		ldr	r2, [ip, #24]
 3231 0062 DCF81830 		ldr	r3, [ip, #24]
 3232 0066 02F02002 		and	r2, r2, #32
 3233 006a 03F01003 		and	r3, r3, #16
 3234 006e 1343     		orrs	r3, r2, r3
 3235 0070 14D1     		bne	.L469
 3236              	.L472:
 3237 0072 7B1C     		adds	r3, r7, #1
 3238 0074 07D0     		beq	.L470
 3239 0076 FFF7FEFF 		bl	HAL_GetTick
 3240 007a 801B     		subs	r0, r0, r6
 3241 007c B842     		cmp	r0, r7
 3242 007e 32D8     		bhi	.L477
 3243 0080 8FB3     		cbz	r7, .L477
 3244 0082 D5F800C0 		ldr	ip, [r5]
 3245              	.L470:
 3246 0086 DCF81840 		ldr	r4, [ip, #24]
 3247 008a DCF81810 		ldr	r1, [ip, #24]
 3248 008e 04F02004 		and	r4, r4, #32
 3249 0092 01F01001 		and	r1, r1, #16
 3250 0096 54EA0103 		orrs	r3, r4, r1
 3251 009a EAD0     		beq	.L472
ARM GAS  C:\Users\Brandon\AppData\Local\Temp\ccohPh8d.s 			page 57


 3252              	.L469:
 3253 009c DCF81820 		ldr	r2, [ip, #24]
 3254 00a0 3B46     		mov	r3, r7
 3255 00a2 0096     		str	r6, [sp]
 3256 00a4 12F01002 		ands	r2, r2, #16
 3257 00a8 40D0     		beq	.L491
 3258 00aa 0022     		movs	r2, #0
 3259 00ac 2021     		movs	r1, #32
 3260 00ae 2846     		mov	r0, r5
 3261 00b0 FFF7FEFF 		bl	I2C_WaitOnFlagUntilTimeout
 3262 00b4 0028     		cmp	r0, #0
 3263 00b6 37D1     		bne	.L475
 3264 00b8 D5F800C0 		ldr	ip, [r5]
 3265 00bc 1023     		movs	r3, #16
 3266 00be 2024     		movs	r4, #32
 3267 00c0 CCF81C30 		str	r3, [ip, #28]
 3268 00c4 CCF81C40 		str	r4, [ip, #28]
 3269 00c8 039B     		ldr	r3, [sp, #12]
 3270 00ca 4345     		cmp	r3, r8
 3271 00cc 19D0     		beq	.L492
 3272              	.L476:
 3273 00ce 039B     		ldr	r3, [sp, #12]
 3274 00d0 0133     		adds	r3, r3, #1
 3275 00d2 0393     		str	r3, [sp, #12]
 3276 00d4 039B     		ldr	r3, [sp, #12]
 3277 00d6 4345     		cmp	r3, r8
 3278 00d8 05D2     		bcs	.L477
 3279 00da 6246     		mov	r2, ip
 3280 00dc B3E7     		b	.L478
 3281              	.L481:
 3282 00de 0220     		movs	r0, #2
 3283              	.L466:
 3284 00e0 04B0     		add	sp, sp, #16
 3285              		@ sp needed
 3286 00e2 BDE8F087 		pop	{r4, r5, r6, r7, r8, r9, r10, pc}
 3287              	.L477:
 3288 00e6 2023     		movs	r3, #32
 3289 00e8 0022     		movs	r2, #0
 3290 00ea 0120     		movs	r0, #1
 3291 00ec 85F84130 		strb	r3, [r5, #65]
 3292 00f0 6B6C     		ldr	r3, [r5, #68]
 3293 00f2 85F84020 		strb	r2, [r5, #64]
 3294 00f6 43F02003 		orr	r3, r3, #32
 3295 00fa 6B64     		str	r3, [r5, #68]
 3296 00fc 04B0     		add	sp, sp, #16
 3297              		@ sp needed
 3298 00fe BDE8F087 		pop	{r4, r5, r6, r7, r8, r9, r10, pc}
 3299              	.L492:
 3300 0102 DCF80410 		ldr	r1, [ip, #4]
 3301 0106 0246     		mov	r2, r0
 3302 0108 3B46     		mov	r3, r7
 3303 010a 41F48040 		orr	r0, r1, #16384
 3304 010e 2146     		mov	r1, r4
 3305 0110 CCF80400 		str	r0, [ip, #4]
 3306 0114 2846     		mov	r0, r5
 3307 0116 0096     		str	r6, [sp]
 3308 0118 FFF7FEFF 		bl	I2C_WaitOnFlagUntilTimeout
ARM GAS  C:\Users\Brandon\AppData\Local\Temp\ccohPh8d.s 			page 58


 3309 011c 20B9     		cbnz	r0, .L475
 3310 011e D5F800C0 		ldr	ip, [r5]
 3311 0122 CCF81C40 		str	r4, [ip, #28]
 3312 0126 D2E7     		b	.L476
 3313              	.L475:
 3314 0128 0120     		movs	r0, #1
 3315 012a D9E7     		b	.L466
 3316              	.L491:
 3317 012c 2021     		movs	r1, #32
 3318 012e 2846     		mov	r0, r5
 3319 0130 FFF7FEFF 		bl	I2C_WaitOnFlagUntilTimeout
 3320 0134 0028     		cmp	r0, #0
 3321 0136 F7D1     		bne	.L475
 3322 0138 2023     		movs	r3, #32
 3323 013a 2A68     		ldr	r2, [r5]
 3324 013c D361     		str	r3, [r2, #28]
 3325 013e 85F84130 		strb	r3, [r5, #65]
 3326 0142 85F84000 		strb	r0, [r5, #64]
 3327 0146 CBE7     		b	.L466
 3328              	.L494:
 3329              		.align	2
 3330              	.L493:
 3331 0148 00200002 		.word	33562624
 3333              		.section	.text.HAL_I2C_Master_Seq_Transmit_IT,"ax",%progbits
 3334              		.align	1
 3335              		.p2align 2,,3
 3336              		.global	HAL_I2C_Master_Seq_Transmit_IT
 3337              		.syntax unified
 3338              		.thumb
 3339              		.thumb_func
 3340              		.fpu fpv5-d16
 3342              	HAL_I2C_Master_Seq_Transmit_IT:
 3343              		@ args = 4, pretend = 0, frame = 0
 3344              		@ frame_needed = 0, uses_anonymous_args = 0
 3345              		@ link register save eliminated.
 3346 0000 70B4     		push	{r4, r5, r6}
 3347 0002 0446     		mov	r4, r0
 3348 0004 90F84100 		ldrb	r0, [r0, #65]	@ zero_extendqisi2
 3349 0008 2028     		cmp	r0, #32
 3350 000a 58D1     		bne	.L505
 3351 000c 94F84000 		ldrb	r0, [r4, #64]	@ zero_extendqisi2
 3352 0010 0128     		cmp	r0, #1
 3353 0012 54D0     		beq	.L505
 3354 0014 2120     		movs	r0, #33
 3355 0016 1026     		movs	r6, #16
 3356 0018 0025     		movs	r5, #0
 3357 001a 6262     		str	r2, [r4, #36]
 3358 001c 84F84100 		strb	r0, [r4, #65]
 3359 0020 0120     		movs	r0, #1
 3360 0022 84F84260 		strb	r6, [r4, #66]
 3361 0026 6564     		str	r5, [r4, #68]
 3362 0028 6385     		strh	r3, [r4, #42]	@ movhi
 3363 002a 039B     		ldr	r3, [sp, #12]
 3364 002c 84F84000 		strb	r0, [r4, #64]
 3365 0030 E362     		str	r3, [r4, #44]
 3366 0032 628D     		ldrh	r2, [r4, #42]
 3367 0034 284B     		ldr	r3, .L513
ARM GAS  C:\Users\Brandon\AppData\Local\Temp\ccohPh8d.s 			page 59


 3368 0036 92B2     		uxth	r2, r2
 3369 0038 6363     		str	r3, [r4, #52]
 3370 003a FF2A     		cmp	r2, #255
 3371 003c 2AD8     		bhi	.L509
 3372 003e 628D     		ldrh	r2, [r4, #42]
 3373 0040 E06A     		ldr	r0, [r4, #44]
 3374 0042 92B2     		uxth	r2, r2
 3375 0044 D3B2     		uxtb	r3, r2
 3376 0046 2285     		strh	r2, [r4, #40]	@ movhi
 3377 0048 226B     		ldr	r2, [r4, #48]
 3378 004a 1B04     		lsls	r3, r3, #16
 3379 004c 112A     		cmp	r2, #17
 3380 004e 2AD0     		beq	.L510
 3381              	.L499:
 3382 0050 E26A     		ldr	r2, [r4, #44]
 3383 0052 AA2A     		cmp	r2, #170
 3384 0054 3DD0     		beq	.L511
 3385 0056 E26A     		ldr	r2, [r4, #44]
 3386 0058 B2F52A4F 		cmp	r2, #43520
 3387 005c 35D0     		beq	.L512
 3388              	.L503:
 3389 005e 628D     		ldrh	r2, [r4, #42]
 3390 0060 92B2     		uxth	r2, r2
 3391 0062 FF2A     		cmp	r2, #255
 3392 0064 2ED8     		bhi	.L507
 3393 0066 E06A     		ldr	r0, [r4, #44]
 3394 0068 1C4E     		ldr	r6, .L513+4
 3395 006a 1D4A     		ldr	r2, .L513+8
 3396              	.L500:
 3397 006c C1F30901 		ubfx	r1, r1, #0, #10
 3398 0070 2568     		ldr	r5, [r4]
 3399 0072 0B43     		orrs	r3, r3, r1
 3400 0074 6968     		ldr	r1, [r5, #4]
 3401 0076 0343     		orrs	r3, r3, r0
 3402 0078 3140     		ands	r1, r1, r6
 3403 007a 0026     		movs	r6, #0
 3404 007c 1343     		orrs	r3, r3, r2
 3405 007e 3046     		mov	r0, r6
 3406 0080 0B43     		orrs	r3, r3, r1
 3407 0082 6B60     		str	r3, [r5, #4]
 3408 0084 84F84060 		strb	r6, [r4, #64]
 3409 0088 2B68     		ldr	r3, [r5]
 3410 008a 43F0F203 		orr	r3, r3, #242
 3411 008e 2B60     		str	r3, [r5]
 3412 0090 70BC     		pop	{r4, r5, r6}
 3413 0092 7047     		bx	lr
 3414              	.L509:
 3415 0094 FF22     		movs	r2, #255
 3416 0096 4FF47F03 		mov	r3, #16711680
 3417 009a 4FF08070 		mov	r0, #16777216
 3418 009e 2285     		strh	r2, [r4, #40]	@ movhi
 3419 00a0 226B     		ldr	r2, [r4, #48]
 3420 00a2 112A     		cmp	r2, #17
 3421 00a4 D4D1     		bne	.L499
 3422              	.L510:
 3423 00a6 039A     		ldr	r2, [sp, #12]
 3424 00a8 AA2A     		cmp	r2, #170
ARM GAS  C:\Users\Brandon\AppData\Local\Temp\ccohPh8d.s 			page 60


 3425 00aa D1D0     		beq	.L499
 3426 00ac A2F52A42 		sub	r2, r2, #43520
 3427 00b0 B2FA82F2 		clz	r2, r2
 3428 00b4 5209     		lsrs	r2, r2, #5
 3429 00b6 002A     		cmp	r2, #0
 3430 00b8 CAD1     		bne	.L499
 3431 00ba 0A4E     		ldr	r6, .L513+12
 3432 00bc D6E7     		b	.L500
 3433              	.L505:
 3434 00be 0220     		movs	r0, #2
 3435 00c0 70BC     		pop	{r4, r5, r6}
 3436 00c2 7047     		bx	lr
 3437              	.L507:
 3438 00c4 054E     		ldr	r6, .L513+4
 3439 00c6 064A     		ldr	r2, .L513+8
 3440 00c8 D0E7     		b	.L500
 3441              	.L512:
 3442 00ca 4FF00072 		mov	r2, #33554432
 3443 00ce E262     		str	r2, [r4, #44]
 3444 00d0 C5E7     		b	.L503
 3445              	.L511:
 3446 00d2 0022     		movs	r2, #0
 3447 00d4 E262     		str	r2, [r4, #44]
 3448 00d6 C2E7     		b	.L503
 3449              	.L514:
 3450              		.align	2
 3451              	.L513:
 3452 00d8 00000000 		.word	I2C_Master_ISR_IT
 3453 00dc 009800FC 		.word	-67069952
 3454 00e0 00200080 		.word	-2147475456
 3455 00e4 009C00FC 		.word	-67068928
 3457              		.section	.text.HAL_I2C_Master_Seq_Transmit_DMA,"ax",%progbits
 3458              		.align	1
 3459              		.p2align 2,,3
 3460              		.global	HAL_I2C_Master_Seq_Transmit_DMA
 3461              		.syntax unified
 3462              		.thumb
 3463              		.thumb_func
 3464              		.fpu fpv5-d16
 3466              	HAL_I2C_Master_Seq_Transmit_DMA:
 3467              		@ args = 4, pretend = 0, frame = 0
 3468              		@ frame_needed = 0, uses_anonymous_args = 0
 3469 0000 2DE9F843 		push	{r3, r4, r5, r6, r7, r8, r9, lr}
 3470 0004 0D46     		mov	r5, r1
 3471 0006 90F84110 		ldrb	r1, [r0, #65]	@ zero_extendqisi2
 3472 000a 2029     		cmp	r1, #32
 3473 000c 40F0A580 		bne	.L530
 3474 0010 90F84010 		ldrb	r1, [r0, #64]	@ zero_extendqisi2
 3475 0014 0446     		mov	r4, r0
 3476 0016 0129     		cmp	r1, #1
 3477 0018 00F09F80 		beq	.L530
 3478 001c 1021     		movs	r1, #16
 3479 001e 2126     		movs	r6, #33
 3480 0020 0020     		movs	r0, #0
 3481 0022 614F     		ldr	r7, .L542
 3482 0024 84F84160 		strb	r6, [r4, #65]
 3483 0028 84F84210 		strb	r1, [r4, #66]
ARM GAS  C:\Users\Brandon\AppData\Local\Temp\ccohPh8d.s 			page 61


 3484 002c 0121     		movs	r1, #1
 3485 002e 6064     		str	r0, [r4, #68]
 3486 0030 6385     		strh	r3, [r4, #42]	@ movhi
 3487 0032 089B     		ldr	r3, [sp, #32]
 3488 0034 6262     		str	r2, [r4, #36]
 3489 0036 E362     		str	r3, [r4, #44]
 3490 0038 638D     		ldrh	r3, [r4, #42]
 3491 003a 84F84010 		strb	r1, [r4, #64]
 3492 003e 9BB2     		uxth	r3, r3
 3493 0040 6763     		str	r7, [r4, #52]
 3494 0042 FF2B     		cmp	r3, #255
 3495 0044 61D8     		bhi	.L537
 3496 0046 638D     		ldrh	r3, [r4, #42]
 3497 0048 D4F82C90 		ldr	r9, [r4, #44]
 3498 004c 216B     		ldr	r1, [r4, #48]
 3499 004e 9BB2     		uxth	r3, r3
 3500 0050 1129     		cmp	r1, #17
 3501 0052 2385     		strh	r3, [r4, #40]	@ movhi
 3502 0054 60D0     		beq	.L538
 3503              	.L519:
 3504 0056 E16A     		ldr	r1, [r4, #44]
 3505 0058 AA29     		cmp	r1, #170
 3506 005a 00F09180 		beq	.L539
 3507 005e E16A     		ldr	r1, [r4, #44]
 3508 0060 B1F52A4F 		cmp	r1, #43520
 3509 0064 02D1     		bne	.L523
 3510 0066 4FF00071 		mov	r1, #33554432
 3511 006a E162     		str	r1, [r4, #44]
 3512              	.L523:
 3513 006c 618D     		ldrh	r1, [r4, #42]
 3514 006e 89B2     		uxth	r1, r1
 3515 0070 FF29     		cmp	r1, #255
 3516 0072 75D8     		bhi	.L532
 3517 0074 D4F82C90 		ldr	r9, [r4, #44]
 3518 0078 4C4E     		ldr	r6, .L542+4
 3519              	.L520:
 3520 007a 002B     		cmp	r3, #0
 3521 007c 58D0     		beq	.L524
 3522              	.L541:
 3523 007e D4F838C0 		ldr	ip, [r4, #56]
 3524 0082 BCF1000F 		cmp	ip, #0
 3525 0086 7ED0     		beq	.L525
 3526 0088 4FF00008 		mov	r8, #0
 3527 008c 4848     		ldr	r0, .L542+8
 3528 008e DFF834E1 		ldr	lr, .L542+28
 3529 0092 1146     		mov	r1, r2
 3530 0094 2268     		ldr	r2, [r4]
 3531 0096 CCF83CE0 		str	lr, [ip, #60]
 3532 009a CCF84C00 		str	r0, [ip, #76]
 3533 009e 2832     		adds	r2, r2, #40
 3534 00a0 6046     		mov	r0, ip
 3535 00a2 CCF84080 		str	r8, [ip, #64]
 3536 00a6 CCF85080 		str	r8, [ip, #80]
 3537 00aa FFF7FEFF 		bl	HAL_DMA_Start_IT
 3538 00ae 0028     		cmp	r0, #0
 3539 00b0 58D1     		bne	.L540
 3540 00b2 218D     		ldrh	r1, [r4, #40]
ARM GAS  C:\Users\Brandon\AppData\Local\Temp\ccohPh8d.s 			page 62


 3541 00b4 C5F30905 		ubfx	r5, r5, #0, #10
 3542 00b8 2368     		ldr	r3, [r4]
 3543 00ba CAB2     		uxtb	r2, r1
 3544 00bc DFF808C1 		ldr	ip, .L542+32
 3545 00c0 45EA0245 		orr	r5, r5, r2, lsl #16
 3546 00c4 5A68     		ldr	r2, [r3, #4]
 3547 00c6 4CEA565C 		orr	ip, ip, r6, lsr #21
 3548 00ca 45EA0909 		orr	r9, r5, r9
 3549 00ce 656B     		ldr	r5, [r4, #52]
 3550 00d0 22EA0C02 		bic	r2, r2, ip
 3551 00d4 49EA0606 		orr	r6, r9, r6
 3552 00d8 BD42     		cmp	r5, r7
 3553 00da 46EA0206 		orr	r6, r6, r2
 3554 00de 5E60     		str	r6, [r3, #4]
 3555 00e0 628D     		ldrh	r2, [r4, #42]
 3556 00e2 84F84000 		strb	r0, [r4, #64]
 3557 00e6 A2EB0102 		sub	r2, r2, r1
 3558 00ea 92B2     		uxth	r2, r2
 3559 00ec 6285     		strh	r2, [r4, #42]	@ movhi
 3560 00ee 58D0     		beq	.L533
 3561 00f0 304A     		ldr	r2, .L542+12
 3562 00f2 9542     		cmp	r5, r2
 3563 00f4 55D0     		beq	.L533
 3564 00f6 0146     		mov	r1, r0
 3565              	.L528:
 3566 00f8 1A68     		ldr	r2, [r3]
 3567 00fa 0A43     		orrs	r2, r2, r1
 3568 00fc 1A60     		str	r2, [r3]
 3569 00fe 1A68     		ldr	r2, [r3]
 3570 0100 42F48042 		orr	r2, r2, #16384
 3571 0104 1A60     		str	r2, [r3]
 3572 0106 BDE8F883 		pop	{r3, r4, r5, r6, r7, r8, r9, pc}
 3573              	.L537:
 3574 010a 216B     		ldr	r1, [r4, #48]
 3575 010c FF23     		movs	r3, #255
 3576 010e 4FF08079 		mov	r9, #16777216
 3577 0112 1129     		cmp	r1, #17
 3578 0114 2385     		strh	r3, [r4, #40]	@ movhi
 3579 0116 9ED1     		bne	.L519
 3580              	.L538:
 3581 0118 0899     		ldr	r1, [sp, #32]
 3582 011a AA29     		cmp	r1, #170
 3583 011c 9BD0     		beq	.L519
 3584 011e A1F52A46 		sub	r6, r1, #43520
 3585 0122 B6FA86F6 		clz	r6, r6
 3586 0126 7609     		lsrs	r6, r6, #5
 3587 0128 002E     		cmp	r6, #0
 3588 012a 94D1     		bne	.L519
 3589 012c 002B     		cmp	r3, #0
 3590 012e A6D1     		bne	.L541
 3591              	.L524:
 3592 0130 2168     		ldr	r1, [r4]
 3593 0132 C5F30905 		ubfx	r5, r5, #0, #10
 3594 0136 204E     		ldr	r6, .L542+16
 3595 0138 1846     		mov	r0, r3
 3596 013a 4A68     		ldr	r2, [r1, #4]
 3597 013c 3240     		ands	r2, r2, r6
ARM GAS  C:\Users\Brandon\AppData\Local\Temp\ccohPh8d.s 			page 63


 3598 013e 1F4E     		ldr	r6, .L542+20
 3599 0140 1543     		orrs	r5, r5, r2
 3600 0142 1F4A     		ldr	r2, .L542+24
 3601 0144 2E43     		orrs	r6, r6, r5
 3602 0146 6263     		str	r2, [r4, #52]
 3603 0148 4E60     		str	r6, [r1, #4]
 3604 014a 84F84030 		strb	r3, [r4, #64]
 3605 014e 0B68     		ldr	r3, [r1]
 3606 0150 43F0F203 		orr	r3, r3, #242
 3607 0154 0B60     		str	r3, [r1]
 3608 0156 BDE8F883 		pop	{r3, r4, r5, r6, r7, r8, r9, pc}
 3609              	.L530:
 3610 015a 0220     		movs	r0, #2
 3611 015c BDE8F883 		pop	{r3, r4, r5, r6, r7, r8, r9, pc}
 3612              	.L532:
 3613 0160 124E     		ldr	r6, .L542+4
 3614 0162 8AE7     		b	.L520
 3615              	.L540:
 3616 0164 2023     		movs	r3, #32
 3617 0166 0120     		movs	r0, #1
 3618 0168 84F84080 		strb	r8, [r4, #64]
 3619 016c 84F84130 		strb	r3, [r4, #65]
 3620 0170 84F84280 		strb	r8, [r4, #66]
 3621 0174 636C     		ldr	r3, [r4, #68]
 3622 0176 43F01003 		orr	r3, r3, #16
 3623 017a 6364     		str	r3, [r4, #68]
 3624 017c BDE8F883 		pop	{r3, r4, r5, r6, r7, r8, r9, pc}
 3625              	.L539:
 3626 0180 0021     		movs	r1, #0
 3627 0182 E162     		str	r1, [r4, #44]
 3628 0184 72E7     		b	.L523
 3629              	.L525:
 3630 0186 2023     		movs	r3, #32
 3631 0188 0120     		movs	r0, #1
 3632 018a 84F840C0 		strb	ip, [r4, #64]
 3633 018e 84F84130 		strb	r3, [r4, #65]
 3634 0192 84F842C0 		strb	ip, [r4, #66]
 3635 0196 636C     		ldr	r3, [r4, #68]
 3636 0198 43F08003 		orr	r3, r3, #128
 3637 019c 6364     		str	r3, [r4, #68]
 3638 019e BDE8F883 		pop	{r3, r4, r5, r6, r7, r8, r9, pc}
 3639              	.L533:
 3640 01a2 9021     		movs	r1, #144
 3641 01a4 A8E7     		b	.L528
 3642              	.L543:
 3643 01a6 00BF     		.align	2
 3644              	.L542:
 3645 01a8 00000000 		.word	I2C_Master_ISR_DMA
 3646 01ac 00200080 		.word	-2147475456
 3647 01b0 00000000 		.word	I2C_DMAError
 3648 01b4 00000000 		.word	I2C_Slave_ISR_DMA
 3649 01b8 009800FC 		.word	-67069952
 3650 01bc 00200082 		.word	-2113921024
 3651 01c0 00000000 		.word	I2C_Master_ISR_IT
 3652 01c4 00000000 		.word	I2C_DMAMasterTransmitCplt
 3653 01c8 FF63FF03 		.word	67068927
 3655              		.section	.text.HAL_I2C_Master_Seq_Receive_IT,"ax",%progbits
ARM GAS  C:\Users\Brandon\AppData\Local\Temp\ccohPh8d.s 			page 64


 3656              		.align	1
 3657              		.p2align 2,,3
 3658              		.global	HAL_I2C_Master_Seq_Receive_IT
 3659              		.syntax unified
 3660              		.thumb
 3661              		.thumb_func
 3662              		.fpu fpv5-d16
 3664              	HAL_I2C_Master_Seq_Receive_IT:
 3665              		@ args = 4, pretend = 0, frame = 0
 3666              		@ frame_needed = 0, uses_anonymous_args = 0
 3667              		@ link register save eliminated.
 3668 0000 70B4     		push	{r4, r5, r6}
 3669 0002 0446     		mov	r4, r0
 3670 0004 90F84100 		ldrb	r0, [r0, #65]	@ zero_extendqisi2
 3671 0008 2028     		cmp	r0, #32
 3672 000a 58D1     		bne	.L554
 3673 000c 94F84000 		ldrb	r0, [r4, #64]	@ zero_extendqisi2
 3674 0010 0128     		cmp	r0, #1
 3675 0012 54D0     		beq	.L554
 3676 0014 2220     		movs	r0, #34
 3677 0016 1026     		movs	r6, #16
 3678 0018 0025     		movs	r5, #0
 3679 001a 6262     		str	r2, [r4, #36]
 3680 001c 84F84100 		strb	r0, [r4, #65]
 3681 0020 0120     		movs	r0, #1
 3682 0022 84F84260 		strb	r6, [r4, #66]
 3683 0026 6564     		str	r5, [r4, #68]
 3684 0028 6385     		strh	r3, [r4, #42]	@ movhi
 3685 002a 039B     		ldr	r3, [sp, #12]
 3686 002c 84F84000 		strb	r0, [r4, #64]
 3687 0030 E362     		str	r3, [r4, #44]
 3688 0032 628D     		ldrh	r2, [r4, #42]
 3689 0034 284B     		ldr	r3, .L562
 3690 0036 92B2     		uxth	r2, r2
 3691 0038 6363     		str	r3, [r4, #52]
 3692 003a FF2A     		cmp	r2, #255
 3693 003c 2AD8     		bhi	.L558
 3694 003e 628D     		ldrh	r2, [r4, #42]
 3695 0040 E06A     		ldr	r0, [r4, #44]
 3696 0042 92B2     		uxth	r2, r2
 3697 0044 D3B2     		uxtb	r3, r2
 3698 0046 2285     		strh	r2, [r4, #40]	@ movhi
 3699 0048 226B     		ldr	r2, [r4, #48]
 3700 004a 1B04     		lsls	r3, r3, #16
 3701 004c 122A     		cmp	r2, #18
 3702 004e 2AD0     		beq	.L559
 3703              	.L548:
 3704 0050 E26A     		ldr	r2, [r4, #44]
 3705 0052 AA2A     		cmp	r2, #170
 3706 0054 3DD0     		beq	.L560
 3707 0056 E26A     		ldr	r2, [r4, #44]
 3708 0058 B2F52A4F 		cmp	r2, #43520
 3709 005c 35D0     		beq	.L561
 3710              	.L552:
 3711 005e 628D     		ldrh	r2, [r4, #42]
 3712 0060 92B2     		uxth	r2, r2
 3713 0062 FF2A     		cmp	r2, #255
ARM GAS  C:\Users\Brandon\AppData\Local\Temp\ccohPh8d.s 			page 65


 3714 0064 2ED8     		bhi	.L556
 3715 0066 E06A     		ldr	r0, [r4, #44]
 3716 0068 1C4E     		ldr	r6, .L562+4
 3717 006a 1D4A     		ldr	r2, .L562+8
 3718              	.L549:
 3719 006c C1F30901 		ubfx	r1, r1, #0, #10
 3720 0070 2568     		ldr	r5, [r4]
 3721 0072 0B43     		orrs	r3, r3, r1
 3722 0074 6968     		ldr	r1, [r5, #4]
 3723 0076 0343     		orrs	r3, r3, r0
 3724 0078 3140     		ands	r1, r1, r6
 3725 007a 0026     		movs	r6, #0
 3726 007c 1343     		orrs	r3, r3, r2
 3727 007e 3046     		mov	r0, r6
 3728 0080 0B43     		orrs	r3, r3, r1
 3729 0082 6B60     		str	r3, [r5, #4]
 3730 0084 84F84060 		strb	r6, [r4, #64]
 3731 0088 2B68     		ldr	r3, [r5]
 3732 008a 43F0F403 		orr	r3, r3, #244
 3733 008e 2B60     		str	r3, [r5]
 3734 0090 70BC     		pop	{r4, r5, r6}
 3735 0092 7047     		bx	lr
 3736              	.L558:
 3737 0094 FF22     		movs	r2, #255
 3738 0096 4FF47F03 		mov	r3, #16711680
 3739 009a 4FF08070 		mov	r0, #16777216
 3740 009e 2285     		strh	r2, [r4, #40]	@ movhi
 3741 00a0 226B     		ldr	r2, [r4, #48]
 3742 00a2 122A     		cmp	r2, #18
 3743 00a4 D4D1     		bne	.L548
 3744              	.L559:
 3745 00a6 039A     		ldr	r2, [sp, #12]
 3746 00a8 AA2A     		cmp	r2, #170
 3747 00aa D1D0     		beq	.L548
 3748 00ac A2F52A42 		sub	r2, r2, #43520
 3749 00b0 B2FA82F2 		clz	r2, r2
 3750 00b4 5209     		lsrs	r2, r2, #5
 3751 00b6 002A     		cmp	r2, #0
 3752 00b8 CAD1     		bne	.L548
 3753 00ba 0A4E     		ldr	r6, .L562+12
 3754 00bc D6E7     		b	.L549
 3755              	.L554:
 3756 00be 0220     		movs	r0, #2
 3757 00c0 70BC     		pop	{r4, r5, r6}
 3758 00c2 7047     		bx	lr
 3759              	.L556:
 3760 00c4 054E     		ldr	r6, .L562+4
 3761 00c6 064A     		ldr	r2, .L562+8
 3762 00c8 D0E7     		b	.L549
 3763              	.L561:
 3764 00ca 4FF00072 		mov	r2, #33554432
 3765 00ce E262     		str	r2, [r4, #44]
 3766 00d0 C5E7     		b	.L552
 3767              	.L560:
 3768 00d2 0022     		movs	r2, #0
 3769 00d4 E262     		str	r2, [r4, #44]
 3770 00d6 C2E7     		b	.L552
ARM GAS  C:\Users\Brandon\AppData\Local\Temp\ccohPh8d.s 			page 66


 3771              	.L563:
 3772              		.align	2
 3773              	.L562:
 3774 00d8 00000000 		.word	I2C_Master_ISR_IT
 3775 00dc 009800FC 		.word	-67069952
 3776 00e0 00240080 		.word	-2147474432
 3777 00e4 009C00FC 		.word	-67068928
 3779              		.section	.text.HAL_I2C_Master_Seq_Receive_DMA,"ax",%progbits
 3780              		.align	1
 3781              		.p2align 2,,3
 3782              		.global	HAL_I2C_Master_Seq_Receive_DMA
 3783              		.syntax unified
 3784              		.thumb
 3785              		.thumb_func
 3786              		.fpu fpv5-d16
 3788              	HAL_I2C_Master_Seq_Receive_DMA:
 3789              		@ args = 4, pretend = 0, frame = 0
 3790              		@ frame_needed = 0, uses_anonymous_args = 0
 3791 0000 2DE9F843 		push	{r3, r4, r5, r6, r7, r8, r9, lr}
 3792 0004 0D46     		mov	r5, r1
 3793 0006 90F84110 		ldrb	r1, [r0, #65]	@ zero_extendqisi2
 3794 000a 2029     		cmp	r1, #32
 3795 000c 40F0A380 		bne	.L579
 3796 0010 90F84010 		ldrb	r1, [r0, #64]	@ zero_extendqisi2
 3797 0014 0446     		mov	r4, r0
 3798 0016 0129     		cmp	r1, #1
 3799 0018 00F09D80 		beq	.L579
 3800 001c 1021     		movs	r1, #16
 3801 001e 2226     		movs	r6, #34
 3802 0020 0020     		movs	r0, #0
 3803 0022 604F     		ldr	r7, .L591
 3804 0024 84F84160 		strb	r6, [r4, #65]
 3805 0028 84F84210 		strb	r1, [r4, #66]
 3806 002c 0121     		movs	r1, #1
 3807 002e 6064     		str	r0, [r4, #68]
 3808 0030 6385     		strh	r3, [r4, #42]	@ movhi
 3809 0032 089B     		ldr	r3, [sp, #32]
 3810 0034 6262     		str	r2, [r4, #36]
 3811 0036 E362     		str	r3, [r4, #44]
 3812 0038 638D     		ldrh	r3, [r4, #42]
 3813 003a 84F84010 		strb	r1, [r4, #64]
 3814 003e 9BB2     		uxth	r3, r3
 3815 0040 6763     		str	r7, [r4, #52]
 3816 0042 FF2B     		cmp	r3, #255
 3817 0044 5FD8     		bhi	.L586
 3818 0046 638D     		ldrh	r3, [r4, #42]
 3819 0048 D4F82C90 		ldr	r9, [r4, #44]
 3820 004c 216B     		ldr	r1, [r4, #48]
 3821 004e 9BB2     		uxth	r3, r3
 3822 0050 1229     		cmp	r1, #18
 3823 0052 2385     		strh	r3, [r4, #40]	@ movhi
 3824 0054 5ED0     		beq	.L587
 3825              	.L568:
 3826 0056 E16A     		ldr	r1, [r4, #44]
 3827 0058 AA29     		cmp	r1, #170
 3828 005a 00F08F80 		beq	.L588
 3829 005e E16A     		ldr	r1, [r4, #44]
ARM GAS  C:\Users\Brandon\AppData\Local\Temp\ccohPh8d.s 			page 67


 3830 0060 B1F52A4F 		cmp	r1, #43520
 3831 0064 02D1     		bne	.L572
 3832 0066 4FF00071 		mov	r1, #33554432
 3833 006a E162     		str	r1, [r4, #44]
 3834              	.L572:
 3835 006c 618D     		ldrh	r1, [r4, #42]
 3836 006e 89B2     		uxth	r1, r1
 3837 0070 FF29     		cmp	r1, #255
 3838 0072 73D8     		bhi	.L581
 3839 0074 D4F82C90 		ldr	r9, [r4, #44]
 3840 0078 4B4E     		ldr	r6, .L591+4
 3841              	.L569:
 3842 007a 002B     		cmp	r3, #0
 3843 007c 56D0     		beq	.L573
 3844              	.L590:
 3845 007e D4F83CC0 		ldr	ip, [r4, #60]
 3846 0082 BCF1000F 		cmp	ip, #0
 3847 0086 7CD0     		beq	.L574
 3848 0088 4849     		ldr	r1, .L591+8
 3849 008a 4FF00008 		mov	r8, #0
 3850 008e 4848     		ldr	r0, .L591+12
 3851 0090 CCF83C10 		str	r1, [ip, #60]
 3852 0094 2168     		ldr	r1, [r4]
 3853 0096 CCF84C00 		str	r0, [ip, #76]
 3854 009a 6046     		mov	r0, ip
 3855 009c 2431     		adds	r1, r1, #36
 3856 009e CCF84080 		str	r8, [ip, #64]
 3857 00a2 CCF85080 		str	r8, [ip, #80]
 3858 00a6 FFF7FEFF 		bl	HAL_DMA_Start_IT
 3859 00aa 0028     		cmp	r0, #0
 3860 00ac 58D1     		bne	.L589
 3861 00ae 218D     		ldrh	r1, [r4, #40]
 3862 00b0 C5F30905 		ubfx	r5, r5, #0, #10
 3863 00b4 2368     		ldr	r3, [r4]
 3864 00b6 CAB2     		uxtb	r2, r1
 3865 00b8 DFF808C1 		ldr	ip, .L591+32
 3866 00bc 45EA0245 		orr	r5, r5, r2, lsl #16
 3867 00c0 5A68     		ldr	r2, [r3, #4]
 3868 00c2 4CEA565C 		orr	ip, ip, r6, lsr #21
 3869 00c6 45EA0909 		orr	r9, r5, r9
 3870 00ca 656B     		ldr	r5, [r4, #52]
 3871 00cc 22EA0C02 		bic	r2, r2, ip
 3872 00d0 49EA0606 		orr	r6, r9, r6
 3873 00d4 BD42     		cmp	r5, r7
 3874 00d6 46EA0206 		orr	r6, r6, r2
 3875 00da 5E60     		str	r6, [r3, #4]
 3876 00dc 628D     		ldrh	r2, [r4, #42]
 3877 00de 84F84000 		strb	r0, [r4, #64]
 3878 00e2 A2EB0102 		sub	r2, r2, r1
 3879 00e6 92B2     		uxth	r2, r2
 3880 00e8 6285     		strh	r2, [r4, #42]	@ movhi
 3881 00ea 58D0     		beq	.L582
 3882 00ec 314A     		ldr	r2, .L591+16
 3883 00ee 9542     		cmp	r5, r2
 3884 00f0 55D0     		beq	.L582
 3885 00f2 0146     		mov	r1, r0
 3886              	.L577:
ARM GAS  C:\Users\Brandon\AppData\Local\Temp\ccohPh8d.s 			page 68


 3887 00f4 1A68     		ldr	r2, [r3]
 3888 00f6 0A43     		orrs	r2, r2, r1
 3889 00f8 1A60     		str	r2, [r3]
 3890 00fa 1A68     		ldr	r2, [r3]
 3891 00fc 42F40042 		orr	r2, r2, #32768
 3892 0100 1A60     		str	r2, [r3]
 3893 0102 BDE8F883 		pop	{r3, r4, r5, r6, r7, r8, r9, pc}
 3894              	.L586:
 3895 0106 216B     		ldr	r1, [r4, #48]
 3896 0108 FF23     		movs	r3, #255
 3897 010a 4FF08079 		mov	r9, #16777216
 3898 010e 1229     		cmp	r1, #18
 3899 0110 2385     		strh	r3, [r4, #40]	@ movhi
 3900 0112 A0D1     		bne	.L568
 3901              	.L587:
 3902 0114 0899     		ldr	r1, [sp, #32]
 3903 0116 AA29     		cmp	r1, #170
 3904 0118 9DD0     		beq	.L568
 3905 011a A1F52A46 		sub	r6, r1, #43520
 3906 011e B6FA86F6 		clz	r6, r6
 3907 0122 7609     		lsrs	r6, r6, #5
 3908 0124 002E     		cmp	r6, #0
 3909 0126 96D1     		bne	.L568
 3910 0128 002B     		cmp	r3, #0
 3911 012a A8D1     		bne	.L590
 3912              	.L573:
 3913 012c 2168     		ldr	r1, [r4]
 3914 012e C5F30905 		ubfx	r5, r5, #0, #10
 3915 0132 214E     		ldr	r6, .L591+20
 3916 0134 1846     		mov	r0, r3
 3917 0136 4A68     		ldr	r2, [r1, #4]
 3918 0138 3240     		ands	r2, r2, r6
 3919 013a 204E     		ldr	r6, .L591+24
 3920 013c 1543     		orrs	r5, r5, r2
 3921 013e 204A     		ldr	r2, .L591+28
 3922 0140 2E43     		orrs	r6, r6, r5
 3923 0142 6263     		str	r2, [r4, #52]
 3924 0144 4E60     		str	r6, [r1, #4]
 3925 0146 84F84030 		strb	r3, [r4, #64]
 3926 014a 0B68     		ldr	r3, [r1]
 3927 014c 43F0F203 		orr	r3, r3, #242
 3928 0150 0B60     		str	r3, [r1]
 3929 0152 BDE8F883 		pop	{r3, r4, r5, r6, r7, r8, r9, pc}
 3930              	.L579:
 3931 0156 0220     		movs	r0, #2
 3932 0158 BDE8F883 		pop	{r3, r4, r5, r6, r7, r8, r9, pc}
 3933              	.L581:
 3934 015c 124E     		ldr	r6, .L591+4
 3935 015e 8CE7     		b	.L569
 3936              	.L589:
 3937 0160 2023     		movs	r3, #32
 3938 0162 0120     		movs	r0, #1
 3939 0164 84F84080 		strb	r8, [r4, #64]
 3940 0168 84F84130 		strb	r3, [r4, #65]
 3941 016c 84F84280 		strb	r8, [r4, #66]
 3942 0170 636C     		ldr	r3, [r4, #68]
 3943 0172 43F01003 		orr	r3, r3, #16
ARM GAS  C:\Users\Brandon\AppData\Local\Temp\ccohPh8d.s 			page 69


 3944 0176 6364     		str	r3, [r4, #68]
 3945 0178 BDE8F883 		pop	{r3, r4, r5, r6, r7, r8, r9, pc}
 3946              	.L588:
 3947 017c 0021     		movs	r1, #0
 3948 017e E162     		str	r1, [r4, #44]
 3949 0180 74E7     		b	.L572
 3950              	.L574:
 3951 0182 2023     		movs	r3, #32
 3952 0184 0120     		movs	r0, #1
 3953 0186 84F840C0 		strb	ip, [r4, #64]
 3954 018a 84F84130 		strb	r3, [r4, #65]
 3955 018e 84F842C0 		strb	ip, [r4, #66]
 3956 0192 636C     		ldr	r3, [r4, #68]
 3957 0194 43F08003 		orr	r3, r3, #128
 3958 0198 6364     		str	r3, [r4, #68]
 3959 019a BDE8F883 		pop	{r3, r4, r5, r6, r7, r8, r9, pc}
 3960              	.L582:
 3961 019e 9021     		movs	r1, #144
 3962 01a0 A8E7     		b	.L577
 3963              	.L592:
 3964 01a2 00BF     		.align	2
 3965              	.L591:
 3966 01a4 00000000 		.word	I2C_Master_ISR_DMA
 3967 01a8 00240080 		.word	-2147474432
 3968 01ac 00000000 		.word	I2C_DMAMasterReceiveCplt
 3969 01b0 00000000 		.word	I2C_DMAError
 3970 01b4 00000000 		.word	I2C_Slave_ISR_DMA
 3971 01b8 009800FC 		.word	-67069952
 3972 01bc 00240082 		.word	-2113920000
 3973 01c0 00000000 		.word	I2C_Master_ISR_IT
 3974 01c4 FF63FF03 		.word	67068927
 3976              		.section	.text.HAL_I2C_Slave_Seq_Transmit_IT,"ax",%progbits
 3977              		.align	1
 3978              		.p2align 2,,3
 3979              		.global	HAL_I2C_Slave_Seq_Transmit_IT
 3980              		.syntax unified
 3981              		.thumb
 3982              		.thumb_func
 3983              		.fpu fpv5-d16
 3985              	HAL_I2C_Slave_Seq_Transmit_IT:
 3986              		@ args = 0, pretend = 0, frame = 16
 3987              		@ frame_needed = 0, uses_anonymous_args = 0
 3988 0000 F0B5     		push	{r4, r5, r6, r7, lr}
 3989 0002 0446     		mov	r4, r0
 3990 0004 90F84100 		ldrb	r0, [r0, #65]	@ zero_extendqisi2
 3991 0008 85B0     		sub	sp, sp, #20
 3992 000a 00F02800 		and	r0, r0, #40
 3993 000e 2828     		cmp	r0, #40
 3994 0010 36D1     		bne	.L601
 3995 0012 0029     		cmp	r1, #0
 3996 0014 5BD0     		beq	.L604
 3997 0016 002A     		cmp	r2, #0
 3998 0018 59D0     		beq	.L604
 3999 001a 2568     		ldr	r5, [r4]
 4000 001c 94F84100 		ldrb	r0, [r4, #65]	@ zero_extendqisi2
 4001 0020 2868     		ldr	r0, [r5]
 4002 0022 20F0FA00 		bic	r0, r0, #250
ARM GAS  C:\Users\Brandon\AppData\Local\Temp\ccohPh8d.s 			page 70


 4003 0026 2860     		str	r0, [r5]
 4004 0028 94F84000 		ldrb	r0, [r4, #64]	@ zero_extendqisi2
 4005 002c 0128     		cmp	r0, #1
 4006 002e 54D0     		beq	.L602
 4007 0030 94F84100 		ldrb	r0, [r4, #65]	@ zero_extendqisi2
 4008 0034 0126     		movs	r6, #1
 4009 0036 2A28     		cmp	r0, #42
 4010 0038 84F84060 		strb	r6, [r4, #64]
 4011 003c 23D0     		beq	.L615
 4012              	.L597:
 4013 003e 2026     		movs	r6, #32
 4014 0040 0020     		movs	r0, #0
 4015 0042 2927     		movs	r7, #41
 4016 0044 84F84170 		strb	r7, [r4, #65]
 4017 0048 84F84260 		strb	r6, [r4, #66]
 4018 004c 6064     		str	r0, [r4, #68]
 4019 004e 6868     		ldr	r0, [r5, #4]
 4020 0050 284E     		ldr	r6, .L616
 4021 0052 20F40040 		bic	r0, r0, #32768
 4022 0056 6860     		str	r0, [r5, #4]
 4023 0058 6285     		strh	r2, [r4, #42]	@ movhi
 4024 005a 628D     		ldrh	r2, [r4, #42]
 4025 005c E362     		str	r3, [r4, #44]
 4026 005e AB69     		ldr	r3, [r5, #24]
 4027 0060 6162     		str	r1, [r4, #36]
 4028 0062 DB03     		lsls	r3, r3, #15
 4029 0064 2285     		strh	r2, [r4, #40]	@ movhi
 4030 0066 6663     		str	r6, [r4, #52]
 4031 0068 01D5     		bpl	.L600
 4032 006a 0823     		movs	r3, #8
 4033 006c EB61     		str	r3, [r5, #28]
 4034              	.L600:
 4035 006e 0020     		movs	r0, #0
 4036 0070 84F84000 		strb	r0, [r4, #64]
 4037 0074 2B68     		ldr	r3, [r5]
 4038 0076 43F0FA03 		orr	r3, r3, #250
 4039 007a 2B60     		str	r3, [r5]
 4040 007c 05B0     		add	sp, sp, #20
 4041              		@ sp needed
 4042 007e F0BD     		pop	{r4, r5, r6, r7, pc}
 4043              	.L601:
 4044 0080 0120     		movs	r0, #1
 4045              	.L594:
 4046 0082 05B0     		add	sp, sp, #20
 4047              		@ sp needed
 4048 0084 F0BD     		pop	{r4, r5, r6, r7, pc}
 4049              	.L615:
 4050 0086 94F84160 		ldrb	r6, [r4, #65]	@ zero_extendqisi2
 4051 008a 2868     		ldr	r0, [r5]
 4052 008c 06F02806 		and	r6, r6, #40
 4053 0090 282E     		cmp	r6, #40
 4054 0092 0CBF     		ite	eq
 4055 0094 6FF04406 		mvneq	r6, #68
 4056 0098 6FF0F406 		mvnne	r6, #244
 4057 009c 3040     		ands	r0, r0, r6
 4058 009e 2860     		str	r0, [r5]
 4059 00a0 2868     		ldr	r0, [r5]
ARM GAS  C:\Users\Brandon\AppData\Local\Temp\ccohPh8d.s 			page 71


 4060 00a2 0004     		lsls	r0, r0, #16
 4061 00a4 CBD5     		bpl	.L597
 4062 00a6 2E68     		ldr	r6, [r5]
 4063 00a8 E06B     		ldr	r0, [r4, #60]
 4064 00aa 26F40046 		bic	r6, r6, #32768
 4065 00ae 2E60     		str	r6, [r5]
 4066 00b0 0028     		cmp	r0, #0
 4067 00b2 C4D0     		beq	.L597
 4068 00b4 104D     		ldr	r5, .L616+4
 4069 00b6 0191     		str	r1, [sp, #4]
 4070 00b8 0565     		str	r5, [r0, #80]
 4071 00ba CDE90223 		strd	r2, r3, [sp, #8]
 4072 00be FFF7FEFF 		bl	HAL_DMA_Abort_IT
 4073 00c2 039B     		ldr	r3, [sp, #12]
 4074 00c4 DDE90112 		ldrd	r1, r2, [sp, #4]
 4075 00c8 48B9     		cbnz	r0, .L599
 4076 00ca 2568     		ldr	r5, [r4]
 4077 00cc B7E7     		b	.L597
 4078              	.L604:
 4079 00ce 4FF40073 		mov	r3, #512
 4080 00d2 0120     		movs	r0, #1
 4081 00d4 6364     		str	r3, [r4, #68]
 4082 00d6 05B0     		add	sp, sp, #20
 4083              		@ sp needed
 4084 00d8 F0BD     		pop	{r4, r5, r6, r7, pc}
 4085              	.L602:
 4086 00da 0220     		movs	r0, #2
 4087 00dc D1E7     		b	.L594
 4088              	.L599:
 4089 00de E06B     		ldr	r0, [r4, #60]
 4090 00e0 0191     		str	r1, [sp, #4]
 4091 00e2 056D     		ldr	r5, [r0, #80]
 4092 00e4 CDE90223 		strd	r2, r3, [sp, #8]
 4093 00e8 A847     		blx	r5
 4094 00ea 2568     		ldr	r5, [r4]
 4095 00ec 0199     		ldr	r1, [sp, #4]
 4096 00ee DDE90223 		ldrd	r2, r3, [sp, #8]
 4097 00f2 A4E7     		b	.L597
 4098              	.L617:
 4099              		.align	2
 4100              	.L616:
 4101 00f4 00000000 		.word	I2C_Slave_ISR_IT
 4102 00f8 00000000 		.word	I2C_DMAAbort
 4104              		.section	.text.HAL_I2C_Slave_Seq_Transmit_DMA,"ax",%progbits
 4105              		.align	1
 4106              		.p2align 2,,3
 4107              		.global	HAL_I2C_Slave_Seq_Transmit_DMA
 4108              		.syntax unified
 4109              		.thumb
 4110              		.thumb_func
 4111              		.fpu fpv5-d16
 4113              	HAL_I2C_Slave_Seq_Transmit_DMA:
 4114              		@ args = 0, pretend = 0, frame = 16
 4115              		@ frame_needed = 0, uses_anonymous_args = 0
 4116 0000 F0B5     		push	{r4, r5, r6, r7, lr}
 4117 0002 0446     		mov	r4, r0
 4118 0004 90F84100 		ldrb	r0, [r0, #65]	@ zero_extendqisi2
ARM GAS  C:\Users\Brandon\AppData\Local\Temp\ccohPh8d.s 			page 72


 4119 0008 85B0     		sub	sp, sp, #20
 4120 000a 00F02800 		and	r0, r0, #40
 4121 000e 2828     		cmp	r0, #40
 4122 0010 5FD1     		bne	.L637
 4123 0012 0029     		cmp	r1, #0
 4124 0014 00F08F80 		beq	.L640
 4125 0018 002A     		cmp	r2, #0
 4126 001a 00F08C80 		beq	.L640
 4127 001e 94F84000 		ldrb	r0, [r4, #64]	@ zero_extendqisi2
 4128 0022 0128     		cmp	r0, #1
 4129 0024 00F0DB80 		beq	.L638
 4130 0028 0120     		movs	r0, #1
 4131 002a 2568     		ldr	r5, [r4]
 4132 002c 94F84160 		ldrb	r6, [r4, #65]	@ zero_extendqisi2
 4133 0030 84F84000 		strb	r0, [r4, #64]
 4134 0034 2868     		ldr	r0, [r5]
 4135 0036 20F0FA00 		bic	r0, r0, #250
 4136 003a 2860     		str	r0, [r5]
 4137 003c 94F84100 		ldrb	r0, [r4, #65]	@ zero_extendqisi2
 4138 0040 2A28     		cmp	r0, #42
 4139 0042 49D0     		beq	.L650
 4140 0044 94F84100 		ldrb	r0, [r4, #65]	@ zero_extendqisi2
 4141 0048 2928     		cmp	r0, #41
 4142 004a C6B2     		uxtb	r6, r0
 4143 004c 00F0A580 		beq	.L628
 4144              	.L648:
 4145 0050 A06B     		ldr	r0, [r4, #56]
 4146              	.L625:
 4147 0052 4FF0290C 		mov	ip, #41
 4148 0056 2027     		movs	r7, #32
 4149 0058 0026     		movs	r6, #0
 4150 005a 84F841C0 		strb	ip, [r4, #65]
 4151 005e 84F84270 		strb	r7, [r4, #66]
 4152 0062 6664     		str	r6, [r4, #68]
 4153 0064 6F68     		ldr	r7, [r5, #4]
 4154 0066 DFF888C1 		ldr	ip, .L652+8
 4155 006a 27F40047 		bic	r7, r7, #32768
 4156 006e 6F60     		str	r7, [r5, #4]
 4157 0070 6285     		strh	r2, [r4, #42]	@ movhi
 4158 0072 628D     		ldrh	r2, [r4, #42]
 4159 0074 6162     		str	r1, [r4, #36]
 4160 0076 92B2     		uxth	r2, r2
 4161 0078 E362     		str	r3, [r4, #44]
 4162 007a C4F834C0 		str	ip, [r4, #52]
 4163 007e 2285     		strh	r2, [r4, #40]	@ movhi
 4164 0080 0028     		cmp	r0, #0
 4165 0082 7CD0     		beq	.L632
 4166 0084 DFF86CC1 		ldr	ip, .L652+12
 4167 0088 1346     		mov	r3, r2
 4168 008a 574F     		ldr	r7, .L652
 4169 008c 05F12802 		add	r2, r5, #40
 4170 0090 0664     		str	r6, [r0, #64]
 4171 0092 0665     		str	r6, [r0, #80]
 4172 0094 C0F83CC0 		str	ip, [r0, #60]
 4173 0098 C764     		str	r7, [r0, #76]
 4174 009a FFF7FEFF 		bl	HAL_DMA_Start_IT
 4175 009e 0028     		cmp	r0, #0
ARM GAS  C:\Users\Brandon\AppData\Local\Temp\ccohPh8d.s 			page 73


 4176 00a0 4FD1     		bne	.L651
 4177 00a2 628D     		ldrh	r2, [r4, #42]
 4178 00a4 218D     		ldrh	r1, [r4, #40]
 4179 00a6 2368     		ldr	r3, [r4]
 4180 00a8 521A     		subs	r2, r2, r1
 4181 00aa 2085     		strh	r0, [r4, #40]	@ movhi
 4182 00ac 92B2     		uxth	r2, r2
 4183 00ae 6285     		strh	r2, [r4, #42]	@ movhi
 4184 00b0 9A69     		ldr	r2, [r3, #24]
 4185 00b2 D203     		lsls	r2, r2, #15
 4186 00b4 01D5     		bpl	.L636
 4187 00b6 0822     		movs	r2, #8
 4188 00b8 DA61     		str	r2, [r3, #28]
 4189              	.L636:
 4190 00ba 0022     		movs	r2, #0
 4191 00bc 84F84020 		strb	r2, [r4, #64]
 4192 00c0 1A68     		ldr	r2, [r3]
 4193 00c2 42F0B802 		orr	r2, r2, #184
 4194 00c6 1A60     		str	r2, [r3]
 4195 00c8 1A68     		ldr	r2, [r3]
 4196 00ca 42F48042 		orr	r2, r2, #16384
 4197 00ce 1A60     		str	r2, [r3]
 4198 00d0 00E0     		b	.L644
 4199              	.L637:
 4200 00d2 0120     		movs	r0, #1
 4201              	.L644:
 4202 00d4 05B0     		add	sp, sp, #20
 4203              		@ sp needed
 4204 00d6 F0BD     		pop	{r4, r5, r6, r7, pc}
 4205              	.L650:
 4206 00d8 94F84160 		ldrb	r6, [r4, #65]	@ zero_extendqisi2
 4207 00dc 2868     		ldr	r0, [r5]
 4208 00de 06F02806 		and	r6, r6, #40
 4209 00e2 282E     		cmp	r6, #40
 4210 00e4 0CBF     		ite	eq
 4211 00e6 6FF04406 		mvneq	r6, #68
 4212 00ea 6FF0F406 		mvnne	r6, #244
 4213 00ee 3040     		ands	r0, r0, r6
 4214 00f0 2860     		str	r0, [r5]
 4215 00f2 2868     		ldr	r0, [r5]
 4216 00f4 0604     		lsls	r6, r0, #16
 4217 00f6 ABD5     		bpl	.L648
 4218 00f8 E06B     		ldr	r0, [r4, #60]
 4219 00fa 0028     		cmp	r0, #0
 4220 00fc A8D0     		beq	.L648
 4221 00fe 2E68     		ldr	r6, [r5]
 4222 0100 3A4F     		ldr	r7, .L652+4
 4223 0102 26F40046 		bic	r6, r6, #32768
 4224 0106 0191     		str	r1, [sp, #4]
 4225 0108 2E60     		str	r6, [r5]
 4226 010a 0765     		str	r7, [r0, #80]
 4227 010c CDE90223 		strd	r2, r3, [sp, #8]
 4228 0110 FFF7FEFF 		bl	HAL_DMA_Abort_IT
 4229 0114 039B     		ldr	r3, [sp, #12]
 4230 0116 DDE90112 		ldrd	r1, r2, [sp, #4]
 4231 011a 0028     		cmp	r0, #0
 4232 011c 61D0     		beq	.L649
ARM GAS  C:\Users\Brandon\AppData\Local\Temp\ccohPh8d.s 			page 74


 4233 011e E06B     		ldr	r0, [r4, #60]
 4234 0120 0191     		str	r1, [sp, #4]
 4235 0122 056D     		ldr	r5, [r0, #80]
 4236 0124 CDE90223 		strd	r2, r3, [sp, #8]
 4237 0128 A847     		blx	r5
 4238 012a 2568     		ldr	r5, [r4]
 4239 012c A06B     		ldr	r0, [r4, #56]
 4240 012e 039B     		ldr	r3, [sp, #12]
 4241 0130 DDE90112 		ldrd	r1, r2, [sp, #4]
 4242 0134 8DE7     		b	.L625
 4243              	.L640:
 4244 0136 4FF40073 		mov	r3, #512
 4245 013a 0120     		movs	r0, #1
 4246 013c 6364     		str	r3, [r4, #68]
 4247 013e 05B0     		add	sp, sp, #20
 4248              		@ sp needed
 4249 0140 F0BD     		pop	{r4, r5, r6, r7, pc}
 4250              	.L651:
 4251 0142 2823     		movs	r3, #40
 4252 0144 0120     		movs	r0, #1
 4253 0146 84F84060 		strb	r6, [r4, #64]
 4254 014a 84F84130 		strb	r3, [r4, #65]
 4255 014e 84F84260 		strb	r6, [r4, #66]
 4256 0152 636C     		ldr	r3, [r4, #68]
 4257 0154 43F01003 		orr	r3, r3, #16
 4258 0158 6364     		str	r3, [r4, #68]
 4259 015a BBE7     		b	.L644
 4260              	.L630:
 4261 015c 2027     		movs	r7, #32
 4262 015e 84F84160 		strb	r6, [r4, #65]
 4263 0162 234E     		ldr	r6, .L652+8
 4264 0164 84F84270 		strb	r7, [r4, #66]
 4265 0168 6064     		str	r0, [r4, #68]
 4266 016a 6868     		ldr	r0, [r5, #4]
 4267 016c 20F40040 		bic	r0, r0, #32768
 4268 0170 6860     		str	r0, [r5, #4]
 4269 0172 6285     		strh	r2, [r4, #42]	@ movhi
 4270 0174 628D     		ldrh	r2, [r4, #42]
 4271 0176 6162     		str	r1, [r4, #36]
 4272 0178 2285     		strh	r2, [r4, #40]	@ movhi
 4273 017a E362     		str	r3, [r4, #44]
 4274 017c 6663     		str	r6, [r4, #52]
 4275              	.L632:
 4276 017e 2823     		movs	r3, #40
 4277 0180 0022     		movs	r2, #0
 4278 0182 0120     		movs	r0, #1
 4279 0184 84F84130 		strb	r3, [r4, #65]
 4280 0188 84F84220 		strb	r2, [r4, #66]
 4281 018c 636C     		ldr	r3, [r4, #68]
 4282 018e 84F84020 		strb	r2, [r4, #64]
 4283 0192 43F08003 		orr	r3, r3, #128
 4284 0196 6364     		str	r3, [r4, #68]
 4285 0198 9CE7     		b	.L644
 4286              	.L628:
 4287 019a 2868     		ldr	r0, [r5]
 4288 019c 4004     		lsls	r0, r0, #17
 4289 019e 7FF557AF 		bpl	.L648
ARM GAS  C:\Users\Brandon\AppData\Local\Temp\ccohPh8d.s 			page 75


 4290 01a2 2F68     		ldr	r7, [r5]
 4291 01a4 A06B     		ldr	r0, [r4, #56]
 4292 01a6 27F48047 		bic	r7, r7, #16384
 4293 01aa 2F60     		str	r7, [r5]
 4294 01ac 0028     		cmp	r0, #0
 4295 01ae D5D0     		beq	.L630
 4296 01b0 0E4D     		ldr	r5, .L652+4
 4297 01b2 0191     		str	r1, [sp, #4]
 4298 01b4 0565     		str	r5, [r0, #80]
 4299 01b6 CDE90223 		strd	r2, r3, [sp, #8]
 4300 01ba FFF7FEFF 		bl	HAL_DMA_Abort_IT
 4301 01be 039B     		ldr	r3, [sp, #12]
 4302 01c0 DDE90112 		ldrd	r1, r2, [sp, #4]
 4303 01c4 68B1     		cbz	r0, .L649
 4304 01c6 A06B     		ldr	r0, [r4, #56]
 4305 01c8 0191     		str	r1, [sp, #4]
 4306 01ca 056D     		ldr	r5, [r0, #80]
 4307 01cc CDE90223 		strd	r2, r3, [sp, #8]
 4308 01d0 A847     		blx	r5
 4309 01d2 2568     		ldr	r5, [r4]
 4310 01d4 A06B     		ldr	r0, [r4, #56]
 4311 01d6 0199     		ldr	r1, [sp, #4]
 4312 01d8 DDE90223 		ldrd	r2, r3, [sp, #8]
 4313 01dc 39E7     		b	.L625
 4314              	.L638:
 4315 01de 0220     		movs	r0, #2
 4316 01e0 78E7     		b	.L644
 4317              	.L649:
 4318 01e2 2568     		ldr	r5, [r4]
 4319 01e4 34E7     		b	.L648
 4320              	.L653:
 4321 01e6 00BF     		.align	2
 4322              	.L652:
 4323 01e8 00000000 		.word	I2C_DMAError
 4324 01ec 00000000 		.word	I2C_DMAAbort
 4325 01f0 00000000 		.word	I2C_Slave_ISR_DMA
 4326 01f4 00000000 		.word	I2C_DMASlaveTransmitCplt
 4328              		.section	.text.HAL_I2C_Slave_Seq_Receive_IT,"ax",%progbits
 4329              		.align	1
 4330              		.p2align 2,,3
 4331              		.global	HAL_I2C_Slave_Seq_Receive_IT
 4332              		.syntax unified
 4333              		.thumb
 4334              		.thumb_func
 4335              		.fpu fpv5-d16
 4337              	HAL_I2C_Slave_Seq_Receive_IT:
 4338              		@ args = 0, pretend = 0, frame = 16
 4339              		@ frame_needed = 0, uses_anonymous_args = 0
 4340 0000 F0B5     		push	{r4, r5, r6, r7, lr}
 4341 0002 0446     		mov	r4, r0
 4342 0004 90F84100 		ldrb	r0, [r0, #65]	@ zero_extendqisi2
 4343 0008 85B0     		sub	sp, sp, #20
 4344 000a 00F02800 		and	r0, r0, #40
 4345 000e 2828     		cmp	r0, #40
 4346 0010 36D1     		bne	.L662
 4347 0012 0029     		cmp	r1, #0
 4348 0014 5BD0     		beq	.L665
ARM GAS  C:\Users\Brandon\AppData\Local\Temp\ccohPh8d.s 			page 76


 4349 0016 002A     		cmp	r2, #0
 4350 0018 59D0     		beq	.L665
 4351 001a 2568     		ldr	r5, [r4]
 4352 001c 94F84100 		ldrb	r0, [r4, #65]	@ zero_extendqisi2
 4353 0020 2868     		ldr	r0, [r5]
 4354 0022 20F0FC00 		bic	r0, r0, #252
 4355 0026 2860     		str	r0, [r5]
 4356 0028 94F84000 		ldrb	r0, [r4, #64]	@ zero_extendqisi2
 4357 002c 0128     		cmp	r0, #1
 4358 002e 54D0     		beq	.L663
 4359 0030 94F84100 		ldrb	r0, [r4, #65]	@ zero_extendqisi2
 4360 0034 0126     		movs	r6, #1
 4361 0036 2928     		cmp	r0, #41
 4362 0038 84F84060 		strb	r6, [r4, #64]
 4363 003c 23D0     		beq	.L673
 4364              	.L658:
 4365 003e 2026     		movs	r6, #32
 4366 0040 0020     		movs	r0, #0
 4367 0042 2A27     		movs	r7, #42
 4368 0044 84F84170 		strb	r7, [r4, #65]
 4369 0048 84F84260 		strb	r6, [r4, #66]
 4370 004c 6064     		str	r0, [r4, #68]
 4371 004e 6868     		ldr	r0, [r5, #4]
 4372 0050 284E     		ldr	r6, .L674
 4373 0052 20F40040 		bic	r0, r0, #32768
 4374 0056 6860     		str	r0, [r5, #4]
 4375 0058 6285     		strh	r2, [r4, #42]	@ movhi
 4376 005a 628D     		ldrh	r2, [r4, #42]
 4377 005c E362     		str	r3, [r4, #44]
 4378 005e AB69     		ldr	r3, [r5, #24]
 4379 0060 6162     		str	r1, [r4, #36]
 4380 0062 DB03     		lsls	r3, r3, #15
 4381 0064 2285     		strh	r2, [r4, #40]	@ movhi
 4382 0066 6663     		str	r6, [r4, #52]
 4383 0068 01D4     		bmi	.L661
 4384 006a 0823     		movs	r3, #8
 4385 006c EB61     		str	r3, [r5, #28]
 4386              	.L661:
 4387 006e 0020     		movs	r0, #0
 4388 0070 84F84000 		strb	r0, [r4, #64]
 4389 0074 2B68     		ldr	r3, [r5]
 4390 0076 43F0FC03 		orr	r3, r3, #252
 4391 007a 2B60     		str	r3, [r5]
 4392 007c 05B0     		add	sp, sp, #20
 4393              		@ sp needed
 4394 007e F0BD     		pop	{r4, r5, r6, r7, pc}
 4395              	.L662:
 4396 0080 0120     		movs	r0, #1
 4397              	.L655:
 4398 0082 05B0     		add	sp, sp, #20
 4399              		@ sp needed
 4400 0084 F0BD     		pop	{r4, r5, r6, r7, pc}
 4401              	.L673:
 4402 0086 94F84160 		ldrb	r6, [r4, #65]	@ zero_extendqisi2
 4403 008a 2868     		ldr	r0, [r5]
 4404 008c 06F02806 		and	r6, r6, #40
 4405 0090 282E     		cmp	r6, #40
ARM GAS  C:\Users\Brandon\AppData\Local\Temp\ccohPh8d.s 			page 77


 4406 0092 0CBF     		ite	eq
 4407 0094 6FF04206 		mvneq	r6, #66
 4408 0098 6FF0F206 		mvnne	r6, #242
 4409 009c 3040     		ands	r0, r0, r6
 4410 009e 2860     		str	r0, [r5]
 4411 00a0 2868     		ldr	r0, [r5]
 4412 00a2 4004     		lsls	r0, r0, #17
 4413 00a4 CBD5     		bpl	.L658
 4414 00a6 2E68     		ldr	r6, [r5]
 4415 00a8 A06B     		ldr	r0, [r4, #56]
 4416 00aa 26F48046 		bic	r6, r6, #16384
 4417 00ae 2E60     		str	r6, [r5]
 4418 00b0 0028     		cmp	r0, #0
 4419 00b2 C4D0     		beq	.L658
 4420 00b4 104D     		ldr	r5, .L674+4
 4421 00b6 0191     		str	r1, [sp, #4]
 4422 00b8 0565     		str	r5, [r0, #80]
 4423 00ba CDE90223 		strd	r2, r3, [sp, #8]
 4424 00be FFF7FEFF 		bl	HAL_DMA_Abort_IT
 4425 00c2 039B     		ldr	r3, [sp, #12]
 4426 00c4 DDE90112 		ldrd	r1, r2, [sp, #4]
 4427 00c8 48B9     		cbnz	r0, .L660
 4428 00ca 2568     		ldr	r5, [r4]
 4429 00cc B7E7     		b	.L658
 4430              	.L665:
 4431 00ce 4FF40073 		mov	r3, #512
 4432 00d2 0120     		movs	r0, #1
 4433 00d4 6364     		str	r3, [r4, #68]
 4434 00d6 05B0     		add	sp, sp, #20
 4435              		@ sp needed
 4436 00d8 F0BD     		pop	{r4, r5, r6, r7, pc}
 4437              	.L663:
 4438 00da 0220     		movs	r0, #2
 4439 00dc D1E7     		b	.L655
 4440              	.L660:
 4441 00de A06B     		ldr	r0, [r4, #56]
 4442 00e0 0191     		str	r1, [sp, #4]
 4443 00e2 056D     		ldr	r5, [r0, #80]
 4444 00e4 CDE90223 		strd	r2, r3, [sp, #8]
 4445 00e8 A847     		blx	r5
 4446 00ea 2568     		ldr	r5, [r4]
 4447 00ec 0199     		ldr	r1, [sp, #4]
 4448 00ee DDE90223 		ldrd	r2, r3, [sp, #8]
 4449 00f2 A4E7     		b	.L658
 4450              	.L675:
 4451              		.align	2
 4452              	.L674:
 4453 00f4 00000000 		.word	I2C_Slave_ISR_IT
 4454 00f8 00000000 		.word	I2C_DMAAbort
 4456              		.section	.text.HAL_I2C_Slave_Seq_Receive_DMA,"ax",%progbits
 4457              		.align	1
 4458              		.p2align 2,,3
 4459              		.global	HAL_I2C_Slave_Seq_Receive_DMA
 4460              		.syntax unified
 4461              		.thumb
 4462              		.thumb_func
 4463              		.fpu fpv5-d16
ARM GAS  C:\Users\Brandon\AppData\Local\Temp\ccohPh8d.s 			page 78


 4465              	HAL_I2C_Slave_Seq_Receive_DMA:
 4466              		@ args = 0, pretend = 0, frame = 16
 4467              		@ frame_needed = 0, uses_anonymous_args = 0
 4468 0000 F0B5     		push	{r4, r5, r6, r7, lr}
 4469 0002 0446     		mov	r4, r0
 4470 0004 90F84100 		ldrb	r0, [r0, #65]	@ zero_extendqisi2
 4471 0008 85B0     		sub	sp, sp, #20
 4472 000a 00F02800 		and	r0, r0, #40
 4473 000e 2828     		cmp	r0, #40
 4474 0010 61D1     		bne	.L696
 4475 0012 0029     		cmp	r1, #0
 4476 0014 00F09180 		beq	.L700
 4477 0018 002A     		cmp	r2, #0
 4478 001a 00F08E80 		beq	.L700
 4479 001e 2568     		ldr	r5, [r4]
 4480 0020 94F84100 		ldrb	r0, [r4, #65]	@ zero_extendqisi2
 4481 0024 2868     		ldr	r0, [r5]
 4482 0026 20F0FC00 		bic	r0, r0, #252
 4483 002a 2860     		str	r0, [r5]
 4484 002c 94F84000 		ldrb	r0, [r4, #64]	@ zero_extendqisi2
 4485 0030 0128     		cmp	r0, #1
 4486 0032 00F0E280 		beq	.L697
 4487 0036 94F84100 		ldrb	r0, [r4, #65]	@ zero_extendqisi2
 4488 003a 0126     		movs	r6, #1
 4489 003c 2928     		cmp	r0, #41
 4490 003e 84F84060 		strb	r6, [r4, #64]
 4491 0042 4BD0     		beq	.L710
 4492 0044 94F84100 		ldrb	r0, [r4, #65]	@ zero_extendqisi2
 4493 0048 2A28     		cmp	r0, #42
 4494 004a C6B2     		uxtb	r6, r0
 4495 004c 00F0B080 		beq	.L686
 4496              	.L708:
 4497 0050 E06B     		ldr	r0, [r4, #60]
 4498              	.L683:
 4499 0052 4FF02A0C 		mov	ip, #42
 4500 0056 2027     		movs	r7, #32
 4501 0058 0026     		movs	r6, #0
 4502 005a 84F841C0 		strb	ip, [r4, #65]
 4503 005e 84F84270 		strb	r7, [r4, #66]
 4504 0062 6664     		str	r6, [r4, #68]
 4505 0064 D5F804C0 		ldr	ip, [r5, #4]
 4506 0068 664F     		ldr	r7, .L712
 4507 006a 2CF4004C 		bic	ip, ip, #32768
 4508 006e C5F804C0 		str	ip, [r5, #4]
 4509 0072 6285     		strh	r2, [r4, #42]	@ movhi
 4510 0074 628D     		ldrh	r2, [r4, #42]
 4511 0076 6162     		str	r1, [r4, #36]
 4512 0078 92B2     		uxth	r2, r2
 4513 007a E362     		str	r3, [r4, #44]
 4514 007c 6763     		str	r7, [r4, #52]
 4515 007e 2285     		strh	r2, [r4, #40]	@ movhi
 4516 0080 0028     		cmp	r0, #0
 4517 0082 00F08780 		beq	.L690
 4518 0086 DFF888E1 		ldr	lr, .L712+12
 4519 008a 1346     		mov	r3, r2
 4520 008c DFF884C1 		ldr	ip, .L712+16
 4521 0090 0A46     		mov	r2, r1
ARM GAS  C:\Users\Brandon\AppData\Local\Temp\ccohPh8d.s 			page 79


 4522 0092 0664     		str	r6, [r0, #64]
 4523 0094 05F12401 		add	r1, r5, #36
 4524 0098 0665     		str	r6, [r0, #80]
 4525 009a C0F83CE0 		str	lr, [r0, #60]
 4526 009e C0F84CC0 		str	ip, [r0, #76]
 4527 00a2 FFF7FEFF 		bl	HAL_DMA_Start_IT
 4528 00a6 0028     		cmp	r0, #0
 4529 00a8 56D1     		bne	.L711
 4530 00aa 628D     		ldrh	r2, [r4, #42]
 4531 00ac 238D     		ldrh	r3, [r4, #40]
 4532 00ae 2085     		strh	r0, [r4, #40]	@ movhi
 4533 00b0 D21A     		subs	r2, r2, r3
 4534 00b2 2368     		ldr	r3, [r4]
 4535 00b4 92B2     		uxth	r2, r2
 4536 00b6 6285     		strh	r2, [r4, #42]	@ movhi
 4537 00b8 9A69     		ldr	r2, [r3, #24]
 4538 00ba D203     		lsls	r2, r2, #15
 4539 00bc 40F19A80 		bpl	.L693
 4540              	.L694:
 4541 00c0 626B     		ldr	r2, [r4, #52]
 4542 00c2 0025     		movs	r5, #0
 4543 00c4 5049     		ldr	r1, .L712+4
 4544 00c6 84F84050 		strb	r5, [r4, #64]
 4545 00ca 8A42     		cmp	r2, r1
 4546 00cc 3BD0     		beq	.L699
 4547 00ce BA42     		cmp	r2, r7
 4548 00d0 39D0     		beq	.L699
 4549 00d2 FC21     		movs	r1, #252
 4550 00d4 38E0     		b	.L695
 4551              	.L696:
 4552 00d6 0120     		movs	r0, #1
 4553              	.L704:
 4554 00d8 05B0     		add	sp, sp, #20
 4555              		@ sp needed
 4556 00da F0BD     		pop	{r4, r5, r6, r7, pc}
 4557              	.L710:
 4558 00dc 94F84160 		ldrb	r6, [r4, #65]	@ zero_extendqisi2
 4559 00e0 2868     		ldr	r0, [r5]
 4560 00e2 06F02806 		and	r6, r6, #40
 4561 00e6 282E     		cmp	r6, #40
 4562 00e8 0CBF     		ite	eq
 4563 00ea 6FF04206 		mvneq	r6, #66
 4564 00ee 6FF0F206 		mvnne	r6, #242
 4565 00f2 3040     		ands	r0, r0, r6
 4566 00f4 2860     		str	r0, [r5]
 4567 00f6 2868     		ldr	r0, [r5]
 4568 00f8 4604     		lsls	r6, r0, #17
 4569 00fa A9D5     		bpl	.L708
 4570 00fc A06B     		ldr	r0, [r4, #56]
 4571 00fe 0028     		cmp	r0, #0
 4572 0100 A6D0     		beq	.L708
 4573 0102 2E68     		ldr	r6, [r5]
 4574 0104 414F     		ldr	r7, .L712+8
 4575 0106 26F48046 		bic	r6, r6, #16384
 4576 010a 0191     		str	r1, [sp, #4]
 4577 010c 2E60     		str	r6, [r5]
 4578 010e 0765     		str	r7, [r0, #80]
ARM GAS  C:\Users\Brandon\AppData\Local\Temp\ccohPh8d.s 			page 80


 4579 0110 CDE90223 		strd	r2, r3, [sp, #8]
 4580 0114 FFF7FEFF 		bl	HAL_DMA_Abort_IT
 4581 0118 039B     		ldr	r3, [sp, #12]
 4582 011a DDE90112 		ldrd	r1, r2, [sp, #4]
 4583 011e 0028     		cmp	r0, #0
 4584 0120 6DD0     		beq	.L709
 4585 0122 A06B     		ldr	r0, [r4, #56]
 4586 0124 0191     		str	r1, [sp, #4]
 4587 0126 056D     		ldr	r5, [r0, #80]
 4588 0128 CDE90223 		strd	r2, r3, [sp, #8]
 4589 012c A847     		blx	r5
 4590 012e 2568     		ldr	r5, [r4]
 4591 0130 E06B     		ldr	r0, [r4, #60]
 4592 0132 039B     		ldr	r3, [sp, #12]
 4593 0134 DDE90112 		ldrd	r1, r2, [sp, #4]
 4594 0138 8BE7     		b	.L683
 4595              	.L700:
 4596 013a 4FF40073 		mov	r3, #512
 4597 013e 0120     		movs	r0, #1
 4598 0140 6364     		str	r3, [r4, #68]
 4599 0142 05B0     		add	sp, sp, #20
 4600              		@ sp needed
 4601 0144 F0BD     		pop	{r4, r5, r6, r7, pc}
 4602              	.L699:
 4603 0146 B821     		movs	r1, #184
 4604              	.L695:
 4605 0148 1A68     		ldr	r2, [r3]
 4606 014a 0A43     		orrs	r2, r2, r1
 4607 014c 1A60     		str	r2, [r3]
 4608 014e 1A68     		ldr	r2, [r3]
 4609 0150 42F40042 		orr	r2, r2, #32768
 4610 0154 1A60     		str	r2, [r3]
 4611 0156 BFE7     		b	.L704
 4612              	.L711:
 4613 0158 2823     		movs	r3, #40
 4614 015a 0120     		movs	r0, #1
 4615 015c 84F84060 		strb	r6, [r4, #64]
 4616 0160 84F84130 		strb	r3, [r4, #65]
 4617 0164 84F84260 		strb	r6, [r4, #66]
 4618 0168 636C     		ldr	r3, [r4, #68]
 4619 016a 43F01003 		orr	r3, r3, #16
 4620 016e 6364     		str	r3, [r4, #68]
 4621 0170 B2E7     		b	.L704
 4622              	.L688:
 4623 0172 2027     		movs	r7, #32
 4624 0174 84F84160 		strb	r6, [r4, #65]
 4625 0178 224E     		ldr	r6, .L712
 4626 017a 84F84270 		strb	r7, [r4, #66]
 4627 017e 6064     		str	r0, [r4, #68]
 4628 0180 6868     		ldr	r0, [r5, #4]
 4629 0182 20F40040 		bic	r0, r0, #32768
 4630 0186 6860     		str	r0, [r5, #4]
 4631 0188 6285     		strh	r2, [r4, #42]	@ movhi
 4632 018a 628D     		ldrh	r2, [r4, #42]
 4633 018c 6162     		str	r1, [r4, #36]
 4634 018e 2285     		strh	r2, [r4, #40]	@ movhi
 4635 0190 E362     		str	r3, [r4, #44]
ARM GAS  C:\Users\Brandon\AppData\Local\Temp\ccohPh8d.s 			page 81


 4636 0192 6663     		str	r6, [r4, #52]
 4637              	.L690:
 4638 0194 2823     		movs	r3, #40
 4639 0196 0022     		movs	r2, #0
 4640 0198 0120     		movs	r0, #1
 4641 019a 84F84130 		strb	r3, [r4, #65]
 4642 019e 84F84220 		strb	r2, [r4, #66]
 4643 01a2 636C     		ldr	r3, [r4, #68]
 4644 01a4 84F84020 		strb	r2, [r4, #64]
 4645 01a8 43F08003 		orr	r3, r3, #128
 4646 01ac 6364     		str	r3, [r4, #68]
 4647 01ae 93E7     		b	.L704
 4648              	.L686:
 4649 01b0 2868     		ldr	r0, [r5]
 4650 01b2 0004     		lsls	r0, r0, #16
 4651 01b4 7FF54CAF 		bpl	.L708
 4652 01b8 2F68     		ldr	r7, [r5]
 4653 01ba E06B     		ldr	r0, [r4, #60]
 4654 01bc 27F40047 		bic	r7, r7, #32768
 4655 01c0 2F60     		str	r7, [r5]
 4656 01c2 0028     		cmp	r0, #0
 4657 01c4 D5D0     		beq	.L688
 4658 01c6 114D     		ldr	r5, .L712+8
 4659 01c8 0191     		str	r1, [sp, #4]
 4660 01ca 0565     		str	r5, [r0, #80]
 4661 01cc CDE90223 		strd	r2, r3, [sp, #8]
 4662 01d0 FFF7FEFF 		bl	HAL_DMA_Abort_IT
 4663 01d4 039B     		ldr	r3, [sp, #12]
 4664 01d6 DDE90112 		ldrd	r1, r2, [sp, #4]
 4665 01da 80B1     		cbz	r0, .L709
 4666 01dc E06B     		ldr	r0, [r4, #60]
 4667 01de 0191     		str	r1, [sp, #4]
 4668 01e0 056D     		ldr	r5, [r0, #80]
 4669 01e2 CDE90223 		strd	r2, r3, [sp, #8]
 4670 01e6 A847     		blx	r5
 4671 01e8 2568     		ldr	r5, [r4]
 4672 01ea E06B     		ldr	r0, [r4, #60]
 4673 01ec 0199     		ldr	r1, [sp, #4]
 4674 01ee DDE90223 		ldrd	r2, r3, [sp, #8]
 4675 01f2 2EE7     		b	.L683
 4676              	.L693:
 4677 01f4 0822     		movs	r2, #8
 4678 01f6 DA61     		str	r2, [r3, #28]
 4679 01f8 62E7     		b	.L694
 4680              	.L697:
 4681 01fa 0220     		movs	r0, #2
 4682 01fc 6CE7     		b	.L704
 4683              	.L709:
 4684 01fe 2568     		ldr	r5, [r4]
 4685 0200 26E7     		b	.L708
 4686              	.L713:
 4687 0202 00BF     		.align	2
 4688              	.L712:
 4689 0204 00000000 		.word	I2C_Slave_ISR_DMA
 4690 0208 00000000 		.word	I2C_Master_ISR_DMA
 4691 020c 00000000 		.word	I2C_DMAAbort
 4692 0210 00000000 		.word	I2C_DMASlaveReceiveCplt
ARM GAS  C:\Users\Brandon\AppData\Local\Temp\ccohPh8d.s 			page 82


 4693 0214 00000000 		.word	I2C_DMAError
 4695              		.section	.text.HAL_I2C_EnableListen_IT,"ax",%progbits
 4696              		.align	1
 4697              		.p2align 2,,3
 4698              		.global	HAL_I2C_EnableListen_IT
 4699              		.syntax unified
 4700              		.thumb
 4701              		.thumb_func
 4702              		.fpu fpv5-d16
 4704              	HAL_I2C_EnableListen_IT:
 4705              		@ args = 0, pretend = 0, frame = 0
 4706              		@ frame_needed = 0, uses_anonymous_args = 0
 4707              		@ link register save eliminated.
 4708 0000 90F84120 		ldrb	r2, [r0, #65]	@ zero_extendqisi2
 4709 0004 202A     		cmp	r2, #32
 4710 0006 01D0     		beq	.L721
 4711 0008 0220     		movs	r0, #2
 4712 000a 7047     		bx	lr
 4713              	.L721:
 4714 000c 0168     		ldr	r1, [r0]
 4715 000e 0346     		mov	r3, r0
 4716 0010 2822     		movs	r2, #40
 4717 0012 0020     		movs	r0, #0
 4718 0014 10B4     		push	{r4}
 4719 0016 83F84120 		strb	r2, [r3, #65]
 4720 001a 0A68     		ldr	r2, [r1]
 4721 001c 034C     		ldr	r4, .L722
 4722 001e 42F0B802 		orr	r2, r2, #184
 4723 0022 5C63     		str	r4, [r3, #52]
 4724 0024 5DF8044B 		ldr	r4, [sp], #4
 4725 0028 0A60     		str	r2, [r1]
 4726 002a 7047     		bx	lr
 4727              	.L723:
 4728              		.align	2
 4729              	.L722:
 4730 002c 00000000 		.word	I2C_Slave_ISR_IT
 4732              		.section	.text.HAL_I2C_DisableListen_IT,"ax",%progbits
 4733              		.align	1
 4734              		.p2align 2,,3
 4735              		.global	HAL_I2C_DisableListen_IT
 4736              		.syntax unified
 4737              		.thumb
 4738              		.thumb_func
 4739              		.fpu fpv5-d16
 4741              	HAL_I2C_DisableListen_IT:
 4742              		@ args = 0, pretend = 0, frame = 0
 4743              		@ frame_needed = 0, uses_anonymous_args = 0
 4744              		@ link register save eliminated.
 4745 0000 90F84120 		ldrb	r2, [r0, #65]	@ zero_extendqisi2
 4746 0004 282A     		cmp	r2, #40
 4747 0006 01D0     		beq	.L731
 4748 0008 0220     		movs	r0, #2
 4749 000a 7047     		bx	lr
 4750              	.L731:
 4751 000c 30B4     		push	{r4, r5}
 4752 000e 0346     		mov	r3, r0
 4753 0010 90F84100 		ldrb	r0, [r0, #65]	@ zero_extendqisi2
ARM GAS  C:\Users\Brandon\AppData\Local\Temp\ccohPh8d.s 			page 83


 4754 0014 0022     		movs	r2, #0
 4755 0016 2025     		movs	r5, #32
 4756 0018 93F84210 		ldrb	r1, [r3, #66]	@ zero_extendqisi2
 4757 001c 00F00300 		and	r0, r0, #3
 4758 0020 1C68     		ldr	r4, [r3]
 4759 0022 0143     		orrs	r1, r1, r0
 4760 0024 5A63     		str	r2, [r3, #52]
 4761 0026 1046     		mov	r0, r2
 4762 0028 1963     		str	r1, [r3, #48]
 4763 002a 83F84150 		strb	r5, [r3, #65]
 4764 002e 83F84220 		strb	r2, [r3, #66]
 4765 0032 2368     		ldr	r3, [r4]
 4766 0034 23F0B803 		bic	r3, r3, #184
 4767 0038 2360     		str	r3, [r4]
 4768 003a 30BC     		pop	{r4, r5}
 4769 003c 7047     		bx	lr
 4771 003e 00BF     		.section	.text.HAL_I2C_Master_Abort_IT,"ax",%progbits
 4772              		.align	1
 4773              		.p2align 2,,3
 4774              		.global	HAL_I2C_Master_Abort_IT
 4775              		.syntax unified
 4776              		.thumb
 4777              		.thumb_func
 4778              		.fpu fpv5-d16
 4780              	HAL_I2C_Master_Abort_IT:
 4781              		@ args = 0, pretend = 0, frame = 0
 4782              		@ frame_needed = 0, uses_anonymous_args = 0
 4783              		@ link register save eliminated.
 4784 0000 90F84230 		ldrb	r3, [r0, #66]	@ zero_extendqisi2
 4785 0004 102B     		cmp	r3, #16
 4786 0006 2DD1     		bne	.L740
 4787 0008 90F84030 		ldrb	r3, [r0, #64]	@ zero_extendqisi2
 4788 000c 012B     		cmp	r3, #1
 4789 000e 2BD0     		beq	.L741
 4790 0010 0122     		movs	r2, #1
 4791 0012 70B4     		push	{r4, r5, r6}
 4792 0014 90F84130 		ldrb	r3, [r0, #65]	@ zero_extendqisi2
 4793 0018 80F84020 		strb	r2, [r0, #64]
 4794 001c 212B     		cmp	r3, #33
 4795 001e 38D0     		beq	.L749
 4796 0020 90F84130 		ldrb	r3, [r0, #65]	@ zero_extendqisi2
 4797 0024 222B     		cmp	r3, #34
 4798 0026 21D0     		beq	.L737
 4799 0028 0268     		ldr	r2, [r0]
 4800              	.L736:
 4801 002a 6023     		movs	r3, #96
 4802 002c 214D     		ldr	r5, .L750
 4803 002e C1F30901 		ubfx	r1, r1, #0, #10
 4804 0032 214C     		ldr	r4, .L750+4
 4805 0034 80F84130 		strb	r3, [r0, #65]
 4806 0038 0026     		movs	r6, #0
 4807 003a 5368     		ldr	r3, [r2, #4]
 4808 003c 2B40     		ands	r3, r3, r5
 4809 003e 456B     		ldr	r5, [r0, #52]
 4810 0040 1943     		orrs	r1, r1, r3
 4811 0042 1E4B     		ldr	r3, .L750+8
 4812 0044 0C43     		orrs	r4, r4, r1
ARM GAS  C:\Users\Brandon\AppData\Local\Temp\ccohPh8d.s 			page 84


 4813 0046 9D42     		cmp	r5, r3
 4814 0048 5460     		str	r4, [r2, #4]
 4815 004a 80F84060 		strb	r6, [r0, #64]
 4816 004e 1ED0     		beq	.L744
 4817 0050 1B4B     		ldr	r3, .L750+12
 4818 0052 9D42     		cmp	r5, r3
 4819 0054 1BD0     		beq	.L744
 4820 0056 2021     		movs	r1, #32
 4821              	.L739:
 4822 0058 1368     		ldr	r3, [r2]
 4823 005a 0020     		movs	r0, #0
 4824 005c 0B43     		orrs	r3, r3, r1
 4825 005e 70BC     		pop	{r4, r5, r6}
 4826 0060 1360     		str	r3, [r2]
 4827 0062 7047     		bx	lr
 4828              	.L740:
 4829 0064 0120     		movs	r0, #1
 4830 0066 7047     		bx	lr
 4831              	.L741:
 4832 0068 0220     		movs	r0, #2
 4833 006a 7047     		bx	lr
 4834              	.L737:
 4835 006c 90F84140 		ldrb	r4, [r0, #65]	@ zero_extendqisi2
 4836 0070 1225     		movs	r5, #18
 4837 0072 0268     		ldr	r2, [r0]
 4838 0074 04F02804 		and	r4, r4, #40
 4839 0078 1368     		ldr	r3, [r2]
 4840 007a 282C     		cmp	r4, #40
 4841 007c 0CBF     		ite	eq
 4842 007e 6FF04404 		mvneq	r4, #68
 4843 0082 6FF0F404 		mvnne	r4, #244
 4844 0086 2340     		ands	r3, r3, r4
 4845 0088 1360     		str	r3, [r2]
 4846 008a 0563     		str	r5, [r0, #48]
 4847 008c CDE7     		b	.L736
 4848              	.L744:
 4849 008e 6021     		movs	r1, #96
 4850 0090 E2E7     		b	.L739
 4851              	.L749:
 4852 0092 90F84140 		ldrb	r4, [r0, #65]	@ zero_extendqisi2
 4853 0096 1125     		movs	r5, #17
 4854 0098 0268     		ldr	r2, [r0]
 4855 009a 04F02804 		and	r4, r4, #40
 4856 009e 1368     		ldr	r3, [r2]
 4857 00a0 282C     		cmp	r4, #40
 4858 00a2 0CBF     		ite	eq
 4859 00a4 6FF04204 		mvneq	r4, #66
 4860 00a8 6FF0F204 		mvnne	r4, #242
 4861 00ac 2340     		ands	r3, r3, r4
 4862 00ae 1360     		str	r3, [r2]
 4863 00b0 0563     		str	r5, [r0, #48]
 4864 00b2 BAE7     		b	.L736
 4865              	.L751:
 4866              		.align	2
 4867              	.L750:
 4868 00b4 009800FC 		.word	-67069952
 4869 00b8 00400182 		.word	-2113847296
ARM GAS  C:\Users\Brandon\AppData\Local\Temp\ccohPh8d.s 			page 85


 4870 00bc 00000000 		.word	I2C_Slave_ISR_DMA
 4871 00c0 00000000 		.word	I2C_Master_ISR_DMA
 4873              		.section	.text.HAL_I2C_EV_IRQHandler,"ax",%progbits
 4874              		.align	1
 4875              		.p2align 2,,3
 4876              		.global	HAL_I2C_EV_IRQHandler
 4877              		.syntax unified
 4878              		.thumb
 4879              		.thumb_func
 4880              		.fpu fpv5-d16
 4882              	HAL_I2C_EV_IRQHandler:
 4883              		@ args = 0, pretend = 0, frame = 0
 4884              		@ frame_needed = 0, uses_anonymous_args = 0
 4885              		@ link register save eliminated.
 4886 0000 0268     		ldr	r2, [r0]
 4887 0002 436B     		ldr	r3, [r0, #52]
 4888 0004 9169     		ldr	r1, [r2, #24]
 4889 0006 1268     		ldr	r2, [r2]
 4890 0008 03B1     		cbz	r3, .L752
 4891 000a 1847     		bx	r3
 4892              	.L752:
 4893 000c 7047     		bx	lr
 4895 000e 00BF     		.section	.text.HAL_I2C_MasterTxCpltCallback,"ax",%progbits
 4896              		.align	1
 4897              		.p2align 2,,3
 4898              		.weak	HAL_I2C_MasterTxCpltCallback
 4899              		.syntax unified
 4900              		.thumb
 4901              		.thumb_func
 4902              		.fpu fpv5-d16
 4904              	HAL_I2C_MasterTxCpltCallback:
 4905              		@ args = 0, pretend = 0, frame = 0
 4906              		@ frame_needed = 0, uses_anonymous_args = 0
 4907              		@ link register save eliminated.
 4908 0000 7047     		bx	lr
 4910 0002 00BF     		.section	.text.HAL_I2C_MasterRxCpltCallback,"ax",%progbits
 4911              		.align	1
 4912              		.p2align 2,,3
 4913              		.weak	HAL_I2C_MasterRxCpltCallback
 4914              		.syntax unified
 4915              		.thumb
 4916              		.thumb_func
 4917              		.fpu fpv5-d16
 4919              	HAL_I2C_MasterRxCpltCallback:
 4920              		@ args = 0, pretend = 0, frame = 0
 4921              		@ frame_needed = 0, uses_anonymous_args = 0
 4922              		@ link register save eliminated.
 4923 0000 7047     		bx	lr
 4925 0002 00BF     		.section	.text.I2C_ITMasterSeqCplt,"ax",%progbits
 4926              		.align	1
 4927              		.p2align 2,,3
 4928              		.syntax unified
 4929              		.thumb
 4930              		.thumb_func
 4931              		.fpu fpv5-d16
 4933              	I2C_ITMasterSeqCplt:
 4934              		@ args = 0, pretend = 0, frame = 0
ARM GAS  C:\Users\Brandon\AppData\Local\Temp\ccohPh8d.s 			page 86


 4935              		@ frame_needed = 0, uses_anonymous_args = 0
 4936 0000 38B5     		push	{r3, r4, r5, lr}
 4937 0002 0024     		movs	r4, #0
 4938 0004 2021     		movs	r1, #32
 4939 0006 80F84240 		strb	r4, [r0, #66]
 4940 000a 90F84120 		ldrb	r2, [r0, #65]	@ zero_extendqisi2
 4941 000e 212A     		cmp	r2, #33
 4942 0010 17D0     		beq	.L764
 4943 0012 1222     		movs	r2, #18
 4944 0014 80F84110 		strb	r1, [r0, #65]
 4945 0018 0568     		ldr	r5, [r0]
 4946 001a 0263     		str	r2, [r0, #48]
 4947 001c 90F84110 		ldrb	r1, [r0, #65]	@ zero_extendqisi2
 4948 0020 2A68     		ldr	r2, [r5]
 4949 0022 01F02801 		and	r1, r1, #40
 4950 0026 4463     		str	r4, [r0, #52]
 4951 0028 2829     		cmp	r1, #40
 4952 002a 0CBF     		ite	eq
 4953 002c 6FF04401 		mvneq	r1, #68
 4954 0030 6FF0F401 		mvnne	r1, #244
 4955 0034 0A40     		ands	r2, r2, r1
 4956 0036 2A60     		str	r2, [r5]
 4957 0038 80F84040 		strb	r4, [r0, #64]
 4958 003c FFF7FEFF 		bl	HAL_I2C_MasterRxCpltCallback
 4959 0040 38BD     		pop	{r3, r4, r5, pc}
 4960              	.L764:
 4961 0042 1122     		movs	r2, #17
 4962 0044 80F84110 		strb	r1, [r0, #65]
 4963 0048 0568     		ldr	r5, [r0]
 4964 004a 0263     		str	r2, [r0, #48]
 4965 004c 90F84110 		ldrb	r1, [r0, #65]	@ zero_extendqisi2
 4966 0050 2A68     		ldr	r2, [r5]
 4967 0052 01F02801 		and	r1, r1, #40
 4968 0056 4463     		str	r4, [r0, #52]
 4969 0058 2829     		cmp	r1, #40
 4970 005a 0CBF     		ite	eq
 4971 005c 6FF04201 		mvneq	r1, #66
 4972 0060 6FF0F201 		mvnne	r1, #242
 4973 0064 0A40     		ands	r2, r2, r1
 4974 0066 2A60     		str	r2, [r5]
 4975 0068 80F84040 		strb	r4, [r0, #64]
 4976 006c FFF7FEFF 		bl	HAL_I2C_MasterTxCpltCallback
 4977 0070 38BD     		pop	{r3, r4, r5, pc}
 4979 0072 00BF     		.section	.text.HAL_I2C_SlaveTxCpltCallback,"ax",%progbits
 4980              		.align	1
 4981              		.p2align 2,,3
 4982              		.weak	HAL_I2C_SlaveTxCpltCallback
 4983              		.syntax unified
 4984              		.thumb
 4985              		.thumb_func
 4986              		.fpu fpv5-d16
 4988              	HAL_I2C_SlaveTxCpltCallback:
 4989              		@ args = 0, pretend = 0, frame = 0
 4990              		@ frame_needed = 0, uses_anonymous_args = 0
 4991              		@ link register save eliminated.
 4992 0000 7047     		bx	lr
 4994 0002 00BF     		.section	.text.HAL_I2C_SlaveRxCpltCallback,"ax",%progbits
ARM GAS  C:\Users\Brandon\AppData\Local\Temp\ccohPh8d.s 			page 87


 4995              		.align	1
 4996              		.p2align 2,,3
 4997              		.weak	HAL_I2C_SlaveRxCpltCallback
 4998              		.syntax unified
 4999              		.thumb
 5000              		.thumb_func
 5001              		.fpu fpv5-d16
 5003              	HAL_I2C_SlaveRxCpltCallback:
 5004              		@ args = 0, pretend = 0, frame = 0
 5005              		@ frame_needed = 0, uses_anonymous_args = 0
 5006              		@ link register save eliminated.
 5007 0000 7047     		bx	lr
 5009 0002 00BF     		.section	.text.I2C_ITSlaveSeqCplt,"ax",%progbits
 5010              		.align	1
 5011              		.p2align 2,,3
 5012              		.syntax unified
 5013              		.thumb
 5014              		.thumb_func
 5015              		.fpu fpv5-d16
 5017              	I2C_ITSlaveSeqCplt:
 5018              		@ args = 0, pretend = 0, frame = 0
 5019              		@ frame_needed = 0, uses_anonymous_args = 0
 5020 0000 0168     		ldr	r1, [r0]
 5021 0002 0022     		movs	r2, #0
 5022 0004 0B68     		ldr	r3, [r1]
 5023 0006 80F84220 		strb	r2, [r0, #66]
 5024 000a 5A04     		lsls	r2, r3, #17
 5025 000c 10B5     		push	{r4, lr}
 5026 000e 0CD5     		bpl	.L768
 5027 0010 0B68     		ldr	r3, [r1]
 5028 0012 23F48043 		bic	r3, r3, #16384
 5029 0016 0B60     		str	r3, [r1]
 5030              	.L769:
 5031 0018 90F84130 		ldrb	r3, [r0, #65]	@ zero_extendqisi2
 5032 001c 292B     		cmp	r3, #41
 5033 001e 0ED0     		beq	.L780
 5034              	.L770:
 5035 0020 90F84130 		ldrb	r3, [r0, #65]	@ zero_extendqisi2
 5036 0024 2A2B     		cmp	r3, #42
 5037 0026 22D0     		beq	.L781
 5038 0028 10BD     		pop	{r4, pc}
 5039              	.L768:
 5040 002a 1B04     		lsls	r3, r3, #16
 5041 002c F4D5     		bpl	.L769
 5042 002e 0B68     		ldr	r3, [r1]
 5043 0030 23F40043 		bic	r3, r3, #32768
 5044 0034 0B60     		str	r3, [r1]
 5045 0036 90F84130 		ldrb	r3, [r0, #65]	@ zero_extendqisi2
 5046 003a 292B     		cmp	r3, #41
 5047 003c F0D1     		bne	.L770
 5048              	.L780:
 5049 003e 2822     		movs	r2, #40
 5050 0040 2123     		movs	r3, #33
 5051 0042 0024     		movs	r4, #0
 5052 0044 80F84120 		strb	r2, [r0, #65]
 5053 0048 0363     		str	r3, [r0, #48]
 5054 004a 90F84120 		ldrb	r2, [r0, #65]	@ zero_extendqisi2
ARM GAS  C:\Users\Brandon\AppData\Local\Temp\ccohPh8d.s 			page 88


 5055 004e 0B68     		ldr	r3, [r1]
 5056 0050 02F02802 		and	r2, r2, #40
 5057 0054 282A     		cmp	r2, #40
 5058 0056 0CBF     		ite	eq
 5059 0058 6FF04202 		mvneq	r2, #66
 5060 005c 6FF0F202 		mvnne	r2, #242
 5061 0060 1340     		ands	r3, r3, r2
 5062 0062 0B60     		str	r3, [r1]
 5063 0064 80F84040 		strb	r4, [r0, #64]
 5064 0068 FFF7FEFF 		bl	HAL_I2C_SlaveTxCpltCallback
 5065 006c 10BD     		pop	{r4, pc}
 5066              	.L781:
 5067 006e 2822     		movs	r2, #40
 5068 0070 2223     		movs	r3, #34
 5069 0072 0024     		movs	r4, #0
 5070 0074 80F84120 		strb	r2, [r0, #65]
 5071 0078 0363     		str	r3, [r0, #48]
 5072 007a 90F84120 		ldrb	r2, [r0, #65]	@ zero_extendqisi2
 5073 007e 0B68     		ldr	r3, [r1]
 5074 0080 02F02802 		and	r2, r2, #40
 5075 0084 282A     		cmp	r2, #40
 5076 0086 0CBF     		ite	eq
 5077 0088 6FF04402 		mvneq	r2, #68
 5078 008c 6FF0F402 		mvnne	r2, #244
 5079 0090 1340     		ands	r3, r3, r2
 5080 0092 0B60     		str	r3, [r1]
 5081 0094 80F84040 		strb	r4, [r0, #64]
 5082 0098 FFF7FEFF 		bl	HAL_I2C_SlaveRxCpltCallback
 5083 009c 10BD     		pop	{r4, pc}
 5085 009e 00BF     		.section	.text.I2C_DMASlaveTransmitCplt,"ax",%progbits
 5086              		.align	1
 5087              		.p2align 2,,3
 5088              		.syntax unified
 5089              		.thumb
 5090              		.thumb_func
 5091              		.fpu fpv5-d16
 5093              	I2C_DMASlaveTransmitCplt:
 5094              		@ args = 0, pretend = 0, frame = 0
 5095              		@ frame_needed = 0, uses_anonymous_args = 0
 5096              		@ link register save eliminated.
 5097 0000 806B     		ldr	r0, [r0, #56]
 5098 0002 C36A     		ldr	r3, [r0, #44]
 5099 0004 33F08073 		bics	r3, r3, #16777216
 5100 0008 00D0     		beq	.L784
 5101 000a 7047     		bx	lr
 5102              	.L784:
 5103 000c 0268     		ldr	r2, [r0]
 5104 000e 1368     		ldr	r3, [r2]
 5105 0010 23F48043 		bic	r3, r3, #16384
 5106 0014 1360     		str	r3, [r2]
 5107 0016 FFF7FEBF 		b	I2C_ITSlaveSeqCplt
 5109 001a 00BF     		.section	.text.I2C_DMASlaveReceiveCplt,"ax",%progbits
 5110              		.align	1
 5111              		.p2align 2,,3
 5112              		.syntax unified
 5113              		.thumb
 5114              		.thumb_func
ARM GAS  C:\Users\Brandon\AppData\Local\Temp\ccohPh8d.s 			page 89


 5115              		.fpu fpv5-d16
 5117              	I2C_DMASlaveReceiveCplt:
 5118              		@ args = 0, pretend = 0, frame = 0
 5119              		@ frame_needed = 0, uses_anonymous_args = 0
 5120              		@ link register save eliminated.
 5121 0000 806B     		ldr	r0, [r0, #56]
 5122 0002 C26B     		ldr	r2, [r0, #60]
 5123 0004 C16A     		ldr	r1, [r0, #44]
 5124 0006 1268     		ldr	r2, [r2]
 5125 0008 11F5803F 		cmn	r1, #65536
 5126 000c 5368     		ldr	r3, [r2, #4]
 5127 000e B3FA83F3 		clz	r3, r3
 5128 0012 30B4     		push	{r4, r5}
 5129 0014 4FEA5313 		lsr	r3, r3, #5
 5130 0018 00D0     		beq	.L785
 5131 001a 0BB9     		cbnz	r3, .L798
 5132              	.L785:
 5133 001c 30BC     		pop	{r4, r5}
 5134 001e 7047     		bx	lr
 5135              	.L798:
 5136 0020 0268     		ldr	r2, [r0]
 5137 0022 1368     		ldr	r3, [r2]
 5138 0024 23F40043 		bic	r3, r3, #32768
 5139 0028 30BC     		pop	{r4, r5}
 5140 002a 1360     		str	r3, [r2]
 5141 002c FFF7FEBF 		b	I2C_ITSlaveSeqCplt
 5143              		.section	.text.HAL_I2C_AddrCallback,"ax",%progbits
 5144              		.align	1
 5145              		.p2align 2,,3
 5146              		.weak	HAL_I2C_AddrCallback
 5147              		.syntax unified
 5148              		.thumb
 5149              		.thumb_func
 5150              		.fpu fpv5-d16
 5152              	HAL_I2C_AddrCallback:
 5153              		@ args = 0, pretend = 0, frame = 0
 5154              		@ frame_needed = 0, uses_anonymous_args = 0
 5155              		@ link register save eliminated.
 5156 0000 7047     		bx	lr
 5158 0002 00BF     		.section	.text.I2C_ITAddrCplt.isra.0.part.0,"ax",%progbits
 5159              		.align	1
 5160              		.p2align 2,,3
 5161              		.syntax unified
 5162              		.thumb
 5163              		.thumb_func
 5164              		.fpu fpv5-d16
 5166              	I2C_ITAddrCplt.isra.0.part.0:
 5167              		@ args = 0, pretend = 0, frame = 0
 5168              		@ frame_needed = 0, uses_anonymous_args = 0
 5169 0000 F8B5     		push	{r3, r4, r5, r6, r7, lr}
 5170 0002 0568     		ldr	r5, [r0]
 5171 0004 C368     		ldr	r3, [r0, #12]
 5172 0006 A969     		ldr	r1, [r5, #24]
 5173 0008 AA69     		ldr	r2, [r5, #24]
 5174 000a 022B     		cmp	r3, #2
 5175 000c AE68     		ldr	r6, [r5, #8]
 5176 000e C1F30041 		ubfx	r1, r1, #16, #1
ARM GAS  C:\Users\Brandon\AppData\Local\Temp\ccohPh8d.s 			page 90


 5177 0012 4FEA1242 		lsr	r2, r2, #16
 5178 0016 EF68     		ldr	r7, [r5, #12]
 5179 0018 02F0FE02 		and	r2, r2, #254
 5180 001c 0DD1     		bne	.L801
 5181 001e 82EAD613 		eor	r3, r2, r6, lsr #7
 5182 0022 C6F30902 		ubfx	r2, r6, #0, #10
 5183 0026 13F00603 		ands	r3, r3, #6
 5184 002a 10D1     		bne	.L802
 5185 002c 866C     		ldr	r6, [r0, #72]
 5186 002e 0136     		adds	r6, r6, #1
 5187 0030 8664     		str	r6, [r0, #72]
 5188 0032 866C     		ldr	r6, [r0, #72]
 5189 0034 022E     		cmp	r6, #2
 5190 0036 16D0     		beq	.L805
 5191 0038 F8BD     		pop	{r3, r4, r5, r6, r7, pc}
 5192              	.L801:
 5193 003a 2B68     		ldr	r3, [r5]
 5194 003c 0026     		movs	r6, #0
 5195 003e 23F0B803 		bic	r3, r3, #184
 5196 0042 2B60     		str	r3, [r5]
 5197 0044 80F84060 		strb	r6, [r0, #64]
 5198 0048 FFF7FEFF 		bl	HAL_I2C_AddrCallback
 5199 004c F8BD     		pop	{r3, r4, r5, r6, r7, pc}
 5200              	.L802:
 5201 004e 2B68     		ldr	r3, [r5]
 5202 0050 0026     		movs	r6, #0
 5203 0052 07F0FE02 		and	r2, r7, #254
 5204 0056 23F0B803 		bic	r3, r3, #184
 5205 005a 2B60     		str	r3, [r5]
 5206 005c 80F84060 		strb	r6, [r0, #64]
 5207 0060 FFF7FEFF 		bl	HAL_I2C_AddrCallback
 5208 0064 F8BD     		pop	{r3, r4, r5, r6, r7, pc}
 5209              	.L805:
 5210 0066 0826     		movs	r6, #8
 5211 0068 8364     		str	r3, [r0, #72]
 5212 006a EE61     		str	r6, [r5, #28]
 5213 006c 80F84030 		strb	r3, [r0, #64]
 5214 0070 FFF7FEFF 		bl	HAL_I2C_AddrCallback
 5215 0074 F8BD     		pop	{r3, r4, r5, r6, r7, pc}
 5217 0076 00BF     		.section	.text.HAL_I2C_ListenCpltCallback,"ax",%progbits
 5218              		.align	1
 5219              		.p2align 2,,3
 5220              		.weak	HAL_I2C_ListenCpltCallback
 5221              		.syntax unified
 5222              		.thumb
 5223              		.thumb_func
 5224              		.fpu fpv5-d16
 5226              	HAL_I2C_ListenCpltCallback:
 5227              		@ args = 0, pretend = 0, frame = 0
 5228              		@ frame_needed = 0, uses_anonymous_args = 0
 5229              		@ link register save eliminated.
 5230 0000 7047     		bx	lr
 5232 0002 00BF     		.section	.text.I2C_ITListenCplt,"ax",%progbits
 5233              		.align	1
 5234              		.p2align 2,,3
 5235              		.syntax unified
 5236              		.thumb
ARM GAS  C:\Users\Brandon\AppData\Local\Temp\ccohPh8d.s 			page 91


 5237              		.thumb_func
 5238              		.fpu fpv5-d16
 5240              	I2C_ITListenCplt:
 5241              		@ args = 0, pretend = 0, frame = 0
 5242              		@ frame_needed = 0, uses_anonymous_args = 0
 5243 0000 0023     		movs	r3, #0
 5244 0002 2022     		movs	r2, #32
 5245 0004 10B5     		push	{r4, lr}
 5246 0006 174C     		ldr	r4, .L815
 5247 0008 4363     		str	r3, [r0, #52]
 5248 000a C462     		str	r4, [r0, #44]
 5249 000c 0363     		str	r3, [r0, #48]
 5250 000e 80F84120 		strb	r2, [r0, #65]
 5251 0012 80F84230 		strb	r3, [r0, #66]
 5252 0016 4B07     		lsls	r3, r1, #29
 5253 0018 12D5     		bpl	.L809
 5254 001a 0268     		ldr	r2, [r0]
 5255 001c 436A     		ldr	r3, [r0, #36]
 5256 001e 526A     		ldr	r2, [r2, #36]
 5257 0020 1A70     		strb	r2, [r3]
 5258 0022 436A     		ldr	r3, [r0, #36]
 5259 0024 028D     		ldrh	r2, [r0, #40]
 5260 0026 0133     		adds	r3, r3, #1
 5261 0028 4362     		str	r3, [r0, #36]
 5262 002a 4AB1     		cbz	r2, .L809
 5263 002c 438D     		ldrh	r3, [r0, #42]
 5264 002e 013A     		subs	r2, r2, #1
 5265 0030 013B     		subs	r3, r3, #1
 5266 0032 0285     		strh	r2, [r0, #40]	@ movhi
 5267 0034 9BB2     		uxth	r3, r3
 5268 0036 4385     		strh	r3, [r0, #42]	@ movhi
 5269 0038 436C     		ldr	r3, [r0, #68]
 5270 003a 43F00403 		orr	r3, r3, #4
 5271 003e 4364     		str	r3, [r0, #68]
 5272              	.L809:
 5273 0040 0368     		ldr	r3, [r0]
 5274 0042 1024     		movs	r4, #16
 5275 0044 90F84120 		ldrb	r2, [r0, #65]	@ zero_extendqisi2
 5276 0048 0021     		movs	r1, #0
 5277 004a 90F84120 		ldrb	r2, [r0, #65]	@ zero_extendqisi2
 5278 004e 1A68     		ldr	r2, [r3]
 5279 0050 22F0FE02 		bic	r2, r2, #254
 5280 0054 1A60     		str	r2, [r3]
 5281 0056 DC61     		str	r4, [r3, #28]
 5282 0058 80F84010 		strb	r1, [r0, #64]
 5283 005c FFF7FEFF 		bl	HAL_I2C_ListenCpltCallback
 5284 0060 10BD     		pop	{r4, pc}
 5285              	.L816:
 5286 0062 00BF     		.align	2
 5287              	.L815:
 5288 0064 0000FFFF 		.word	-65536
 5290              		.section	.text.HAL_I2C_MemTxCpltCallback,"ax",%progbits
 5291              		.align	1
 5292              		.p2align 2,,3
 5293              		.weak	HAL_I2C_MemTxCpltCallback
 5294              		.syntax unified
 5295              		.thumb
ARM GAS  C:\Users\Brandon\AppData\Local\Temp\ccohPh8d.s 			page 92


 5296              		.thumb_func
 5297              		.fpu fpv5-d16
 5299              	HAL_I2C_MemTxCpltCallback:
 5300              		@ args = 0, pretend = 0, frame = 0
 5301              		@ frame_needed = 0, uses_anonymous_args = 0
 5302              		@ link register save eliminated.
 5303 0000 7047     		bx	lr
 5305 0002 00BF     		.section	.text.HAL_I2C_MemRxCpltCallback,"ax",%progbits
 5306              		.align	1
 5307              		.p2align 2,,3
 5308              		.weak	HAL_I2C_MemRxCpltCallback
 5309              		.syntax unified
 5310              		.thumb
 5311              		.thumb_func
 5312              		.fpu fpv5-d16
 5314              	HAL_I2C_MemRxCpltCallback:
 5315              		@ args = 0, pretend = 0, frame = 0
 5316              		@ frame_needed = 0, uses_anonymous_args = 0
 5317              		@ link register save eliminated.
 5318 0000 7047     		bx	lr
 5320 0002 00BF     		.section	.text.HAL_I2C_ErrorCallback,"ax",%progbits
 5321              		.align	1
 5322              		.p2align 2,,3
 5323              		.weak	HAL_I2C_ErrorCallback
 5324              		.syntax unified
 5325              		.thumb
 5326              		.thumb_func
 5327              		.fpu fpv5-d16
 5329              	HAL_I2C_ErrorCallback:
 5330              		@ args = 0, pretend = 0, frame = 0
 5331              		@ frame_needed = 0, uses_anonymous_args = 0
 5332              		@ link register save eliminated.
 5333 0000 7047     		bx	lr
 5335 0002 00BF     		.section	.text.HAL_I2C_AbortCpltCallback,"ax",%progbits
 5336              		.align	1
 5337              		.p2align 2,,3
 5338              		.weak	HAL_I2C_AbortCpltCallback
 5339              		.syntax unified
 5340              		.thumb
 5341              		.thumb_func
 5342              		.fpu fpv5-d16
 5344              	HAL_I2C_AbortCpltCallback:
 5345              		@ args = 0, pretend = 0, frame = 0
 5346              		@ frame_needed = 0, uses_anonymous_args = 0
 5347              		@ link register save eliminated.
 5348 0000 7047     		bx	lr
 5350 0002 00BF     		.section	.text.I2C_TreatErrorCallback,"ax",%progbits
 5351              		.align	1
 5352              		.p2align 2,,3
 5353              		.syntax unified
 5354              		.thumb
 5355              		.thumb_func
 5356              		.fpu fpv5-d16
 5358              	I2C_TreatErrorCallback:
 5359              		@ args = 0, pretend = 0, frame = 0
 5360              		@ frame_needed = 0, uses_anonymous_args = 0
 5361 0000 90F84120 		ldrb	r2, [r0, #65]	@ zero_extendqisi2
ARM GAS  C:\Users\Brandon\AppData\Local\Temp\ccohPh8d.s 			page 93


 5362 0004 602A     		cmp	r2, #96
 5363 0006 08B5     		push	{r3, lr}
 5364 0008 06D0     		beq	.L825
 5365 000a 0022     		movs	r2, #0
 5366 000c 0263     		str	r2, [r0, #48]
 5367 000e 80F84020 		strb	r2, [r0, #64]
 5368 0012 FFF7FEFF 		bl	HAL_I2C_ErrorCallback
 5369 0016 08BD     		pop	{r3, pc}
 5370              	.L825:
 5371 0018 0022     		movs	r2, #0
 5372 001a 2021     		movs	r1, #32
 5373 001c 80F84020 		strb	r2, [r0, #64]
 5374 0020 80F84110 		strb	r1, [r0, #65]
 5375 0024 0263     		str	r2, [r0, #48]
 5376 0026 FFF7FEFF 		bl	HAL_I2C_AbortCpltCallback
 5377 002a 08BD     		pop	{r3, pc}
 5379              		.section	.text.I2C_ITError,"ax",%progbits
 5380              		.align	1
 5381              		.p2align 2,,3
 5382              		.syntax unified
 5383              		.thumb
 5384              		.thumb_func
 5385              		.fpu fpv5-d16
 5387              	I2C_ITError:
 5388              		@ args = 0, pretend = 0, frame = 0
 5389              		@ frame_needed = 0, uses_anonymous_args = 0
 5390 0000 70B5     		push	{r4, r5, r6, lr}
 5391 0002 414A     		ldr	r2, .L877
 5392 0004 0025     		movs	r5, #0
 5393 0006 90F84130 		ldrb	r3, [r0, #65]	@ zero_extendqisi2
 5394 000a 0446     		mov	r4, r0
 5395 000c 80F84250 		strb	r5, [r0, #66]
 5396 0010 283B     		subs	r3, r3, #40
 5397 0012 C262     		str	r2, [r0, #44]
 5398 0014 4585     		strh	r5, [r0, #42]	@ movhi
 5399 0016 426C     		ldr	r2, [r0, #68]
 5400 0018 022B     		cmp	r3, #2
 5401 001a 41EA0201 		orr	r1, r1, r2
 5402 001e 4164     		str	r1, [r0, #68]
 5403 0020 5AD8     		bhi	.L827
 5404 0022 90F84120 		ldrb	r2, [r0, #65]	@ zero_extendqisi2
 5405 0026 2825     		movs	r5, #40
 5406 0028 90F84130 		ldrb	r3, [r0, #65]	@ zero_extendqisi2
 5407 002c 02F02802 		and	r2, r2, #40
 5408 0030 03F02803 		and	r3, r3, #40
 5409 0034 282A     		cmp	r2, #40
 5410 0036 0CBF     		ite	eq
 5411 0038 4622     		moveq	r2, #70
 5412 003a F622     		movne	r2, #246
 5413 003c 282B     		cmp	r3, #40
 5414 003e 0368     		ldr	r3, [r0]
 5415 0040 3248     		ldr	r0, .L877+4
 5416 0042 0CBF     		ite	eq
 5417 0044 D143     		mvneq	r1, r2
 5418 0046 6FF0F601 		mvnne	r1, #246
 5419 004a 1A68     		ldr	r2, [r3]
 5420 004c 0A40     		ands	r2, r2, r1
ARM GAS  C:\Users\Brandon\AppData\Local\Temp\ccohPh8d.s 			page 94


 5421 004e 1A60     		str	r2, [r3]
 5422 0050 84F84150 		strb	r5, [r4, #65]
 5423 0054 6063     		str	r0, [r4, #52]
 5424              	.L830:
 5425 0056 A06B     		ldr	r0, [r4, #56]
 5426 0058 226B     		ldr	r2, [r4, #48]
 5427 005a 18B1     		cbz	r0, .L832
 5428 005c 112A     		cmp	r2, #17
 5429 005e 0CD0     		beq	.L843
 5430 0060 212A     		cmp	r2, #33
 5431 0062 0AD0     		beq	.L843
 5432              	.L832:
 5433 0064 E06B     		ldr	r0, [r4, #60]
 5434 0066 18B1     		cbz	r0, .L835
 5435 0068 122A     		cmp	r2, #18
 5436 006a 1BD0     		beq	.L844
 5437 006c 222A     		cmp	r2, #34
 5438 006e 19D0     		beq	.L844
 5439              	.L835:
 5440 0070 2046     		mov	r0, r4
 5441 0072 BDE87040 		pop	{r4, r5, r6, lr}
 5442 0076 FFF7FEBF 		b	I2C_TreatErrorCallback
 5443              	.L843:
 5444 007a 1A68     		ldr	r2, [r3]
 5445 007c 5104     		lsls	r1, r2, #17
 5446 007e 3ED4     		bmi	.L876
 5447              	.L834:
 5448 0080 FFF7FEFF 		bl	HAL_DMA_GetState
 5449 0084 0128     		cmp	r0, #1
 5450 0086 F3D0     		beq	.L835
 5451 0088 A06B     		ldr	r0, [r4, #56]
 5452 008a 0023     		movs	r3, #0
 5453 008c 204A     		ldr	r2, .L877+8
 5454 008e 0265     		str	r2, [r0, #80]
 5455 0090 84F84030 		strb	r3, [r4, #64]
 5456 0094 FFF7FEFF 		bl	HAL_DMA_Abort_IT
 5457 0098 E8B1     		cbz	r0, .L826
 5458 009a A06B     		ldr	r0, [r4, #56]
 5459 009c BDE87040 		pop	{r4, r5, r6, lr}
 5460 00a0 036D     		ldr	r3, [r0, #80]
 5461 00a2 1847     		bx	r3	@ indirect register sibling call
 5462              	.L844:
 5463 00a4 1A68     		ldr	r2, [r3]
 5464 00a6 1204     		lsls	r2, r2, #16
 5465 00a8 03D5     		bpl	.L839
 5466 00aa 1A68     		ldr	r2, [r3]
 5467 00ac 22F40042 		bic	r2, r2, #32768
 5468 00b0 1A60     		str	r2, [r3]
 5469              	.L839:
 5470 00b2 FFF7FEFF 		bl	HAL_DMA_GetState
 5471 00b6 0128     		cmp	r0, #1
 5472 00b8 DAD0     		beq	.L835
 5473 00ba E06B     		ldr	r0, [r4, #60]
 5474 00bc 0023     		movs	r3, #0
 5475 00be 144A     		ldr	r2, .L877+8
 5476 00c0 0265     		str	r2, [r0, #80]
 5477 00c2 84F84030 		strb	r3, [r4, #64]
ARM GAS  C:\Users\Brandon\AppData\Local\Temp\ccohPh8d.s 			page 95


 5478 00c6 FFF7FEFF 		bl	HAL_DMA_Abort_IT
 5479 00ca 20B1     		cbz	r0, .L826
 5480 00cc E06B     		ldr	r0, [r4, #60]
 5481 00ce BDE87040 		pop	{r4, r5, r6, lr}
 5482 00d2 036D     		ldr	r3, [r0, #80]
 5483 00d4 1847     		bx	r3	@ indirect register sibling call
 5484              	.L826:
 5485 00d6 70BD     		pop	{r4, r5, r6, pc}
 5486              	.L827:
 5487 00d8 0368     		ldr	r3, [r0]
 5488 00da 90F84120 		ldrb	r2, [r0, #65]	@ zero_extendqisi2
 5489 00de 90F84120 		ldrb	r2, [r0, #65]	@ zero_extendqisi2
 5490 00e2 1A68     		ldr	r2, [r3]
 5491 00e4 22F0FE02 		bic	r2, r2, #254
 5492 00e8 1A60     		str	r2, [r3]
 5493 00ea 90F84120 		ldrb	r2, [r0, #65]	@ zero_extendqisi2
 5494 00ee 602A     		cmp	r2, #96
 5495 00f0 02D0     		beq	.L831
 5496 00f2 2022     		movs	r2, #32
 5497 00f4 80F84120 		strb	r2, [r0, #65]
 5498              	.L831:
 5499 00f8 0022     		movs	r2, #0
 5500 00fa 6263     		str	r2, [r4, #52]
 5501 00fc ABE7     		b	.L830
 5502              	.L876:
 5503 00fe 1A68     		ldr	r2, [r3]
 5504 0100 22F48042 		bic	r2, r2, #16384
 5505 0104 1A60     		str	r2, [r3]
 5506 0106 BBE7     		b	.L834
 5507              	.L878:
 5508              		.align	2
 5509              	.L877:
 5510 0108 0000FFFF 		.word	-65536
 5511 010c 00000000 		.word	I2C_Slave_ISR_IT
 5512 0110 00000000 		.word	I2C_DMAAbort
 5514              		.section	.text.I2C_ITSlaveCplt,"ax",%progbits
 5515              		.align	1
 5516              		.p2align 2,,3
 5517              		.syntax unified
 5518              		.thumb
 5519              		.thumb_func
 5520              		.fpu fpv5-d16
 5522              	I2C_ITSlaveCplt:
 5523              		@ args = 0, pretend = 0, frame = 0
 5524              		@ frame_needed = 0, uses_anonymous_args = 0
 5525 0000 70B5     		push	{r4, r5, r6, lr}
 5526 0002 0368     		ldr	r3, [r0]
 5527 0004 0446     		mov	r4, r0
 5528 0006 2026     		movs	r6, #32
 5529 0008 0D46     		mov	r5, r1
 5530 000a 1868     		ldr	r0, [r3]
 5531 000c 94F84120 		ldrb	r2, [r4, #65]	@ zero_extendqisi2
 5532 0010 DE61     		str	r6, [r3, #28]
 5533 0012 02F0F702 		and	r2, r2, #247
 5534 0016 212A     		cmp	r2, #33
 5535 0018 68D1     		bne	.L880
 5536 001a 94F84110 		ldrb	r1, [r4, #65]	@ zero_extendqisi2
ARM GAS  C:\Users\Brandon\AppData\Local\Temp\ccohPh8d.s 			page 96


 5537 001e 1968     		ldr	r1, [r3]
 5538 0020 21F0FA01 		bic	r1, r1, #250
 5539 0024 1960     		str	r1, [r3]
 5540 0026 2263     		str	r2, [r4, #48]
 5541              	.L881:
 5542 0028 5968     		ldr	r1, [r3, #4]
 5543 002a 434E     		ldr	r6, .L928
 5544 002c 41F40041 		orr	r1, r1, #32768
 5545 0030 5960     		str	r1, [r3, #4]
 5546 0032 5A68     		ldr	r2, [r3, #4]
 5547 0034 3240     		ands	r2, r2, r6
 5548 0036 5A60     		str	r2, [r3, #4]
 5549 0038 9A69     		ldr	r2, [r3, #24]
 5550 003a 9107     		lsls	r1, r2, #30
 5551 003c 01D5     		bpl	.L882
 5552 003e 0022     		movs	r2, #0
 5553 0040 9A62     		str	r2, [r3, #40]
 5554              	.L882:
 5555 0042 9A69     		ldr	r2, [r3, #24]
 5556 0044 D207     		lsls	r2, r2, #31
 5557 0046 03D4     		bmi	.L883
 5558 0048 9A69     		ldr	r2, [r3, #24]
 5559 004a 42F00102 		orr	r2, r2, #1
 5560 004e 9A61     		str	r2, [r3, #24]
 5561              	.L883:
 5562 0050 4604     		lsls	r6, r0, #17
 5563 0052 55D5     		bpl	.L884
 5564 0054 1A68     		ldr	r2, [r3]
 5565 0056 A16B     		ldr	r1, [r4, #56]
 5566 0058 22F48042 		bic	r2, r2, #16384
 5567 005c 1A60     		str	r2, [r3]
 5568 005e 19B1     		cbz	r1, .L886
 5569              	.L923:
 5570 0060 0968     		ldr	r1, [r1]
 5571 0062 4A68     		ldr	r2, [r1, #4]
 5572 0064 92B2     		uxth	r2, r2
 5573 0066 6285     		strh	r2, [r4, #42]	@ movhi
 5574              	.L886:
 5575 0068 6A07     		lsls	r2, r5, #29
 5576 006a 09D5     		bpl	.L894
 5577 006c 5A6A     		ldr	r2, [r3, #36]
 5578 006e 25F00405 		bic	r5, r5, #4
 5579 0072 636A     		ldr	r3, [r4, #36]
 5580 0074 1A70     		strb	r2, [r3]
 5581 0076 636A     		ldr	r3, [r4, #36]
 5582 0078 228D     		ldrh	r2, [r4, #40]
 5583 007a 0133     		adds	r3, r3, #1
 5584 007c 6362     		str	r3, [r4, #36]
 5585 007e 72BB     		cbnz	r2, .L924
 5586              	.L894:
 5587 0080 638D     		ldrh	r3, [r4, #42]
 5588 0082 9BB2     		uxth	r3, r3
 5589 0084 1BB1     		cbz	r3, .L895
 5590 0086 636C     		ldr	r3, [r4, #68]
 5591 0088 43F00403 		orr	r3, r3, #4
 5592 008c 6364     		str	r3, [r4, #68]
 5593              	.L895:
ARM GAS  C:\Users\Brandon\AppData\Local\Temp\ccohPh8d.s 			page 97


 5594 008e 0023     		movs	r3, #0
 5595 0090 84F84230 		strb	r3, [r4, #66]
 5596 0094 666C     		ldr	r6, [r4, #68]
 5597 0096 6363     		str	r3, [r4, #52]
 5598 0098 002E     		cmp	r6, #0
 5599 009a 3BD1     		bne	.L925
 5600 009c E36A     		ldr	r3, [r4, #44]
 5601 009e 274D     		ldr	r5, .L928+4
 5602 00a0 AB42     		cmp	r3, r5
 5603 00a2 0ED1     		bne	.L926
 5604 00a4 94F84130 		ldrb	r3, [r4, #65]	@ zero_extendqisi2
 5605 00a8 2046     		mov	r0, r4
 5606 00aa 84F84060 		strb	r6, [r4, #64]
 5607 00ae 222B     		cmp	r3, #34
 5608 00b0 4FF02003 		mov	r3, #32
 5609 00b4 84F84130 		strb	r3, [r4, #65]
 5610 00b8 2663     		str	r6, [r4, #48]
 5611 00ba 39D0     		beq	.L927
 5612 00bc FFF7FEFF 		bl	HAL_I2C_SlaveTxCpltCallback
 5613              	.L879:
 5614 00c0 70BD     		pop	{r4, r5, r6, pc}
 5615              	.L926:
 5616 00c2 2046     		mov	r0, r4
 5617 00c4 FFF7FEFF 		bl	I2C_ITSlaveSeqCplt
 5618 00c8 2023     		movs	r3, #32
 5619 00ca E562     		str	r5, [r4, #44]
 5620 00cc 2046     		mov	r0, r4
 5621 00ce 84F84130 		strb	r3, [r4, #65]
 5622 00d2 84F84060 		strb	r6, [r4, #64]
 5623 00d6 2663     		str	r6, [r4, #48]
 5624 00d8 FFF7FEFF 		bl	HAL_I2C_ListenCpltCallback
 5625 00dc 70BD     		pop	{r4, r5, r6, pc}
 5626              	.L924:
 5627 00de 638D     		ldrh	r3, [r4, #42]
 5628 00e0 013A     		subs	r2, r2, #1
 5629 00e2 013B     		subs	r3, r3, #1
 5630 00e4 2285     		strh	r2, [r4, #40]	@ movhi
 5631 00e6 9BB2     		uxth	r3, r3
 5632 00e8 6385     		strh	r3, [r4, #42]	@ movhi
 5633 00ea C9E7     		b	.L894
 5634              	.L880:
 5635 00ec 222A     		cmp	r2, #34
 5636 00ee 9BD1     		bne	.L881
 5637 00f0 94F84110 		ldrb	r1, [r4, #65]	@ zero_extendqisi2
 5638 00f4 1968     		ldr	r1, [r3]
 5639 00f6 21F0FC01 		bic	r1, r1, #252
 5640 00fa 1960     		str	r1, [r3]
 5641 00fc 2263     		str	r2, [r4, #48]
 5642 00fe 93E7     		b	.L881
 5643              	.L884:
 5644 0100 0104     		lsls	r1, r0, #16
 5645 0102 B1D5     		bpl	.L886
 5646 0104 1A68     		ldr	r2, [r3]
 5647 0106 E16B     		ldr	r1, [r4, #60]
 5648 0108 22F40042 		bic	r2, r2, #32768
 5649 010c 1A60     		str	r2, [r3]
 5650 010e 0029     		cmp	r1, #0
ARM GAS  C:\Users\Brandon\AppData\Local\Temp\ccohPh8d.s 			page 98


 5651 0110 A6D1     		bne	.L923
 5652 0112 A9E7     		b	.L886
 5653              	.L925:
 5654 0114 616C     		ldr	r1, [r4, #68]
 5655 0116 2046     		mov	r0, r4
 5656 0118 FFF7FEFF 		bl	I2C_ITError
 5657 011c 94F84130 		ldrb	r3, [r4, #65]	@ zero_extendqisi2
 5658 0120 282B     		cmp	r3, #40
 5659 0122 CDD1     		bne	.L879
 5660 0124 2946     		mov	r1, r5
 5661 0126 2046     		mov	r0, r4
 5662 0128 BDE87040 		pop	{r4, r5, r6, lr}
 5663 012c FFF7FEBF 		b	I2C_ITListenCplt
 5664              	.L927:
 5665 0130 FFF7FEFF 		bl	HAL_I2C_SlaveRxCpltCallback
 5666 0134 70BD     		pop	{r4, r5, r6, pc}
 5667              	.L929:
 5668 0136 00BF     		.align	2
 5669              	.L928:
 5670 0138 00E800FE 		.word	-33495040
 5671 013c 0000FFFF 		.word	-65536
 5673              		.section	.text.I2C_Slave_ISR_IT,"ax",%progbits
 5674              		.align	1
 5675              		.p2align 2,,3
 5676              		.syntax unified
 5677              		.thumb
 5678              		.thumb_func
 5679              		.fpu fpv5-d16
 5681              	I2C_Slave_ISR_IT:
 5682              		@ args = 0, pretend = 0, frame = 0
 5683              		@ frame_needed = 0, uses_anonymous_args = 0
 5684 0000 F8B5     		push	{r3, r4, r5, r6, r7, lr}
 5685 0002 90F84030 		ldrb	r3, [r0, #64]	@ zero_extendqisi2
 5686 0006 C66A     		ldr	r6, [r0, #44]
 5687 0008 012B     		cmp	r3, #1
 5688 000a 7ED0     		beq	.L948
 5689 000c 1746     		mov	r7, r2
 5690 000e 0123     		movs	r3, #1
 5691 0010 8A06     		lsls	r2, r1, #26
 5692 0012 0446     		mov	r4, r0
 5693 0014 0D46     		mov	r5, r1
 5694 0016 80F84030 		strb	r3, [r0, #64]
 5695 001a 01D5     		bpl	.L932
 5696 001c BB06     		lsls	r3, r7, #26
 5697 001e 60D4     		bmi	.L1004
 5698              	.L932:
 5699 0020 EA06     		lsls	r2, r5, #27
 5700 0022 1BD5     		bpl	.L933
 5701              	.L1009:
 5702 0024 FB06     		lsls	r3, r7, #27
 5703 0026 19D5     		bpl	.L933
 5704 0028 638D     		ldrh	r3, [r4, #42]
 5705 002a 9BB2     		uxth	r3, r3
 5706 002c 002B     		cmp	r3, #0
 5707 002e 5DD1     		bne	.L934
 5708 0030 94F84130 		ldrb	r3, [r4, #65]	@ zero_extendqisi2
 5709 0034 B6F1007F 		cmp	r6, #33554432
ARM GAS  C:\Users\Brandon\AppData\Local\Temp\ccohPh8d.s 			page 99


 5710 0038 DBB2     		uxtb	r3, r3
 5711 003a 01D1     		bne	.L935
 5712 003c 282B     		cmp	r3, #40
 5713 003e 7BD0     		beq	.L1005
 5714              	.L935:
 5715 0040 94F84130 		ldrb	r3, [r4, #65]	@ zero_extendqisi2
 5716 0044 1022     		movs	r2, #16
 5717 0046 292B     		cmp	r3, #41
 5718 0048 2368     		ldr	r3, [r4]
 5719 004a DA61     		str	r2, [r3, #28]
 5720 004c 02D1     		bne	.L936
 5721 004e 16F5803F 		cmn	r6, #65536
 5722 0052 60D1     		bne	.L1006
 5723              	.L936:
 5724 0054 0020     		movs	r0, #0
 5725 0056 84F84000 		strb	r0, [r4, #64]
 5726 005a F8BD     		pop	{r3, r4, r5, r6, r7, pc}
 5727              	.L933:
 5728 005c 6A07     		lsls	r2, r5, #29
 5729 005e 0DD4     		bmi	.L1007
 5730              	.L941:
 5731 0060 2807     		lsls	r0, r5, #28
 5732 0062 29D5     		bpl	.L945
 5733 0064 3907     		lsls	r1, r7, #28
 5734 0066 27D5     		bpl	.L945
 5735 0068 94F84130 		ldrb	r3, [r4, #65]	@ zero_extendqisi2
 5736 006c 03F02803 		and	r3, r3, #40
 5737 0070 282B     		cmp	r3, #40
 5738 0072 5DD0     		beq	.L1008
 5739 0074 2368     		ldr	r3, [r4]
 5740 0076 0822     		movs	r2, #8
 5741 0078 DA61     		str	r2, [r3, #28]
 5742 007a EBE7     		b	.L936
 5743              	.L1007:
 5744 007c 7B07     		lsls	r3, r7, #29
 5745 007e EFD5     		bpl	.L941
 5746 0080 638D     		ldrh	r3, [r4, #42]
 5747 0082 9BB2     		uxth	r3, r3
 5748 0084 6BB1     		cbz	r3, .L942
 5749 0086 2268     		ldr	r2, [r4]
 5750 0088 636A     		ldr	r3, [r4, #36]
 5751 008a 526A     		ldr	r2, [r2, #36]
 5752 008c 1A70     		strb	r2, [r3]
 5753 008e 638D     		ldrh	r3, [r4, #42]
 5754 0090 616A     		ldr	r1, [r4, #36]
 5755 0092 228D     		ldrh	r2, [r4, #40]
 5756 0094 013B     		subs	r3, r3, #1
 5757 0096 0131     		adds	r1, r1, #1
 5758 0098 9BB2     		uxth	r3, r3
 5759 009a 013A     		subs	r2, r2, #1
 5760 009c 6162     		str	r1, [r4, #36]
 5761 009e 6385     		strh	r3, [r4, #42]	@ movhi
 5762 00a0 2285     		strh	r2, [r4, #40]	@ movhi
 5763              	.L942:
 5764 00a2 638D     		ldrh	r3, [r4, #42]
 5765 00a4 9BB2     		uxth	r3, r3
 5766 00a6 002B     		cmp	r3, #0
ARM GAS  C:\Users\Brandon\AppData\Local\Temp\ccohPh8d.s 			page 100


 5767 00a8 D4D1     		bne	.L936
 5768 00aa 16F5803F 		cmn	r6, #65536
 5769 00ae D1D0     		beq	.L936
 5770              	.L939:
 5771 00b0 2046     		mov	r0, r4
 5772 00b2 FFF7FEFF 		bl	I2C_ITSlaveSeqCplt
 5773 00b6 CDE7     		b	.L936
 5774              	.L945:
 5775 00b8 AA07     		lsls	r2, r5, #30
 5776 00ba CBD5     		bpl	.L936
 5777 00bc BB07     		lsls	r3, r7, #30
 5778 00be C9D5     		bpl	.L936
 5779 00c0 638D     		ldrh	r3, [r4, #42]
 5780 00c2 9BB2     		uxth	r3, r3
 5781 00c4 1BB3     		cbz	r3, .L947
 5782 00c6 616A     		ldr	r1, [r4, #36]
 5783 00c8 2368     		ldr	r3, [r4]
 5784 00ca 11F8010B 		ldrb	r0, [r1], #1	@ zero_extendqisi2
 5785 00ce 228D     		ldrh	r2, [r4, #40]
 5786 00d0 9862     		str	r0, [r3, #40]
 5787 00d2 638D     		ldrh	r3, [r4, #42]
 5788 00d4 013A     		subs	r2, r2, #1
 5789 00d6 6162     		str	r1, [r4, #36]
 5790 00d8 013B     		subs	r3, r3, #1
 5791 00da 2285     		strh	r2, [r4, #40]	@ movhi
 5792 00dc 9BB2     		uxth	r3, r3
 5793 00de 6385     		strh	r3, [r4, #42]	@ movhi
 5794 00e0 B8E7     		b	.L936
 5795              	.L1004:
 5796 00e2 FFF7FEFF 		bl	I2C_ITSlaveCplt
 5797 00e6 EA06     		lsls	r2, r5, #27
 5798 00e8 B8D5     		bpl	.L933
 5799 00ea 9BE7     		b	.L1009
 5800              	.L934:
 5801 00ec 2368     		ldr	r3, [r4]
 5802 00ee 1022     		movs	r2, #16
 5803 00f0 DA61     		str	r2, [r3, #28]
 5804 00f2 636C     		ldr	r3, [r4, #68]
 5805 00f4 43F00403 		orr	r3, r3, #4
 5806 00f8 6364     		str	r3, [r4, #68]
 5807 00fa 36F08073 		bics	r3, r6, #16777216
 5808 00fe A9D1     		bne	.L936
 5809 0100 616C     		ldr	r1, [r4, #68]
 5810 0102 2046     		mov	r0, r4
 5811 0104 FFF7FEFF 		bl	I2C_ITError
 5812 0108 A4E7     		b	.L936
 5813              	.L948:
 5814 010a 0220     		movs	r0, #2
 5815 010c F8BD     		pop	{r3, r4, r5, r6, r7, pc}
 5816              	.L947:
 5817 010e 36F08073 		bics	r3, r6, #16777216
 5818 0112 9FD1     		bne	.L936
 5819 0114 CCE7     		b	.L939
 5820              	.L1006:
 5821 0116 9A69     		ldr	r2, [r3, #24]
 5822 0118 9007     		lsls	r0, r2, #30
 5823 011a 01D5     		bpl	.L938
ARM GAS  C:\Users\Brandon\AppData\Local\Temp\ccohPh8d.s 			page 101


 5824 011c 0022     		movs	r2, #0
 5825 011e 9A62     		str	r2, [r3, #40]
 5826              	.L938:
 5827 0120 9A69     		ldr	r2, [r3, #24]
 5828 0122 D107     		lsls	r1, r2, #31
 5829 0124 C4D4     		bmi	.L939
 5830 0126 9A69     		ldr	r2, [r3, #24]
 5831 0128 42F00102 		orr	r2, r2, #1
 5832 012c 9A61     		str	r2, [r3, #24]
 5833 012e BFE7     		b	.L939
 5834              	.L1008:
 5835 0130 2046     		mov	r0, r4
 5836 0132 FFF7FEFF 		bl	I2C_ITAddrCplt.isra.0.part.0
 5837 0136 8DE7     		b	.L936
 5838              	.L1005:
 5839 0138 2946     		mov	r1, r5
 5840 013a 2046     		mov	r0, r4
 5841 013c FFF7FEFF 		bl	I2C_ITListenCplt
 5842 0140 88E7     		b	.L936
 5844 0142 00BF     		.section	.text.I2C_ITMasterCplt,"ax",%progbits
 5845              		.align	1
 5846              		.p2align 2,,3
 5847              		.syntax unified
 5848              		.thumb
 5849              		.thumb_func
 5850              		.fpu fpv5-d16
 5852              	I2C_ITMasterCplt:
 5853              		@ args = 0, pretend = 0, frame = 8
 5854              		@ frame_needed = 0, uses_anonymous_args = 0
 5855 0000 2022     		movs	r2, #32
 5856 0002 0368     		ldr	r3, [r0]
 5857 0004 30B5     		push	{r4, r5, lr}
 5858 0006 DA61     		str	r2, [r3, #28]
 5859 0008 83B0     		sub	sp, sp, #12
 5860 000a 90F84120 		ldrb	r2, [r0, #65]	@ zero_extendqisi2
 5861 000e 212A     		cmp	r2, #33
 5862 0010 53D0     		beq	.L1038
 5863 0012 90F84120 		ldrb	r2, [r0, #65]	@ zero_extendqisi2
 5864 0016 222A     		cmp	r2, #34
 5865 0018 38D0     		beq	.L1039
 5866              	.L1013:
 5867 001a 5A68     		ldr	r2, [r3, #4]
 5868 001c 0025     		movs	r5, #0
 5869 001e 414C     		ldr	r4, .L1045
 5870 0020 2240     		ands	r2, r2, r4
 5871 0022 414C     		ldr	r4, .L1045+4
 5872 0024 5A60     		str	r2, [r3, #4]
 5873 0026 4563     		str	r5, [r0, #52]
 5874 0028 CD06     		lsls	r5, r1, #27
 5875 002a C462     		str	r4, [r0, #44]
 5876 002c 05D5     		bpl	.L1015
 5877 002e 1022     		movs	r2, #16
 5878 0030 DA61     		str	r2, [r3, #28]
 5879 0032 426C     		ldr	r2, [r0, #68]
 5880 0034 42F00402 		orr	r2, r2, #4
 5881 0038 4264     		str	r2, [r0, #68]
 5882              	.L1015:
ARM GAS  C:\Users\Brandon\AppData\Local\Temp\ccohPh8d.s 			page 102


 5883 003a 90F84120 		ldrb	r2, [r0, #65]	@ zero_extendqisi2
 5884 003e 602A     		cmp	r2, #96
 5885 0040 34D0     		beq	.L1040
 5886              	.L1016:
 5887 0042 9A69     		ldr	r2, [r3, #24]
 5888 0044 9107     		lsls	r1, r2, #30
 5889 0046 01D5     		bpl	.L1017
 5890 0048 0022     		movs	r2, #0
 5891 004a 9A62     		str	r2, [r3, #40]
 5892              	.L1017:
 5893 004c 9A69     		ldr	r2, [r3, #24]
 5894 004e D207     		lsls	r2, r2, #31
 5895 0050 03D4     		bmi	.L1018
 5896 0052 9A69     		ldr	r2, [r3, #24]
 5897 0054 42F00102 		orr	r2, r2, #1
 5898 0058 9A61     		str	r2, [r3, #24]
 5899              	.L1018:
 5900 005a 436C     		ldr	r3, [r0, #68]
 5901 005c 90F84120 		ldrb	r2, [r0, #65]	@ zero_extendqisi2
 5902 0060 602A     		cmp	r2, #96
 5903 0062 0DD0     		beq	.L1027
 5904 0064 1A1E     		subs	r2, r3, #0
 5905 0066 18BF     		it	ne
 5906 0068 0122     		movne	r2, #1
 5907 006a 4BB9     		cbnz	r3, .L1027
 5908 006c 90F84130 		ldrb	r3, [r0, #65]	@ zero_extendqisi2
 5909 0070 212B     		cmp	r3, #33
 5910 0072 41D0     		beq	.L1041
 5911 0074 90F84130 		ldrb	r3, [r0, #65]	@ zero_extendqisi2
 5912 0078 222B     		cmp	r3, #34
 5913 007a 2ED0     		beq	.L1042
 5914              	.L1010:
 5915 007c 03B0     		add	sp, sp, #12
 5916              		@ sp needed
 5917 007e 30BD     		pop	{r4, r5, pc}
 5918              	.L1027:
 5919 0080 416C     		ldr	r1, [r0, #68]
 5920 0082 03B0     		add	sp, sp, #12
 5921              		@ sp needed
 5922 0084 BDE83040 		pop	{r4, r5, lr}
 5923 0088 FFF7FEBF 		b	I2C_ITError
 5924              	.L1039:
 5925 008c 90F84140 		ldrb	r4, [r0, #65]	@ zero_extendqisi2
 5926 0090 1225     		movs	r5, #18
 5927 0092 1A68     		ldr	r2, [r3]
 5928 0094 04F02804 		and	r4, r4, #40
 5929 0098 282C     		cmp	r4, #40
 5930 009a 0CBF     		ite	eq
 5931 009c 6FF04404 		mvneq	r4, #68
 5932 00a0 6FF0F404 		mvnne	r4, #244
 5933 00a4 2240     		ands	r2, r2, r4
 5934 00a6 1A60     		str	r2, [r3]
 5935 00a8 0563     		str	r5, [r0, #48]
 5936 00aa B6E7     		b	.L1013
 5937              	.L1040:
 5938 00ac 4C07     		lsls	r4, r1, #29
 5939 00ae C8D5     		bpl	.L1016
ARM GAS  C:\Users\Brandon\AppData\Local\Temp\ccohPh8d.s 			page 103


 5940 00b0 5A6A     		ldr	r2, [r3, #36]
 5941 00b2 D2B2     		uxtb	r2, r2
 5942 00b4 0192     		str	r2, [sp, #4]
 5943 00b6 019A     		ldr	r2, [sp, #4]
 5944 00b8 C3E7     		b	.L1016
 5945              	.L1038:
 5946 00ba 90F84140 		ldrb	r4, [r0, #65]	@ zero_extendqisi2
 5947 00be 1125     		movs	r5, #17
 5948 00c0 1A68     		ldr	r2, [r3]
 5949 00c2 04F02804 		and	r4, r4, #40
 5950 00c6 282C     		cmp	r4, #40
 5951 00c8 0CBF     		ite	eq
 5952 00ca 6FF04204 		mvneq	r4, #66
 5953 00ce 6FF0F204 		mvnne	r4, #242
 5954 00d2 2240     		ands	r2, r2, r4
 5955 00d4 1A60     		str	r2, [r3]
 5956 00d6 0563     		str	r5, [r0, #48]
 5957 00d8 9FE7     		b	.L1013
 5958              	.L1042:
 5959 00da 2023     		movs	r3, #32
 5960 00dc 80F84020 		strb	r2, [r0, #64]
 5961 00e0 80F84130 		strb	r3, [r0, #65]
 5962 00e4 0263     		str	r2, [r0, #48]
 5963 00e6 90F84230 		ldrb	r3, [r0, #66]	@ zero_extendqisi2
 5964 00ea 80F84220 		strb	r2, [r0, #66]
 5965 00ee 402B     		cmp	r3, #64
 5966 00f0 14D0     		beq	.L1043
 5967 00f2 FFF7FEFF 		bl	HAL_I2C_MasterRxCpltCallback
 5968 00f6 C1E7     		b	.L1010
 5969              	.L1041:
 5970 00f8 2023     		movs	r3, #32
 5971 00fa 80F84020 		strb	r2, [r0, #64]
 5972 00fe 80F84130 		strb	r3, [r0, #65]
 5973 0102 0263     		str	r2, [r0, #48]
 5974 0104 90F84230 		ldrb	r3, [r0, #66]	@ zero_extendqisi2
 5975 0108 80F84220 		strb	r2, [r0, #66]
 5976 010c 402B     		cmp	r3, #64
 5977 010e 02D0     		beq	.L1044
 5978 0110 FFF7FEFF 		bl	HAL_I2C_MasterTxCpltCallback
 5979 0114 B2E7     		b	.L1010
 5980              	.L1044:
 5981 0116 FFF7FEFF 		bl	HAL_I2C_MemTxCpltCallback
 5982 011a AFE7     		b	.L1010
 5983              	.L1043:
 5984 011c FFF7FEFF 		bl	HAL_I2C_MemRxCpltCallback
 5985 0120 ACE7     		b	.L1010
 5986              	.L1046:
 5987 0122 00BF     		.align	2
 5988              	.L1045:
 5989 0124 00E800FE 		.word	-33495040
 5990 0128 0000FFFF 		.word	-65536
 5992              		.section	.text.I2C_Master_ISR_IT,"ax",%progbits
 5993              		.align	1
 5994              		.p2align 2,,3
 5995              		.syntax unified
 5996              		.thumb
 5997              		.thumb_func
ARM GAS  C:\Users\Brandon\AppData\Local\Temp\ccohPh8d.s 			page 104


 5998              		.fpu fpv5-d16
 6000              	I2C_Master_ISR_IT:
 6001              		@ args = 0, pretend = 0, frame = 0
 6002              		@ frame_needed = 0, uses_anonymous_args = 0
 6003 0000 90F84030 		ldrb	r3, [r0, #64]	@ zero_extendqisi2
 6004 0004 012B     		cmp	r3, #1
 6005 0006 00F09C80 		beq	.L1062
 6006 000a 0123     		movs	r3, #1
 6007 000c 2DE9F041 		push	{r4, r5, r6, r7, r8, lr}
 6008 0010 0446     		mov	r4, r0
 6009 0012 80F84030 		strb	r3, [r0, #64]
 6010 0016 C806     		lsls	r0, r1, #27
 6011 0018 0D46     		mov	r5, r1
 6012 001a 9046     		mov	r8, r2
 6013 001c 1BD5     		bpl	.L1049
 6014 001e 12F0100F 		tst	r2, #16
 6015 0022 18D0     		beq	.L1049
 6016 0024 2368     		ldr	r3, [r4]
 6017 0026 1021     		movs	r1, #16
 6018 0028 D961     		str	r1, [r3, #28]
 6019 002a 616C     		ldr	r1, [r4, #68]
 6020 002c 41F00401 		orr	r1, r1, #4
 6021 0030 6164     		str	r1, [r4, #68]
 6022 0032 9969     		ldr	r1, [r3, #24]
 6023 0034 8907     		lsls	r1, r1, #30
 6024 0036 01D5     		bpl	.L1050
 6025 0038 0021     		movs	r1, #0
 6026 003a 9962     		str	r1, [r3, #40]
 6027              	.L1050:
 6028 003c 9969     		ldr	r1, [r3, #24]
 6029 003e CA07     		lsls	r2, r1, #31
 6030 0040 64D5     		bpl	.L1106
 6031              	.L1052:
 6032 0042 AB06     		lsls	r3, r5, #26
 6033 0044 02D5     		bpl	.L1061
 6034 0046 18F0200F 		tst	r8, #32
 6035 004a 71D1     		bne	.L1107
 6036              	.L1061:
 6037 004c 0020     		movs	r0, #0
 6038 004e 84F84000 		strb	r0, [r4, #64]
 6039 0052 BDE8F081 		pop	{r4, r5, r6, r7, r8, pc}
 6040              	.L1049:
 6041 0056 6B07     		lsls	r3, r5, #29
 6042 0058 12D4     		bmi	.L1108
 6043              	.L1053:
 6044 005a AF07     		lsls	r7, r5, #30
 6045 005c 24D5     		bpl	.L1054
 6046 005e 18F0020F 		tst	r8, #2
 6047 0062 21D0     		beq	.L1054
 6048 0064 606A     		ldr	r0, [r4, #36]
 6049 0066 2368     		ldr	r3, [r4]
 6050 0068 10F8016B 		ldrb	r6, [r0], #1	@ zero_extendqisi2
 6051 006c 218D     		ldrh	r1, [r4, #40]
 6052 006e 9E62     		str	r6, [r3, #40]
 6053 0070 638D     		ldrh	r3, [r4, #42]
 6054 0072 0139     		subs	r1, r1, #1
 6055 0074 6062     		str	r0, [r4, #36]
ARM GAS  C:\Users\Brandon\AppData\Local\Temp\ccohPh8d.s 			page 105


 6056 0076 013B     		subs	r3, r3, #1
 6057 0078 2185     		strh	r1, [r4, #40]	@ movhi
 6058 007a 9BB2     		uxth	r3, r3
 6059 007c 6385     		strh	r3, [r4, #42]	@ movhi
 6060 007e E0E7     		b	.L1052
 6061              	.L1108:
 6062 0080 18F0040F 		tst	r8, #4
 6063 0084 E9D0     		beq	.L1053
 6064 0086 2168     		ldr	r1, [r4]
 6065 0088 25F00405 		bic	r5, r5, #4
 6066 008c 636A     		ldr	r3, [r4, #36]
 6067 008e 496A     		ldr	r1, [r1, #36]
 6068 0090 1970     		strb	r1, [r3]
 6069 0092 638D     		ldrh	r3, [r4, #42]
 6070 0094 606A     		ldr	r0, [r4, #36]
 6071 0096 218D     		ldrh	r1, [r4, #40]
 6072 0098 013B     		subs	r3, r3, #1
 6073 009a 0130     		adds	r0, r0, #1
 6074 009c 9BB2     		uxth	r3, r3
 6075 009e 0139     		subs	r1, r1, #1
 6076 00a0 6062     		str	r0, [r4, #36]
 6077 00a2 6385     		strh	r3, [r4, #42]	@ movhi
 6078 00a4 2185     		strh	r1, [r4, #40]	@ movhi
 6079 00a6 CCE7     		b	.L1052
 6080              	.L1054:
 6081 00a8 2E06     		lsls	r6, r5, #24
 6082 00aa 15D4     		bmi	.L1109
 6083 00ac 6906     		lsls	r1, r5, #25
 6084 00ae C8D5     		bpl	.L1052
 6085 00b0 18F0400F 		tst	r8, #64
 6086 00b4 C5D0     		beq	.L1052
 6087 00b6 638D     		ldrh	r3, [r4, #42]
 6088 00b8 9BB2     		uxth	r3, r3
 6089 00ba 002B     		cmp	r3, #0
 6090 00bc 33D1     		bne	.L1059
 6091 00be 2368     		ldr	r3, [r4]
 6092 00c0 5968     		ldr	r1, [r3, #4]
 6093 00c2 8A01     		lsls	r2, r1, #6
 6094 00c4 BDD4     		bmi	.L1052
 6095 00c6 E16A     		ldr	r1, [r4, #44]
 6096 00c8 11F5803F 		cmn	r1, #65536
 6097 00cc 27D1     		bne	.L1060
 6098 00ce 5968     		ldr	r1, [r3, #4]
 6099 00d0 41F48041 		orr	r1, r1, #16384
 6100 00d4 5960     		str	r1, [r3, #4]
 6101 00d6 B4E7     		b	.L1052
 6102              	.L1109:
 6103 00d8 18F0400F 		tst	r8, #64
 6104 00dc B1D0     		beq	.L1052
 6105 00de 638D     		ldrh	r3, [r4, #42]
 6106 00e0 9BB2     		uxth	r3, r3
 6107 00e2 C3B1     		cbz	r3, .L1056
 6108 00e4 238D     		ldrh	r3, [r4, #40]
 6109 00e6 B3B9     		cbnz	r3, .L1056
 6110 00e8 2068     		ldr	r0, [r4]
 6111 00ea 4168     		ldr	r1, [r0, #4]
 6112 00ec 638D     		ldrh	r3, [r4, #42]
ARM GAS  C:\Users\Brandon\AppData\Local\Temp\ccohPh8d.s 			page 106


 6113 00ee C1F30901 		ubfx	r1, r1, #0, #10
 6114 00f2 9BB2     		uxth	r3, r3
 6115 00f4 FF2B     		cmp	r3, #255
 6116 00f6 26D9     		bls	.L1057
 6117 00f8 4368     		ldr	r3, [r0, #4]
 6118 00fa FF27     		movs	r7, #255
 6119 00fc 204E     		ldr	r6, .L1110
 6120 00fe 2785     		strh	r7, [r4, #40]	@ movhi
 6121 0100 3340     		ands	r3, r3, r6
 6122 0102 204E     		ldr	r6, .L1110+4
 6123 0104 1943     		orrs	r1, r1, r3
 6124 0106 0E43     		orrs	r6, r6, r1
 6125 0108 4660     		str	r6, [r0, #4]
 6126 010a 9AE7     		b	.L1052
 6127              	.L1106:
 6128 010c 9969     		ldr	r1, [r3, #24]
 6129 010e 41F00101 		orr	r1, r1, #1
 6130 0112 9961     		str	r1, [r3, #24]
 6131 0114 95E7     		b	.L1052
 6132              	.L1056:
 6133 0116 2368     		ldr	r3, [r4]
 6134 0118 5B68     		ldr	r3, [r3, #4]
 6135 011a 9801     		lsls	r0, r3, #6
 6136 011c 03D4     		bmi	.L1059
 6137              	.L1060:
 6138 011e 2046     		mov	r0, r4
 6139 0120 FFF7FEFF 		bl	I2C_ITMasterSeqCplt
 6140 0124 8DE7     		b	.L1052
 6141              	.L1059:
 6142 0126 4021     		movs	r1, #64
 6143 0128 2046     		mov	r0, r4
 6144 012a FFF7FEFF 		bl	I2C_ITError
 6145 012e 88E7     		b	.L1052
 6146              	.L1107:
 6147 0130 2046     		mov	r0, r4
 6148 0132 2946     		mov	r1, r5
 6149 0134 FFF7FEFF 		bl	I2C_ITMasterCplt
 6150 0138 0020     		movs	r0, #0
 6151 013a 84F84000 		strb	r0, [r4, #64]
 6152 013e BDE8F081 		pop	{r4, r5, r6, r7, r8, pc}
 6153              	.L1062:
 6154 0142 0220     		movs	r0, #2
 6155 0144 7047     		bx	lr
 6156              	.L1057:
 6157 0146 638D     		ldrh	r3, [r4, #42]
 6158 0148 E66A     		ldr	r6, [r4, #44]
 6159 014a 9BB2     		uxth	r3, r3
 6160 014c 16F5803F 		cmn	r6, #65536
 6161 0150 2385     		strh	r3, [r4, #40]	@ movhi
 6162 0152 0AD0     		beq	.L1058
 6163 0154 E76A     		ldr	r7, [r4, #44]
 6164 0156 DBB2     		uxtb	r3, r3
 6165 0158 4668     		ldr	r6, [r0, #4]
 6166 015a 094A     		ldr	r2, .L1110
 6167 015c 1640     		ands	r6, r6, r2
 6168 015e 3E43     		orrs	r6, r6, r7
 6169 0160 46EA0343 		orr	r3, r6, r3, lsl #16
ARM GAS  C:\Users\Brandon\AppData\Local\Temp\ccohPh8d.s 			page 107


 6170 0164 1943     		orrs	r1, r1, r3
 6171 0166 4160     		str	r1, [r0, #4]
 6172 0168 6BE7     		b	.L1052
 6173              	.L1058:
 6174 016a 4668     		ldr	r6, [r0, #4]
 6175 016c DBB2     		uxtb	r3, r3
 6176 016e 044F     		ldr	r7, .L1110
 6177 0170 3E40     		ands	r6, r6, r7
 6178 0172 3143     		orrs	r1, r1, r6
 6179 0174 41EA0343 		orr	r3, r1, r3, lsl #16
 6180 0178 43F00073 		orr	r3, r3, #33554432
 6181 017c 4360     		str	r3, [r0, #4]
 6182 017e 60E7     		b	.L1052
 6183              	.L1111:
 6184              		.align	2
 6185              	.L1110:
 6186 0180 009C00FC 		.word	-67068928
 6187 0184 0000FF01 		.word	33488896
 6189              		.section	.text.I2C_Slave_ISR_DMA,"ax",%progbits
 6190              		.align	1
 6191              		.p2align 2,,3
 6192              		.syntax unified
 6193              		.thumb
 6194              		.thumb_func
 6195              		.fpu fpv5-d16
 6197              	I2C_Slave_ISR_DMA:
 6198              		@ args = 0, pretend = 0, frame = 0
 6199              		@ frame_needed = 0, uses_anonymous_args = 0
 6200 0000 F8B5     		push	{r3, r4, r5, r6, r7, lr}
 6201 0002 90F84030 		ldrb	r3, [r0, #64]	@ zero_extendqisi2
 6202 0006 C66A     		ldr	r6, [r0, #44]
 6203 0008 012B     		cmp	r3, #1
 6204 000a 00F08480 		beq	.L1139
 6205 000e 1746     		mov	r7, r2
 6206 0010 0123     		movs	r3, #1
 6207 0012 8A06     		lsls	r2, r1, #26
 6208 0014 0446     		mov	r4, r0
 6209 0016 0D46     		mov	r5, r1
 6210 0018 80F84030 		strb	r3, [r0, #64]
 6211 001c 01D5     		bpl	.L1114
 6212 001e BB06     		lsls	r3, r7, #26
 6213 0020 2AD4     		bmi	.L1188
 6214              	.L1114:
 6215 0022 EA06     		lsls	r2, r5, #27
 6216 0024 17D5     		bpl	.L1115
 6217              	.L1190:
 6218 0026 FB06     		lsls	r3, r7, #27
 6219 0028 15D5     		bpl	.L1115
 6220 002a FB0B     		lsrs	r3, r7, #15
 6221 002c C7F38031 		ubfx	r1, r7, #14, #1
 6222 0030 43EA9732 		orr	r2, r3, r7, lsr #14
 6223 0034 12F00102 		ands	r2, r2, #1
 6224 0038 23D0     		beq	.L1116
 6225 003a E06B     		ldr	r0, [r4, #60]
 6226 003c 28B3     		cbz	r0, .L1117
 6227 003e DF07     		lsls	r7, r3, #31
 6228 0040 23D5     		bpl	.L1117
ARM GAS  C:\Users\Brandon\AppData\Local\Temp\ccohPh8d.s 			page 108


 6229 0042 0068     		ldr	r0, [r0]
 6230 0044 4368     		ldr	r3, [r0, #4]
 6231 0046 B3FA83F3 		clz	r3, r3
 6232 004a 5B09     		lsrs	r3, r3, #5
 6233 004c EBB1     		cbz	r3, .L1117
 6234 004e A36B     		ldr	r3, [r4, #56]
 6235 0050 33B3     		cbz	r3, .L1125
 6236 0052 F1B9     		cbnz	r1, .L1138
 6237 0054 24E0     		b	.L1125
 6238              	.L1115:
 6239 0056 2A07     		lsls	r2, r5, #28
 6240 0058 0AD5     		bpl	.L1128
 6241 005a 3B07     		lsls	r3, r7, #28
 6242 005c 08D5     		bpl	.L1128
 6243 005e 94F84130 		ldrb	r3, [r4, #65]	@ zero_extendqisi2
 6244 0062 03F02803 		and	r3, r3, #40
 6245 0066 282B     		cmp	r3, #40
 6246 0068 57D0     		beq	.L1189
 6247 006a 2368     		ldr	r3, [r4]
 6248 006c 0822     		movs	r2, #8
 6249 006e DA61     		str	r2, [r3, #28]
 6250              	.L1128:
 6251 0070 0020     		movs	r0, #0
 6252 0072 84F84000 		strb	r0, [r4, #64]
 6253 0076 F8BD     		pop	{r3, r4, r5, r6, r7, pc}
 6254              	.L1188:
 6255 0078 FFF7FEFF 		bl	I2C_ITSlaveCplt
 6256 007c EA06     		lsls	r2, r5, #27
 6257 007e EAD5     		bpl	.L1115
 6258 0080 D1E7     		b	.L1190
 6259              	.L1116:
 6260 0082 2368     		ldr	r3, [r4]
 6261 0084 1022     		movs	r2, #16
 6262 0086 DA61     		str	r2, [r3, #28]
 6263 0088 F2E7     		b	.L1128
 6264              	.L1117:
 6265 008a A36B     		ldr	r3, [r4, #56]
 6266 008c 53B3     		cbz	r3, .L1126
 6267 008e 49B3     		cbz	r1, .L1126
 6268 0090 0022     		movs	r2, #0
 6269              	.L1138:
 6270 0092 1968     		ldr	r1, [r3]
 6271 0094 4B68     		ldr	r3, [r1, #4]
 6272 0096 B3FA83F3 		clz	r3, r3
 6273 009a 5B09     		lsrs	r3, r3, #5
 6274 009c 03B9     		cbnz	r3, .L1125
 6275 009e 0AB3     		cbz	r2, .L1126
 6276              	.L1125:
 6277 00a0 94F84130 		ldrb	r3, [r4, #65]	@ zero_extendqisi2
 6278 00a4 B6F1007F 		cmp	r6, #33554432
 6279 00a8 DBB2     		uxtb	r3, r3
 6280 00aa 01D1     		bne	.L1127
 6281 00ac 282B     		cmp	r3, #40
 6282 00ae 38D0     		beq	.L1191
 6283              	.L1127:
 6284 00b0 94F84130 		ldrb	r3, [r4, #65]	@ zero_extendqisi2
 6285 00b4 1022     		movs	r2, #16
ARM GAS  C:\Users\Brandon\AppData\Local\Temp\ccohPh8d.s 			page 109


 6286 00b6 292B     		cmp	r3, #41
 6287 00b8 2368     		ldr	r3, [r4]
 6288 00ba DA61     		str	r2, [r3, #28]
 6289 00bc D8D1     		bne	.L1128
 6290 00be 16F5803F 		cmn	r6, #65536
 6291 00c2 D5D0     		beq	.L1128
 6292 00c4 9A69     		ldr	r2, [r3, #24]
 6293 00c6 9007     		lsls	r0, r2, #30
 6294 00c8 01D5     		bpl	.L1130
 6295 00ca 0022     		movs	r2, #0
 6296 00cc 9A62     		str	r2, [r3, #40]
 6297              	.L1130:
 6298 00ce 9A69     		ldr	r2, [r3, #24]
 6299 00d0 D107     		lsls	r1, r2, #31
 6300 00d2 03D4     		bmi	.L1131
 6301 00d4 9A69     		ldr	r2, [r3, #24]
 6302 00d6 42F00102 		orr	r2, r2, #1
 6303 00da 9A61     		str	r2, [r3, #24]
 6304              	.L1131:
 6305 00dc 2046     		mov	r0, r4
 6306 00de FFF7FEFF 		bl	I2C_ITSlaveSeqCplt
 6307 00e2 C5E7     		b	.L1128
 6308              	.L1126:
 6309 00e4 2368     		ldr	r3, [r4]
 6310 00e6 1022     		movs	r2, #16
 6311 00e8 DA61     		str	r2, [r3, #28]
 6312 00ea 36F08072 		bics	r2, r6, #16777216
 6313 00ee 636C     		ldr	r3, [r4, #68]
 6314 00f0 43F00403 		orr	r3, r3, #4
 6315 00f4 6364     		str	r3, [r4, #68]
 6316 00f6 94F84130 		ldrb	r3, [r4, #65]	@ zero_extendqisi2
 6317 00fa DBB2     		uxtb	r3, r3
 6318 00fc B8D1     		bne	.L1128
 6319 00fe 03F0F703 		and	r3, r3, #247
 6320 0102 212B     		cmp	r3, #33
 6321 0104 01D0     		beq	.L1187
 6322 0106 222B     		cmp	r3, #34
 6323 0108 00D1     		bne	.L1134
 6324              	.L1187:
 6325 010a 2363     		str	r3, [r4, #48]
 6326              	.L1134:
 6327 010c 616C     		ldr	r1, [r4, #68]
 6328 010e 2046     		mov	r0, r4
 6329 0110 FFF7FEFF 		bl	I2C_ITError
 6330 0114 ACE7     		b	.L1128
 6331              	.L1139:
 6332 0116 0220     		movs	r0, #2
 6333 0118 F8BD     		pop	{r3, r4, r5, r6, r7, pc}
 6334              	.L1189:
 6335 011a 2046     		mov	r0, r4
 6336 011c FFF7FEFF 		bl	I2C_ITAddrCplt.isra.0.part.0
 6337 0120 A6E7     		b	.L1128
 6338              	.L1191:
 6339 0122 2946     		mov	r1, r5
 6340 0124 2046     		mov	r0, r4
 6341 0126 FFF7FEFF 		bl	I2C_ITListenCplt
 6342 012a A1E7     		b	.L1128
ARM GAS  C:\Users\Brandon\AppData\Local\Temp\ccohPh8d.s 			page 110


 6344              		.section	.text.I2C_Master_ISR_DMA,"ax",%progbits
 6345              		.align	1
 6346              		.p2align 2,,3
 6347              		.syntax unified
 6348              		.thumb
 6349              		.thumb_func
 6350              		.fpu fpv5-d16
 6352              	I2C_Master_ISR_DMA:
 6353              		@ args = 0, pretend = 0, frame = 0
 6354              		@ frame_needed = 0, uses_anonymous_args = 0
 6355 0000 F8B5     		push	{r3, r4, r5, r6, r7, lr}
 6356 0002 90F84030 		ldrb	r3, [r0, #64]	@ zero_extendqisi2
 6357 0006 012B     		cmp	r3, #1
 6358 0008 7BD0     		beq	.L1210
 6359 000a 0123     		movs	r3, #1
 6360 000c CD06     		lsls	r5, r1, #27
 6361 000e 0446     		mov	r4, r0
 6362 0010 80F84030 		strb	r3, [r0, #64]
 6363 0014 23D5     		bpl	.L1194
 6364 0016 D006     		lsls	r0, r2, #27
 6365 0018 21D5     		bpl	.L1194
 6366 001a 1022     		movs	r2, #16
 6367 001c 2368     		ldr	r3, [r4]
 6368 001e 616B     		ldr	r1, [r4, #52]
 6369 0020 4548     		ldr	r0, .L1237
 6370 0022 DA61     		str	r2, [r3, #28]
 6371 0024 626C     		ldr	r2, [r4, #68]
 6372 0026 8142     		cmp	r1, r0
 6373 0028 42F00402 		orr	r2, r2, #4
 6374 002c 6264     		str	r2, [r4, #68]
 6375 002e 66D0     		beq	.L1211
 6376 0030 424A     		ldr	r2, .L1237+4
 6377 0032 9142     		cmp	r1, r2
 6378 0034 63D0     		beq	.L1211
 6379 0036 2021     		movs	r1, #32
 6380              	.L1195:
 6381 0038 1A68     		ldr	r2, [r3]
 6382 003a 0A43     		orrs	r2, r2, r1
 6383 003c 1A60     		str	r2, [r3]
 6384 003e 9A69     		ldr	r2, [r3, #24]
 6385 0040 9107     		lsls	r1, r2, #30
 6386 0042 01D5     		bpl	.L1196
 6387 0044 0022     		movs	r2, #0
 6388 0046 9A62     		str	r2, [r3, #40]
 6389              	.L1196:
 6390 0048 9A69     		ldr	r2, [r3, #24]
 6391 004a D207     		lsls	r2, r2, #31
 6392 004c 03D4     		bmi	.L1198
 6393 004e 9A69     		ldr	r2, [r3, #24]
 6394 0050 42F00102 		orr	r2, r2, #1
 6395 0054 9A61     		str	r2, [r3, #24]
 6396              	.L1198:
 6397 0056 0020     		movs	r0, #0
 6398 0058 84F84000 		strb	r0, [r4, #64]
 6399 005c F8BD     		pop	{r3, r4, r5, r6, r7, pc}
 6400              	.L1194:
 6401 005e 0B06     		lsls	r3, r1, #24
ARM GAS  C:\Users\Brandon\AppData\Local\Temp\ccohPh8d.s 			page 111


 6402 0060 31D5     		bpl	.L1199
 6403 0062 5706     		lsls	r7, r2, #25
 6404 0064 43D5     		bpl	.L1200
 6405 0066 2368     		ldr	r3, [r4]
 6406 0068 1A68     		ldr	r2, [r3]
 6407 006a 22F04002 		bic	r2, r2, #64
 6408 006e 1A60     		str	r2, [r3]
 6409 0070 628D     		ldrh	r2, [r4, #42]
 6410 0072 92B2     		uxth	r2, r2
 6411 0074 002A     		cmp	r2, #0
 6412 0076 46D0     		beq	.L1201
 6413 0078 5868     		ldr	r0, [r3, #4]
 6414 007a 618D     		ldrh	r1, [r4, #42]
 6415 007c C0F30900 		ubfx	r0, r0, #0, #10
 6416 0080 8AB2     		uxth	r2, r1
 6417 0082 FF2A     		cmp	r2, #255
 6418 0084 4BD8     		bhi	.L1235
 6419 0086 628D     		ldrh	r2, [r4, #42]
 6420 0088 E56A     		ldr	r5, [r4, #44]
 6421 008a 91B2     		uxth	r1, r2
 6422 008c 15F5803F 		cmn	r5, #65536
 6423 0090 2185     		strh	r1, [r4, #40]	@ movhi
 6424 0092 CDB2     		uxtb	r5, r1
 6425 0094 4BD0     		beq	.L1236
 6426 0096 E76A     		ldr	r7, [r4, #44]
 6427 0098 2D04     		lsls	r5, r5, #16
 6428              	.L1203:
 6429 009a 5A68     		ldr	r2, [r3, #4]
 6430 009c 284E     		ldr	r6, .L1237+8
 6431 009e 3240     		ands	r2, r2, r6
 6432 00a0 0243     		orrs	r2, r2, r0
 6433 00a2 3A43     		orrs	r2, r2, r7
 6434 00a4 2A43     		orrs	r2, r2, r5
 6435 00a6 5A60     		str	r2, [r3, #4]
 6436 00a8 628D     		ldrh	r2, [r4, #42]
 6437 00aa 521A     		subs	r2, r2, r1
 6438 00ac 92B2     		uxth	r2, r2
 6439 00ae 6285     		strh	r2, [r4, #42]	@ movhi
 6440 00b0 94F84120 		ldrb	r2, [r4, #65]	@ zero_extendqisi2
 6441 00b4 222A     		cmp	r2, #34
 6442 00b6 1A68     		ldr	r2, [r3]
 6443 00b8 0CBF     		ite	eq
 6444 00ba 42F40042 		orreq	r2, r2, #32768
 6445 00be 42F48042 		orrne	r2, r2, #16384
 6446 00c2 1A60     		str	r2, [r3]
 6447 00c4 C7E7     		b	.L1198
 6448              	.L1199:
 6449 00c6 4D06     		lsls	r5, r1, #25
 6450 00c8 11D5     		bpl	.L1200
 6451 00ca 5006     		lsls	r0, r2, #25
 6452 00cc 0FD5     		bpl	.L1200
 6453 00ce 638D     		ldrh	r3, [r4, #42]
 6454 00d0 9BB2     		uxth	r3, r3
 6455 00d2 FBB9     		cbnz	r3, .L1206
 6456 00d4 2368     		ldr	r3, [r4]
 6457 00d6 5A68     		ldr	r2, [r3, #4]
 6458 00d8 9101     		lsls	r1, r2, #6
ARM GAS  C:\Users\Brandon\AppData\Local\Temp\ccohPh8d.s 			page 112


 6459 00da BCD4     		bmi	.L1198
 6460 00dc E26A     		ldr	r2, [r4, #44]
 6461 00de 12F5803F 		cmn	r2, #65536
 6462 00e2 13D1     		bne	.L1208
 6463 00e4 5A68     		ldr	r2, [r3, #4]
 6464 00e6 42F48042 		orr	r2, r2, #16384
 6465 00ea 5A60     		str	r2, [r3, #4]
 6466 00ec B3E7     		b	.L1198
 6467              	.L1200:
 6468 00ee 8B06     		lsls	r3, r1, #26
 6469 00f0 B1D5     		bpl	.L1198
 6470 00f2 9206     		lsls	r2, r2, #26
 6471 00f4 AFD5     		bpl	.L1198
 6472 00f6 2046     		mov	r0, r4
 6473 00f8 FFF7FEFF 		bl	I2C_ITMasterCplt
 6474 00fc ABE7     		b	.L1198
 6475              	.L1211:
 6476 00fe 6021     		movs	r1, #96
 6477 0100 9AE7     		b	.L1195
 6478              	.L1210:
 6479 0102 0220     		movs	r0, #2
 6480 0104 F8BD     		pop	{r3, r4, r5, r6, r7, pc}
 6481              	.L1201:
 6482 0106 5B68     		ldr	r3, [r3, #4]
 6483 0108 9E01     		lsls	r6, r3, #6
 6484 010a 03D4     		bmi	.L1206
 6485              	.L1208:
 6486 010c 2046     		mov	r0, r4
 6487 010e FFF7FEFF 		bl	I2C_ITMasterSeqCplt
 6488 0112 A0E7     		b	.L1198
 6489              	.L1206:
 6490 0114 4021     		movs	r1, #64
 6491 0116 2046     		mov	r0, r4
 6492 0118 FFF7FEFF 		bl	I2C_ITError
 6493 011c 9BE7     		b	.L1198
 6494              	.L1235:
 6495 011e FF22     		movs	r2, #255
 6496 0120 4FF47F05 		mov	r5, #16711680
 6497 0124 4FF08077 		mov	r7, #16777216
 6498 0128 1146     		mov	r1, r2
 6499 012a 2285     		strh	r2, [r4, #40]	@ movhi
 6500 012c B5E7     		b	.L1203
 6501              	.L1236:
 6502 012e 4FF00077 		mov	r7, #33554432
 6503 0132 2D04     		lsls	r5, r5, #16
 6504 0134 B1E7     		b	.L1203
 6505              	.L1238:
 6506 0136 00BF     		.align	2
 6507              	.L1237:
 6508 0138 00000000 		.word	I2C_Slave_ISR_DMA
 6509 013c 00000000 		.word	I2C_Master_ISR_DMA
 6510 0140 009C00FC 		.word	-67068928
 6512              		.section	.text.I2C_DMAError,"ax",%progbits
 6513              		.align	1
 6514              		.p2align 2,,3
 6515              		.syntax unified
 6516              		.thumb
ARM GAS  C:\Users\Brandon\AppData\Local\Temp\ccohPh8d.s 			page 113


 6517              		.thumb_func
 6518              		.fpu fpv5-d16
 6520              	I2C_DMAError:
 6521              		@ args = 0, pretend = 0, frame = 0
