ARM GAS  C:\Users\Brandon\AppData\Local\Temp\ccVZ5EIk.s 			page 1


   1              		.cpu cortex-m7
   2              		.eabi_attribute 28, 1
   3              		.eabi_attribute 20, 1
   4              		.eabi_attribute 21, 1
   5              		.eabi_attribute 23, 3
   6              		.eabi_attribute 24, 1
   7              		.eabi_attribute 25, 1
   8              		.eabi_attribute 26, 1
   9              		.eabi_attribute 30, 2
  10              		.eabi_attribute 34, 1
  11              		.eabi_attribute 18, 4
  12              		.file	"stm32h7xx_hal_exti.c"
  13              		.text
  14              		.section	.text.HAL_EXTI_SetConfigLine,"ax",%progbits
  15              		.align	1
  16              		.p2align 2,,3
  17              		.global	HAL_EXTI_SetConfigLine
  18              		.arch armv7e-m
  19              		.syntax unified
  20              		.thumb
  21              		.thumb_func
  22              		.fpu fpv5-d16
  24              	HAL_EXTI_SetConfigLine:
  25              		@ args = 0, pretend = 0, frame = 0
  26              		@ frame_needed = 0, uses_anonymous_args = 0
  27 0000 0028     		cmp	r0, #0
  28 0002 5DD0     		beq	.L17
  29 0004 0029     		cmp	r1, #0
  30 0006 5BD0     		beq	.L17
  31 0008 0A68     		ldr	r2, [r1]
  32 000a 0123     		movs	r3, #1
  33 000c 2DE9F041 		push	{r4, r5, r6, r7, r8, lr}
  34 0010 02F01F08 		and	r8, r2, #31
  35 0014 0260     		str	r2, [r0]
  36 0016 9001     		lsls	r0, r2, #6
  37 0018 C2F30144 		ubfx	r4, r2, #16, #2
  38 001c 03FA08F3 		lsl	r3, r3, r8
  39 0020 19D5     		bpl	.L4
  40 0022 6001     		lsls	r0, r4, #5
  41 0024 8F68     		ldr	r7, [r1, #8]
  42 0026 00F1B04C 		add	ip, r0, #1476395008
  43 002a FF07     		lsls	r7, r7, #31
  44 002c 354F     		ldr	r7, .L27
  45 002e DCF80050 		ldr	r5, [ip]
  46 0032 4CBF     		ite	mi
  47 0034 1D43     		orrmi	r5, r5, r3
  48 0036 9D43     		bicpl	r5, r5, r3
  49 0038 CCF80050 		str	r5, [ip]
  50 003c 8E68     		ldr	r6, [r1, #8]
  51 003e C559     		ldr	r5, [r0, r7]
  52 0040 B607     		lsls	r6, r6, #30
  53 0042 4CBF     		ite	mi
  54 0044 1D43     		orrmi	r5, r5, r3
  55 0046 9D43     		bicpl	r5, r5, r3
  56 0048 C551     		str	r5, [r0, r7]
  57 004a 0868     		ldr	r0, [r1]
  58 004c 00F0C060 		and	r0, r0, #100663296
ARM GAS  C:\Users\Brandon\AppData\Local\Temp\ccVZ5EIk.s 			page 2


  59 0050 B0F1C06F 		cmp	r0, #100663296
  60 0054 3BD0     		beq	.L24
  61              	.L4:
  62 0056 2001     		lsls	r0, r4, #4
  63 0058 4E68     		ldr	r6, [r1, #4]
  64 005a 2B4F     		ldr	r7, .L27+4
  65 005c F607     		lsls	r6, r6, #31
  66 005e C559     		ldr	r5, [r0, r7]
  67 0060 4CBF     		ite	mi
  68 0062 1D43     		orrmi	r5, r5, r3
  69 0064 9D43     		bicpl	r5, r5, r3
  70 0066 C551     		str	r5, [r0, r7]
  71 0068 284F     		ldr	r7, .L27+8
  72 006a 4E68     		ldr	r6, [r1, #4]
  73 006c C559     		ldr	r5, [r0, r7]
  74 006e B607     		lsls	r6, r6, #30
  75 0070 4CBF     		ite	mi
  76 0072 1D43     		orrmi	r5, r5, r3
  77 0074 9D43     		bicpl	r5, r5, r3
  78 0076 C551     		str	r5, [r0, r7]
  79 0078 0868     		ldr	r0, [r1]
  80 007a 00F44010 		and	r0, r0, #3145728
  81 007e B0F5401F 		cmp	r0, #3145728
  82 0082 02D0     		beq	.L25
  83 0084 0020     		movs	r0, #0
  84 0086 BDE8F081 		pop	{r4, r5, r6, r7, r8, pc}
  85              	.L25:
  86 008a 6401     		lsls	r4, r4, #5
  87 008c 204F     		ldr	r7, .L27+12
  88 008e 0869     		ldr	r0, [r1, #16]
  89 0090 E559     		ldr	r5, [r4, r7]
  90 0092 B8B1     		cbz	r0, .L26
  91 0094 1D43     		orrs	r5, r5, r3
  92 0096 D206     		lsls	r2, r2, #27
  93 0098 E551     		str	r5, [r4, r7]
  94 009a 2CD4     		bmi	.L15
  95 009c 1D4D     		ldr	r5, .L27+16
  96 009e 2544     		add	r5, r5, r4
  97              	.L16:
  98 00a0 0969     		ldr	r1, [r1, #16]
  99 00a2 03FB03F3 		mul	r3, r3, r3
 100 00a6 2A68     		ldr	r2, [r5]
 101 00a8 0020     		movs	r0, #0
 102 00aa 03EB4304 		add	r4, r3, r3, lsl #1
 103 00ae 0139     		subs	r1, r1, #1
 104 00b0 22EA0402 		bic	r2, r2, r4
 105 00b4 03FB01F3 		mul	r3, r3, r1
 106 00b8 1343     		orrs	r3, r3, r2
 107 00ba 2B60     		str	r3, [r5]
 108 00bc BDE8F081 		pop	{r4, r5, r6, r7, r8, pc}
 109              	.L17:
 110 00c0 0120     		movs	r0, #1
 111 00c2 7047     		bx	lr
 112              	.L26:
 113 00c4 25EA0303 		bic	r3, r5, r3
 114 00c8 E351     		str	r3, [r4, r7]
 115 00ca BDE8F081 		pop	{r4, r5, r6, r7, r8, pc}
ARM GAS  C:\Users\Brandon\AppData\Local\Temp\ccVZ5EIk.s 			page 3


 116              	.L24:
 117 00ce 08F00C05 		and	r5, r8, #12
 118 00d2 114F     		ldr	r7, .L27+20
 119 00d4 02F00300 		and	r0, r2, #3
 120 00d8 4FF00F0E 		mov	lr, #15
 121 00dc 2F44     		add	r7, r7, r5
 122 00de CE68     		ldr	r6, [r1, #12]
 123 00e0 8000     		lsls	r0, r0, #2
 124 00e2 BD68     		ldr	r5, [r7, #8]
 125 00e4 0EFA00FE 		lsl	lr, lr, r0
 126 00e8 06FA00F0 		lsl	r0, r6, r0
 127 00ec 25EA0E05 		bic	r5, r5, lr
 128 00f0 2843     		orrs	r0, r0, r5
 129 00f2 B860     		str	r0, [r7, #8]
 130 00f4 AFE7     		b	.L4
 131              	.L15:
 132 00f6 A8F11006 		sub	r6, r8, #16
 133 00fa 0123     		movs	r3, #1
 134 00fc 074D     		ldr	r5, .L27+24
 135 00fe B340     		lsls	r3, r3, r6
 136 0100 2544     		add	r5, r5, r4
 137 0102 CDE7     		b	.L16
 138              	.L28:
 139              		.align	2
 140              	.L27:
 141 0104 04000058 		.word	1476395012
 142 0108 80000058 		.word	1476395136
 143 010c 84000058 		.word	1476395140
 144 0110 0C000058 		.word	1476395020
 145 0114 10000058 		.word	1476395024
 146 0118 00040058 		.word	1476396032
 147 011c 14000058 		.word	1476395028
 149              		.section	.text.HAL_EXTI_GetConfigLine,"ax",%progbits
 150              		.align	1
 151              		.p2align 2,,3
 152              		.global	HAL_EXTI_GetConfigLine
 153              		.syntax unified
 154              		.thumb
 155              		.thumb_func
 156              		.fpu fpv5-d16
 158              	HAL_EXTI_GetConfigLine:
 159              		@ args = 0, pretend = 0, frame = 0
 160              		@ frame_needed = 0, uses_anonymous_args = 0
 161              		@ link register save eliminated.
 162 0000 0028     		cmp	r0, #0
 163 0002 58D0     		beq	.L42
 164 0004 0029     		cmp	r1, #0
 165 0006 56D0     		beq	.L42
 166 0008 0368     		ldr	r3, [r0]
 167 000a 0122     		movs	r2, #1
 168 000c DFF8FCC0 		ldr	ip, .L57+24
 169 0010 0B60     		str	r3, [r1]
 170 0012 F0B4     		push	{r4, r5, r6, r7}
 171 0014 C3F30145 		ubfx	r5, r3, #16, #2
 172 0018 364C     		ldr	r4, .L57
 173 001a 03F01F07 		and	r7, r3, #31
 174 001e 2E01     		lsls	r6, r5, #4
ARM GAS  C:\Users\Brandon\AppData\Local\Temp\ccVZ5EIk.s 			page 4


 175 0020 02FA07F0 		lsl	r0, r2, r7
 176 0024 3459     		ldr	r4, [r6, r4]
 177 0026 0440     		ands	r4, r0, r4
 178 0028 08BF     		it	eq
 179 002a 2246     		moveq	r2, r4
 180 002c 4A60     		str	r2, [r1, #4]
 181 002e 56F80C40 		ldr	r4, [r6, ip]
 182 0032 2042     		tst	r0, r4
 183 0034 02D0     		beq	.L33
 184 0036 42F00202 		orr	r2, r2, #2
 185 003a 4A60     		str	r2, [r1, #4]
 186              	.L33:
 187 003c 13F00072 		ands	r2, r3, #33554432
 188 0040 0AD1     		bne	.L53
 189 0042 C1E90222 		strd	r2, r2, [r1, #8]
 190              	.L37:
 191 0046 03F44012 		and	r2, r3, #3145728
 192 004a B2F5401F 		cmp	r2, #3145728
 193 004e 1CD0     		beq	.L54
 194              	.L38:
 195 0050 0020     		movs	r0, #0
 196 0052 F0BC     		pop	{r4, r5, r6, r7}
 197 0054 0861     		str	r0, [r1, #16]
 198 0056 7047     		bx	lr
 199              	.L53:
 200 0058 6A01     		lsls	r2, r5, #5
 201 005a 274E     		ldr	r6, .L57+4
 202 005c 02F1B044 		add	r4, r2, #1476395008
 203 0060 2468     		ldr	r4, [r4]
 204 0062 2042     		tst	r0, r4
 205 0064 14BF     		ite	ne
 206 0066 0124     		movne	r4, #1
 207 0068 0024     		moveq	r4, #0
 208 006a 8C60     		str	r4, [r1, #8]
 209 006c 9259     		ldr	r2, [r2, r6]
 210 006e 1042     		tst	r0, r2
 211 0070 23D1     		bne	.L55
 212 0072 03F0C062 		and	r2, r3, #100663296
 213 0076 B2F1C06F 		cmp	r2, #100663296
 214 007a 26D0     		beq	.L56
 215              	.L36:
 216 007c 0022     		movs	r2, #0
 217 007e CA60     		str	r2, [r1, #12]
 218 0080 03F44012 		and	r2, r3, #3145728
 219 0084 B2F5401F 		cmp	r2, #3145728
 220 0088 E2D1     		bne	.L38
 221              	.L54:
 222 008a 6D01     		lsls	r5, r5, #5
 223 008c 1B4A     		ldr	r2, .L57+8
 224 008e AA58     		ldr	r2, [r5, r2]
 225 0090 3A42     		tst	r2, r7
 226 0092 DDD0     		beq	.L38
 227 0094 DB06     		lsls	r3, r3, #27
 228 0096 27D4     		bmi	.L40
 229 0098 194A     		ldr	r2, .L57+12
 230 009a 2A44     		add	r2, r2, r5
 231              	.L41:
ARM GAS  C:\Users\Brandon\AppData\Local\Temp\ccVZ5EIk.s 			page 5


 232 009c 00FB00F3 		mul	r3, r0, r0
 233 00a0 1468     		ldr	r4, [r2]
 234 00a2 0020     		movs	r0, #0
 235 00a4 03EB4302 		add	r2, r3, r3, lsl #1
 236 00a8 2240     		ands	r2, r2, r4
 237 00aa B2FBF3F3 		udiv	r3, r2, r3
 238 00ae 0133     		adds	r3, r3, #1
 239 00b0 F0BC     		pop	{r4, r5, r6, r7}
 240 00b2 0B61     		str	r3, [r1, #16]
 241 00b4 7047     		bx	lr
 242              	.L42:
 243 00b6 0120     		movs	r0, #1
 244 00b8 7047     		bx	lr
 245              	.L55:
 246 00ba 03F0C062 		and	r2, r3, #100663296
 247 00be 44F00204 		orr	r4, r4, #2
 248 00c2 B2F1C06F 		cmp	r2, #100663296
 249 00c6 8C60     		str	r4, [r1, #8]
 250 00c8 D8D1     		bne	.L36
 251              	.L56:
 252 00ca C7F38104 		ubfx	r4, r7, #2, #2
 253 00ce FA43     		mvns	r2, r7
 254 00d0 0C4E     		ldr	r6, .L57+16
 255 00d2 0234     		adds	r4, r4, #2
 256 00d4 02F00302 		and	r2, r2, #3
 257 00d8 56F82440 		ldr	r4, [r6, r4, lsl #2]
 258 00dc 9200     		lsls	r2, r2, #2
 259 00de 04FA02F2 		lsl	r2, r4, r2
 260 00e2 120E     		lsrs	r2, r2, #24
 261 00e4 CA60     		str	r2, [r1, #12]
 262 00e6 AEE7     		b	.L37
 263              	.L40:
 264 00e8 103F     		subs	r7, r7, #16
 265 00ea 0120     		movs	r0, #1
 266 00ec 064A     		ldr	r2, .L57+20
 267 00ee B840     		lsls	r0, r0, r7
 268 00f0 2A44     		add	r2, r2, r5
 269 00f2 D3E7     		b	.L41
 270              	.L58:
 271              		.align	2
 272              	.L57:
 273 00f4 80000058 		.word	1476395136
 274 00f8 04000058 		.word	1476395012
 275 00fc 0C000058 		.word	1476395020
 276 0100 10000058 		.word	1476395024
 277 0104 00040058 		.word	1476396032
 278 0108 14000058 		.word	1476395028
 279 010c 84000058 		.word	1476395140
 281              		.section	.text.HAL_EXTI_ClearConfigLine,"ax",%progbits
 282              		.align	1
 283              		.p2align 2,,3
 284              		.global	HAL_EXTI_ClearConfigLine
 285              		.syntax unified
 286              		.thumb
 287              		.thumb_func
 288              		.fpu fpv5-d16
 290              	HAL_EXTI_ClearConfigLine:
ARM GAS  C:\Users\Brandon\AppData\Local\Temp\ccVZ5EIk.s 			page 6


 291              		@ args = 0, pretend = 0, frame = 0
 292              		@ frame_needed = 0, uses_anonymous_args = 0
 293 0000 0028     		cmp	r0, #0
 294 0002 66D0     		beq	.L64
 295 0004 0123     		movs	r3, #1
 296 0006 DFF8DCC0 		ldr	ip, .L76+12
 297 000a F0B5     		push	{r4, r5, r6, r7, lr}
 298 000c 0568     		ldr	r5, [r0]
 299 000e DFF8D8E0 		ldr	lr, .L76+16
 300 0012 C5F30141 		ubfx	r1, r5, #16, #2
 301 0016 05F01F07 		and	r7, r5, #31
 302 001a 0A01     		lsls	r2, r1, #4
 303 001c BB40     		lsls	r3, r3, r7
 304 001e 52F80E40 		ldr	r4, [r2, lr]
 305 0022 DE43     		mvns	r6, r3
 306 0024 24EA0304 		bic	r4, r4, r3
 307 0028 42F80E40 		str	r4, [r2, lr]
 308 002c 52F80C40 		ldr	r4, [r2, ip]
 309 0030 24EA0304 		bic	r4, r4, r3
 310 0034 42F80C40 		str	r4, [r2, ip]
 311 0038 0268     		ldr	r2, [r0]
 312 003a 9401     		lsls	r4, r2, #6
 313 003c 06D4     		bmi	.L73
 314              	.L61:
 315 003e 02F44012 		and	r2, r2, #3145728
 316 0042 B2F5401F 		cmp	r2, #3145728
 317 0046 2BD0     		beq	.L74
 318              	.L65:
 319 0048 0020     		movs	r0, #0
 320 004a F0BD     		pop	{r4, r5, r6, r7, pc}
 321              	.L73:
 322 004c 4A01     		lsls	r2, r1, #5
 323 004e ACF1800C 		sub	ip, ip, #128
 324 0052 02F1B04E 		add	lr, r2, #1476395008
 325 0056 DEF80040 		ldr	r4, [lr]
 326 005a 3440     		ands	r4, r4, r6
 327 005c CEF80040 		str	r4, [lr]
 328 0060 52F80C40 		ldr	r4, [r2, ip]
 329 0064 3440     		ands	r4, r4, r6
 330 0066 42F80C40 		str	r4, [r2, ip]
 331 006a 0268     		ldr	r2, [r0]
 332 006c 02F0C060 		and	r0, r2, #100663296
 333 0070 B0F1C06F 		cmp	r0, #100663296
 334 0074 E3D1     		bne	.L61
 335 0076 07F00C0C 		and	ip, r7, #12
 336 007a 174C     		ldr	r4, .L76
 337 007c 05F00300 		and	r0, r5, #3
 338 0080 4FF00F0E 		mov	lr, #15
 339 0084 6444     		add	r4, r4, ip
 340 0086 02F44012 		and	r2, r2, #3145728
 341 008a 8000     		lsls	r0, r0, #2
 342 008c D4F808C0 		ldr	ip, [r4, #8]
 343 0090 B2F5401F 		cmp	r2, #3145728
 344 0094 0EFA00F0 		lsl	r0, lr, r0
 345 0098 2CEA0000 		bic	r0, ip, r0
 346 009c A060     		str	r0, [r4, #8]
 347 009e D3D1     		bne	.L65
ARM GAS  C:\Users\Brandon\AppData\Local\Temp\ccVZ5EIk.s 			page 7


 348              	.L74:
 349 00a0 4901     		lsls	r1, r1, #5
 350 00a2 0E4A     		ldr	r2, .L76+4
 351 00a4 8858     		ldr	r0, [r1, r2]
 352 00a6 0640     		ands	r6, r6, r0
 353 00a8 E806     		lsls	r0, r5, #27
 354 00aa 8E50     		str	r6, [r1, r2]
 355 00ac 0ED5     		bpl	.L75
 356 00ae 103F     		subs	r7, r7, #16
 357 00b0 0123     		movs	r3, #1
 358 00b2 0B4A     		ldr	r2, .L76+8
 359 00b4 BB40     		lsls	r3, r3, r7
 360 00b6 0A44     		add	r2, r2, r1
 361              	.L63:
 362 00b8 03FB03F3 		mul	r3, r3, r3
 363 00bc 1168     		ldr	r1, [r2]
 364 00be 0020     		movs	r0, #0
 365 00c0 03EB4303 		add	r3, r3, r3, lsl #1
 366 00c4 21EA0303 		bic	r3, r1, r3
 367 00c8 1360     		str	r3, [r2]
 368 00ca F0BD     		pop	{r4, r5, r6, r7, pc}
 369              	.L75:
 370 00cc 0432     		adds	r2, r2, #4
 371 00ce 0A44     		add	r2, r2, r1
 372 00d0 F2E7     		b	.L63
 373              	.L64:
 374 00d2 0120     		movs	r0, #1
 375 00d4 7047     		bx	lr
 376              	.L77:
 377 00d6 00BF     		.align	2
 378              	.L76:
 379 00d8 00040058 		.word	1476396032
 380 00dc 0C000058 		.word	1476395020
 381 00e0 14000058 		.word	1476395028
 382 00e4 84000058 		.word	1476395140
 383 00e8 80000058 		.word	1476395136
 385              		.section	.text.HAL_EXTI_RegisterCallback,"ax",%progbits
 386              		.align	1
 387              		.p2align 2,,3
 388              		.global	HAL_EXTI_RegisterCallback
 389              		.syntax unified
 390              		.thumb
 391              		.thumb_func
 392              		.fpu fpv5-d16
 394              	HAL_EXTI_RegisterCallback:
 395              		@ args = 0, pretend = 0, frame = 0
 396              		@ frame_needed = 0, uses_anonymous_args = 0
 397              		@ link register save eliminated.
 398 0000 19B9     		cbnz	r1, .L80
 399 0002 10B1     		cbz	r0, .L80
 400 0004 4260     		str	r2, [r0, #4]
 401 0006 0020     		movs	r0, #0
 402 0008 7047     		bx	lr
 403              	.L80:
 404 000a 0120     		movs	r0, #1
 405 000c 7047     		bx	lr
 407 000e 00BF     		.section	.text.HAL_EXTI_GetHandle,"ax",%progbits
ARM GAS  C:\Users\Brandon\AppData\Local\Temp\ccVZ5EIk.s 			page 8


 408              		.align	1
 409              		.p2align 2,,3
 410              		.global	HAL_EXTI_GetHandle
 411              		.syntax unified
 412              		.thumb
 413              		.thumb_func
 414              		.fpu fpv5-d16
 416              	HAL_EXTI_GetHandle:
 417              		@ args = 0, pretend = 0, frame = 0
 418              		@ frame_needed = 0, uses_anonymous_args = 0
 419              		@ link register save eliminated.
 420 0000 10B1     		cbz	r0, .L89
 421 0002 0160     		str	r1, [r0]
 422 0004 0020     		movs	r0, #0
 423 0006 7047     		bx	lr
 424              	.L89:
 425 0008 0120     		movs	r0, #1
 426 000a 7047     		bx	lr
 428              		.section	.text.HAL_EXTI_IRQHandler,"ax",%progbits
 429              		.align	1
 430              		.p2align 2,,3
 431              		.global	HAL_EXTI_IRQHandler
 432              		.syntax unified
 433              		.thumb
 434              		.thumb_func
 435              		.fpu fpv5-d16
 437              	HAL_EXTI_IRQHandler:
 438              		@ args = 0, pretend = 0, frame = 0
 439              		@ frame_needed = 0, uses_anonymous_args = 0
 440              		@ link register save eliminated.
 441 0000 0368     		ldr	r3, [r0]
 442 0002 0121     		movs	r1, #1
 443 0004 C3F30142 		ubfx	r2, r3, #16, #2
 444 0008 03F01F03 		and	r3, r3, #31
 445 000c 1201     		lsls	r2, r2, #4
 446 000e 01FA03F3 		lsl	r3, r1, r3
 447 0012 10B4     		push	{r4}
 448 0014 064C     		ldr	r4, .L98
 449 0016 1159     		ldr	r1, [r2, r4]
 450 0018 1942     		tst	r1, r3
 451 001a 05D0     		beq	.L90
 452 001c 4168     		ldr	r1, [r0, #4]
 453 001e 1351     		str	r3, [r2, r4]
 454 0020 11B1     		cbz	r1, .L90
 455 0022 5DF8044B 		ldr	r4, [sp], #4
 456 0026 0847     		bx	r1	@ indirect register sibling call
 457              	.L90:
 458 0028 5DF8044B 		ldr	r4, [sp], #4
 459 002c 7047     		bx	lr
 460              	.L99:
 461 002e 00BF     		.align	2
 462              	.L98:
 463 0030 88000058 		.word	1476395144
 465              		.section	.text.HAL_EXTI_GetPending,"ax",%progbits
 466              		.align	1
 467              		.p2align 2,,3
 468              		.global	HAL_EXTI_GetPending
ARM GAS  C:\Users\Brandon\AppData\Local\Temp\ccVZ5EIk.s 			page 9


 469              		.syntax unified
 470              		.thumb
 471              		.thumb_func
 472              		.fpu fpv5-d16
 474              	HAL_EXTI_GetPending:
 475              		@ args = 0, pretend = 0, frame = 0
 476              		@ frame_needed = 0, uses_anonymous_args = 0
 477              		@ link register save eliminated.
 478 0000 0368     		ldr	r3, [r0]
 479 0002 0122     		movs	r2, #1
 480 0004 C3F30141 		ubfx	r1, r3, #16, #2
 481 0008 03F01F03 		and	r3, r3, #31
 482 000c 10B4     		push	{r4}
 483 000e 0901     		lsls	r1, r1, #4
 484 0010 034C     		ldr	r4, .L102
 485 0012 9A40     		lsls	r2, r2, r3
 486 0014 0859     		ldr	r0, [r1, r4]
 487 0016 5DF8044B 		ldr	r4, [sp], #4
 488 001a 1040     		ands	r0, r0, r2
 489 001c D840     		lsrs	r0, r0, r3
 490 001e 7047     		bx	lr
 491              	.L103:
 492              		.align	2
 493              	.L102:
 494 0020 88000058 		.word	1476395144
 496              		.section	.text.HAL_EXTI_ClearPending,"ax",%progbits
 497              		.align	1
 498              		.p2align 2,,3
 499              		.global	HAL_EXTI_ClearPending
 500              		.syntax unified
 501              		.thumb
 502              		.thumb_func
 503              		.fpu fpv5-d16
 505              	HAL_EXTI_ClearPending:
 506              		@ args = 0, pretend = 0, frame = 0
 507              		@ frame_needed = 0, uses_anonymous_args = 0
 508              		@ link register save eliminated.
 509 0000 0368     		ldr	r3, [r0]
 510 0002 0122     		movs	r2, #1
 511 0004 0449     		ldr	r1, .L105
 512 0006 03F01F00 		and	r0, r3, #31
 513 000a C3F30143 		ubfx	r3, r3, #16, #2
 514 000e 8240     		lsls	r2, r2, r0
 515 0010 1B01     		lsls	r3, r3, #4
 516 0012 5A50     		str	r2, [r3, r1]
 517 0014 7047     		bx	lr
 518              	.L106:
 519 0016 00BF     		.align	2
 520              	.L105:
 521 0018 88000058 		.word	1476395144
 523              		.section	.text.HAL_EXTI_GenerateSWI,"ax",%progbits
 524              		.align	1
 525              		.p2align 2,,3
 526              		.global	HAL_EXTI_GenerateSWI
 527              		.syntax unified
 528              		.thumb
 529              		.thumb_func
ARM GAS  C:\Users\Brandon\AppData\Local\Temp\ccVZ5EIk.s 			page 10


 530              		.fpu fpv5-d16
 532              	HAL_EXTI_GenerateSWI:
 533              		@ args = 0, pretend = 0, frame = 0
 534              		@ frame_needed = 0, uses_anonymous_args = 0
 535              		@ link register save eliminated.
 536 0000 0368     		ldr	r3, [r0]
 537 0002 0122     		movs	r2, #1
 538 0004 0449     		ldr	r1, .L108
 539 0006 03F01F00 		and	r0, r3, #31
 540 000a C3F30143 		ubfx	r3, r3, #16, #2
 541 000e 8240     		lsls	r2, r2, r0
 542 0010 5B01     		lsls	r3, r3, #5
 543 0012 5A50     		str	r2, [r3, r1]
 544 0014 7047     		bx	lr
 545              	.L109:
 546 0016 00BF     		.align	2
 547              	.L108:
 548 0018 08000058 		.word	1476395016
 550              		.ident	"GCC: (GNU Arm Embedded Toolchain 9-2020-q2-update) 9.3.1 20200408 (release)"
ARM GAS  C:\Users\Brandon\AppData\Local\Temp\ccVZ5EIk.s 			page 11

