ARM GAS  C:\Users\Brandon\AppData\Local\Temp\ccsFWgdR.s 			page 1


   1              		.cpu cortex-m7
   2              		.eabi_attribute 28, 1
   3              		.eabi_attribute 20, 1
   4              		.eabi_attribute 21, 1
   5              		.eabi_attribute 23, 3
   6              		.eabi_attribute 24, 1
   7              		.eabi_attribute 25, 1
   8              		.eabi_attribute 26, 1
   9              		.eabi_attribute 30, 2
  10              		.eabi_attribute 34, 1
  11              		.eabi_attribute 18, 4
  12              		.file	"stm32h7xx_hal_cortex.c"
  13              		.text
  14              		.section	.text.HAL_NVIC_SetPriorityGrouping,"ax",%progbits
  15              		.align	1
  16              		.p2align 2,,3
  17              		.global	HAL_NVIC_SetPriorityGrouping
  18              		.arch armv7e-m
  19              		.syntax unified
  20              		.thumb
  21              		.thumb_func
  22              		.fpu fpv5-d16
  24              	HAL_NVIC_SetPriorityGrouping:
  25              		@ args = 0, pretend = 0, frame = 0
  26              		@ frame_needed = 0, uses_anonymous_args = 0
  27              		@ link register save eliminated.
  28 0000 0749     		ldr	r1, .L4
  29 0002 0002     		lsls	r0, r0, #8
  30 0004 074B     		ldr	r3, .L4+4
  31 0006 CA68     		ldr	r2, [r1, #12]
  32 0008 00F4E060 		and	r0, r0, #1792
  33 000c 10B4     		push	{r4}
  34 000e 4FF6FF04 		movw	r4, #63743
  35 0012 2240     		ands	r2, r2, r4
  36 0014 5DF8044B 		ldr	r4, [sp], #4
  37 0018 1043     		orrs	r0, r0, r2
  38 001a 0343     		orrs	r3, r3, r0
  39 001c CB60     		str	r3, [r1, #12]
  40 001e 7047     		bx	lr
  41              	.L5:
  42              		.align	2
  43              	.L4:
  44 0020 00ED00E0 		.word	-536810240
  45 0024 0000FA05 		.word	100270080
  47              		.section	.text.HAL_NVIC_SetPriority,"ax",%progbits
  48              		.align	1
  49              		.p2align 2,,3
  50              		.global	HAL_NVIC_SetPriority
  51              		.syntax unified
  52              		.thumb
  53              		.thumb_func
  54              		.fpu fpv5-d16
  56              	HAL_NVIC_SetPriority:
  57              		@ args = 0, pretend = 0, frame = 0
  58              		@ frame_needed = 0, uses_anonymous_args = 0
  59              		@ link register save eliminated.
  60 0000 194B     		ldr	r3, .L12
ARM GAS  C:\Users\Brandon\AppData\Local\Temp\ccsFWgdR.s 			page 2


  61 0002 DB68     		ldr	r3, [r3, #12]
  62 0004 C3F30223 		ubfx	r3, r3, #8, #3
  63 0008 30B4     		push	{r4, r5}
  64 000a C3F10705 		rsb	r5, r3, #7
  65 000e 1C1D     		adds	r4, r3, #4
  66 0010 042D     		cmp	r5, #4
  67 0012 28BF     		it	cs
  68 0014 0425     		movcs	r5, #4
  69 0016 062C     		cmp	r4, #6
  70 0018 19D9     		bls	.L10
  71 001a 033B     		subs	r3, r3, #3
  72 001c 4FF0FF34 		mov	r4, #-1
  73 0020 9C40     		lsls	r4, r4, r3
  74 0022 22EA0402 		bic	r2, r2, r4
  75              	.L7:
  76 0026 4FF0FF34 		mov	r4, #-1
  77 002a 0028     		cmp	r0, #0
  78 002c 04FA05F4 		lsl	r4, r4, r5
  79 0030 21EA0401 		bic	r1, r1, r4
  80 0034 01FA03F1 		lsl	r1, r1, r3
  81 0038 41EA0201 		orr	r1, r1, r2
  82 003c 0ADB     		blt	.L8
  83 003e 0901     		lsls	r1, r1, #4
  84 0040 0A4B     		ldr	r3, .L12+4
  85 0042 C9B2     		uxtb	r1, r1
  86 0044 0344     		add	r3, r3, r0
  87 0046 83F80013 		strb	r1, [r3, #768]
  88 004a 30BC     		pop	{r4, r5}
  89 004c 7047     		bx	lr
  90              	.L10:
  91 004e 0022     		movs	r2, #0
  92 0050 1346     		mov	r3, r2
  93 0052 E8E7     		b	.L7
  94              	.L8:
  95 0054 00F00F00 		and	r0, r0, #15
  96 0058 0901     		lsls	r1, r1, #4
  97 005a 054B     		ldr	r3, .L12+8
  98 005c C9B2     		uxtb	r1, r1
  99 005e 0344     		add	r3, r3, r0
 100 0060 1976     		strb	r1, [r3, #24]
 101 0062 30BC     		pop	{r4, r5}
 102 0064 7047     		bx	lr
 103              	.L13:
 104 0066 00BF     		.align	2
 105              	.L12:
 106 0068 00ED00E0 		.word	-536810240
 107 006c 00E100E0 		.word	-536813312
 108 0070 FCEC00E0 		.word	-536810244
 110              		.section	.text.HAL_NVIC_EnableIRQ,"ax",%progbits
 111              		.align	1
 112              		.p2align 2,,3
 113              		.global	HAL_NVIC_EnableIRQ
 114              		.syntax unified
 115              		.thumb
 116              		.thumb_func
 117              		.fpu fpv5-d16
 119              	HAL_NVIC_EnableIRQ:
ARM GAS  C:\Users\Brandon\AppData\Local\Temp\ccsFWgdR.s 			page 3


 120              		@ args = 0, pretend = 0, frame = 0
 121              		@ frame_needed = 0, uses_anonymous_args = 0
 122              		@ link register save eliminated.
 123 0000 0028     		cmp	r0, #0
 124 0002 07DB     		blt	.L14
 125 0004 00F01F01 		and	r1, r0, #31
 126 0008 0123     		movs	r3, #1
 127 000a 4009     		lsrs	r0, r0, #5
 128 000c 024A     		ldr	r2, .L16
 129 000e 8B40     		lsls	r3, r3, r1
 130 0010 42F82030 		str	r3, [r2, r0, lsl #2]
 131              	.L14:
 132 0014 7047     		bx	lr
 133              	.L17:
 134 0016 00BF     		.align	2
 135              	.L16:
 136 0018 00E100E0 		.word	-536813312
 138              		.section	.text.HAL_NVIC_DisableIRQ,"ax",%progbits
 139              		.align	1
 140              		.p2align 2,,3
 141              		.global	HAL_NVIC_DisableIRQ
 142              		.syntax unified
 143              		.thumb
 144              		.thumb_func
 145              		.fpu fpv5-d16
 147              	HAL_NVIC_DisableIRQ:
 148              		@ args = 0, pretend = 0, frame = 0
 149              		@ frame_needed = 0, uses_anonymous_args = 0
 150              		@ link register save eliminated.
 151 0000 0028     		cmp	r0, #0
 152 0002 0DDB     		blt	.L18
 153 0004 4309     		lsrs	r3, r0, #5
 154 0006 0122     		movs	r2, #1
 155 0008 00F01F00 		and	r0, r0, #31
 156 000c 0549     		ldr	r1, .L20
 157 000e 2033     		adds	r3, r3, #32
 158 0010 02FA00F0 		lsl	r0, r2, r0
 159 0014 41F82300 		str	r0, [r1, r3, lsl #2]
 160              		.syntax unified
 161              	@ 879 "Drivers/CMSIS/Include/cmsis_gcc.h" 1
 162 0018 BFF34F8F 		dsb 0xF
 163              	@ 0 "" 2
 164              	@ 868 "Drivers/CMSIS/Include/cmsis_gcc.h" 1
 165 001c BFF36F8F 		isb 0xF
 166              	@ 0 "" 2
 167              		.thumb
 168              		.syntax unified
 169              	.L18:
 170 0020 7047     		bx	lr
 171              	.L21:
 172 0022 00BF     		.align	2
 173              	.L20:
 174 0024 00E100E0 		.word	-536813312
 176              		.section	.text.HAL_NVIC_SystemReset,"ax",%progbits
 177              		.align	1
 178              		.p2align 2,,3
 179              		.global	HAL_NVIC_SystemReset
ARM GAS  C:\Users\Brandon\AppData\Local\Temp\ccsFWgdR.s 			page 4


 180              		.syntax unified
 181              		.thumb
 182              		.thumb_func
 183              		.fpu fpv5-d16
 185              	HAL_NVIC_SystemReset:
 186              		@ Volatile: function does not return.
 187              		@ args = 0, pretend = 0, frame = 0
 188              		@ frame_needed = 0, uses_anonymous_args = 0
 189              		@ link register save eliminated.
 190              		.syntax unified
 191              	@ 879 "Drivers/CMSIS/Include/cmsis_gcc.h" 1
 192 0000 BFF34F8F 		dsb 0xF
 193              	@ 0 "" 2
 194              		.thumb
 195              		.syntax unified
 196 0004 0549     		ldr	r1, .L24
 197 0006 064B     		ldr	r3, .L24+4
 198 0008 CA68     		ldr	r2, [r1, #12]
 199 000a 02F4E062 		and	r2, r2, #1792
 200 000e 1343     		orrs	r3, r3, r2
 201 0010 CB60     		str	r3, [r1, #12]
 202              		.syntax unified
 203              	@ 879 "Drivers/CMSIS/Include/cmsis_gcc.h" 1
 204 0012 BFF34F8F 		dsb 0xF
 205              	@ 0 "" 2
 206              		.thumb
 207              		.syntax unified
 208              	.L23:
 209              		.syntax unified
 210              	@ 2158 "Drivers/CMSIS/Include/core_cm7.h" 1
 211 0016 00BF     		nop
 212              	@ 0 "" 2
 213              		.thumb
 214              		.syntax unified
 215 0018 FDE7     		b	.L23
 216              	.L25:
 217 001a 00BF     		.align	2
 218              	.L24:
 219 001c 00ED00E0 		.word	-536810240
 220 0020 0400FA05 		.word	100270084
 222              		.section	.text.HAL_SYSTICK_Config,"ax",%progbits
 223              		.align	1
 224              		.p2align 2,,3
 225              		.global	HAL_SYSTICK_Config
 226              		.syntax unified
 227              		.thumb
 228              		.thumb_func
 229              		.fpu fpv5-d16
 231              	HAL_SYSTICK_Config:
 232              		@ args = 0, pretend = 0, frame = 0
 233              		@ frame_needed = 0, uses_anonymous_args = 0
 234              		@ link register save eliminated.
 235 0000 0138     		subs	r0, r0, #1
 236 0002 B0F1807F 		cmp	r0, #16777216
 237 0006 0DD2     		bcs	.L28
 238 0008 074B     		ldr	r3, .L33
 239 000a 0022     		movs	r2, #0
ARM GAS  C:\Users\Brandon\AppData\Local\Temp\ccsFWgdR.s 			page 5


 240 000c 0721     		movs	r1, #7
 241 000e 30B4     		push	{r4, r5}
 242 0010 F025     		movs	r5, #240
 243 0012 064C     		ldr	r4, .L33+4
 244 0014 5860     		str	r0, [r3, #4]
 245 0016 1046     		mov	r0, r2
 246 0018 84F82350 		strb	r5, [r4, #35]
 247 001c 9A60     		str	r2, [r3, #8]
 248 001e 1960     		str	r1, [r3]
 249 0020 30BC     		pop	{r4, r5}
 250 0022 7047     		bx	lr
 251              	.L28:
 252 0024 0120     		movs	r0, #1
 253 0026 7047     		bx	lr
 254              	.L34:
 255              		.align	2
 256              	.L33:
 257 0028 10E000E0 		.word	-536813552
 258 002c 00ED00E0 		.word	-536810240
 260              		.section	.text.HAL_MPU_Disable,"ax",%progbits
 261              		.align	1
 262              		.p2align 2,,3
 263              		.global	HAL_MPU_Disable
 264              		.syntax unified
 265              		.thumb
 266              		.thumb_func
 267              		.fpu fpv5-d16
 269              	HAL_MPU_Disable:
 270              		@ args = 0, pretend = 0, frame = 0
 271              		@ frame_needed = 0, uses_anonymous_args = 0
 272              		@ link register save eliminated.
 273              		.syntax unified
 274              	@ 890 "Drivers/CMSIS/Include/cmsis_gcc.h" 1
 275 0000 BFF35F8F 		dmb 0xF
 276              	@ 0 "" 2
 277              		.thumb
 278              		.syntax unified
 279 0004 044A     		ldr	r2, .L36
 280 0006 0020     		movs	r0, #0
 281 0008 0449     		ldr	r1, .L36+4
 282 000a 536A     		ldr	r3, [r2, #36]
 283 000c 23F48033 		bic	r3, r3, #65536
 284 0010 5362     		str	r3, [r2, #36]
 285 0012 4860     		str	r0, [r1, #4]
 286 0014 7047     		bx	lr
 287              	.L37:
 288 0016 00BF     		.align	2
 289              	.L36:
 290 0018 00ED00E0 		.word	-536810240
 291 001c 90ED00E0 		.word	-536810096
 293              		.section	.text.HAL_MPU_Enable,"ax",%progbits
 294              		.align	1
 295              		.p2align 2,,3
 296              		.global	HAL_MPU_Enable
 297              		.syntax unified
 298              		.thumb
 299              		.thumb_func
ARM GAS  C:\Users\Brandon\AppData\Local\Temp\ccsFWgdR.s 			page 6


 300              		.fpu fpv5-d16
 302              	HAL_MPU_Enable:
 303              		@ args = 0, pretend = 0, frame = 0
 304              		@ frame_needed = 0, uses_anonymous_args = 0
 305              		@ link register save eliminated.
 306 0000 064A     		ldr	r2, .L39
 307 0002 40F00100 		orr	r0, r0, #1
 308 0006 064B     		ldr	r3, .L39+4
 309 0008 5860     		str	r0, [r3, #4]
 310 000a 536A     		ldr	r3, [r2, #36]
 311 000c 43F48033 		orr	r3, r3, #65536
 312 0010 5362     		str	r3, [r2, #36]
 313              		.syntax unified
 314              	@ 879 "Drivers/CMSIS/Include/cmsis_gcc.h" 1
 315 0012 BFF34F8F 		dsb 0xF
 316              	@ 0 "" 2
 317              	@ 868 "Drivers/CMSIS/Include/cmsis_gcc.h" 1
 318 0016 BFF36F8F 		isb 0xF
 319              	@ 0 "" 2
 320              		.thumb
 321              		.syntax unified
 322 001a 7047     		bx	lr
 323              	.L40:
 324              		.align	2
 325              	.L39:
 326 001c 00ED00E0 		.word	-536810240
 327 0020 90ED00E0 		.word	-536810096
 329              		.section	.text.HAL_MPU_ConfigRegion,"ax",%progbits
 330              		.align	1
 331              		.p2align 2,,3
 332              		.global	HAL_MPU_ConfigRegion
 333              		.syntax unified
 334              		.thumb
 335              		.thumb_func
 336              		.fpu fpv5-d16
 338              	HAL_MPU_ConfigRegion:
 339              		@ args = 0, pretend = 0, frame = 0
 340              		@ frame_needed = 0, uses_anonymous_args = 0
 341              		@ link register save eliminated.
 342 0000 124A     		ldr	r2, .L48
 343 0002 4378     		ldrb	r3, [r0, #1]	@ zero_extendqisi2
 344 0004 9360     		str	r3, [r2, #8]
 345 0006 0178     		ldrb	r1, [r0]	@ zero_extendqisi2
 346 0008 E9B1     		cbz	r1, .L42
 347 000a 4368     		ldr	r3, [r0, #4]
 348 000c 70B4     		push	{r4, r5, r6}
 349 000e D360     		str	r3, [r2, #12]
 350 0010 C37A     		ldrb	r3, [r0, #11]	@ zero_extendqisi2
 351 0012 047B     		ldrb	r4, [r0, #12]	@ zero_extendqisi2
 352 0014 1B06     		lsls	r3, r3, #24
 353 0016 857A     		ldrb	r5, [r0, #10]	@ zero_extendqisi2
 354 0018 867B     		ldrb	r6, [r0, #14]	@ zero_extendqisi2
 355 001a 43EA0473 		orr	r3, r3, r4, lsl #28
 356 001e 447B     		ldrb	r4, [r0, #13]	@ zero_extendqisi2
 357 0020 0B43     		orrs	r3, r3, r1
 358 0022 017A     		ldrb	r1, [r0, #8]	@ zero_extendqisi2
 359 0024 43EAC543 		orr	r3, r3, r5, lsl #19
ARM GAS  C:\Users\Brandon\AppData\Local\Temp\ccsFWgdR.s 			page 7


 360 0028 C57B     		ldrb	r5, [r0, #15]	@ zero_extendqisi2
 361 002a 43EA8443 		orr	r3, r3, r4, lsl #18
 362 002e 447A     		ldrb	r4, [r0, #9]	@ zero_extendqisi2
 363 0030 43EA4643 		orr	r3, r3, r6, lsl #17
 364 0034 43EA0543 		orr	r3, r3, r5, lsl #16
 365 0038 43EA0423 		orr	r3, r3, r4, lsl #8
 366 003c 43EA4103 		orr	r3, r3, r1, lsl #1
 367 0040 70BC     		pop	{r4, r5, r6}
 368 0042 1361     		str	r3, [r2, #16]
 369 0044 7047     		bx	lr
 370              	.L42:
 371 0046 D160     		str	r1, [r2, #12]
 372 0048 1161     		str	r1, [r2, #16]
 373 004a 7047     		bx	lr
 374              	.L49:
 375              		.align	2
 376              	.L48:
 377 004c 90ED00E0 		.word	-536810096
 379              		.section	.text.HAL_NVIC_GetPriorityGrouping,"ax",%progbits
 380              		.align	1
 381              		.p2align 2,,3
 382              		.global	HAL_NVIC_GetPriorityGrouping
 383              		.syntax unified
 384              		.thumb
 385              		.thumb_func
 386              		.fpu fpv5-d16
 388              	HAL_NVIC_GetPriorityGrouping:
 389              		@ args = 0, pretend = 0, frame = 0
 390              		@ frame_needed = 0, uses_anonymous_args = 0
 391              		@ link register save eliminated.
 392 0000 024B     		ldr	r3, .L51
 393 0002 D868     		ldr	r0, [r3, #12]
 394 0004 C0F30220 		ubfx	r0, r0, #8, #3
 395 0008 7047     		bx	lr
 396              	.L52:
 397 000a 00BF     		.align	2
 398              	.L51:
 399 000c 00ED00E0 		.word	-536810240
 401              		.section	.text.HAL_NVIC_GetPriority,"ax",%progbits
 402              		.align	1
 403              		.p2align 2,,3
 404              		.global	HAL_NVIC_GetPriority
 405              		.syntax unified
 406              		.thumb
 407              		.thumb_func
 408              		.fpu fpv5-d16
 410              	HAL_NVIC_GetPriority:
 411              		@ args = 0, pretend = 0, frame = 0
 412              		@ frame_needed = 0, uses_anonymous_args = 0
 413              		@ link register save eliminated.
 414 0000 0028     		cmp	r0, #0
 415 0002 30B4     		push	{r4, r5}
 416 0004 1EDB     		blt	.L54
 417 0006 124C     		ldr	r4, .L59
 418 0008 205C     		ldrb	r0, [r4, r0]	@ zero_extendqisi2
 419 000a 0009     		lsrs	r0, r0, #4
 420              	.L55:
ARM GAS  C:\Users\Brandon\AppData\Local\Temp\ccsFWgdR.s 			page 8


 421 000c 01F00701 		and	r1, r1, #7
 422 0010 C1F10705 		rsb	r5, r1, #7
 423 0014 0C1D     		adds	r4, r1, #4
 424 0016 042D     		cmp	r5, #4
 425 0018 28BF     		it	cs
 426 001a 0425     		movcs	r5, #4
 427 001c 062C     		cmp	r4, #6
 428 001e 0FD9     		bls	.L57
 429 0020 0339     		subs	r1, r1, #3
 430 0022 4FF0FF34 		mov	r4, #-1
 431 0026 8C40     		lsls	r4, r4, r1
 432 0028 20EA0404 		bic	r4, r0, r4
 433 002c C840     		lsrs	r0, r0, r1
 434              	.L56:
 435 002e 4FF0FF31 		mov	r1, #-1
 436 0032 A940     		lsls	r1, r1, r5
 437 0034 20EA0100 		bic	r0, r0, r1
 438 0038 1060     		str	r0, [r2]
 439 003a 1C60     		str	r4, [r3]
 440 003c 30BC     		pop	{r4, r5}
 441 003e 7047     		bx	lr
 442              	.L57:
 443 0040 0024     		movs	r4, #0
 444 0042 F4E7     		b	.L56
 445              	.L54:
 446 0044 00F00F00 		and	r0, r0, #15
 447 0048 024C     		ldr	r4, .L59+4
 448 004a 205C     		ldrb	r0, [r4, r0]	@ zero_extendqisi2
 449 004c 0009     		lsrs	r0, r0, #4
 450 004e DDE7     		b	.L55
 451              	.L60:
 452              		.align	2
 453              	.L59:
 454 0050 00E400E0 		.word	-536812544
 455 0054 14ED00E0 		.word	-536810220
 457              		.section	.text.HAL_NVIC_SetPendingIRQ,"ax",%progbits
 458              		.align	1
 459              		.p2align 2,,3
 460              		.global	HAL_NVIC_SetPendingIRQ
 461              		.syntax unified
 462              		.thumb
 463              		.thumb_func
 464              		.fpu fpv5-d16
 466              	HAL_NVIC_SetPendingIRQ:
 467              		@ args = 0, pretend = 0, frame = 0
 468              		@ frame_needed = 0, uses_anonymous_args = 0
 469              		@ link register save eliminated.
 470 0000 0028     		cmp	r0, #0
 471 0002 09DB     		blt	.L61
 472 0004 4309     		lsrs	r3, r0, #5
 473 0006 0122     		movs	r2, #1
 474 0008 00F01F00 		and	r0, r0, #31
 475 000c 0349     		ldr	r1, .L63
 476 000e 4033     		adds	r3, r3, #64
 477 0010 02FA00F0 		lsl	r0, r2, r0
 478 0014 41F82300 		str	r0, [r1, r3, lsl #2]
 479              	.L61:
ARM GAS  C:\Users\Brandon\AppData\Local\Temp\ccsFWgdR.s 			page 9


 480 0018 7047     		bx	lr
 481              	.L64:
 482 001a 00BF     		.align	2
 483              	.L63:
 484 001c 00E100E0 		.word	-536813312
 486              		.section	.text.HAL_NVIC_GetPendingIRQ,"ax",%progbits
 487              		.align	1
 488              		.p2align 2,,3
 489              		.global	HAL_NVIC_GetPendingIRQ
 490              		.syntax unified
 491              		.thumb
 492              		.thumb_func
 493              		.fpu fpv5-d16
 495              	HAL_NVIC_GetPendingIRQ:
 496              		@ args = 0, pretend = 0, frame = 0
 497              		@ frame_needed = 0, uses_anonymous_args = 0
 498              		@ link register save eliminated.
 499 0000 0028     		cmp	r0, #0
 500 0002 0BDB     		blt	.L67
 501 0004 4309     		lsrs	r3, r0, #5
 502 0006 064A     		ldr	r2, .L68
 503 0008 00F01F00 		and	r0, r0, #31
 504 000c 4033     		adds	r3, r3, #64
 505 000e 52F82330 		ldr	r3, [r2, r3, lsl #2]
 506 0012 23FA00F0 		lsr	r0, r3, r0
 507 0016 00F00100 		and	r0, r0, #1
 508 001a 7047     		bx	lr
 509              	.L67:
 510 001c 0020     		movs	r0, #0
 511 001e 7047     		bx	lr
 512              	.L69:
 513              		.align	2
 514              	.L68:
 515 0020 00E100E0 		.word	-536813312
 517              		.section	.text.HAL_NVIC_ClearPendingIRQ,"ax",%progbits
 518              		.align	1
 519              		.p2align 2,,3
 520              		.global	HAL_NVIC_ClearPendingIRQ
 521              		.syntax unified
 522              		.thumb
 523              		.thumb_func
 524              		.fpu fpv5-d16
 526              	HAL_NVIC_ClearPendingIRQ:
 527              		@ args = 0, pretend = 0, frame = 0
 528              		@ frame_needed = 0, uses_anonymous_args = 0
 529              		@ link register save eliminated.
 530 0000 0028     		cmp	r0, #0
 531 0002 09DB     		blt	.L70
 532 0004 4309     		lsrs	r3, r0, #5
 533 0006 0122     		movs	r2, #1
 534 0008 00F01F00 		and	r0, r0, #31
 535 000c 0349     		ldr	r1, .L72
 536 000e 6033     		adds	r3, r3, #96
 537 0010 02FA00F0 		lsl	r0, r2, r0
 538 0014 41F82300 		str	r0, [r1, r3, lsl #2]
 539              	.L70:
 540 0018 7047     		bx	lr
ARM GAS  C:\Users\Brandon\AppData\Local\Temp\ccsFWgdR.s 			page 10


 541              	.L73:
 542 001a 00BF     		.align	2
 543              	.L72:
 544 001c 00E100E0 		.word	-536813312
 546              		.section	.text.HAL_NVIC_GetActive,"ax",%progbits
 547              		.align	1
 548              		.p2align 2,,3
 549              		.global	HAL_NVIC_GetActive
 550              		.syntax unified
 551              		.thumb
 552              		.thumb_func
 553              		.fpu fpv5-d16
 555              	HAL_NVIC_GetActive:
 556              		@ args = 0, pretend = 0, frame = 0
 557              		@ frame_needed = 0, uses_anonymous_args = 0
 558              		@ link register save eliminated.
 559 0000 0028     		cmp	r0, #0
 560 0002 0BDB     		blt	.L76
 561 0004 4309     		lsrs	r3, r0, #5
 562 0006 064A     		ldr	r2, .L77
 563 0008 00F01F00 		and	r0, r0, #31
 564 000c 8033     		adds	r3, r3, #128
 565 000e 52F82330 		ldr	r3, [r2, r3, lsl #2]
 566 0012 23FA00F0 		lsr	r0, r3, r0
 567 0016 00F00100 		and	r0, r0, #1
 568 001a 7047     		bx	lr
 569              	.L76:
 570 001c 0020     		movs	r0, #0
 571 001e 7047     		bx	lr
 572              	.L78:
 573              		.align	2
 574              	.L77:
 575 0020 00E100E0 		.word	-536813312
 577              		.section	.text.HAL_SYSTICK_CLKSourceConfig,"ax",%progbits
 578              		.align	1
 579              		.p2align 2,,3
 580              		.global	HAL_SYSTICK_CLKSourceConfig
 581              		.syntax unified
 582              		.thumb
 583              		.thumb_func
 584              		.fpu fpv5-d16
 586              	HAL_SYSTICK_CLKSourceConfig:
 587              		@ args = 0, pretend = 0, frame = 0
 588              		@ frame_needed = 0, uses_anonymous_args = 0
 589              		@ link register save eliminated.
 590 0000 044A     		ldr	r2, .L82
 591 0002 0428     		cmp	r0, #4
 592 0004 1368     		ldr	r3, [r2]
 593 0006 0CBF     		ite	eq
 594 0008 43F00403 		orreq	r3, r3, #4
 595 000c 23F00403 		bicne	r3, r3, #4
 596 0010 1360     		str	r3, [r2]
 597 0012 7047     		bx	lr
 598              	.L83:
 599              		.align	2
 600              	.L82:
 601 0014 10E000E0 		.word	-536813552
ARM GAS  C:\Users\Brandon\AppData\Local\Temp\ccsFWgdR.s 			page 11


 603              		.section	.text.HAL_SYSTICK_Callback,"ax",%progbits
 604              		.align	1
 605              		.p2align 2,,3
 606              		.weak	HAL_SYSTICK_Callback
 607              		.syntax unified
 608              		.thumb
 609              		.thumb_func
 610              		.fpu fpv5-d16
 612              	HAL_SYSTICK_Callback:
 613              		@ args = 0, pretend = 0, frame = 0
 614              		@ frame_needed = 0, uses_anonymous_args = 0
 615              		@ link register save eliminated.
 616 0000 7047     		bx	lr
 618 0002 00BF     		.section	.text.HAL_SYSTICK_IRQHandler,"ax",%progbits
 619              		.align	1
 620              		.p2align 2,,3
 621              		.global	HAL_SYSTICK_IRQHandler
 622              		.syntax unified
 623              		.thumb
 624              		.thumb_func
 625              		.fpu fpv5-d16
 627              	HAL_SYSTICK_IRQHandler:
 628              		@ args = 0, pretend = 0, frame = 0
 629              		@ frame_needed = 0, uses_anonymous_args = 0
 630 0000 08B5     		push	{r3, lr}
 631 0002 FFF7FEFF 		bl	HAL_SYSTICK_Callback
 632 0006 08BD     		pop	{r3, pc}
 634              		.section	.text.HAL_GetCurrentCPUID,"ax",%progbits
 635              		.align	1
 636              		.p2align 2,,3
 637              		.global	HAL_GetCurrentCPUID
 638              		.syntax unified
 639              		.thumb
 640              		.thumb_func
 641              		.fpu fpv5-d16
 643              	HAL_GetCurrentCPUID:
 644              		@ args = 0, pretend = 0, frame = 0
 645              		@ frame_needed = 0, uses_anonymous_args = 0
 646              		@ link register save eliminated.
 647 0000 0320     		movs	r0, #3
 648 0002 7047     		bx	lr
 650              		.ident	"GCC: (GNU Arm Embedded Toolchain 9-2020-q2-update) 9.3.1 20200408 (release)"
ARM GAS  C:\Users\Brandon\AppData\Local\Temp\ccsFWgdR.s 			page 12

