ARM GAS  C:\Users\Brandon\AppData\Local\Temp\ccAwTvRZ.s 			page 1


   1              		.cpu cortex-m7
   2              		.eabi_attribute 28, 1
   3              		.eabi_attribute 20, 1
   4              		.eabi_attribute 21, 1
   5              		.eabi_attribute 23, 3
   6              		.eabi_attribute 24, 1
   7              		.eabi_attribute 25, 1
   8              		.eabi_attribute 26, 1
   9              		.eabi_attribute 30, 2
  10              		.eabi_attribute 34, 1
  11              		.eabi_attribute 18, 4
  12              		.file	"system_stm32h7xx.c"
  13              		.text
  14              		.section	.text.SystemInit,"ax",%progbits
  15              		.align	1
  16              		.p2align 2,,3
  17              		.global	SystemInit
  18              		.arch armv7e-m
  19              		.syntax unified
  20              		.thumb
  21              		.thumb_func
  22              		.fpu fpv5-d16
  24              	SystemInit:
  25              		@ args = 0, pretend = 0, frame = 0
  26              		@ frame_needed = 0, uses_anonymous_args = 0
  27              		@ link register save eliminated.
  28 0000 2349     		ldr	r1, .L9
  29 0002 244A     		ldr	r2, .L9+4
  30 0004 D1F88830 		ldr	r3, [r1, #136]
  31 0008 43F47003 		orr	r3, r3, #15728640
  32 000c 70B4     		push	{r4, r5, r6}
  33 000e C1F88830 		str	r3, [r1, #136]
  34 0012 1368     		ldr	r3, [r2]
  35 0014 03F00F03 		and	r3, r3, #15
  36 0018 062B     		cmp	r3, #6
  37 001a 05D8     		bhi	.L2
  38 001c 1368     		ldr	r3, [r2]
  39 001e 23F00F03 		bic	r3, r3, #15
  40 0022 43F00703 		orr	r3, r3, #7
  41 0026 1360     		str	r3, [r2]
  42              	.L2:
  43 0028 1B4B     		ldr	r3, .L9+8
  44 002a 0024     		movs	r4, #0
  45 002c 1B4A     		ldr	r2, .L9+12
  46 002e 1968     		ldr	r1, [r3]
  47 0030 1848     		ldr	r0, .L9+4
  48 0032 41F00101 		orr	r1, r1, #1
  49 0036 1960     		str	r1, [r3]
  50 0038 1C61     		str	r4, [r3, #16]
  51 003a 1968     		ldr	r1, [r3]
  52 003c 0A40     		ands	r2, r2, r1
  53 003e 1A60     		str	r2, [r3]
  54 0040 0368     		ldr	r3, [r0]
  55 0042 1B07     		lsls	r3, r3, #28
  56 0044 05D5     		bpl	.L3
  57 0046 0368     		ldr	r3, [r0]
  58 0048 23F00F03 		bic	r3, r3, #15
ARM GAS  C:\Users\Brandon\AppData\Local\Temp\ccAwTvRZ.s 			page 2


  59 004c 43F00703 		orr	r3, r3, #7
  60 0050 0360     		str	r3, [r0]
  61              	.L3:
  62 0052 114B     		ldr	r3, .L9+8
  63 0054 0022     		movs	r2, #0
  64 0056 1249     		ldr	r1, .L9+16
  65 0058 43F2D206 		movw	r6, #12498
  66 005c 114D     		ldr	r5, .L9+20
  67 005e 4FF00064 		mov	r4, #134217728
  68 0062 1148     		ldr	r0, .L9+24
  69 0064 9A61     		str	r2, [r3, #24]
  70 0066 DA61     		str	r2, [r3, #28]
  71 0068 1A62     		str	r2, [r3, #32]
  72 006a 9D62     		str	r5, [r3, #40]
  73 006c D862     		str	r0, [r3, #44]
  74 006e 1963     		str	r1, [r3, #48]
  75 0070 5A63     		str	r2, [r3, #52]
  76 0072 9963     		str	r1, [r3, #56]
  77 0074 DA63     		str	r2, [r3, #60]
  78 0076 1964     		str	r1, [r3, #64]
  79 0078 5A64     		str	r2, [r3, #68]
  80 007a 1968     		ldr	r1, [r3]
  81 007c 0B4D     		ldr	r5, .L9+28
  82 007e 21F48021 		bic	r1, r1, #262144
  83 0082 0348     		ldr	r0, .L9
  84 0084 1960     		str	r1, [r3]
  85 0086 1A66     		str	r2, [r3, #96]
  86 0088 2E60     		str	r6, [r5]
  87 008a 8460     		str	r4, [r0, #8]
  88 008c 70BC     		pop	{r4, r5, r6}
  89 008e 7047     		bx	lr
  90              	.L10:
  91              		.align	2
  92              	.L9:
  93 0090 00ED00E0 		.word	-536810240
  94 0094 00200052 		.word	1375739904
  95 0098 00440258 		.word	1476543488
  96 009c 7FEDF6EA 		.word	-352916097
  97 00a0 80020101 		.word	16843392
  98 00a4 00020202 		.word	33686016
  99 00a8 0000FF01 		.word	33488896
 100 00ac 00400052 		.word	1375748096
 102              		.section	.text.SystemCoreClockUpdate,"ax",%progbits
 103              		.align	1
 104              		.p2align 2,,3
 105              		.global	SystemCoreClockUpdate
 106              		.syntax unified
 107              		.thumb
 108              		.thumb_func
 109              		.fpu fpv5-d16
 111              	SystemCoreClockUpdate:
 112              		@ args = 0, pretend = 0, frame = 0
 113              		@ frame_needed = 0, uses_anonymous_args = 0
 114              		@ link register save eliminated.
 115 0000 494A     		ldr	r2, .L27
 116 0002 1369     		ldr	r3, [r2, #16]
 117 0004 03F03803 		and	r3, r3, #56
ARM GAS  C:\Users\Brandon\AppData\Local\Temp\ccAwTvRZ.s 			page 3


 118 0008 102B     		cmp	r3, #16
 119 000a 30B4     		push	{r4, r5}
 120 000c 17D0     		beq	.L18
 121 000e 182B     		cmp	r3, #24
 122 0010 1ED0     		beq	.L13
 123 0012 B3B1     		cbz	r3, .L25
 124 0014 454B     		ldr	r3, .L27+4
 125              	.L12:
 126 0016 444A     		ldr	r2, .L27
 127 0018 4548     		ldr	r0, .L27+8
 128 001a 9169     		ldr	r1, [r2, #24]
 129 001c 9269     		ldr	r2, [r2, #24]
 130 001e C1F30321 		ubfx	r1, r1, #8, #4
 131 0022 444D     		ldr	r5, .L27+12
 132 0024 02F00F02 		and	r2, r2, #15
 133 0028 434C     		ldr	r4, .L27+16
 134 002a 415C     		ldrb	r1, [r0, r1]	@ zero_extendqisi2
 135 002c 825C     		ldrb	r2, [r0, r2]	@ zero_extendqisi2
 136 002e CB40     		lsrs	r3, r3, r1
 137 0030 02F01F02 		and	r2, r2, #31
 138 0034 2B60     		str	r3, [r5]
 139 0036 D340     		lsrs	r3, r3, r2
 140 0038 2360     		str	r3, [r4]
 141 003a 30BC     		pop	{r4, r5}
 142 003c 7047     		bx	lr
 143              	.L18:
 144 003e 3F4B     		ldr	r3, .L27+20
 145 0040 E9E7     		b	.L12
 146              	.L25:
 147 0042 1368     		ldr	r3, [r2]
 148 0044 3E4A     		ldr	r2, .L27+24
 149 0046 C3F3C103 		ubfx	r3, r3, #3, #2
 150 004a 22FA03F3 		lsr	r3, r2, r3
 151 004e E2E7     		b	.L12
 152              	.L13:
 153 0050 906A     		ldr	r0, [r2, #40]
 154 0052 946A     		ldr	r4, [r2, #40]
 155 0054 D16A     		ldr	r1, [r2, #44]
 156 0056 14F47C7F 		tst	r4, #1008
 157 005a C4F30513 		ubfx	r3, r4, #4, #6
 158 005e 556B     		ldr	r5, [r2, #52]
 159 0060 D9D0     		beq	.L12
 160 0062 C5F3CC05 		ubfx	r5, r5, #3, #13
 161 0066 01F00101 		and	r1, r1, #1
 162 006a 00F00300 		and	r0, r0, #3
 163 006e 01FB05F1 		mul	r1, r1, r5
 164 0072 0128     		cmp	r0, #1
 165 0074 07EE901A 		vmov	s15, r1	@ int
 166 0078 F8EEE77A 		vcvt.f32.s32	s15, s15
 167 007c 02D0     		beq	.L16
 168 007e 0228     		cmp	r0, #2
 169 0080 29D0     		beq	.L15
 170 0082 78B3     		cbz	r0, .L26
 171              	.L16:
 172 0084 07EE103A 		vmov	s14, r3	@ int
 173 0088 9FED2E5A 		vldr.32	s10, .L27+28
 174 008c F8EEC76A 		vcvt.f32.s32	s13, s14
ARM GAS  C:\Users\Brandon\AppData\Local\Temp\ccAwTvRZ.s 			page 4


 175              	.L24:
 176 0090 136B     		ldr	r3, [r2, #48]
 177 0092 85EE267A 		vdiv.f32	s14, s10, s13
 178 0096 DFED2C5A 		vldr.32	s11, .L27+32
 179 009a C3F30803 		ubfx	r3, r3, #0, #9
 180 009e 06EE903A 		vmov	s13, r3	@ int
 181 00a2 B7EE006A 		vmov.f32	s12, #1.0e+0
 182 00a6 F8EEE66A 		vcvt.f32.s32	s13, s13
 183 00aa E7EEA56A 		vfma.f32	s13, s15, s11
 184 00ae 76EE867A 		vadd.f32	s15, s13, s12
 185 00b2 27EE277A 		vmul.f32	s14, s14, s15
 186              	.L17:
 187 00b6 1C4B     		ldr	r3, .L27
 188 00b8 1B6B     		ldr	r3, [r3, #48]
 189 00ba C3F34623 		ubfx	r3, r3, #9, #7
 190 00be 0133     		adds	r3, r3, #1
 191 00c0 07EE903A 		vmov	s15, r3	@ int
 192 00c4 F8EEE77A 		vcvt.f32.s32	s15, s15
 193 00c8 C7EE276A 		vdiv.f32	s13, s14, s15
 194 00cc FCEEE67A 		vcvt.u32.f32	s15, s13
 195 00d0 17EE903A 		vmov	r3, s15	@ int
 196 00d4 9FE7     		b	.L12
 197              	.L15:
 198 00d6 07EE103A 		vmov	s14, r3	@ int
 199 00da 9FED1C5A 		vldr.32	s10, .L27+36
 200 00de F8EEC76A 		vcvt.f32.s32	s13, s14
 201 00e2 D5E7     		b	.L24
 202              	.L26:
 203 00e4 1068     		ldr	r0, [r2]
 204 00e6 07EE103A 		vmov	s14, r3	@ int
 205 00ea 1549     		ldr	r1, .L27+24
 206 00ec F7EE005A 		vmov.f32	s11, #1.0e+0
 207 00f0 C0F3C100 		ubfx	r0, r0, #3, #2
 208 00f4 F8EEC74A 		vcvt.f32.s32	s9, s14
 209 00f8 136B     		ldr	r3, [r2, #48]
 210 00fa C140     		lsrs	r1, r1, r0
 211 00fc 9FED125A 		vldr.32	s10, .L27+32
 212 0100 C3F30803 		ubfx	r3, r3, #0, #9
 213 0104 06EE901A 		vmov	s13, r1	@ int
 214 0108 07EE103A 		vmov	s14, r3	@ int
 215 010c F8EEE66A 		vcvt.f32.s32	s13, s13
 216 0110 B8EEC77A 		vcvt.f32.s32	s14, s14
 217 0114 86EEA46A 		vdiv.f32	s12, s13, s9
 218 0118 A7EE857A 		vfma.f32	s14, s15, s10
 219 011c 37EE257A 		vadd.f32	s14, s14, s11
 220 0120 27EE067A 		vmul.f32	s14, s14, s12
 221 0124 C7E7     		b	.L17
 222              	.L28:
 223 0126 00BF     		.align	2
 224              	.L27:
 225 0128 00440258 		.word	1476543488
 226 012c 00093D00 		.word	4000000
 227 0130 00000000 		.word	.LANCHOR0
 228 0134 00000000 		.word	.LANCHOR2
 229 0138 00000000 		.word	.LANCHOR1
 230 013c 002D3101 		.word	20000000
 231 0140 0090D003 		.word	64000000
ARM GAS  C:\Users\Brandon\AppData\Local\Temp\ccAwTvRZ.s 			page 5


 232 0144 0024744A 		.word	1249125376
 233 0148 00000039 		.word	956301312
 234 014c 8096984B 		.word	1268291200
 236              		.global	D1CorePrescTable
 237              		.global	SystemD2Clock
 238              		.global	SystemCoreClock
 239              		.section	.data.SystemCoreClock,"aw"
 240              		.align	2
 241              		.set	.LANCHOR2,. + 0
 244              	SystemCoreClock:
 245 0000 0090D003 		.word	64000000
 246              		.section	.data.SystemD2Clock,"aw"
 247              		.align	2
 248              		.set	.LANCHOR1,. + 0
 251              	SystemD2Clock:
 252 0000 0090D003 		.word	64000000
 253              		.section	.rodata.D1CorePrescTable,"a"
 254              		.align	2
 255              		.set	.LANCHOR0,. + 0
 258              	D1CorePrescTable:
 259 0000 00000000 		.ascii	"\000\000\000\000\001\002\003\004\001\002\003\004\006"
 259      01020304 
 259      01020304 
 259      06
 260 000d 070809   		.ascii	"\007\010\011"
 261              		.ident	"GCC: (GNU Arm Embedded Toolchain 9-2020-q2-update) 9.3.1 20200408 (release)"
ARM GAS  C:\Users\Brandon\AppData\Local\Temp\ccAwTvRZ.s 			page 6


DEFINED SYMBOLS
                            *ABS*:00000000 system_stm32h7xx.c
C:\Users\Brandon\AppData\Local\Temp\ccAwTvRZ.s:15     .text.SystemInit:00000000 $t
C:\Users\Brandon\AppData\Local\Temp\ccAwTvRZ.s:24     .text.SystemInit:00000000 SystemInit
C:\Users\Brandon\AppData\Local\Temp\ccAwTvRZ.s:93     .text.SystemInit:00000090 $d
C:\Users\Brandon\AppData\Local\Temp\ccAwTvRZ.s:103    .text.SystemCoreClockUpdate:00000000 $t
C:\Users\Brandon\AppData\Local\Temp\ccAwTvRZ.s:111    .text.SystemCoreClockUpdate:00000000 SystemCoreClockUpdate
C:\Users\Brandon\AppData\Local\Temp\ccAwTvRZ.s:225    .text.SystemCoreClockUpdate:00000128 $d
C:\Users\Brandon\AppData\Local\Temp\ccAwTvRZ.s:258    .rodata.D1CorePrescTable:00000000 D1CorePrescTable
C:\Users\Brandon\AppData\Local\Temp\ccAwTvRZ.s:251    .data.SystemD2Clock:00000000 SystemD2Clock
C:\Users\Brandon\AppData\Local\Temp\ccAwTvRZ.s:244    .data.SystemCoreClock:00000000 SystemCoreClock
C:\Users\Brandon\AppData\Local\Temp\ccAwTvRZ.s:240    .data.SystemCoreClock:00000000 $d
C:\Users\Brandon\AppData\Local\Temp\ccAwTvRZ.s:247    .data.SystemD2Clock:00000000 $d
C:\Users\Brandon\AppData\Local\Temp\ccAwTvRZ.s:254    .rodata.D1CorePrescTable:00000000 $d

NO UNDEFINED SYMBOLS
